; Listing generated by Microsoft (R) Optimizing Compiler Version 13.10.3077 

	TITLE	.\dpmonitor.cpp
	.386P
include listing.inc
if @Version gt 510
.model FLAT
else
_TEXT	SEGMENT PARA USE32 PUBLIC 'CODE'
_TEXT	ENDS
_DATA	SEGMENT DWORD USE32 PUBLIC 'DATA'
_DATA	ENDS
CONST	SEGMENT DWORD USE32 PUBLIC 'CONST'
CONST	ENDS
_BSS	SEGMENT DWORD USE32 PUBLIC 'BSS'
_BSS	ENDS
$$SYMBOLS	SEGMENT BYTE USE32 'DEBSYM'
$$SYMBOLS	ENDS
$$TYPES	SEGMENT BYTE USE32 'DEBTYP'
$$TYPES	ENDS
_TLS	SEGMENT DWORD USE32 PUBLIC 'TLS'
_TLS	ENDS
;	COMDAT ??_C@_01LFCBOECM@?4?$AA@
CONST	SEGMENT DWORD USE32 PUBLIC 'CONST'
CONST	ENDS
;	COMDAT ??_C@_08GGFKNFHG@?5?5?5?5?5?5?5?5?$AA@
CONST	SEGMENT DWORD USE32 PUBLIC 'CONST'
CONST	ENDS
;	COMDAT ??_C@_08LJOMLNG@type?4wav?$AA@
CONST	SEGMENT DWORD USE32 PUBLIC 'CONST'
CONST	ENDS
;	COMDAT ??_C@_09PKKCPLIP@bad?5alloc?$AA@
CONST	SEGMENT DWORD USE32 PUBLIC 'CONST'
CONST	ENDS
;	COMDAT ??_C@_0BB@MOGOBHAF@list?$DMT?$DO?5too?5long?$AA@
CONST	SEGMENT DWORD USE32 PUBLIC 'CONST'
CONST	ENDS
;	COMDAT ??_C@_0BC@KBDMBKEH@deque?$DMT?$DO?5too?5long?$AA@
CONST	SEGMENT DWORD USE32 PUBLIC 'CONST'
CONST	ENDS
xdata$x	SEGMENT DWORD USE32 PUBLIC 'CONST'
xdata$x	ENDS
;	COMDAT ?GetPacketSize@CBuffer2@@UAEKPAE@Z
_TEXT	SEGMENT PARA USE32 PUBLIC 'CODE'
_TEXT	ENDS
;	COMDAT ?SetHeader@CBuffer2@@UAEXK@Z
_TEXT	SEGMENT PARA USE32 PUBLIC 'CODE'
_TEXT	ENDS
;	COMDAT ??3CBuffer2@@SAXPAX@Z
_TEXT	SEGMENT PARA USE32 PUBLIC 'CODE'
_TEXT	ENDS
;	COMDAT ??_GCBuffer2@@UAEPAXI@Z
_TEXT	SEGMENT PARA USE32 PUBLIC 'CODE'
_TEXT	ENDS
;	COMDAT ??1CBuffer2@@UAE@XZ
_TEXT	SEGMENT PARA USE32 PUBLIC 'CODE'
_TEXT	ENDS
;	COMDAT ?IsEmpty@CBufferQueue@@QAEHXZ
_TEXT	SEGMENT PARA USE32 PUBLIC 'CODE'
_TEXT	ENDS
;	COMDAT ?GetRecvHandle@CDPSock@@QAEPAXXZ
_TEXT	SEGMENT PARA USE32 PUBLIC 'CODE'
_TEXT	ENDS
;	COMDAT ??6CAr@@QAEAAV0@E@Z
_TEXT	SEGMENT PARA USE32 PUBLIC 'CODE'
_TEXT	ENDS
;	COMDAT ??6CAr@@QAEAAV0@G@Z
_TEXT	SEGMENT PARA USE32 PUBLIC 'CODE'
_TEXT	ENDS
;	COMDAT ??6CAr@@QAEAAV0@J@Z
_TEXT	SEGMENT PARA USE32 PUBLIC 'CODE'
_TEXT	ENDS
;	COMDAT ??5CAr@@QAEAAV0@AAH@Z
_TEXT	SEGMENT PARA USE32 PUBLIC 'CODE'
_TEXT	ENDS
;	COMDAT ??5CAr@@QAEAAV0@AAE@Z
_TEXT	SEGMENT PARA USE32 PUBLIC 'CODE'
_TEXT	ENDS
;	COMDAT ??5CAr@@QAEAAV0@AAG@Z
_TEXT	SEGMENT PARA USE32 PUBLIC 'CODE'
_TEXT	ENDS
;	COMDAT ??5CAr@@QAEAAV0@AAK@Z
_TEXT	SEGMENT PARA USE32 PUBLIC 'CODE'
_TEXT	ENDS
;	COMDAT ??5CAr@@QAEAAV0@AAJ@Z
_TEXT	SEGMENT PARA USE32 PUBLIC 'CODE'
_TEXT	ENDS
;	COMDAT ?GetHandler@CDPMonitor@@AAEP81@AEXAAVCAr@@K@ZK@Z
_TEXT	SEGMENT PARA USE32 PUBLIC 'CODE'
_TEXT	ENDS
;	COMDAT ??0CDPMonitor@@QAE@PAVCMonitorDlg@@@Z
_TEXT	SEGMENT PARA USE32 PUBLIC 'CODE'
_TEXT	ENDS
;	COMDAT ??_GCDPMonitor@@UAEPAXI@Z
_TEXT	SEGMENT PARA USE32 PUBLIC 'CODE'
_TEXT	ENDS
;	COMDAT ??1CDPMonitor@@UAE@XZ
_TEXT	SEGMENT PARA USE32 PUBLIC 'CODE'
_TEXT	ENDS
;	COMDAT ?SysMessageHandler@CDPMonitor@@UAEXPAUDPMSG_GENERIC@@KK@Z
_TEXT	SEGMENT PARA USE32 PUBLIC 'CODE'
_TEXT	ENDS
;	COMDAT ?UserMessageHandler@CDPMonitor@@UAEXPAUDPMSG_GENERIC@@KK@Z
_TEXT	SEGMENT PARA USE32 PUBLIC 'CODE'
_TEXT	ENDS
;	COMDAT ?OnAddConnection@CDPMonitor@@AAEXAAVCAr@@K@Z
_TEXT	SEGMENT PARA USE32 PUBLIC 'CODE'
_TEXT	ENDS
;	COMDAT ?OnRemoveConnection@CDPMonitor@@AAEXK@Z
_TEXT	SEGMENT PARA USE32 PUBLIC 'CODE'
_TEXT	ENDS
;	COMDAT ?OnPing@CDPMonitor@@AAEXAAVCAr@@K@Z
_TEXT	SEGMENT PARA USE32 PUBLIC 'CODE'
_TEXT	ENDS
;	COMDAT ??Y?$CStringT@DV?$StrTraitMFC@DV?$ChTraitsCRT@D@ATL@@@@@ATL@@QAEAAV01@PBD@Z
_TEXT	SEGMENT PARA USE32 PUBLIC 'CODE'
_TEXT	ENDS
;	COMDAT ?Alloc@?$MemPooler@VCBuffer@@@@QAEPAVCBuffer@@XZ
_TEXT	SEGMENT PARA USE32 PUBLIC 'CODE'
_TEXT	ENDS
;	COMDAT ?Free@?$MemPooler@VCBuffer@@@@QAEHPAVCBuffer@@@Z
_TEXT	SEGMENT PARA USE32 PUBLIC 'CODE'
_TEXT	ENDS
;	COMDAT ?Alloc@?$MemPooler@VCBuffer2@@@@QAEPAVCBuffer2@@XZ
_TEXT	SEGMENT PARA USE32 PUBLIC 'CODE'
_TEXT	ENDS
;	COMDAT ?Free@?$MemPooler@VCBuffer2@@@@QAEHPAVCBuffer2@@@Z
_TEXT	SEGMENT PARA USE32 PUBLIC 'CODE'
_TEXT	ENDS
;	COMDAT ?Alloc@?$MemPooler@VCClientSock@@@@QAEPAVCClientSock@@XZ
_TEXT	SEGMENT PARA USE32 PUBLIC 'CODE'
_TEXT	ENDS
;	COMDAT ?Free@?$MemPooler@VCClientSock@@@@QAEHPAVCClientSock@@@Z
_TEXT	SEGMENT PARA USE32 PUBLIC 'CODE'
_TEXT	ENDS
;	COMDAT ?Alloc@?$MemPooler@VCClientSockE@@@@QAEPAVCClientSockE@@XZ
_TEXT	SEGMENT PARA USE32 PUBLIC 'CODE'
_TEXT	ENDS
;	COMDAT ?Free@?$MemPooler@VCClientSockE@@@@QAEHPAVCClientSockE@@@Z
_TEXT	SEGMENT PARA USE32 PUBLIC 'CODE'
_TEXT	ENDS
;	COMDAT ??Y?$CSimpleStringT@D$0A@@ATL@@QAEAAV01@PBD@Z
_TEXT	SEGMENT PARA USE32 PUBLIC 'CODE'
_TEXT	ENDS
;	COMDAT ?Create@?$MemPooler@VCBuffer@@@@IAEXXZ
_TEXT	SEGMENT PARA USE32 PUBLIC 'CODE'
_TEXT	ENDS
;	COMDAT ?Create@?$MemPooler@VCBuffer2@@@@IAEXXZ
_TEXT	SEGMENT PARA USE32 PUBLIC 'CODE'
_TEXT	ENDS
;	COMDAT ?Create@?$MemPooler@VCClientSock@@@@IAEXXZ
_TEXT	SEGMENT PARA USE32 PUBLIC 'CODE'
_TEXT	ENDS
;	COMDAT ?Create@?$MemPooler@VCClientSockE@@@@IAEXXZ
_TEXT	SEGMENT PARA USE32 PUBLIC 'CODE'
_TEXT	ENDS
;	COMDAT ?Append@?$CSimpleStringT@D$0A@@ATL@@QAEXPBD@Z
_TEXT	SEGMENT PARA USE32 PUBLIC 'CODE'
_TEXT	ENDS
;	COMDAT ?push_back@?$list@PAXV?$allocator@PAX@std@@@std@@QAEXABQAX@Z
_TEXT	SEGMENT PARA USE32 PUBLIC 'CODE'
_TEXT	ENDS
;	COMDAT ?Append@?$CSimpleStringT@D$0A@@ATL@@QAEXPBDH@Z
_TEXT	SEGMENT PARA USE32 PUBLIC 'CODE'
_TEXT	ENDS
;	COMDAT ?end@?$list@PAXV?$allocator@PAX@std@@@std@@QAE?AViterator@12@XZ
_TEXT	SEGMENT PARA USE32 PUBLIC 'CODE'
_TEXT	ENDS
;	COMDAT ?_Insert@?$list@PAXV?$allocator@PAX@std@@@std@@QAEXViterator@12@ABQAX@Z
_TEXT	SEGMENT PARA USE32 PUBLIC 'CODE'
_TEXT	ENDS
;	COMDAT ?_Nextnode@?$list@PAXV?$allocator@PAX@std@@@std@@KAAAPAU_Node@?$_List_nod@PAXV?$allocator@PAX@std@@@2@PAU342@@Z
_TEXT	SEGMENT PARA USE32 PUBLIC 'CODE'
_TEXT	ENDS
;	COMDAT ?_Prevnode@?$list@PAXV?$allocator@PAX@std@@@std@@KAAAPAU_Node@?$_List_nod@PAXV?$allocator@PAX@std@@@2@PAU342@@Z
_TEXT	SEGMENT PARA USE32 PUBLIC 'CODE'
_TEXT	ENDS
;	COMDAT ?_Buynode@?$list@PAXV?$allocator@PAX@std@@@std@@IAEPAU_Node@?$_List_nod@PAXV?$allocator@PAX@std@@@2@PAU342@0ABQAX@Z
_TEXT	SEGMENT PARA USE32 PUBLIC 'CODE'
_TEXT	ENDS
;	COMDAT ?_Incsize@?$list@PAXV?$allocator@PAX@std@@@std@@IAEXI@Z
_TEXT	SEGMENT PARA USE32 PUBLIC 'CODE'
_TEXT	ENDS
;	COMDAT ??0iterator@?$list@PAXV?$allocator@PAX@std@@@std@@QAE@PAU_Node@?$_List_nod@PAXV?$allocator@PAX@std@@@2@@Z
_TEXT	SEGMENT PARA USE32 PUBLIC 'CODE'
_TEXT	ENDS
;	COMDAT ?_Mynode@const_iterator@?$list@PAXV?$allocator@PAX@std@@@std@@QBEPAU_Node@?$_List_nod@PAXV?$allocator@PAX@std@@@3@XZ
_TEXT	SEGMENT PARA USE32 PUBLIC 'CODE'
_TEXT	ENDS
;	COMDAT ??0length_error@std@@QAE@ABV01@@Z
_TEXT	SEGMENT PARA USE32 PUBLIC 'CODE'
_TEXT	ENDS
;	COMDAT ??0logic_error@std@@QAE@ABV01@@Z
_TEXT	SEGMENT PARA USE32 PUBLIC 'CODE'
_TEXT	ENDS
;	COMDAT ??0?$basic_string@DU?$char_traits@D@std@@V?$allocator@D@2@@std@@QAE@PBD@Z
_TEXT	SEGMENT PARA USE32 PUBLIC 'CODE'
_TEXT	ENDS
;	COMDAT ?max_size@?$list@PAXV?$allocator@PAX@std@@@std@@QBEIXZ
_TEXT	SEGMENT PARA USE32 PUBLIC 'CODE'
_TEXT	ENDS
;	COMDAT ?deallocate@?$allocator@U_Node@?$_List_nod@PAXV?$allocator@PAX@std@@@std@@@std@@QAEXPAU_Node@?$_List_nod@PAXV?$allocator@PAX@std@@@2@I@Z
_TEXT	SEGMENT PARA USE32 PUBLIC 'CODE'
_TEXT	ENDS
;	COMDAT ?allocate@?$allocator@U_Node@?$_List_nod@PAXV?$allocator@PAX@std@@@std@@@std@@QAEPAU_Node@?$_List_nod@PAXV?$allocator@PAX@std@@@2@I@Z
_TEXT	SEGMENT PARA USE32 PUBLIC 'CODE'
_TEXT	ENDS
;	COMDAT ??0const_iterator@?$list@PAXV?$allocator@PAX@std@@@std@@QAE@PAU_Node@?$_List_nod@PAXV?$allocator@PAX@std@@@2@@Z
_TEXT	SEGMENT PARA USE32 PUBLIC 'CODE'
_TEXT	ENDS
;	COMDAT ??0_Node@?$_List_nod@PAXV?$allocator@PAX@std@@@std@@QAE@PAU012@0ABQAX@Z
_TEXT	SEGMENT PARA USE32 PUBLIC 'CODE'
_TEXT	ENDS
;	COMDAT ??0?$allocator@D@std@@QAE@XZ
_TEXT	SEGMENT PARA USE32 PUBLIC 'CODE'
_TEXT	ENDS
;	COMDAT ?max_size@?$allocator@PAX@std@@QBEIXZ
_TEXT	SEGMENT PARA USE32 PUBLIC 'CODE'
_TEXT	ENDS
;	COMDAT ??1?$CMyPool@V?$CMyBucket@PAVCClientSock@@@@@@UAE@XZ
_TEXT	SEGMENT PARA USE32 PUBLIC 'CODE'
_TEXT	ENDS
;	COMDAT ??1?$CMyMap@PAVCClientSock@@@@UAE@XZ
_TEXT	SEGMENT PARA USE32 PUBLIC 'CODE'
_TEXT	ENDS
;	COMDAT ?Lookup@?$CMyMap@PAVCClientSock@@@@QAEHKAAPAVCClientSock@@@Z
_TEXT	SEGMENT PARA USE32 PUBLIC 'CODE'
_TEXT	ENDS
;	COMDAT ??1?$CMyPool@V?$CMyBucket@PAVCClientSockE@@@@@@UAE@XZ
_TEXT	SEGMENT PARA USE32 PUBLIC 'CODE'
_TEXT	ENDS
;	COMDAT ??1?$CMyMap@PAVCClientSockE@@@@UAE@XZ
_TEXT	SEGMENT PARA USE32 PUBLIC 'CODE'
_TEXT	ENDS
;	COMDAT ?Lookup@?$CMyMap@PAVCClientSockE@@@@QAEHKAAPAVCClientSockE@@@Z
_TEXT	SEGMENT PARA USE32 PUBLIC 'CODE'
_TEXT	ENDS
;	COMDAT ??1?$CMyPool@V?$CMyBucket@P8CDPConsoleSrvr@@AEXAAVCAr@@K@Z@@@@UAE@XZ
_TEXT	SEGMENT PARA USE32 PUBLIC 'CODE'
_TEXT	ENDS
;	COMDAT ??1?$CMyMap@P8CDPConsoleSrvr@@AEXAAVCAr@@K@Z@@UAE@XZ
_TEXT	SEGMENT PARA USE32 PUBLIC 'CODE'
_TEXT	ENDS
;	COMDAT ?Lookup@?$CMyMap@P8CDPConsoleSrvr@@AEXAAVCAr@@K@Z@@QAEHKAAP8CDPConsoleSrvr@@AEXAAVCAr@@K@Z@Z
_TEXT	SEGMENT PARA USE32 PUBLIC 'CODE'
_TEXT	ENDS
;	COMDAT ??1?$CMyPool@V?$CMyBucket@P8CDPMonitor@@AEXAAVCAr@@K@Z@@@@UAE@XZ
_TEXT	SEGMENT PARA USE32 PUBLIC 'CODE'
_TEXT	ENDS
;	COMDAT ??0?$CMyMap@P8CDPMonitor@@AEXAAVCAr@@K@Z@@QAE@XZ
_TEXT	SEGMENT PARA USE32 PUBLIC 'CODE'
_TEXT	ENDS
;	COMDAT ??1?$CMyMap@P8CDPMonitor@@AEXAAVCAr@@K@Z@@UAE@XZ
_TEXT	SEGMENT PARA USE32 PUBLIC 'CODE'
_TEXT	ENDS
;	COMDAT ?SetSize@?$CMyMap@P8CDPMonitor@@AEXAAVCAr@@K@Z@@QAEXIII@Z
_TEXT	SEGMENT PARA USE32 PUBLIC 'CODE'
_TEXT	ENDS
;	COMDAT ?Lookup@?$CMyMap@P8CDPMonitor@@AEXAAVCAr@@K@Z@@QAEHKAAP8CDPMonitor@@AEXAAVCAr@@K@Z@Z
_TEXT	SEGMENT PARA USE32 PUBLIC 'CODE'
_TEXT	ENDS
;	COMDAT ?SetAt@?$CMyMap@P8CDPMonitor@@AEXAAVCAr@@K@Z@@QAEXKABQ8CDPMonitor@@AEXAAVCAr@@K@Z@Z
_TEXT	SEGMENT PARA USE32 PUBLIC 'CODE'
_TEXT	ENDS
;	COMDAT ??$_Allocate@U_Node@?$_List_nod@PAXV?$allocator@PAX@std@@@std@@@std@@YAPAU_Node@?$_List_nod@PAXV?$allocator@PAX@std@@@0@IPAU120@@Z
_TEXT	SEGMENT PARA USE32 PUBLIC 'CODE'
_TEXT	ENDS
;	COMDAT ??_G?$CMyPool@V?$CMyBucket@PAVCClientSock@@@@@@UAEPAXI@Z
_TEXT	SEGMENT PARA USE32 PUBLIC 'CODE'
_TEXT	ENDS
;	COMDAT ??1?$stack@PAV?$CMyBucket@PAVCClientSock@@@@V?$deque@PAV?$CMyBucket@PAVCClientSock@@@@V?$allocator@PAV?$CMyBucket@PAVCClientSock@@@@@std@@@std@@@std@@QAE@XZ
_TEXT	SEGMENT PARA USE32 PUBLIC 'CODE'
_TEXT	ENDS
;	COMDAT ??_G?$CMyMap@PAVCClientSock@@@@UAEPAXI@Z
_TEXT	SEGMENT PARA USE32 PUBLIC 'CODE'
_TEXT	ENDS
;	COMDAT ??_G?$CMyPool@V?$CMyBucket@PAVCClientSockE@@@@@@UAEPAXI@Z
_TEXT	SEGMENT PARA USE32 PUBLIC 'CODE'
_TEXT	ENDS
;	COMDAT ??1?$stack@PAV?$CMyBucket@PAVCClientSockE@@@@V?$deque@PAV?$CMyBucket@PAVCClientSockE@@@@V?$allocator@PAV?$CMyBucket@PAVCClientSockE@@@@@std@@@std@@@std@@QAE@XZ
_TEXT	SEGMENT PARA USE32 PUBLIC 'CODE'
_TEXT	ENDS
;	COMDAT ??_G?$CMyMap@PAVCClientSockE@@@@UAEPAXI@Z
_TEXT	SEGMENT PARA USE32 PUBLIC 'CODE'
_TEXT	ENDS
;	COMDAT ??_G?$CMyPool@V?$CMyBucket@P8CDPConsoleSrvr@@AEXAAVCAr@@K@Z@@@@UAEPAXI@Z
_TEXT	SEGMENT PARA USE32 PUBLIC 'CODE'
_TEXT	ENDS
;	COMDAT ??1?$stack@PAV?$CMyBucket@P8CDPConsoleSrvr@@AEXAAVCAr@@K@Z@@V?$deque@PAV?$CMyBucket@P8CDPConsoleSrvr@@AEXAAVCAr@@K@Z@@V?$allocator@PAV?$CMyBucket@P8CDPConsoleSrvr@@AEXAAVCAr@@K@Z@@@std@@@std@@@std@@QAE@XZ
_TEXT	SEGMENT PARA USE32 PUBLIC 'CODE'
_TEXT	ENDS
;	COMDAT ??_G?$CMyMap@P8CDPConsoleSrvr@@AEXAAVCAr@@K@Z@@UAEPAXI@Z
_TEXT	SEGMENT PARA USE32 PUBLIC 'CODE'
_TEXT	ENDS
;	COMDAT ??_G?$CMyPool@V?$CMyBucket@P8CDPMonitor@@AEXAAVCAr@@K@Z@@@@UAEPAXI@Z
_TEXT	SEGMENT PARA USE32 PUBLIC 'CODE'
_TEXT	ENDS
;	COMDAT ??1?$stack@PAV?$CMyBucket@P8CDPMonitor@@AEXAAVCAr@@K@Z@@V?$deque@PAV?$CMyBucket@P8CDPMonitor@@AEXAAVCAr@@K@Z@@V?$allocator@PAV?$CMyBucket@P8CDPMonitor@@AEXAAVCAr@@K@Z@@@std@@@std@@@std@@QAE@XZ
_TEXT	SEGMENT PARA USE32 PUBLIC 'CODE'
_TEXT	ENDS
;	COMDAT ??_G?$CMyMap@P8CDPMonitor@@AEXAAVCAr@@K@Z@@UAEPAXI@Z
_TEXT	SEGMENT PARA USE32 PUBLIC 'CODE'
_TEXT	ENDS
;	COMDAT ??_E?$CMyBucket@P8CDPMonitor@@AEXAAVCAr@@K@Z@@UAEPAXI@Z
_TEXT	SEGMENT PARA USE32 PUBLIC 'CODE'
_TEXT	ENDS
;	COMDAT ??1?$deque@PAV?$CMyBucket@PAVCClientSock@@@@V?$allocator@PAV?$CMyBucket@PAVCClientSock@@@@@std@@@std@@QAE@XZ
_TEXT	SEGMENT PARA USE32 PUBLIC 'CODE'
_TEXT	ENDS
;	COMDAT ??1?$list@PAV?$CMyBucket@PAVCClientSock@@@@V?$allocator@PAV?$CMyBucket@PAVCClientSock@@@@@std@@@std@@QAE@XZ
_TEXT	SEGMENT PARA USE32 PUBLIC 'CODE'
_TEXT	ENDS
;	COMDAT ??1?$deque@PAV?$CMyBucket@PAVCClientSockE@@@@V?$allocator@PAV?$CMyBucket@PAVCClientSockE@@@@@std@@@std@@QAE@XZ
_TEXT	SEGMENT PARA USE32 PUBLIC 'CODE'
_TEXT	ENDS
;	COMDAT ??1?$list@PAV?$CMyBucket@PAVCClientSockE@@@@V?$allocator@PAV?$CMyBucket@PAVCClientSockE@@@@@std@@@std@@QAE@XZ
_TEXT	SEGMENT PARA USE32 PUBLIC 'CODE'
_TEXT	ENDS
;	COMDAT ??1?$deque@PAV?$CMyBucket@P8CDPConsoleSrvr@@AEXAAVCAr@@K@Z@@V?$allocator@PAV?$CMyBucket@P8CDPConsoleSrvr@@AEXAAVCAr@@K@Z@@@std@@@std@@QAE@XZ
_TEXT	SEGMENT PARA USE32 PUBLIC 'CODE'
_TEXT	ENDS
;	COMDAT ??1?$list@PAV?$CMyBucket@P8CDPConsoleSrvr@@AEXAAVCAr@@K@Z@@V?$allocator@PAV?$CMyBucket@P8CDPConsoleSrvr@@AEXAAVCAr@@K@Z@@@std@@@std@@QAE@XZ
_TEXT	SEGMENT PARA USE32 PUBLIC 'CODE'
_TEXT	ENDS
;	COMDAT ??1?$deque@PAV?$CMyBucket@P8CDPMonitor@@AEXAAVCAr@@K@Z@@V?$allocator@PAV?$CMyBucket@P8CDPMonitor@@AEXAAVCAr@@K@Z@@@std@@@std@@QAE@XZ
_TEXT	SEGMENT PARA USE32 PUBLIC 'CODE'
_TEXT	ENDS
;	COMDAT ??1?$list@PAV?$CMyBucket@P8CDPMonitor@@AEXAAVCAr@@K@Z@@V?$allocator@PAV?$CMyBucket@P8CDPMonitor@@AEXAAVCAr@@K@Z@@@std@@@std@@QAE@XZ
_TEXT	SEGMENT PARA USE32 PUBLIC 'CODE'
_TEXT	ENDS
;	COMDAT ?_Tidy@?$deque@PAV?$CMyBucket@PAVCClientSock@@@@V?$allocator@PAV?$CMyBucket@PAVCClientSock@@@@@std@@@std@@IAEXXZ
_TEXT	SEGMENT PARA USE32 PUBLIC 'CODE'
_TEXT	ENDS
;	COMDAT ?_Tidy@?$list@PAV?$CMyBucket@PAVCClientSock@@@@V?$allocator@PAV?$CMyBucket@PAVCClientSock@@@@@std@@@std@@IAEXXZ
_TEXT	SEGMENT PARA USE32 PUBLIC 'CODE'
_TEXT	ENDS
;	COMDAT ?_Tidy@?$deque@PAV?$CMyBucket@PAVCClientSockE@@@@V?$allocator@PAV?$CMyBucket@PAVCClientSockE@@@@@std@@@std@@IAEXXZ
_TEXT	SEGMENT PARA USE32 PUBLIC 'CODE'
_TEXT	ENDS
;	COMDAT ?_Tidy@?$list@PAV?$CMyBucket@PAVCClientSockE@@@@V?$allocator@PAV?$CMyBucket@PAVCClientSockE@@@@@std@@@std@@IAEXXZ
_TEXT	SEGMENT PARA USE32 PUBLIC 'CODE'
_TEXT	ENDS
;	COMDAT ?_Tidy@?$deque@PAV?$CMyBucket@P8CDPConsoleSrvr@@AEXAAVCAr@@K@Z@@V?$allocator@PAV?$CMyBucket@P8CDPConsoleSrvr@@AEXAAVCAr@@K@Z@@@std@@@std@@IAEXXZ
_TEXT	SEGMENT PARA USE32 PUBLIC 'CODE'
_TEXT	ENDS
;	COMDAT ?_Tidy@?$list@PAV?$CMyBucket@P8CDPConsoleSrvr@@AEXAAVCAr@@K@Z@@V?$allocator@PAV?$CMyBucket@P8CDPConsoleSrvr@@AEXAAVCAr@@K@Z@@@std@@@std@@IAEXXZ
_TEXT	SEGMENT PARA USE32 PUBLIC 'CODE'
_TEXT	ENDS
;	COMDAT ?_Tidy@?$deque@PAV?$CMyBucket@P8CDPMonitor@@AEXAAVCAr@@K@Z@@V?$allocator@PAV?$CMyBucket@P8CDPMonitor@@AEXAAVCAr@@K@Z@@@std@@@std@@IAEXXZ
_TEXT	SEGMENT PARA USE32 PUBLIC 'CODE'
_TEXT	ENDS
;	COMDAT ?_Tidy@?$list@PAV?$CMyBucket@P8CDPMonitor@@AEXAAVCAr@@K@Z@@V?$allocator@PAV?$CMyBucket@P8CDPMonitor@@AEXAAVCAr@@K@Z@@@std@@@std@@IAEXXZ
_TEXT	SEGMENT PARA USE32 PUBLIC 'CODE'
_TEXT	ENDS
;	COMDAT ?empty@?$deque@PAV?$CMyBucket@PAVCClientSock@@@@V?$allocator@PAV?$CMyBucket@PAVCClientSock@@@@@std@@@std@@QBE_NXZ
_TEXT	SEGMENT PARA USE32 PUBLIC 'CODE'
_TEXT	ENDS
;	COMDAT ?pop_back@?$deque@PAV?$CMyBucket@PAVCClientSock@@@@V?$allocator@PAV?$CMyBucket@PAVCClientSock@@@@@std@@@std@@QAEXXZ
_TEXT	SEGMENT PARA USE32 PUBLIC 'CODE'
_TEXT	ENDS
;	COMDAT ?deallocate@?$allocator@PAV?$CMyBucket@PAVCClientSock@@@@@std@@QAEXPAPAV?$CMyBucket@PAVCClientSock@@@@I@Z
_TEXT	SEGMENT PARA USE32 PUBLIC 'CODE'
_TEXT	ENDS
;	COMDAT ?deallocate@?$allocator@PAPAV?$CMyBucket@PAVCClientSock@@@@@std@@QAEXPAPAPAV?$CMyBucket@PAVCClientSock@@@@I@Z
_TEXT	SEGMENT PARA USE32 PUBLIC 'CODE'
_TEXT	ENDS
;	COMDAT ?destroy@?$allocator@PAPAV?$CMyBucket@PAVCClientSock@@@@@std@@QAEXPAPAPAV?$CMyBucket@PAVCClientSock@@@@@Z
_TEXT	SEGMENT PARA USE32 PUBLIC 'CODE'
_TEXT	ENDS
;	COMDAT ?_Nextnode@?$list@PAV?$CMyBucket@PAVCClientSock@@@@V?$allocator@PAV?$CMyBucket@PAVCClientSock@@@@@std@@@std@@KAAAPAU_Node@?$_List_nod@PAV?$CMyBucket@PAVCClientSock@@@@V?$allocator@PAV?$CMyBucket@PAVCClientSock@@@@@std@@@2@PAU342@@Z
_TEXT	SEGMENT PARA USE32 PUBLIC 'CODE'
_TEXT	ENDS
;	COMDAT ?_Prevnode@?$list@PAV?$CMyBucket@PAVCClientSock@@@@V?$allocator@PAV?$CMyBucket@PAVCClientSock@@@@@std@@@std@@KAAAPAU_Node@?$_List_nod@PAV?$CMyBucket@PAVCClientSock@@@@V?$allocator@PAV?$CMyBucket@PAVCClientSock@@@@@std@@@2@PAU342@@Z
_TEXT	SEGMENT PARA USE32 PUBLIC 'CODE'
_TEXT	ENDS
;	COMDAT ?clear@?$list@PAV?$CMyBucket@PAVCClientSock@@@@V?$allocator@PAV?$CMyBucket@PAVCClientSock@@@@@std@@@std@@QAEXXZ
_TEXT	SEGMENT PARA USE32 PUBLIC 'CODE'
_TEXT	ENDS
;	COMDAT ?deallocate@?$allocator@U_Node@?$_List_nod@PAV?$CMyBucket@PAVCClientSock@@@@V?$allocator@PAV?$CMyBucket@PAVCClientSock@@@@@std@@@std@@@std@@QAEXPAU_Node@?$_List_nod@PAV?$CMyBucket@PAVCClientSock@@@@V?$allocator@PAV?$CMyBucket@PAVCClientSock@@@@@std@@@2@I@Z
_TEXT	SEGMENT PARA USE32 PUBLIC 'CODE'
_TEXT	ENDS
;	COMDAT ?destroy@?$allocator@PAU_Node@?$_List_nod@PAV?$CMyBucket@PAVCClientSock@@@@V?$allocator@PAV?$CMyBucket@PAVCClientSock@@@@@std@@@std@@@std@@QAEXPAPAU_Node@?$_List_nod@PAV?$CMyBucket@PAVCClientSock@@@@V?$allocator@PAV?$CMyBucket@PAVCClientSock@@@@@std@@@2@@Z
_TEXT	SEGMENT PARA USE32 PUBLIC 'CODE'
_TEXT	ENDS
;	COMDAT ?empty@?$deque@PAV?$CMyBucket@PAVCClientSockE@@@@V?$allocator@PAV?$CMyBucket@PAVCClientSockE@@@@@std@@@std@@QBE_NXZ
_TEXT	SEGMENT PARA USE32 PUBLIC 'CODE'
_TEXT	ENDS
;	COMDAT ?pop_back@?$deque@PAV?$CMyBucket@PAVCClientSockE@@@@V?$allocator@PAV?$CMyBucket@PAVCClientSockE@@@@@std@@@std@@QAEXXZ
_TEXT	SEGMENT PARA USE32 PUBLIC 'CODE'
_TEXT	ENDS
;	COMDAT ?deallocate@?$allocator@PAV?$CMyBucket@PAVCClientSockE@@@@@std@@QAEXPAPAV?$CMyBucket@PAVCClientSockE@@@@I@Z
_TEXT	SEGMENT PARA USE32 PUBLIC 'CODE'
_TEXT	ENDS
;	COMDAT ?deallocate@?$allocator@PAPAV?$CMyBucket@PAVCClientSockE@@@@@std@@QAEXPAPAPAV?$CMyBucket@PAVCClientSockE@@@@I@Z
_TEXT	SEGMENT PARA USE32 PUBLIC 'CODE'
_TEXT	ENDS
;	COMDAT ?destroy@?$allocator@PAPAV?$CMyBucket@PAVCClientSockE@@@@@std@@QAEXPAPAPAV?$CMyBucket@PAVCClientSockE@@@@@Z
_TEXT	SEGMENT PARA USE32 PUBLIC 'CODE'
_TEXT	ENDS
;	COMDAT ?_Nextnode@?$list@PAV?$CMyBucket@PAVCClientSockE@@@@V?$allocator@PAV?$CMyBucket@PAVCClientSockE@@@@@std@@@std@@KAAAPAU_Node@?$_List_nod@PAV?$CMyBucket@PAVCClientSockE@@@@V?$allocator@PAV?$CMyBucket@PAVCClientSockE@@@@@std@@@2@PAU342@@Z
_TEXT	SEGMENT PARA USE32 PUBLIC 'CODE'
_TEXT	ENDS
;	COMDAT ?_Prevnode@?$list@PAV?$CMyBucket@PAVCClientSockE@@@@V?$allocator@PAV?$CMyBucket@PAVCClientSockE@@@@@std@@@std@@KAAAPAU_Node@?$_List_nod@PAV?$CMyBucket@PAVCClientSockE@@@@V?$allocator@PAV?$CMyBucket@PAVCClientSockE@@@@@std@@@2@PAU342@@Z
_TEXT	SEGMENT PARA USE32 PUBLIC 'CODE'
_TEXT	ENDS
;	COMDAT ?clear@?$list@PAV?$CMyBucket@PAVCClientSockE@@@@V?$allocator@PAV?$CMyBucket@PAVCClientSockE@@@@@std@@@std@@QAEXXZ
_TEXT	SEGMENT PARA USE32 PUBLIC 'CODE'
_TEXT	ENDS
;	COMDAT ?deallocate@?$allocator@U_Node@?$_List_nod@PAV?$CMyBucket@PAVCClientSockE@@@@V?$allocator@PAV?$CMyBucket@PAVCClientSockE@@@@@std@@@std@@@std@@QAEXPAU_Node@?$_List_nod@PAV?$CMyBucket@PAVCClientSockE@@@@V?$allocator@PAV?$CMyBucket@PAVCClientSockE@@@@@std@@@2@I@Z
_TEXT	SEGMENT PARA USE32 PUBLIC 'CODE'
_TEXT	ENDS
;	COMDAT ?destroy@?$allocator@PAU_Node@?$_List_nod@PAV?$CMyBucket@PAVCClientSockE@@@@V?$allocator@PAV?$CMyBucket@PAVCClientSockE@@@@@std@@@std@@@std@@QAEXPAPAU_Node@?$_List_nod@PAV?$CMyBucket@PAVCClientSockE@@@@V?$allocator@PAV?$CMyBucket@PAVCClientSockE@@@@@std@@@2@@Z
_TEXT	SEGMENT PARA USE32 PUBLIC 'CODE'
_TEXT	ENDS
;	COMDAT ?empty@?$deque@PAV?$CMyBucket@P8CDPConsoleSrvr@@AEXAAVCAr@@K@Z@@V?$allocator@PAV?$CMyBucket@P8CDPConsoleSrvr@@AEXAAVCAr@@K@Z@@@std@@@std@@QBE_NXZ
_TEXT	SEGMENT PARA USE32 PUBLIC 'CODE'
_TEXT	ENDS
;	COMDAT ?pop_back@?$deque@PAV?$CMyBucket@P8CDPConsoleSrvr@@AEXAAVCAr@@K@Z@@V?$allocator@PAV?$CMyBucket@P8CDPConsoleSrvr@@AEXAAVCAr@@K@Z@@@std@@@std@@QAEXXZ
_TEXT	SEGMENT PARA USE32 PUBLIC 'CODE'
_TEXT	ENDS
;	COMDAT ?deallocate@?$allocator@PAV?$CMyBucket@P8CDPConsoleSrvr@@AEXAAVCAr@@K@Z@@@std@@QAEXPAPAV?$CMyBucket@P8CDPConsoleSrvr@@AEXAAVCAr@@K@Z@@I@Z
_TEXT	SEGMENT PARA USE32 PUBLIC 'CODE'
_TEXT	ENDS
;	COMDAT ?deallocate@?$allocator@PAPAV?$CMyBucket@P8CDPConsoleSrvr@@AEXAAVCAr@@K@Z@@@std@@QAEXPAPAPAV?$CMyBucket@P8CDPConsoleSrvr@@AEXAAVCAr@@K@Z@@I@Z
_TEXT	SEGMENT PARA USE32 PUBLIC 'CODE'
_TEXT	ENDS
;	COMDAT ?destroy@?$allocator@PAPAV?$CMyBucket@P8CDPConsoleSrvr@@AEXAAVCAr@@K@Z@@@std@@QAEXPAPAPAV?$CMyBucket@P8CDPConsoleSrvr@@AEXAAVCAr@@K@Z@@@Z
_TEXT	SEGMENT PARA USE32 PUBLIC 'CODE'
_TEXT	ENDS
;	COMDAT ?_Nextnode@?$list@PAV?$CMyBucket@P8CDPConsoleSrvr@@AEXAAVCAr@@K@Z@@V?$allocator@PAV?$CMyBucket@P8CDPConsoleSrvr@@AEXAAVCAr@@K@Z@@@std@@@std@@KAAAPAU_Node@?$_List_nod@PAV?$CMyBucket@P8CDPConsoleSrvr@@AEXAAVCAr@@K@Z@@V?$allocator@PAV?$CMyBucket@P8CDPConsoleSrvr@@AEXAAVCAr@@K@Z@@@std@@@2@PAU342@@Z
_TEXT	SEGMENT PARA USE32 PUBLIC 'CODE'
_TEXT	ENDS
;	COMDAT ?_Prevnode@?$list@PAV?$CMyBucket@P8CDPConsoleSrvr@@AEXAAVCAr@@K@Z@@V?$allocator@PAV?$CMyBucket@P8CDPConsoleSrvr@@AEXAAVCAr@@K@Z@@@std@@@std@@KAAAPAU_Node@?$_List_nod@PAV?$CMyBucket@P8CDPConsoleSrvr@@AEXAAVCAr@@K@Z@@V?$allocator@PAV?$CMyBucket@P8CDPConsoleSrvr@@AEXAAVCAr@@K@Z@@@std@@@2@PAU342@@Z
_TEXT	SEGMENT PARA USE32 PUBLIC 'CODE'
_TEXT	ENDS
;	COMDAT ?clear@?$list@PAV?$CMyBucket@P8CDPConsoleSrvr@@AEXAAVCAr@@K@Z@@V?$allocator@PAV?$CMyBucket@P8CDPConsoleSrvr@@AEXAAVCAr@@K@Z@@@std@@@std@@QAEXXZ
_TEXT	SEGMENT PARA USE32 PUBLIC 'CODE'
_TEXT	ENDS
;	COMDAT ?deallocate@?$allocator@U_Node@?$_List_nod@PAV?$CMyBucket@P8CDPConsoleSrvr@@AEXAAVCAr@@K@Z@@V?$allocator@PAV?$CMyBucket@P8CDPConsoleSrvr@@AEXAAVCAr@@K@Z@@@std@@@std@@@std@@QAEXPAU_Node@?$_List_nod@PAV?$CMyBucket@P8CDPConsoleSrvr@@AEXAAVCAr@@K@Z@@V?$allocator@PAV?$CMyBucket@P8CDPConsoleSrvr@@AEXAAVCAr@@K@Z@@@std@@@2@I@Z
_TEXT	SEGMENT PARA USE32 PUBLIC 'CODE'
_TEXT	ENDS
;	COMDAT ?destroy@?$allocator@PAU_Node@?$_List_nod@PAV?$CMyBucket@P8CDPConsoleSrvr@@AEXAAVCAr@@K@Z@@V?$allocator@PAV?$CMyBucket@P8CDPConsoleSrvr@@AEXAAVCAr@@K@Z@@@std@@@std@@@std@@QAEXPAPAU_Node@?$_List_nod@PAV?$CMyBucket@P8CDPConsoleSrvr@@AEXAAVCAr@@K@Z@@V?$allocator@PAV?$CMyBucket@P8CDPConsoleSrvr@@AEXAAVCAr@@K@Z@@@std@@@2@@Z
_TEXT	SEGMENT PARA USE32 PUBLIC 'CODE'
_TEXT	ENDS
;	COMDAT ?empty@?$deque@PAV?$CMyBucket@P8CDPMonitor@@AEXAAVCAr@@K@Z@@V?$allocator@PAV?$CMyBucket@P8CDPMonitor@@AEXAAVCAr@@K@Z@@@std@@@std@@QBE_NXZ
_TEXT	SEGMENT PARA USE32 PUBLIC 'CODE'
_TEXT	ENDS
;	COMDAT ?pop_back@?$deque@PAV?$CMyBucket@P8CDPMonitor@@AEXAAVCAr@@K@Z@@V?$allocator@PAV?$CMyBucket@P8CDPMonitor@@AEXAAVCAr@@K@Z@@@std@@@std@@QAEXXZ
_TEXT	SEGMENT PARA USE32 PUBLIC 'CODE'
_TEXT	ENDS
;	COMDAT ?deallocate@?$allocator@PAV?$CMyBucket@P8CDPMonitor@@AEXAAVCAr@@K@Z@@@std@@QAEXPAPAV?$CMyBucket@P8CDPMonitor@@AEXAAVCAr@@K@Z@@I@Z
_TEXT	SEGMENT PARA USE32 PUBLIC 'CODE'
_TEXT	ENDS
;	COMDAT ?deallocate@?$allocator@PAPAV?$CMyBucket@P8CDPMonitor@@AEXAAVCAr@@K@Z@@@std@@QAEXPAPAPAV?$CMyBucket@P8CDPMonitor@@AEXAAVCAr@@K@Z@@I@Z
_TEXT	SEGMENT PARA USE32 PUBLIC 'CODE'
_TEXT	ENDS
;	COMDAT ?destroy@?$allocator@PAPAV?$CMyBucket@P8CDPMonitor@@AEXAAVCAr@@K@Z@@@std@@QAEXPAPAPAV?$CMyBucket@P8CDPMonitor@@AEXAAVCAr@@K@Z@@@Z
_TEXT	SEGMENT PARA USE32 PUBLIC 'CODE'
_TEXT	ENDS
;	COMDAT ?_Nextnode@?$list@PAV?$CMyBucket@P8CDPMonitor@@AEXAAVCAr@@K@Z@@V?$allocator@PAV?$CMyBucket@P8CDPMonitor@@AEXAAVCAr@@K@Z@@@std@@@std@@KAAAPAU_Node@?$_List_nod@PAV?$CMyBucket@P8CDPMonitor@@AEXAAVCAr@@K@Z@@V?$allocator@PAV?$CMyBucket@P8CDPMonitor@@AEXAAVCAr@@K@Z@@@std@@@2@PAU342@@Z
_TEXT	SEGMENT PARA USE32 PUBLIC 'CODE'
_TEXT	ENDS
;	COMDAT ?_Prevnode@?$list@PAV?$CMyBucket@P8CDPMonitor@@AEXAAVCAr@@K@Z@@V?$allocator@PAV?$CMyBucket@P8CDPMonitor@@AEXAAVCAr@@K@Z@@@std@@@std@@KAAAPAU_Node@?$_List_nod@PAV?$CMyBucket@P8CDPMonitor@@AEXAAVCAr@@K@Z@@V?$allocator@PAV?$CMyBucket@P8CDPMonitor@@AEXAAVCAr@@K@Z@@@std@@@2@PAU342@@Z
_TEXT	SEGMENT PARA USE32 PUBLIC 'CODE'
_TEXT	ENDS
;	COMDAT ?clear@?$list@PAV?$CMyBucket@P8CDPMonitor@@AEXAAVCAr@@K@Z@@V?$allocator@PAV?$CMyBucket@P8CDPMonitor@@AEXAAVCAr@@K@Z@@@std@@@std@@QAEXXZ
_TEXT	SEGMENT PARA USE32 PUBLIC 'CODE'
_TEXT	ENDS
;	COMDAT ?deallocate@?$allocator@U_Node@?$_List_nod@PAV?$CMyBucket@P8CDPMonitor@@AEXAAVCAr@@K@Z@@V?$allocator@PAV?$CMyBucket@P8CDPMonitor@@AEXAAVCAr@@K@Z@@@std@@@std@@@std@@QAEXPAU_Node@?$_List_nod@PAV?$CMyBucket@P8CDPMonitor@@AEXAAVCAr@@K@Z@@V?$allocator@PAV?$CMyBucket@P8CDPMonitor@@AEXAAVCAr@@K@Z@@@std@@@2@I@Z
_TEXT	SEGMENT PARA USE32 PUBLIC 'CODE'
_TEXT	ENDS
;	COMDAT ?destroy@?$allocator@PAU_Node@?$_List_nod@PAV?$CMyBucket@P8CDPMonitor@@AEXAAVCAr@@K@Z@@V?$allocator@PAV?$CMyBucket@P8CDPMonitor@@AEXAAVCAr@@K@Z@@@std@@@std@@@std@@QAEXPAPAU_Node@?$_List_nod@PAV?$CMyBucket@P8CDPMonitor@@AEXAAVCAr@@K@Z@@V?$allocator@PAV?$CMyBucket@P8CDPMonitor@@AEXAAVCAr@@K@Z@@@std@@@2@@Z
_TEXT	SEGMENT PARA USE32 PUBLIC 'CODE'
_TEXT	ENDS
;	COMDAT ?destroy@?$allocator@PAV?$CMyBucket@PAVCClientSock@@@@@std@@QAEXPAPAV?$CMyBucket@PAVCClientSock@@@@@Z
_TEXT	SEGMENT PARA USE32 PUBLIC 'CODE'
_TEXT	ENDS
;	COMDAT ?destroy@?$allocator@U_Node@?$_List_nod@PAV?$CMyBucket@PAVCClientSock@@@@V?$allocator@PAV?$CMyBucket@PAVCClientSock@@@@@std@@@std@@@std@@QAEXPAU_Node@?$_List_nod@PAV?$CMyBucket@PAVCClientSock@@@@V?$allocator@PAV?$CMyBucket@PAVCClientSock@@@@@std@@@2@@Z
_TEXT	SEGMENT PARA USE32 PUBLIC 'CODE'
_TEXT	ENDS
;	COMDAT ?destroy@?$allocator@PAV?$CMyBucket@PAVCClientSockE@@@@@std@@QAEXPAPAV?$CMyBucket@PAVCClientSockE@@@@@Z
_TEXT	SEGMENT PARA USE32 PUBLIC 'CODE'
_TEXT	ENDS
;	COMDAT ?destroy@?$allocator@U_Node@?$_List_nod@PAV?$CMyBucket@PAVCClientSockE@@@@V?$allocator@PAV?$CMyBucket@PAVCClientSockE@@@@@std@@@std@@@std@@QAEXPAU_Node@?$_List_nod@PAV?$CMyBucket@PAVCClientSockE@@@@V?$allocator@PAV?$CMyBucket@PAVCClientSockE@@@@@std@@@2@@Z
_TEXT	SEGMENT PARA USE32 PUBLIC 'CODE'
_TEXT	ENDS
;	COMDAT ?destroy@?$allocator@PAV?$CMyBucket@P8CDPConsoleSrvr@@AEXAAVCAr@@K@Z@@@std@@QAEXPAPAV?$CMyBucket@P8CDPConsoleSrvr@@AEXAAVCAr@@K@Z@@@Z
_TEXT	SEGMENT PARA USE32 PUBLIC 'CODE'
_TEXT	ENDS
;	COMDAT ?destroy@?$allocator@U_Node@?$_List_nod@PAV?$CMyBucket@P8CDPConsoleSrvr@@AEXAAVCAr@@K@Z@@V?$allocator@PAV?$CMyBucket@P8CDPConsoleSrvr@@AEXAAVCAr@@K@Z@@@std@@@std@@@std@@QAEXPAU_Node@?$_List_nod@PAV?$CMyBucket@P8CDPConsoleSrvr@@AEXAAVCAr@@K@Z@@V?$allocator@PAV?$CMyBucket@P8CDPConsoleSrvr@@AEXAAVCAr@@K@Z@@@std@@@2@@Z
_TEXT	SEGMENT PARA USE32 PUBLIC 'CODE'
_TEXT	ENDS
;	COMDAT ?destroy@?$allocator@PAV?$CMyBucket@P8CDPMonitor@@AEXAAVCAr@@K@Z@@@std@@QAEXPAPAV?$CMyBucket@P8CDPMonitor@@AEXAAVCAr@@K@Z@@@Z
_TEXT	SEGMENT PARA USE32 PUBLIC 'CODE'
_TEXT	ENDS
;	COMDAT ?destroy@?$allocator@U_Node@?$_List_nod@PAV?$CMyBucket@P8CDPMonitor@@AEXAAVCAr@@K@Z@@V?$allocator@PAV?$CMyBucket@P8CDPMonitor@@AEXAAVCAr@@K@Z@@@std@@@std@@@std@@QAEXPAU_Node@?$_List_nod@PAV?$CMyBucket@P8CDPMonitor@@AEXAAVCAr@@K@Z@@V?$allocator@PAV?$CMyBucket@P8CDPMonitor@@AEXAAVCAr@@K@Z@@@std@@@2@@Z
_TEXT	SEGMENT PARA USE32 PUBLIC 'CODE'
_TEXT	ENDS
;	COMDAT ?Clear@?$CMyPool@V?$CMyBucket@PAVCClientSock@@@@@@QAEXXZ
_TEXT	SEGMENT PARA USE32 PUBLIC 'CODE'
_TEXT	ENDS
;	COMDAT ??1?$CMyBucket@PAVCClientSock@@@@UAE@XZ
_TEXT	SEGMENT PARA USE32 PUBLIC 'CODE'
_TEXT	ENDS
;	COMDAT ?IsEqual@?$CMyBucket@PAVCClientSock@@@@QAEHK@Z
_TEXT	SEGMENT PARA USE32 PUBLIC 'CODE'
_TEXT	ENDS
;	COMDAT ?Clear@?$CMyPool@V?$CMyBucket@PAVCClientSockE@@@@@@QAEXXZ
_TEXT	SEGMENT PARA USE32 PUBLIC 'CODE'
_TEXT	ENDS
;	COMDAT ??1?$CMyBucket@PAVCClientSockE@@@@UAE@XZ
_TEXT	SEGMENT PARA USE32 PUBLIC 'CODE'
_TEXT	ENDS
;	COMDAT ?IsEqual@?$CMyBucket@PAVCClientSockE@@@@QAEHK@Z
_TEXT	SEGMENT PARA USE32 PUBLIC 'CODE'
_TEXT	ENDS
;	COMDAT ?Clear@?$CMyPool@V?$CMyBucket@P8CDPConsoleSrvr@@AEXAAVCAr@@K@Z@@@@QAEXXZ
_TEXT	SEGMENT PARA USE32 PUBLIC 'CODE'
_TEXT	ENDS
;	COMDAT ??1?$CMyBucket@P8CDPConsoleSrvr@@AEXAAVCAr@@K@Z@@UAE@XZ
_TEXT	SEGMENT PARA USE32 PUBLIC 'CODE'
_TEXT	ENDS
;	COMDAT ?IsEqual@?$CMyBucket@P8CDPConsoleSrvr@@AEXAAVCAr@@K@Z@@QAEHK@Z
_TEXT	SEGMENT PARA USE32 PUBLIC 'CODE'
_TEXT	ENDS
;	COMDAT ??0?$CMyPool@V?$CMyBucket@P8CDPMonitor@@AEXAAVCAr@@K@Z@@@@QAE@XZ
_TEXT	SEGMENT PARA USE32 PUBLIC 'CODE'
_TEXT	ENDS
;	COMDAT ?Clear@?$CMyPool@V?$CMyBucket@P8CDPMonitor@@AEXAAVCAr@@K@Z@@@@QAEXXZ
_TEXT	SEGMENT PARA USE32 PUBLIC 'CODE'
_TEXT	ENDS
;	COMDAT ?SetSize@?$CMyPool@V?$CMyBucket@P8CDPMonitor@@AEXAAVCAr@@K@Z@@@@QAEXII@Z
_TEXT	SEGMENT PARA USE32 PUBLIC 'CODE'
_TEXT	ENDS
;	COMDAT ?Pop@?$CMyPool@V?$CMyBucket@P8CDPMonitor@@AEXAAVCAr@@K@Z@@@@QAEPAV?$CMyBucket@P8CDPMonitor@@AEXAAVCAr@@K@Z@@XZ
_TEXT	SEGMENT PARA USE32 PUBLIC 'CODE'
_TEXT	ENDS
;	COMDAT ?AddItToActiveList@?$CMyMap@P8CDPMonitor@@AEXAAVCAr@@K@Z@@QAEXPAV?$CMyBucket@P8CDPMonitor@@AEXAAVCAr@@K@Z@@@Z
_TEXT	SEGMENT PARA USE32 PUBLIC 'CODE'
_TEXT	ENDS
;	COMDAT ??0?$CMyBucket@P8CDPMonitor@@AEXAAVCAr@@K@Z@@QAE@XZ
_TEXT	SEGMENT PARA USE32 PUBLIC 'CODE'
_TEXT	ENDS
;	COMDAT ??1?$CMyBucket@P8CDPMonitor@@AEXAAVCAr@@K@Z@@UAE@XZ
_TEXT	SEGMENT PARA USE32 PUBLIC 'CODE'
_TEXT	ENDS
;	COMDAT ?IsEqual@?$CMyBucket@P8CDPMonitor@@AEXAAVCAr@@K@Z@@QAEHK@Z
_TEXT	SEGMENT PARA USE32 PUBLIC 'CODE'
_TEXT	ENDS
;	COMDAT ?IsEmpty@?$CMyBucket@P8CDPMonitor@@AEXAAVCAr@@K@Z@@QAEHXZ
_TEXT	SEGMENT PARA USE32 PUBLIC 'CODE'
_TEXT	ENDS
;	COMDAT ??$_Destroy@PAPAV?$CMyBucket@PAVCClientSock@@@@@std@@YAXPAPAPAV?$CMyBucket@PAVCClientSock@@@@@Z
_TEXT	SEGMENT PARA USE32 PUBLIC 'CODE'
_TEXT	ENDS
;	COMDAT ??$_Destroy@PAU_Node@?$_List_nod@PAV?$CMyBucket@PAVCClientSock@@@@V?$allocator@PAV?$CMyBucket@PAVCClientSock@@@@@std@@@std@@@std@@YAXPAPAU_Node@?$_List_nod@PAV?$CMyBucket@PAVCClientSock@@@@V?$allocator@PAV?$CMyBucket@PAVCClientSock@@@@@std@@@0@@Z
_TEXT	SEGMENT PARA USE32 PUBLIC 'CODE'
_TEXT	ENDS
;	COMDAT ??$_Destroy@PAPAV?$CMyBucket@PAVCClientSockE@@@@@std@@YAXPAPAPAV?$CMyBucket@PAVCClientSockE@@@@@Z
_TEXT	SEGMENT PARA USE32 PUBLIC 'CODE'
_TEXT	ENDS
;	COMDAT ??$_Destroy@PAU_Node@?$_List_nod@PAV?$CMyBucket@PAVCClientSockE@@@@V?$allocator@PAV?$CMyBucket@PAVCClientSockE@@@@@std@@@std@@@std@@YAXPAPAU_Node@?$_List_nod@PAV?$CMyBucket@PAVCClientSockE@@@@V?$allocator@PAV?$CMyBucket@PAVCClientSockE@@@@@std@@@0@@Z
_TEXT	SEGMENT PARA USE32 PUBLIC 'CODE'
_TEXT	ENDS
;	COMDAT ??$_Destroy@PAPAV?$CMyBucket@P8CDPConsoleSrvr@@AEXAAVCAr@@K@Z@@@std@@YAXPAPAPAV?$CMyBucket@P8CDPConsoleSrvr@@AEXAAVCAr@@K@Z@@@Z
_TEXT	SEGMENT PARA USE32 PUBLIC 'CODE'
_TEXT	ENDS
;	COMDAT ??$_Destroy@PAU_Node@?$_List_nod@PAV?$CMyBucket@P8CDPConsoleSrvr@@AEXAAVCAr@@K@Z@@V?$allocator@PAV?$CMyBucket@P8CDPConsoleSrvr@@AEXAAVCAr@@K@Z@@@std@@@std@@@std@@YAXPAPAU_Node@?$_List_nod@PAV?$CMyBucket@P8CDPConsoleSrvr@@AEXAAVCAr@@K@Z@@V?$allocator@PAV?$CMyBucket@P8CDPConsoleSrvr@@AEXAAVCAr@@K@Z@@@std@@@0@@Z
_TEXT	SEGMENT PARA USE32 PUBLIC 'CODE'
_TEXT	ENDS
;	COMDAT ??$_Destroy@PAPAV?$CMyBucket@P8CDPMonitor@@AEXAAVCAr@@K@Z@@@std@@YAXPAPAPAV?$CMyBucket@P8CDPMonitor@@AEXAAVCAr@@K@Z@@@Z
_TEXT	SEGMENT PARA USE32 PUBLIC 'CODE'
_TEXT	ENDS
;	COMDAT ??$_Destroy@PAU_Node@?$_List_nod@PAV?$CMyBucket@P8CDPMonitor@@AEXAAVCAr@@K@Z@@V?$allocator@PAV?$CMyBucket@P8CDPMonitor@@AEXAAVCAr@@K@Z@@@std@@@std@@@std@@YAXPAPAU_Node@?$_List_nod@PAV?$CMyBucket@P8CDPMonitor@@AEXAAVCAr@@K@Z@@V?$allocator@PAV?$CMyBucket@P8CDPMonitor@@AEXAAVCAr@@K@Z@@@std@@@0@@Z
_TEXT	SEGMENT PARA USE32 PUBLIC 'CODE'
_TEXT	ENDS
;	COMDAT ??$_Destroy@PAV?$CMyBucket@PAVCClientSock@@@@@std@@YAXPAPAV?$CMyBucket@PAVCClientSock@@@@@Z
_TEXT	SEGMENT PARA USE32 PUBLIC 'CODE'
_TEXT	ENDS
;	COMDAT ??$_Destroy@U_Node@?$_List_nod@PAV?$CMyBucket@PAVCClientSock@@@@V?$allocator@PAV?$CMyBucket@PAVCClientSock@@@@@std@@@std@@@std@@YAXPAU_Node@?$_List_nod@PAV?$CMyBucket@PAVCClientSock@@@@V?$allocator@PAV?$CMyBucket@PAVCClientSock@@@@@std@@@0@@Z
_TEXT	SEGMENT PARA USE32 PUBLIC 'CODE'
_TEXT	ENDS
;	COMDAT ??$_Destroy@PAV?$CMyBucket@PAVCClientSockE@@@@@std@@YAXPAPAV?$CMyBucket@PAVCClientSockE@@@@@Z
_TEXT	SEGMENT PARA USE32 PUBLIC 'CODE'
_TEXT	ENDS
;	COMDAT ??$_Destroy@U_Node@?$_List_nod@PAV?$CMyBucket@PAVCClientSockE@@@@V?$allocator@PAV?$CMyBucket@PAVCClientSockE@@@@@std@@@std@@@std@@YAXPAU_Node@?$_List_nod@PAV?$CMyBucket@PAVCClientSockE@@@@V?$allocator@PAV?$CMyBucket@PAVCClientSockE@@@@@std@@@0@@Z
_TEXT	SEGMENT PARA USE32 PUBLIC 'CODE'
_TEXT	ENDS
;	COMDAT ??$_Destroy@PAV?$CMyBucket@P8CDPConsoleSrvr@@AEXAAVCAr@@K@Z@@@std@@YAXPAPAV?$CMyBucket@P8CDPConsoleSrvr@@AEXAAVCAr@@K@Z@@@Z
_TEXT	SEGMENT PARA USE32 PUBLIC 'CODE'
_TEXT	ENDS
;	COMDAT ??$_Destroy@U_Node@?$_List_nod@PAV?$CMyBucket@P8CDPConsoleSrvr@@AEXAAVCAr@@K@Z@@V?$allocator@PAV?$CMyBucket@P8CDPConsoleSrvr@@AEXAAVCAr@@K@Z@@@std@@@std@@@std@@YAXPAU_Node@?$_List_nod@PAV?$CMyBucket@P8CDPConsoleSrvr@@AEXAAVCAr@@K@Z@@V?$allocator@PAV?$CMyBucket@P8CDPConsoleSrvr@@AEXAAVCAr@@K@Z@@@std@@@0@@Z
_TEXT	SEGMENT PARA USE32 PUBLIC 'CODE'
_TEXT	ENDS
;	COMDAT ??$_Destroy@PAV?$CMyBucket@P8CDPMonitor@@AEXAAVCAr@@K@Z@@@std@@YAXPAPAV?$CMyBucket@P8CDPMonitor@@AEXAAVCAr@@K@Z@@@Z
_TEXT	SEGMENT PARA USE32 PUBLIC 'CODE'
_TEXT	ENDS
;	COMDAT ??$_Destroy@U_Node@?$_List_nod@PAV?$CMyBucket@P8CDPMonitor@@AEXAAVCAr@@K@Z@@V?$allocator@PAV?$CMyBucket@P8CDPMonitor@@AEXAAVCAr@@K@Z@@@std@@@std@@@std@@YAXPAU_Node@?$_List_nod@PAV?$CMyBucket@P8CDPMonitor@@AEXAAVCAr@@K@Z@@V?$allocator@PAV?$CMyBucket@P8CDPMonitor@@AEXAAVCAr@@K@Z@@@std@@@0@@Z
_TEXT	SEGMENT PARA USE32 PUBLIC 'CODE'
_TEXT	ENDS
;	COMDAT ??_G?$CMyBucket@PAVCClientSock@@@@UAEPAXI@Z
_TEXT	SEGMENT PARA USE32 PUBLIC 'CODE'
_TEXT	ENDS
;	COMDAT ??_G?$CMyBucket@PAVCClientSockE@@@@UAEPAXI@Z
_TEXT	SEGMENT PARA USE32 PUBLIC 'CODE'
_TEXT	ENDS
;	COMDAT ??_G?$CMyBucket@P8CDPConsoleSrvr@@AEXAAVCAr@@K@Z@@UAEPAXI@Z
_TEXT	SEGMENT PARA USE32 PUBLIC 'CODE'
_TEXT	ENDS
;	COMDAT ??_G?$CMyBucket@P8CDPMonitor@@AEXAAVCAr@@K@Z@@UAEPAXI@Z
_TEXT	SEGMENT PARA USE32 PUBLIC 'CODE'
_TEXT	ENDS
;	COMDAT ?empty@?$stack@PAV?$CMyBucket@PAVCClientSock@@@@V?$deque@PAV?$CMyBucket@PAVCClientSock@@@@V?$allocator@PAV?$CMyBucket@PAVCClientSock@@@@@std@@@std@@@std@@QBE_NXZ
_TEXT	SEGMENT PARA USE32 PUBLIC 'CODE'
_TEXT	ENDS
;	COMDAT ?pop@?$stack@PAV?$CMyBucket@PAVCClientSock@@@@V?$deque@PAV?$CMyBucket@PAVCClientSock@@@@V?$allocator@PAV?$CMyBucket@PAVCClientSock@@@@@std@@@std@@@std@@QAEXXZ
_TEXT	SEGMENT PARA USE32 PUBLIC 'CODE'
_TEXT	ENDS
;	COMDAT ?begin@?$list@PAV?$CMyBucket@PAVCClientSock@@@@V?$allocator@PAV?$CMyBucket@PAVCClientSock@@@@@std@@@std@@QAE?AViterator@12@XZ
_TEXT	SEGMENT PARA USE32 PUBLIC 'CODE'
_TEXT	ENDS
;	COMDAT ?end@?$list@PAV?$CMyBucket@PAVCClientSock@@@@V?$allocator@PAV?$CMyBucket@PAVCClientSock@@@@@std@@@std@@QAE?AViterator@12@XZ
_TEXT	SEGMENT PARA USE32 PUBLIC 'CODE'
_TEXT	ENDS
;	COMDAT ?empty@?$stack@PAV?$CMyBucket@PAVCClientSockE@@@@V?$deque@PAV?$CMyBucket@PAVCClientSockE@@@@V?$allocator@PAV?$CMyBucket@PAVCClientSockE@@@@@std@@@std@@@std@@QBE_NXZ
_TEXT	SEGMENT PARA USE32 PUBLIC 'CODE'
_TEXT	ENDS
;	COMDAT ?pop@?$stack@PAV?$CMyBucket@PAVCClientSockE@@@@V?$deque@PAV?$CMyBucket@PAVCClientSockE@@@@V?$allocator@PAV?$CMyBucket@PAVCClientSockE@@@@@std@@@std@@@std@@QAEXXZ
_TEXT	SEGMENT PARA USE32 PUBLIC 'CODE'
_TEXT	ENDS
;	COMDAT ?begin@?$list@PAV?$CMyBucket@PAVCClientSockE@@@@V?$allocator@PAV?$CMyBucket@PAVCClientSockE@@@@@std@@@std@@QAE?AViterator@12@XZ
_TEXT	SEGMENT PARA USE32 PUBLIC 'CODE'
_TEXT	ENDS
;	COMDAT ?end@?$list@PAV?$CMyBucket@PAVCClientSockE@@@@V?$allocator@PAV?$CMyBucket@PAVCClientSockE@@@@@std@@@std@@QAE?AViterator@12@XZ
_TEXT	SEGMENT PARA USE32 PUBLIC 'CODE'
_TEXT	ENDS
;	COMDAT ?empty@?$stack@PAV?$CMyBucket@P8CDPConsoleSrvr@@AEXAAVCAr@@K@Z@@V?$deque@PAV?$CMyBucket@P8CDPConsoleSrvr@@AEXAAVCAr@@K@Z@@V?$allocator@PAV?$CMyBucket@P8CDPConsoleSrvr@@AEXAAVCAr@@K@Z@@@std@@@std@@@std@@QBE_NXZ
_TEXT	SEGMENT PARA USE32 PUBLIC 'CODE'
_TEXT	ENDS
;	COMDAT ?pop@?$stack@PAV?$CMyBucket@P8CDPConsoleSrvr@@AEXAAVCAr@@K@Z@@V?$deque@PAV?$CMyBucket@P8CDPConsoleSrvr@@AEXAAVCAr@@K@Z@@V?$allocator@PAV?$CMyBucket@P8CDPConsoleSrvr@@AEXAAVCAr@@K@Z@@@std@@@std@@@std@@QAEXXZ
_TEXT	SEGMENT PARA USE32 PUBLIC 'CODE'
_TEXT	ENDS
;	COMDAT ?begin@?$list@PAV?$CMyBucket@P8CDPConsoleSrvr@@AEXAAVCAr@@K@Z@@V?$allocator@PAV?$CMyBucket@P8CDPConsoleSrvr@@AEXAAVCAr@@K@Z@@@std@@@std@@QAE?AViterator@12@XZ
_TEXT	SEGMENT PARA USE32 PUBLIC 'CODE'
_TEXT	ENDS
;	COMDAT ?end@?$list@PAV?$CMyBucket@P8CDPConsoleSrvr@@AEXAAVCAr@@K@Z@@V?$allocator@PAV?$CMyBucket@P8CDPConsoleSrvr@@AEXAAVCAr@@K@Z@@@std@@@std@@QAE?AViterator@12@XZ
_TEXT	SEGMENT PARA USE32 PUBLIC 'CODE'
_TEXT	ENDS
;	COMDAT ??0?$stack@PAV?$CMyBucket@P8CDPMonitor@@AEXAAVCAr@@K@Z@@V?$deque@PAV?$CMyBucket@P8CDPMonitor@@AEXAAVCAr@@K@Z@@V?$allocator@PAV?$CMyBucket@P8CDPMonitor@@AEXAAVCAr@@K@Z@@@std@@@std@@@std@@QAE@XZ
_TEXT	SEGMENT PARA USE32 PUBLIC 'CODE'
_TEXT	ENDS
;	COMDAT ?empty@?$stack@PAV?$CMyBucket@P8CDPMonitor@@AEXAAVCAr@@K@Z@@V?$deque@PAV?$CMyBucket@P8CDPMonitor@@AEXAAVCAr@@K@Z@@V?$allocator@PAV?$CMyBucket@P8CDPMonitor@@AEXAAVCAr@@K@Z@@@std@@@std@@@std@@QBE_NXZ
_TEXT	SEGMENT PARA USE32 PUBLIC 'CODE'
_TEXT	ENDS
;	COMDAT ?top@?$stack@PAV?$CMyBucket@P8CDPMonitor@@AEXAAVCAr@@K@Z@@V?$deque@PAV?$CMyBucket@P8CDPMonitor@@AEXAAVCAr@@K@Z@@V?$allocator@PAV?$CMyBucket@P8CDPMonitor@@AEXAAVCAr@@K@Z@@@std@@@std@@@std@@QAEAAPAV?$CMyBucket@P8CDPMonitor@@AEXAAVCAr@@K@Z@@XZ
_TEXT	SEGMENT PARA USE32 PUBLIC 'CODE'
_TEXT	ENDS
;	COMDAT ?pop@?$stack@PAV?$CMyBucket@P8CDPMonitor@@AEXAAVCAr@@K@Z@@V?$deque@PAV?$CMyBucket@P8CDPMonitor@@AEXAAVCAr@@K@Z@@V?$allocator@PAV?$CMyBucket@P8CDPMonitor@@AEXAAVCAr@@K@Z@@@std@@@std@@@std@@QAEXXZ
_TEXT	SEGMENT PARA USE32 PUBLIC 'CODE'
_TEXT	ENDS
;	COMDAT ??0?$list@PAV?$CMyBucket@P8CDPMonitor@@AEXAAVCAr@@K@Z@@V?$allocator@PAV?$CMyBucket@P8CDPMonitor@@AEXAAVCAr@@K@Z@@@std@@@std@@QAE@XZ
_TEXT	SEGMENT PARA USE32 PUBLIC 'CODE'
_TEXT	ENDS
;	COMDAT ?begin@?$list@PAV?$CMyBucket@P8CDPMonitor@@AEXAAVCAr@@K@Z@@V?$allocator@PAV?$CMyBucket@P8CDPMonitor@@AEXAAVCAr@@K@Z@@@std@@@std@@QAE?AViterator@12@XZ
_TEXT	SEGMENT PARA USE32 PUBLIC 'CODE'
_TEXT	ENDS
;	COMDAT ?end@?$list@PAV?$CMyBucket@P8CDPMonitor@@AEXAAVCAr@@K@Z@@V?$allocator@PAV?$CMyBucket@P8CDPMonitor@@AEXAAVCAr@@K@Z@@@std@@@std@@QAE?AViterator@12@XZ
_TEXT	SEGMENT PARA USE32 PUBLIC 'CODE'
_TEXT	ENDS
;	COMDAT ??Diterator@?$list@PAV?$CMyBucket@PAVCClientSock@@@@V?$allocator@PAV?$CMyBucket@PAVCClientSock@@@@@std@@@std@@QBEAAPAV?$CMyBucket@PAVCClientSock@@@@XZ
_TEXT	SEGMENT PARA USE32 PUBLIC 'CODE'
_TEXT	ENDS
;	COMDAT ??Eiterator@?$list@PAV?$CMyBucket@PAVCClientSock@@@@V?$allocator@PAV?$CMyBucket@PAVCClientSock@@@@@std@@@std@@QAEAAV012@XZ
_TEXT	SEGMENT PARA USE32 PUBLIC 'CODE'
_TEXT	ENDS
;	COMDAT ??9const_iterator@?$list@PAV?$CMyBucket@PAVCClientSock@@@@V?$allocator@PAV?$CMyBucket@PAVCClientSock@@@@@std@@@std@@QBE_NABV012@@Z
_TEXT	SEGMENT PARA USE32 PUBLIC 'CODE'
_TEXT	ENDS
;	COMDAT ??Diterator@?$list@PAV?$CMyBucket@PAVCClientSockE@@@@V?$allocator@PAV?$CMyBucket@PAVCClientSockE@@@@@std@@@std@@QBEAAPAV?$CMyBucket@PAVCClientSockE@@@@XZ
_TEXT	SEGMENT PARA USE32 PUBLIC 'CODE'
_TEXT	ENDS
;	COMDAT ??Eiterator@?$list@PAV?$CMyBucket@PAVCClientSockE@@@@V?$allocator@PAV?$CMyBucket@PAVCClientSockE@@@@@std@@@std@@QAEAAV012@XZ
_TEXT	SEGMENT PARA USE32 PUBLIC 'CODE'
_TEXT	ENDS
;	COMDAT ??9const_iterator@?$list@PAV?$CMyBucket@PAVCClientSockE@@@@V?$allocator@PAV?$CMyBucket@PAVCClientSockE@@@@@std@@@std@@QBE_NABV012@@Z
_TEXT	SEGMENT PARA USE32 PUBLIC 'CODE'
_TEXT	ENDS
;	COMDAT ??Diterator@?$list@PAV?$CMyBucket@P8CDPConsoleSrvr@@AEXAAVCAr@@K@Z@@V?$allocator@PAV?$CMyBucket@P8CDPConsoleSrvr@@AEXAAVCAr@@K@Z@@@std@@@std@@QBEAAPAV?$CMyBucket@P8CDPConsoleSrvr@@AEXAAVCAr@@K@Z@@XZ
_TEXT	SEGMENT PARA USE32 PUBLIC 'CODE'
_TEXT	ENDS
;	COMDAT ??Eiterator@?$list@PAV?$CMyBucket@P8CDPConsoleSrvr@@AEXAAVCAr@@K@Z@@V?$allocator@PAV?$CMyBucket@P8CDPConsoleSrvr@@AEXAAVCAr@@K@Z@@@std@@@std@@QAEAAV012@XZ
_TEXT	SEGMENT PARA USE32 PUBLIC 'CODE'
_TEXT	ENDS
;	COMDAT ??9const_iterator@?$list@PAV?$CMyBucket@P8CDPConsoleSrvr@@AEXAAVCAr@@K@Z@@V?$allocator@PAV?$CMyBucket@P8CDPConsoleSrvr@@AEXAAVCAr@@K@Z@@@std@@@std@@QBE_NABV012@@Z
_TEXT	SEGMENT PARA USE32 PUBLIC 'CODE'
_TEXT	ENDS
;	COMDAT ??Diterator@?$list@PAV?$CMyBucket@P8CDPMonitor@@AEXAAVCAr@@K@Z@@V?$allocator@PAV?$CMyBucket@P8CDPMonitor@@AEXAAVCAr@@K@Z@@@std@@@std@@QBEAAPAV?$CMyBucket@P8CDPMonitor@@AEXAAVCAr@@K@Z@@XZ
_TEXT	SEGMENT PARA USE32 PUBLIC 'CODE'
_TEXT	ENDS
;	COMDAT ??Eiterator@?$list@PAV?$CMyBucket@P8CDPMonitor@@AEXAAVCAr@@K@Z@@V?$allocator@PAV?$CMyBucket@P8CDPMonitor@@AEXAAVCAr@@K@Z@@@std@@@std@@QAEAAV012@XZ
_TEXT	SEGMENT PARA USE32 PUBLIC 'CODE'
_TEXT	ENDS
;	COMDAT ??9const_iterator@?$list@PAV?$CMyBucket@P8CDPMonitor@@AEXAAVCAr@@K@Z@@V?$allocator@PAV?$CMyBucket@P8CDPMonitor@@AEXAAVCAr@@K@Z@@@std@@@std@@QBE_NABV012@@Z
_TEXT	SEGMENT PARA USE32 PUBLIC 'CODE'
_TEXT	ENDS
;	COMDAT ??0?$deque@PAV?$CMyBucket@P8CDPMonitor@@AEXAAVCAr@@K@Z@@V?$allocator@PAV?$CMyBucket@P8CDPMonitor@@AEXAAVCAr@@K@Z@@@std@@@std@@QAE@XZ
_TEXT	SEGMENT PARA USE32 PUBLIC 'CODE'
_TEXT	ENDS
;	COMDAT ?back@?$deque@PAV?$CMyBucket@P8CDPMonitor@@AEXAAVCAr@@K@Z@@V?$allocator@PAV?$CMyBucket@P8CDPMonitor@@AEXAAVCAr@@K@Z@@@std@@@std@@QAEAAPAV?$CMyBucket@P8CDPMonitor@@AEXAAVCAr@@K@Z@@XZ
_TEXT	SEGMENT PARA USE32 PUBLIC 'CODE'
_TEXT	ENDS
;	COMDAT ??0?$allocator@PAV?$CMyBucket@P8CDPMonitor@@AEXAAVCAr@@K@Z@@@std@@QAE@XZ
_TEXT	SEGMENT PARA USE32 PUBLIC 'CODE'
_TEXT	ENDS
;	COMDAT ?_Buynode@?$list@PAV?$CMyBucket@P8CDPMonitor@@AEXAAVCAr@@K@Z@@V?$allocator@PAV?$CMyBucket@P8CDPMonitor@@AEXAAVCAr@@K@Z@@@std@@@std@@IAEPAU_Node@?$_List_nod@PAV?$CMyBucket@P8CDPMonitor@@AEXAAVCAr@@K@Z@@V?$allocator@PAV?$CMyBucket@P8CDPMonitor@@AEXAAVCAr@@K@Z@@@std@@@2@XZ
_TEXT	SEGMENT PARA USE32 PUBLIC 'CODE'
_TEXT	ENDS
;	COMDAT ??0?$_List_val@PAV?$CMyBucket@P8CDPMonitor@@AEXAAVCAr@@K@Z@@V?$allocator@PAV?$CMyBucket@P8CDPMonitor@@AEXAAVCAr@@K@Z@@@std@@@std@@IAE@V?$allocator@PAV?$CMyBucket@P8CDPMonitor@@AEXAAVCAr@@K@Z@@@1@@Z
_TEXT	SEGMENT PARA USE32 PUBLIC 'CODE'
_TEXT	ENDS
;	COMDAT ??0iterator@?$list@PAV?$CMyBucket@PAVCClientSock@@@@V?$allocator@PAV?$CMyBucket@PAVCClientSock@@@@@std@@@std@@QAE@PAU_Node@?$_List_nod@PAV?$CMyBucket@PAVCClientSock@@@@V?$allocator@PAV?$CMyBucket@PAVCClientSock@@@@@std@@@2@@Z
_TEXT	SEGMENT PARA USE32 PUBLIC 'CODE'
_TEXT	ENDS
;	COMDAT ??Dconst_iterator@?$list@PAV?$CMyBucket@PAVCClientSock@@@@V?$allocator@PAV?$CMyBucket@PAVCClientSock@@@@@std@@@std@@QBEABQAV?$CMyBucket@PAVCClientSock@@@@XZ
_TEXT	SEGMENT PARA USE32 PUBLIC 'CODE'
_TEXT	ENDS
;	COMDAT ??Econst_iterator@?$list@PAV?$CMyBucket@PAVCClientSock@@@@V?$allocator@PAV?$CMyBucket@PAVCClientSock@@@@@std@@@std@@QAEAAV012@XZ
_TEXT	SEGMENT PARA USE32 PUBLIC 'CODE'
_TEXT	ENDS
;	COMDAT ??8const_iterator@?$list@PAV?$CMyBucket@PAVCClientSock@@@@V?$allocator@PAV?$CMyBucket@PAVCClientSock@@@@@std@@@std@@QBE_NABV012@@Z
_TEXT	SEGMENT PARA USE32 PUBLIC 'CODE'
_TEXT	ENDS
;	COMDAT ??0iterator@?$list@PAV?$CMyBucket@PAVCClientSockE@@@@V?$allocator@PAV?$CMyBucket@PAVCClientSockE@@@@@std@@@std@@QAE@PAU_Node@?$_List_nod@PAV?$CMyBucket@PAVCClientSockE@@@@V?$allocator@PAV?$CMyBucket@PAVCClientSockE@@@@@std@@@2@@Z
_TEXT	SEGMENT PARA USE32 PUBLIC 'CODE'
_TEXT	ENDS
;	COMDAT ??Dconst_iterator@?$list@PAV?$CMyBucket@PAVCClientSockE@@@@V?$allocator@PAV?$CMyBucket@PAVCClientSockE@@@@@std@@@std@@QBEABQAV?$CMyBucket@PAVCClientSockE@@@@XZ
_TEXT	SEGMENT PARA USE32 PUBLIC 'CODE'
_TEXT	ENDS
;	COMDAT ??Econst_iterator@?$list@PAV?$CMyBucket@PAVCClientSockE@@@@V?$allocator@PAV?$CMyBucket@PAVCClientSockE@@@@@std@@@std@@QAEAAV012@XZ
_TEXT	SEGMENT PARA USE32 PUBLIC 'CODE'
_TEXT	ENDS
;	COMDAT ??8const_iterator@?$list@PAV?$CMyBucket@PAVCClientSockE@@@@V?$allocator@PAV?$CMyBucket@PAVCClientSockE@@@@@std@@@std@@QBE_NABV012@@Z
_TEXT	SEGMENT PARA USE32 PUBLIC 'CODE'
_TEXT	ENDS
;	COMDAT ??0iterator@?$list@PAV?$CMyBucket@P8CDPConsoleSrvr@@AEXAAVCAr@@K@Z@@V?$allocator@PAV?$CMyBucket@P8CDPConsoleSrvr@@AEXAAVCAr@@K@Z@@@std@@@std@@QAE@PAU_Node@?$_List_nod@PAV?$CMyBucket@P8CDPConsoleSrvr@@AEXAAVCAr@@K@Z@@V?$allocator@PAV?$CMyBucket@P8CDPConsoleSrvr@@AEXAAVCAr@@K@Z@@@std@@@2@@Z
_TEXT	SEGMENT PARA USE32 PUBLIC 'CODE'
_TEXT	ENDS
;	COMDAT ??Dconst_iterator@?$list@PAV?$CMyBucket@P8CDPConsoleSrvr@@AEXAAVCAr@@K@Z@@V?$allocator@PAV?$CMyBucket@P8CDPConsoleSrvr@@AEXAAVCAr@@K@Z@@@std@@@std@@QBEABQAV?$CMyBucket@P8CDPConsoleSrvr@@AEXAAVCAr@@K@Z@@XZ
_TEXT	SEGMENT PARA USE32 PUBLIC 'CODE'
_TEXT	ENDS
;	COMDAT ??Econst_iterator@?$list@PAV?$CMyBucket@P8CDPConsoleSrvr@@AEXAAVCAr@@K@Z@@V?$allocator@PAV?$CMyBucket@P8CDPConsoleSrvr@@AEXAAVCAr@@K@Z@@@std@@@std@@QAEAAV012@XZ
_TEXT	SEGMENT PARA USE32 PUBLIC 'CODE'
_TEXT	ENDS
;	COMDAT ??8const_iterator@?$list@PAV?$CMyBucket@P8CDPConsoleSrvr@@AEXAAVCAr@@K@Z@@V?$allocator@PAV?$CMyBucket@P8CDPConsoleSrvr@@AEXAAVCAr@@K@Z@@@std@@@std@@QBE_NABV012@@Z
_TEXT	SEGMENT PARA USE32 PUBLIC 'CODE'
_TEXT	ENDS
;	COMDAT ??0iterator@?$list@PAV?$CMyBucket@P8CDPMonitor@@AEXAAVCAr@@K@Z@@V?$allocator@PAV?$CMyBucket@P8CDPMonitor@@AEXAAVCAr@@K@Z@@@std@@@std@@QAE@PAU_Node@?$_List_nod@PAV?$CMyBucket@P8CDPMonitor@@AEXAAVCAr@@K@Z@@V?$allocator@PAV?$CMyBucket@P8CDPMonitor@@AEXAAVCAr@@K@Z@@@std@@@2@@Z
_TEXT	SEGMENT PARA USE32 PUBLIC 'CODE'
_TEXT	ENDS
;	COMDAT ??Dconst_iterator@?$list@PAV?$CMyBucket@P8CDPMonitor@@AEXAAVCAr@@K@Z@@V?$allocator@PAV?$CMyBucket@P8CDPMonitor@@AEXAAVCAr@@K@Z@@@std@@@std@@QBEABQAV?$CMyBucket@P8CDPMonitor@@AEXAAVCAr@@K@Z@@XZ
_TEXT	SEGMENT PARA USE32 PUBLIC 'CODE'
_TEXT	ENDS
;	COMDAT ??Econst_iterator@?$list@PAV?$CMyBucket@P8CDPMonitor@@AEXAAVCAr@@K@Z@@V?$allocator@PAV?$CMyBucket@P8CDPMonitor@@AEXAAVCAr@@K@Z@@@std@@@std@@QAEAAV012@XZ
_TEXT	SEGMENT PARA USE32 PUBLIC 'CODE'
_TEXT	ENDS
;	COMDAT ??8const_iterator@?$list@PAV?$CMyBucket@P8CDPMonitor@@AEXAAVCAr@@K@Z@@V?$allocator@PAV?$CMyBucket@P8CDPMonitor@@AEXAAVCAr@@K@Z@@@std@@@std@@QBE_NABV012@@Z
_TEXT	SEGMENT PARA USE32 PUBLIC 'CODE'
_TEXT	ENDS
;	COMDAT ?_Myval@?$list@PAV?$CMyBucket@PAVCClientSock@@@@V?$allocator@PAV?$CMyBucket@PAVCClientSock@@@@@std@@@std@@KAAAPAV?$CMyBucket@PAVCClientSock@@@@PAU_Node@?$_List_nod@PAV?$CMyBucket@PAVCClientSock@@@@V?$allocator@PAV?$CMyBucket@PAVCClientSock@@@@@std@@@2@@Z
_TEXT	SEGMENT PARA USE32 PUBLIC 'CODE'
_TEXT	ENDS
;	COMDAT ?_Myval@?$list@PAV?$CMyBucket@PAVCClientSockE@@@@V?$allocator@PAV?$CMyBucket@PAVCClientSockE@@@@@std@@@std@@KAAAPAV?$CMyBucket@PAVCClientSockE@@@@PAU_Node@?$_List_nod@PAV?$CMyBucket@PAVCClientSockE@@@@V?$allocator@PAV?$CMyBucket@PAVCClientSockE@@@@@std@@@2@@Z
_TEXT	SEGMENT PARA USE32 PUBLIC 'CODE'
_TEXT	ENDS
;	COMDAT ?_Myval@?$list@PAV?$CMyBucket@P8CDPConsoleSrvr@@AEXAAVCAr@@K@Z@@V?$allocator@PAV?$CMyBucket@P8CDPConsoleSrvr@@AEXAAVCAr@@K@Z@@@std@@@std@@KAAAPAV?$CMyBucket@P8CDPConsoleSrvr@@AEXAAVCAr@@K@Z@@PAU_Node@?$_List_nod@PAV?$CMyBucket@P8CDPConsoleSrvr@@AEXAAVCAr@@K@Z@@V?$allocator@PAV?$CMyBucket@P8CDPConsoleSrvr@@AEXAAVCAr@@K@Z@@@std@@@2@@Z
_TEXT	SEGMENT PARA USE32 PUBLIC 'CODE'
_TEXT	ENDS
;	COMDAT ?end@?$deque@PAV?$CMyBucket@P8CDPMonitor@@AEXAAVCAr@@K@Z@@V?$allocator@PAV?$CMyBucket@P8CDPMonitor@@AEXAAVCAr@@K@Z@@@std@@@std@@QAE?AViterator@12@XZ
_TEXT	SEGMENT PARA USE32 PUBLIC 'CODE'
_TEXT	ENDS
;	COMDAT ??0?$_Deque_val@PAV?$CMyBucket@P8CDPMonitor@@AEXAAVCAr@@K@Z@@V?$allocator@PAV?$CMyBucket@P8CDPMonitor@@AEXAAVCAr@@K@Z@@@std@@@std@@IAE@V?$allocator@PAV?$CMyBucket@P8CDPMonitor@@AEXAAVCAr@@K@Z@@@1@@Z
_TEXT	SEGMENT PARA USE32 PUBLIC 'CODE'
_TEXT	ENDS
;	COMDAT ??0?$allocator@PAV?$CMyBucket@P8CDPMonitor@@AEXAAVCAr@@K@Z@@@std@@QAE@ABV01@@Z
_TEXT	SEGMENT PARA USE32 PUBLIC 'CODE'
_TEXT	ENDS
;	COMDAT ?_Myval@?$list@PAV?$CMyBucket@P8CDPMonitor@@AEXAAVCAr@@K@Z@@V?$allocator@PAV?$CMyBucket@P8CDPMonitor@@AEXAAVCAr@@K@Z@@@std@@@std@@KAAAPAV?$CMyBucket@P8CDPMonitor@@AEXAAVCAr@@K@Z@@PAU_Node@?$_List_nod@PAV?$CMyBucket@P8CDPMonitor@@AEXAAVCAr@@K@Z@@V?$allocator@PAV?$CMyBucket@P8CDPMonitor@@AEXAAVCAr@@K@Z@@@std@@@2@@Z
_TEXT	SEGMENT PARA USE32 PUBLIC 'CODE'
_TEXT	ENDS
;	COMDAT ??0?$_List_ptr@PAV?$CMyBucket@P8CDPMonitor@@AEXAAVCAr@@K@Z@@V?$allocator@PAV?$CMyBucket@P8CDPMonitor@@AEXAAVCAr@@K@Z@@@std@@@std@@IAE@V?$allocator@PAV?$CMyBucket@P8CDPMonitor@@AEXAAVCAr@@K@Z@@@1@@Z
_TEXT	SEGMENT PARA USE32 PUBLIC 'CODE'
_TEXT	ENDS
;	COMDAT ?allocate@?$allocator@U_Node@?$_List_nod@PAV?$CMyBucket@P8CDPMonitor@@AEXAAVCAr@@K@Z@@V?$allocator@PAV?$CMyBucket@P8CDPMonitor@@AEXAAVCAr@@K@Z@@@std@@@std@@@std@@QAEPAU_Node@?$_List_nod@PAV?$CMyBucket@P8CDPMonitor@@AEXAAVCAr@@K@Z@@V?$allocator@PAV?$CMyBucket@P8CDPMonitor@@AEXAAVCAr@@K@Z@@@std@@@2@I@Z
_TEXT	SEGMENT PARA USE32 PUBLIC 'CODE'
_TEXT	ENDS
;	COMDAT ?construct@?$allocator@PAU_Node@?$_List_nod@PAV?$CMyBucket@P8CDPMonitor@@AEXAAVCAr@@K@Z@@V?$allocator@PAV?$CMyBucket@P8CDPMonitor@@AEXAAVCAr@@K@Z@@@std@@@std@@@std@@QAEXPAPAU_Node@?$_List_nod@PAV?$CMyBucket@P8CDPMonitor@@AEXAAVCAr@@K@Z@@V?$allocator@PAV?$CMyBucket@P8CDPMonitor@@AEXAAVCAr@@K@Z@@@std@@@2@ABQAU342@@Z
_TEXT	SEGMENT PARA USE32 PUBLIC 'CODE'
_TEXT	ENDS
;	COMDAT ??0const_iterator@?$list@PAV?$CMyBucket@PAVCClientSock@@@@V?$allocator@PAV?$CMyBucket@PAVCClientSock@@@@@std@@@std@@QAE@PAU_Node@?$_List_nod@PAV?$CMyBucket@PAVCClientSock@@@@V?$allocator@PAV?$CMyBucket@PAVCClientSock@@@@@std@@@2@@Z
_TEXT	SEGMENT PARA USE32 PUBLIC 'CODE'
_TEXT	ENDS
;	COMDAT ??0const_iterator@?$list@PAV?$CMyBucket@PAVCClientSockE@@@@V?$allocator@PAV?$CMyBucket@PAVCClientSockE@@@@@std@@@std@@QAE@PAU_Node@?$_List_nod@PAV?$CMyBucket@PAVCClientSockE@@@@V?$allocator@PAV?$CMyBucket@PAVCClientSockE@@@@@std@@@2@@Z
_TEXT	SEGMENT PARA USE32 PUBLIC 'CODE'
_TEXT	ENDS
;	COMDAT ??0const_iterator@?$list@PAV?$CMyBucket@P8CDPConsoleSrvr@@AEXAAVCAr@@K@Z@@V?$allocator@PAV?$CMyBucket@P8CDPConsoleSrvr@@AEXAAVCAr@@K@Z@@@std@@@std@@QAE@PAU_Node@?$_List_nod@PAV?$CMyBucket@P8CDPConsoleSrvr@@AEXAAVCAr@@K@Z@@V?$allocator@PAV?$CMyBucket@P8CDPConsoleSrvr@@AEXAAVCAr@@K@Z@@@std@@@2@@Z
_TEXT	SEGMENT PARA USE32 PUBLIC 'CODE'
_TEXT	ENDS
;	COMDAT ??0const_iterator@?$list@PAV?$CMyBucket@P8CDPMonitor@@AEXAAVCAr@@K@Z@@V?$allocator@PAV?$CMyBucket@P8CDPMonitor@@AEXAAVCAr@@K@Z@@@std@@@std@@QAE@PAU_Node@?$_List_nod@PAV?$CMyBucket@P8CDPMonitor@@AEXAAVCAr@@K@Z@@V?$allocator@PAV?$CMyBucket@P8CDPMonitor@@AEXAAVCAr@@K@Z@@@std@@@2@@Z
_TEXT	SEGMENT PARA USE32 PUBLIC 'CODE'
_TEXT	ENDS
;	COMDAT ??Diterator@?$deque@PAV?$CMyBucket@P8CDPMonitor@@AEXAAVCAr@@K@Z@@V?$allocator@PAV?$CMyBucket@P8CDPMonitor@@AEXAAVCAr@@K@Z@@@std@@@std@@QBEAAPAV?$CMyBucket@P8CDPMonitor@@AEXAAVCAr@@K@Z@@XZ
_TEXT	SEGMENT PARA USE32 PUBLIC 'CODE'
_TEXT	ENDS
;	COMDAT ??Giterator@?$deque@PAV?$CMyBucket@P8CDPMonitor@@AEXAAVCAr@@K@Z@@V?$allocator@PAV?$CMyBucket@P8CDPMonitor@@AEXAAVCAr@@K@Z@@@std@@@std@@QBE?AV012@H@Z
_TEXT	SEGMENT PARA USE32 PUBLIC 'CODE'
_TEXT	ENDS
;	COMDAT ??0?$_Deque_map@PAV?$CMyBucket@P8CDPMonitor@@AEXAAVCAr@@K@Z@@V?$allocator@PAV?$CMyBucket@P8CDPMonitor@@AEXAAVCAr@@K@Z@@@std@@@std@@IAE@V?$allocator@PAV?$CMyBucket@P8CDPMonitor@@AEXAAVCAr@@K@Z@@@1@@Z
_TEXT	SEGMENT PARA USE32 PUBLIC 'CODE'
_TEXT	ENDS
;	COMDAT ??0?$_List_nod@PAV?$CMyBucket@P8CDPMonitor@@AEXAAVCAr@@K@Z@@V?$allocator@PAV?$CMyBucket@P8CDPMonitor@@AEXAAVCAr@@K@Z@@@std@@@std@@IAE@V?$allocator@PAV?$CMyBucket@P8CDPMonitor@@AEXAAVCAr@@K@Z@@@1@@Z
_TEXT	SEGMENT PARA USE32 PUBLIC 'CODE'
_TEXT	ENDS
;	COMDAT ??0iterator@?$deque@PAV?$CMyBucket@P8CDPMonitor@@AEXAAVCAr@@K@Z@@V?$allocator@PAV?$CMyBucket@P8CDPMonitor@@AEXAAVCAr@@K@Z@@@std@@@std@@QAE@IPBV12@@Z
_TEXT	SEGMENT PARA USE32 PUBLIC 'CODE'
_TEXT	ENDS
;	COMDAT ??Ziterator@?$deque@PAV?$CMyBucket@P8CDPMonitor@@AEXAAVCAr@@K@Z@@V?$allocator@PAV?$CMyBucket@P8CDPMonitor@@AEXAAVCAr@@K@Z@@@std@@@std@@QAEAAV012@H@Z
_TEXT	SEGMENT PARA USE32 PUBLIC 'CODE'
_TEXT	ENDS
;	COMDAT ??Dconst_iterator@?$deque@PAV?$CMyBucket@P8CDPMonitor@@AEXAAVCAr@@K@Z@@V?$allocator@PAV?$CMyBucket@P8CDPMonitor@@AEXAAVCAr@@K@Z@@@std@@@std@@QBEABQAV?$CMyBucket@P8CDPMonitor@@AEXAAVCAr@@K@Z@@XZ
_TEXT	SEGMENT PARA USE32 PUBLIC 'CODE'
_TEXT	ENDS
;	COMDAT ??Yiterator@?$deque@PAV?$CMyBucket@P8CDPMonitor@@AEXAAVCAr@@K@Z@@V?$allocator@PAV?$CMyBucket@P8CDPMonitor@@AEXAAVCAr@@K@Z@@@std@@@std@@QAEAAV012@H@Z
_TEXT	SEGMENT PARA USE32 PUBLIC 'CODE'
_TEXT	ENDS
;	COMDAT ??0const_iterator@?$deque@PAV?$CMyBucket@P8CDPMonitor@@AEXAAVCAr@@K@Z@@V?$allocator@PAV?$CMyBucket@P8CDPMonitor@@AEXAAVCAr@@K@Z@@@std@@@std@@QAE@IPBV12@@Z
_TEXT	SEGMENT PARA USE32 PUBLIC 'CODE'
_TEXT	ENDS
;	COMDAT ?Grow@?$CMyPool@V?$CMyBucket@P8CDPMonitor@@AEXAAVCAr@@K@Z@@@@AAEXI@Z
_TEXT	SEGMENT PARA USE32 PUBLIC 'CODE'
_TEXT	ENDS
;	COMDAT ??$?0PAV?$CMyBucket@P8CDPMonitor@@AEXAAVCAr@@K@Z@@@?$allocator@PAU_Node@?$_List_nod@PAV?$CMyBucket@P8CDPMonitor@@AEXAAVCAr@@K@Z@@V?$allocator@PAV?$CMyBucket@P8CDPMonitor@@AEXAAVCAr@@K@Z@@@std@@@std@@@std@@QAE@ABV?$allocator@PAV?$CMyBucket@P8CDPMonitor@@AEXAAVCAr@@K@Z@@@1@@Z
_TEXT	SEGMENT PARA USE32 PUBLIC 'CODE'
_TEXT	ENDS
;	COMDAT ??$_Allocate@U_Node@?$_List_nod@PAV?$CMyBucket@P8CDPMonitor@@AEXAAVCAr@@K@Z@@V?$allocator@PAV?$CMyBucket@P8CDPMonitor@@AEXAAVCAr@@K@Z@@@std@@@std@@@std@@YAPAU_Node@?$_List_nod@PAV?$CMyBucket@P8CDPMonitor@@AEXAAVCAr@@K@Z@@V?$allocator@PAV?$CMyBucket@P8CDPMonitor@@AEXAAVCAr@@K@Z@@@std@@@0@IPAU120@@Z
_TEXT	SEGMENT PARA USE32 PUBLIC 'CODE'
_TEXT	ENDS
;	COMDAT ??$_Construct@PAU_Node@?$_List_nod@PAV?$CMyBucket@P8CDPMonitor@@AEXAAVCAr@@K@Z@@V?$allocator@PAV?$CMyBucket@P8CDPMonitor@@AEXAAVCAr@@K@Z@@@std@@@std@@PAU123@@std@@YAXPAPAU_Node@?$_List_nod@PAV?$CMyBucket@P8CDPMonitor@@AEXAAVCAr@@K@Z@@V?$allocator@PAV?$CMyBucket@P8CDPMonitor@@AEXAAVCAr@@K@Z@@@std@@@0@ABQAU120@@Z
_TEXT	SEGMENT PARA USE32 PUBLIC 'CODE'
_TEXT	ENDS
;	COMDAT ??$?0PAV?$CMyBucket@P8CDPMonitor@@AEXAAVCAr@@K@Z@@@?$allocator@PAPAV?$CMyBucket@P8CDPMonitor@@AEXAAVCAr@@K@Z@@@std@@QAE@ABV?$allocator@PAV?$CMyBucket@P8CDPMonitor@@AEXAAVCAr@@K@Z@@@1@@Z
_TEXT	SEGMENT PARA USE32 PUBLIC 'CODE'
_TEXT	ENDS
;	COMDAT ??$?0PAV?$CMyBucket@P8CDPMonitor@@AEXAAVCAr@@K@Z@@@?$allocator@U_Node@?$_List_nod@PAV?$CMyBucket@P8CDPMonitor@@AEXAAVCAr@@K@Z@@V?$allocator@PAV?$CMyBucket@P8CDPMonitor@@AEXAAVCAr@@K@Z@@@std@@@std@@@std@@QAE@ABV?$allocator@PAV?$CMyBucket@P8CDPMonitor@@AEXAAVCAr@@K@Z@@@1@@Z
_TEXT	SEGMENT PARA USE32 PUBLIC 'CODE'
_TEXT	ENDS
;	COMDAT ?push@?$stack@PAV?$CMyBucket@P8CDPMonitor@@AEXAAVCAr@@K@Z@@V?$deque@PAV?$CMyBucket@P8CDPMonitor@@AEXAAVCAr@@K@Z@@V?$allocator@PAV?$CMyBucket@P8CDPMonitor@@AEXAAVCAr@@K@Z@@@std@@@std@@@std@@QAEXABQAV?$CMyBucket@P8CDPMonitor@@AEXAAVCAr@@K@Z@@@Z
_TEXT	SEGMENT PARA USE32 PUBLIC 'CODE'
_TEXT	ENDS
;	COMDAT ?push_back@?$list@PAV?$CMyBucket@P8CDPMonitor@@AEXAAVCAr@@K@Z@@V?$allocator@PAV?$CMyBucket@P8CDPMonitor@@AEXAAVCAr@@K@Z@@@std@@@std@@QAEXABQAV?$CMyBucket@P8CDPMonitor@@AEXAAVCAr@@K@Z@@@Z
_TEXT	SEGMENT PARA USE32 PUBLIC 'CODE'
_TEXT	ENDS
;	COMDAT ?push_back@?$deque@PAV?$CMyBucket@P8CDPMonitor@@AEXAAVCAr@@K@Z@@V?$allocator@PAV?$CMyBucket@P8CDPMonitor@@AEXAAVCAr@@K@Z@@@std@@@std@@QAEXABQAV?$CMyBucket@P8CDPMonitor@@AEXAAVCAr@@K@Z@@@Z
_TEXT	SEGMENT PARA USE32 PUBLIC 'CODE'
_TEXT	ENDS
;	COMDAT ?_Insert@?$list@PAV?$CMyBucket@P8CDPMonitor@@AEXAAVCAr@@K@Z@@V?$allocator@PAV?$CMyBucket@P8CDPMonitor@@AEXAAVCAr@@K@Z@@@std@@@std@@QAEXViterator@12@ABQAV?$CMyBucket@P8CDPMonitor@@AEXAAVCAr@@K@Z@@@Z
_TEXT	SEGMENT PARA USE32 PUBLIC 'CODE'
_TEXT	ENDS
;	COMDAT ?_Growmap@?$deque@PAV?$CMyBucket@P8CDPMonitor@@AEXAAVCAr@@K@Z@@V?$allocator@PAV?$CMyBucket@P8CDPMonitor@@AEXAAVCAr@@K@Z@@@std@@@std@@IAEXI@Z
_TEXT	SEGMENT PARA USE32 PUBLIC 'CODE'
_TEXT	ENDS
;	COMDAT ?allocate@?$allocator@PAV?$CMyBucket@P8CDPMonitor@@AEXAAVCAr@@K@Z@@@std@@QAEPAPAV?$CMyBucket@P8CDPMonitor@@AEXAAVCAr@@K@Z@@I@Z
_TEXT	SEGMENT PARA USE32 PUBLIC 'CODE'
_TEXT	ENDS
;	COMDAT ?construct@?$allocator@PAV?$CMyBucket@P8CDPMonitor@@AEXAAVCAr@@K@Z@@@std@@QAEXPAPAV?$CMyBucket@P8CDPMonitor@@AEXAAVCAr@@K@Z@@ABQAV3@@Z
_TEXT	SEGMENT PARA USE32 PUBLIC 'CODE'
_TEXT	ENDS
;	COMDAT ?_Buynode@?$list@PAV?$CMyBucket@P8CDPMonitor@@AEXAAVCAr@@K@Z@@V?$allocator@PAV?$CMyBucket@P8CDPMonitor@@AEXAAVCAr@@K@Z@@@std@@@std@@IAEPAU_Node@?$_List_nod@PAV?$CMyBucket@P8CDPMonitor@@AEXAAVCAr@@K@Z@@V?$allocator@PAV?$CMyBucket@P8CDPMonitor@@AEXAAVCAr@@K@Z@@@std@@@2@PAU342@0ABQAV?$CMyBucket@P8CDPMonitor@@AEXAAVCAr@@K@Z@@@Z
_TEXT	SEGMENT PARA USE32 PUBLIC 'CODE'
_TEXT	ENDS
;	COMDAT ?_Incsize@?$list@PAV?$CMyBucket@P8CDPMonitor@@AEXAAVCAr@@K@Z@@V?$allocator@PAV?$CMyBucket@P8CDPMonitor@@AEXAAVCAr@@K@Z@@@std@@@std@@IAEXI@Z
_TEXT	SEGMENT PARA USE32 PUBLIC 'CODE'
_TEXT	ENDS
;	COMDAT ?_Mynode@const_iterator@?$list@PAV?$CMyBucket@P8CDPMonitor@@AEXAAVCAr@@K@Z@@V?$allocator@PAV?$CMyBucket@P8CDPMonitor@@AEXAAVCAr@@K@Z@@@std@@@std@@QBEPAU_Node@?$_List_nod@PAV?$CMyBucket@P8CDPMonitor@@AEXAAVCAr@@K@Z@@V?$allocator@PAV?$CMyBucket@P8CDPMonitor@@AEXAAVCAr@@K@Z@@@std@@@3@XZ
_TEXT	SEGMENT PARA USE32 PUBLIC 'CODE'
_TEXT	ENDS
;	COMDAT ?max_size@?$deque@PAV?$CMyBucket@P8CDPMonitor@@AEXAAVCAr@@K@Z@@V?$allocator@PAV?$CMyBucket@P8CDPMonitor@@AEXAAVCAr@@K@Z@@@std@@@std@@QBEIXZ
_TEXT	SEGMENT PARA USE32 PUBLIC 'CODE'
_TEXT	ENDS
;	COMDAT ?_Xlen@?$deque@PAV?$CMyBucket@P8CDPMonitor@@AEXAAVCAr@@K@Z@@V?$allocator@PAV?$CMyBucket@P8CDPMonitor@@AEXAAVCAr@@K@Z@@@std@@@std@@IBEXXZ
_TEXT	SEGMENT PARA USE32 PUBLIC 'CODE'
_TEXT	ENDS
;	COMDAT ?allocate@?$allocator@PAPAV?$CMyBucket@P8CDPMonitor@@AEXAAVCAr@@K@Z@@@std@@QAEPAPAPAV?$CMyBucket@P8CDPMonitor@@AEXAAVCAr@@K@Z@@I@Z
_TEXT	SEGMENT PARA USE32 PUBLIC 'CODE'
_TEXT	ENDS
;	COMDAT ?max_size@?$list@PAV?$CMyBucket@P8CDPMonitor@@AEXAAVCAr@@K@Z@@V?$allocator@PAV?$CMyBucket@P8CDPMonitor@@AEXAAVCAr@@K@Z@@@std@@@std@@QBEIXZ
_TEXT	SEGMENT PARA USE32 PUBLIC 'CODE'
_TEXT	ENDS
;	COMDAT ??0_Node@?$_List_nod@PAV?$CMyBucket@P8CDPMonitor@@AEXAAVCAr@@K@Z@@V?$allocator@PAV?$CMyBucket@P8CDPMonitor@@AEXAAVCAr@@K@Z@@@std@@@std@@QAE@PAU012@0ABQAV?$CMyBucket@P8CDPMonitor@@AEXAAVCAr@@K@Z@@@Z
_TEXT	SEGMENT PARA USE32 PUBLIC 'CODE'
_TEXT	ENDS
;	COMDAT ?max_size@?$allocator@PAV?$CMyBucket@P8CDPMonitor@@AEXAAVCAr@@K@Z@@@std@@QBEIXZ
_TEXT	SEGMENT PARA USE32 PUBLIC 'CODE'
_TEXT	ENDS
;	COMDAT ??$_Uninitialized_copy@PAPAPAV?$CMyBucket@P8CDPMonitor@@AEXAAVCAr@@K@Z@@PAPAPAV1@V?$allocator@PAPAV?$CMyBucket@P8CDPMonitor@@AEXAAVCAr@@K@Z@@@std@@@std@@YAPAPAPAV?$CMyBucket@P8CDPMonitor@@AEXAAVCAr@@K@Z@@PAPAPAV1@00AAV?$allocator@PAPAV?$CMyBucket@P8CDPMonitor@@AEXAAVCAr@@K@Z@@@0@@Z
_TEXT	SEGMENT PARA USE32 PUBLIC 'CODE'
_TEXT	ENDS
;	COMDAT ??$_Uninitialized_fill_n@PAPAPAV?$CMyBucket@P8CDPMonitor@@AEXAAVCAr@@K@Z@@IPAPAV1@V?$allocator@PAPAV?$CMyBucket@P8CDPMonitor@@AEXAAVCAr@@K@Z@@@std@@@std@@YAXPAPAPAV?$CMyBucket@P8CDPMonitor@@AEXAAVCAr@@K@Z@@IABQAPAV1@AAV?$allocator@PAPAV?$CMyBucket@P8CDPMonitor@@AEXAAVCAr@@K@Z@@@0@@Z
_TEXT	SEGMENT PARA USE32 PUBLIC 'CODE'
_TEXT	ENDS
;	COMDAT ??$_Destroy_range@PAPAV?$CMyBucket@P8CDPMonitor@@AEXAAVCAr@@K@Z@@V?$allocator@PAPAV?$CMyBucket@P8CDPMonitor@@AEXAAVCAr@@K@Z@@@std@@@std@@YAXPAPAPAV?$CMyBucket@P8CDPMonitor@@AEXAAVCAr@@K@Z@@0AAV?$allocator@PAPAV?$CMyBucket@P8CDPMonitor@@AEXAAVCAr@@K@Z@@@0@@Z
_TEXT	SEGMENT PARA USE32 PUBLIC 'CODE'
_TEXT	ENDS
;	COMDAT ??$_Allocate@PAV?$CMyBucket@P8CDPMonitor@@AEXAAVCAr@@K@Z@@@std@@YAPAPAV?$CMyBucket@P8CDPMonitor@@AEXAAVCAr@@K@Z@@IPAPAV1@@Z
_TEXT	SEGMENT PARA USE32 PUBLIC 'CODE'
_TEXT	ENDS
;	COMDAT ??$_Construct@PAV?$CMyBucket@P8CDPMonitor@@AEXAAVCAr@@K@Z@@PAV1@@std@@YAXPAPAV?$CMyBucket@P8CDPMonitor@@AEXAAVCAr@@K@Z@@ABQAV1@@Z
_TEXT	SEGMENT PARA USE32 PUBLIC 'CODE'
_TEXT	ENDS
;	COMDAT ??$_Allocate@PAPAV?$CMyBucket@P8CDPMonitor@@AEXAAVCAr@@K@Z@@@std@@YAPAPAPAV?$CMyBucket@P8CDPMonitor@@AEXAAVCAr@@K@Z@@IPAPAPAV1@@Z
_TEXT	SEGMENT PARA USE32 PUBLIC 'CODE'
_TEXT	ENDS
;	COMDAT ??$_Ptr_cat@PAV?$CMyBucket@P8CDPMonitor@@AEXAAVCAr@@K@Z@@@std@@YA?AU_Scalar_ptr_iterator_tag@0@PAPAPAV?$CMyBucket@P8CDPMonitor@@AEXAAVCAr@@K@Z@@0@Z
_TEXT	SEGMENT PARA USE32 PUBLIC 'CODE'
_TEXT	ENDS
;	COMDAT ??$_Uninit_copy@PAPAV?$CMyBucket@P8CDPMonitor@@AEXAAVCAr@@K@Z@@PAPAV1@@std@@YAPAPAPAV?$CMyBucket@P8CDPMonitor@@AEXAAVCAr@@K@Z@@PAPAPAV1@00AAV?$allocator@PAPAV?$CMyBucket@P8CDPMonitor@@AEXAAVCAr@@K@Z@@@0@U_Scalar_ptr_iterator_tag@0@@Z
_TEXT	SEGMENT PARA USE32 PUBLIC 'CODE'
_TEXT	ENDS
;	COMDAT ??$_Uninit_fill_n@PAPAV?$CMyBucket@P8CDPMonitor@@AEXAAVCAr@@K@Z@@IPAPAV1@@std@@YAXPAPAPAV?$CMyBucket@P8CDPMonitor@@AEXAAVCAr@@K@Z@@IABQAPAV1@AAV?$allocator@PAPAV?$CMyBucket@P8CDPMonitor@@AEXAAVCAr@@K@Z@@@0@U_Scalar_ptr_iterator_tag@0@@Z
_TEXT	SEGMENT PARA USE32 PUBLIC 'CODE'
_TEXT	ENDS
;	COMDAT ??$_Destroy_range@PAPAV?$CMyBucket@P8CDPMonitor@@AEXAAVCAr@@K@Z@@V?$allocator@PAPAV?$CMyBucket@P8CDPMonitor@@AEXAAVCAr@@K@Z@@@std@@@std@@YAXPAPAPAV?$CMyBucket@P8CDPMonitor@@AEXAAVCAr@@K@Z@@0AAV?$allocator@PAPAV?$CMyBucket@P8CDPMonitor@@AEXAAVCAr@@K@Z@@@0@U_Scalar_ptr_iterator_tag@0@@Z
_TEXT	SEGMENT PARA USE32 PUBLIC 'CODE'
_TEXT	ENDS
;	COMDAT ??$fill_n@PAPAPAV?$CMyBucket@P8CDPMonitor@@AEXAAVCAr@@K@Z@@IPAPAV1@@std@@YAXPAPAPAV?$CMyBucket@P8CDPMonitor@@AEXAAVCAr@@K@Z@@IABQAPAV1@@Z
_TEXT	SEGMENT PARA USE32 PUBLIC 'CODE'
_TEXT	ENDS
;	COMDAT ??_7?$CMyBucket@P8CDPMonitor@@AEXAAVCAr@@K@Z@@6B@
CONST	SEGMENT DWORD USE32 PUBLIC 'CONST'
CONST	ENDS
;	COMDAT ??_7?$CMyBucket@P8CDPConsoleSrvr@@AEXAAVCAr@@K@Z@@6B@
CONST	SEGMENT DWORD USE32 PUBLIC 'CONST'
CONST	ENDS
;	COMDAT ??_7?$CMyBucket@PAVCClientSockE@@@@6B@
CONST	SEGMENT DWORD USE32 PUBLIC 'CONST'
CONST	ENDS
;	COMDAT ??_7?$CMyBucket@PAVCClientSock@@@@6B@
CONST	SEGMENT DWORD USE32 PUBLIC 'CONST'
CONST	ENDS
;	COMDAT ?IsPrime@@YAHK@Z
_TEXT	SEGMENT PARA USE32 PUBLIC 'CODE'
_TEXT	ENDS
;	COMDAT ??0CMclCritSec@@QAE@XZ
_TEXT	SEGMENT PARA USE32 PUBLIC 'CODE'
_TEXT	ENDS
;	COMDAT ??_7CMclCritSec@@6B@
CONST	SEGMENT DWORD USE32 PUBLIC 'CONST'
CONST	ENDS
;	COMDAT ??_GCMclCritSec@@UAEPAXI@Z
_TEXT	SEGMENT PARA USE32 PUBLIC 'CODE'
_TEXT	ENDS
;	COMDAT ??_7?$CMyMap@P8CDPMonitor@@AEXAAVCAr@@K@Z@@6B@
CONST	SEGMENT DWORD USE32 PUBLIC 'CONST'
CONST	ENDS
;	COMDAT ??_7?$CMyPool@V?$CMyBucket@P8CDPMonitor@@AEXAAVCAr@@K@Z@@@@6B@
CONST	SEGMENT DWORD USE32 PUBLIC 'CONST'
CONST	ENDS
;	COMDAT ??_7?$CMyMap@P8CDPConsoleSrvr@@AEXAAVCAr@@K@Z@@6B@
CONST	SEGMENT DWORD USE32 PUBLIC 'CONST'
CONST	ENDS
;	COMDAT ??_7?$CMyPool@V?$CMyBucket@P8CDPConsoleSrvr@@AEXAAVCAr@@K@Z@@@@6B@
CONST	SEGMENT DWORD USE32 PUBLIC 'CONST'
CONST	ENDS
;	COMDAT ??_7?$CMyMap@PAVCClientSockE@@@@6B@
CONST	SEGMENT DWORD USE32 PUBLIC 'CONST'
CONST	ENDS
;	COMDAT ??_7?$CMyPool@V?$CMyBucket@PAVCClientSockE@@@@@@6B@
CONST	SEGMENT DWORD USE32 PUBLIC 'CONST'
CONST	ENDS
;	COMDAT ?IDHash@@YAKKI@Z
_TEXT	SEGMENT PARA USE32 PUBLIC 'CODE'
_TEXT	ENDS
;	COMDAT ??1CMclCritSec@@UAE@XZ
_TEXT	SEGMENT PARA USE32 PUBLIC 'CODE'
_TEXT	ENDS
;	COMDAT ??_7?$CMyMap@PAVCClientSock@@@@6B@
CONST	SEGMENT DWORD USE32 PUBLIC 'CONST'
CONST	ENDS
;	COMDAT ??_7?$CMyPool@V?$CMyBucket@PAVCClientSock@@@@@@6B@
CONST	SEGMENT DWORD USE32 PUBLIC 'CONST'
CONST	ENDS
;	COMDAT ?_Psave@?$_Facetptr@V?$ctype@G@std@@@std@@2PBVfacet@locale@2@B
_DATA	SEGMENT DWORD USE32 PUBLIC 'DATA'
_DATA	ENDS
;	COMDAT ?_Psave@?$_Facetptr@V?$ctype@D@std@@@std@@2PBVfacet@locale@2@B
_DATA	SEGMENT DWORD USE32 PUBLIC 'DATA'
_DATA	ENDS
;	COMDAT ?assign@?$basic_string@DU?$char_traits@D@std@@V?$allocator@D@2@@std@@QAEAAV12@PBD@Z
_TEXT	SEGMENT PARA USE32 PUBLIC 'CODE'
_TEXT	ENDS
;	COMDAT ?assign@?$basic_string@DU?$char_traits@D@std@@V?$allocator@D@2@@std@@QAEAAV12@PBDI@Z
_TEXT	SEGMENT PARA USE32 PUBLIC 'CODE'
_TEXT	ENDS
;	COMDAT ?_Inside@?$basic_string@DU?$char_traits@D@std@@V?$allocator@D@2@@std@@IAE_NPBD@Z
_TEXT	SEGMENT PARA USE32 PUBLIC 'CODE'
_TEXT	ENDS
;	COMDAT ?assign@?$basic_string@DU?$char_traits@D@std@@V?$allocator@D@2@@std@@QAEAAV12@ABV12@II@Z
_TEXT	SEGMENT PARA USE32 PUBLIC 'CODE'
_TEXT	ENDS
;	COMDAT ?size@?$basic_string@DU?$char_traits@D@std@@V?$allocator@D@2@@std@@QBEIXZ
_TEXT	SEGMENT PARA USE32 PUBLIC 'CODE'
_TEXT	ENDS
;	COMDAT ?npos@?$basic_string@DU?$char_traits@D@std@@V?$allocator@D@2@@std@@2IB
CONST	SEGMENT DWORD USE32 PUBLIC 'CONST'
CONST	ENDS
;	COMDAT ?erase@?$basic_string@DU?$char_traits@D@std@@V?$allocator@D@2@@std@@QAEAAV12@II@Z
_TEXT	SEGMENT PARA USE32 PUBLIC 'CODE'
_TEXT	ENDS
;	COMDAT ?move@?$char_traits@D@std@@SAPADPADPBDI@Z
_TEXT	SEGMENT PARA USE32 PUBLIC 'CODE'
_TEXT	ENDS
;	COMDAT ?_Myptr@?$basic_string@DU?$char_traits@D@std@@V?$allocator@D@2@@std@@QBEPBDXZ
_TEXT	SEGMENT PARA USE32 PUBLIC 'CODE'
_TEXT	ENDS
;	COMDAT ?_Grow@?$basic_string@DU?$char_traits@D@std@@V?$allocator@D@2@@std@@IAE_NI_N@Z
_TEXT	SEGMENT PARA USE32 PUBLIC 'CODE'
_TEXT	ENDS
;	COMDAT ?max_size@?$basic_string@DU?$char_traits@D@std@@V?$allocator@D@2@@std@@QBEIXZ
_TEXT	SEGMENT PARA USE32 PUBLIC 'CODE'
_TEXT	ENDS
;	COMDAT ?max_size@?$allocator@D@std@@QBEIXZ
_TEXT	SEGMENT PARA USE32 PUBLIC 'CODE'
_TEXT	ENDS
;	COMDAT ?_Copy@?$basic_string@DU?$char_traits@D@std@@V?$allocator@D@2@@std@@IAEXII@Z
_TEXT	SEGMENT PARA USE32 PUBLIC 'CODE'
_TEXT	ENDS
;	COMDAT ?allocate@?$allocator@D@std@@QAEPADI@Z
_TEXT	SEGMENT PARA USE32 PUBLIC 'CODE'
_TEXT	ENDS
;	COMDAT ??$_Allocate@D@std@@YAPADIPAD@Z
_TEXT	SEGMENT PARA USE32 PUBLIC 'CODE'
_TEXT	ENDS
;	COMDAT ?copy@?$char_traits@D@std@@SAPADPADPBDI@Z
_TEXT	SEGMENT PARA USE32 PUBLIC 'CODE'
_TEXT	ENDS
;	COMDAT ?_Myptr@?$basic_string@DU?$char_traits@D@std@@V?$allocator@D@2@@std@@QAEPADXZ
_TEXT	SEGMENT PARA USE32 PUBLIC 'CODE'
_TEXT	ENDS
;	COMDAT ?_Eos@?$basic_string@DU?$char_traits@D@std@@V?$allocator@D@2@@std@@IAEXI@Z
_TEXT	SEGMENT PARA USE32 PUBLIC 'CODE'
_TEXT	ENDS
;	COMDAT ?assign@?$char_traits@D@std@@SAXAADABD@Z
_TEXT	SEGMENT PARA USE32 PUBLIC 'CODE'
_TEXT	ENDS
;	COMDAT ?length@?$char_traits@D@std@@SAIPBD@Z
_TEXT	SEGMENT PARA USE32 PUBLIC 'CODE'
_TEXT	ENDS
;	COMDAT ?_Tidy@?$basic_string@DU?$char_traits@D@std@@V?$allocator@D@2@@std@@IAEX_NI@Z
_TEXT	SEGMENT PARA USE32 PUBLIC 'CODE'
_TEXT	ENDS
;	COMDAT ?deallocate@?$allocator@D@std@@QAEXPADI@Z
_TEXT	SEGMENT PARA USE32 PUBLIC 'CODE'
_TEXT	ENDS
;	COMDAT ??0?$_String_val@DV?$allocator@D@std@@@std@@IAE@V?$allocator@D@1@@Z
_TEXT	SEGMENT PARA USE32 PUBLIC 'CODE'
_TEXT	ENDS
;	COMDAT ??0?$allocator@D@std@@QAE@ABV01@@Z
_TEXT	SEGMENT PARA USE32 PUBLIC 'CODE'
_TEXT	ENDS
;	COMDAT ??0?$basic_string@DU?$char_traits@D@std@@V?$allocator@D@2@@std@@QAE@ABV01@@Z
_TEXT	SEGMENT PARA USE32 PUBLIC 'CODE'
_TEXT	ENDS
;	COMDAT ??_7logic_error@std@@6B@
CONST	SEGMENT DWORD USE32 PUBLIC 'CONST'
CONST	ENDS
;	COMDAT ??_Glogic_error@std@@UAEPAXI@Z
_TEXT	SEGMENT PARA USE32 PUBLIC 'CODE'
_TEXT	ENDS
;	COMDAT ?what@logic_error@std@@UBEPBDXZ
_TEXT	SEGMENT PARA USE32 PUBLIC 'CODE'
_TEXT	ENDS
;	COMDAT ?c_str@?$basic_string@DU?$char_traits@D@std@@V?$allocator@D@2@@std@@QBEPBDXZ
_TEXT	SEGMENT PARA USE32 PUBLIC 'CODE'
_TEXT	ENDS
;	COMDAT ??_7length_error@std@@6B@
CONST	SEGMENT DWORD USE32 PUBLIC 'CONST'
CONST	ENDS
;	COMDAT ??_Glength_error@std@@UAEPAXI@Z
_TEXT	SEGMENT PARA USE32 PUBLIC 'CODE'
_TEXT	ENDS
;	COMDAT ??1logic_error@std@@UAE@XZ
_TEXT	SEGMENT PARA USE32 PUBLIC 'CODE'
_TEXT	ENDS
;	COMDAT __CTA3?AVlength_error@std@@
xdata$x	SEGMENT DWORD USE32 PUBLIC 'CONST'
xdata$x	ENDS
;	COMDAT ??1length_error@std@@UAE@XZ
_TEXT	SEGMENT PARA USE32 PUBLIC 'CODE'
_TEXT	ENDS
;	COMDAT __CT??_R0?AVexception@@@8??0exception@@QAE@ABV0@@Z12
xdata$x	SEGMENT DWORD USE32 PUBLIC 'CONST'
xdata$x	ENDS
;	COMDAT ??_R0?AVexception@@@8
_DATA	SEGMENT DWORD USE32 PUBLIC 'DATA'
_DATA	ENDS
;	COMDAT __CT??_R0?AVlogic_error@std@@@8??0logic_error@std@@QAE@ABV01@@Z40
xdata$x	SEGMENT DWORD USE32 PUBLIC 'CONST'
xdata$x	ENDS
;	COMDAT __CT??_R0?AVlength_error@std@@@8??0length_error@std@@QAE@ABV01@@Z40
xdata$x	SEGMENT DWORD USE32 PUBLIC 'CONST'
xdata$x	ENDS
;	COMDAT ??_R0?AVlogic_error@std@@@8
_DATA	SEGMENT DWORD USE32 PUBLIC 'DATA'
_DATA	ENDS
;	COMDAT ??_R0?AVlength_error@std@@@8
_DATA	SEGMENT DWORD USE32 PUBLIC 'DATA'
_DATA	ENDS
;	COMDAT __TI3?AVlength_error@std@@
xdata$x	SEGMENT DWORD USE32 PUBLIC 'CONST'
xdata$x	ENDS
;	COMDAT ??1?$basic_string@DU?$char_traits@D@std@@V?$allocator@D@2@@std@@QAE@XZ
_TEXT	SEGMENT PARA USE32 PUBLIC 'CODE'
_TEXT	ENDS
;	COMDAT ??0length_error@std@@QAE@ABV?$basic_string@DU?$char_traits@D@std@@V?$allocator@D@2@@1@@Z
_TEXT	SEGMENT PARA USE32 PUBLIC 'CODE'
_TEXT	ENDS
;	COMDAT ??0logic_error@std@@QAE@ABV?$basic_string@DU?$char_traits@D@std@@V?$allocator@D@2@@1@@Z
_TEXT	SEGMENT PARA USE32 PUBLIC 'CODE'
_TEXT	ENDS
;	COMDAT ??3@YAXPAX0@Z
_TEXT	SEGMENT PARA USE32 PUBLIC 'CODE'
_TEXT	ENDS
;	COMDAT ??2@YAPAXIPAX@Z
_TEXT	SEGMENT PARA USE32 PUBLIC 'CODE'
_TEXT	ENDS
;	COMDAT ?ReleaseBufferSetLength@?$CSimpleStringT@D$0A@@ATL@@QAEXH@Z
_TEXT	SEGMENT PARA USE32 PUBLIC 'CODE'
_TEXT	ENDS
;	COMDAT ?SetLength@?$CSimpleStringT@D$0A@@ATL@@AAEXH@Z
_TEXT	SEGMENT PARA USE32 PUBLIC 'CODE'
_TEXT	ENDS
;	COMDAT ?AtlThrow@ATL@@YGXJ@Z
_TEXT	SEGMENT PARA USE32 PUBLIC 'CODE'
_TEXT	ENDS
;	COMDAT ?GetData@?$CSimpleStringT@D$0A@@ATL@@ABEPAUCStringData@2@XZ
_TEXT	SEGMENT PARA USE32 PUBLIC 'CODE'
_TEXT	ENDS
;	COMDAT ?CopyChars@?$CSimpleStringT@D$0A@@ATL@@SAXPADPBDH@Z
_TEXT	SEGMENT PARA USE32 PUBLIC 'CODE'
_TEXT	ENDS
;	COMDAT ?GetBuffer@?$CSimpleStringT@D$0A@@ATL@@QAEPADH@Z
_TEXT	SEGMENT PARA USE32 PUBLIC 'CODE'
_TEXT	ENDS
;	COMDAT ?PrepareWrite@?$CSimpleStringT@D$0A@@ATL@@AAEPADH@Z
_TEXT	SEGMENT PARA USE32 PUBLIC 'CODE'
_TEXT	ENDS
;	COMDAT ?PrepareWrite2@?$CSimpleStringT@D$0A@@ATL@@AAEXH@Z
_TEXT	SEGMENT PARA USE32 PUBLIC 'CODE'
_TEXT	ENDS
;	COMDAT ?IsShared@CStringData@ATL@@QBE_NXZ
_TEXT	SEGMENT PARA USE32 PUBLIC 'CODE'
_TEXT	ENDS
;	COMDAT ?Fork@?$CSimpleStringT@D$0A@@ATL@@AAEXH@Z
_TEXT	SEGMENT PARA USE32 PUBLIC 'CODE'
_TEXT	ENDS
;	COMDAT ?ThrowMemoryException@?$CSimpleStringT@D$0A@@ATL@@KAXXZ
_TEXT	SEGMENT PARA USE32 PUBLIC 'CODE'
_TEXT	ENDS
;	COMDAT ?data@CStringData@ATL@@QAEPAXXZ
_TEXT	SEGMENT PARA USE32 PUBLIC 'CODE'
_TEXT	ENDS
;	COMDAT ?Release@CStringData@ATL@@QAEXXZ
_TEXT	SEGMENT PARA USE32 PUBLIC 'CODE'
_TEXT	ENDS
;	COMDAT ?Attach@?$CSimpleStringT@D$0A@@ATL@@AAEXPAUCStringData@2@@Z
_TEXT	SEGMENT PARA USE32 PUBLIC 'CODE'
_TEXT	ENDS
;	COMDAT ?Reallocate@?$CSimpleStringT@D$0A@@ATL@@AAEXH@Z
_TEXT	SEGMENT PARA USE32 PUBLIC 'CODE'
_TEXT	ENDS
;	COMDAT ?GetLength@?$CSimpleStringT@D$0A@@ATL@@QBEHXZ
_TEXT	SEGMENT PARA USE32 PUBLIC 'CODE'
_TEXT	ENDS
;	COMDAT ?GetString@?$CSimpleStringT@D$0A@@ATL@@QBEPBDXZ
_TEXT	SEGMENT PARA USE32 PUBLIC 'CODE'
_TEXT	ENDS
;	COMDAT ?StringLength@?$CSimpleStringT@D$0A@@ATL@@SAHPBD@Z
_TEXT	SEGMENT PARA USE32 PUBLIC 'CODE'
_TEXT	ENDS
;	COMDAT ?SelectItem@CTreeCtrl@@QAEHPAU_TREEITEM@@@Z
_TEXT	SEGMENT PARA USE32 PUBLIC 'CODE'
_TEXT	ENDS
;	COMDAT ??B?$CSimpleStringT@D$0A@@ATL@@QBEPBDXZ
_TEXT	SEGMENT PARA USE32 PUBLIC 'CODE'
_TEXT	ENDS
;	COMDAT ?SetItemText@CTreeCtrl@@QAEHPAU_TREEITEM@@PBD@Z
_TEXT	SEGMENT PARA USE32 PUBLIC 'CODE'
_TEXT	ENDS
;	COMDAT ?Find@?$CStringT@DV?$StrTraitMFC@DV?$ChTraitsCRT@D@ATL@@@@@ATL@@QBEHPBDH@Z
_TEXT	SEGMENT PARA USE32 PUBLIC 'CODE'
_TEXT	ENDS
;	COMDAT ?StringFindString@?$ChTraitsCRT@D@ATL@@SAPBDPBD0@Z
_TEXT	SEGMENT PARA USE32 PUBLIC 'CODE'
_TEXT	ENDS
;	COMDAT ??1?$CStringT@DV?$StrTraitMFC@DV?$ChTraitsCRT@D@ATL@@@@@ATL@@QAE@XZ
_TEXT	SEGMENT PARA USE32 PUBLIC 'CODE'
_TEXT	ENDS
;	COMDAT ??1?$CSimpleStringT@D$0A@@ATL@@QAE@XZ
_TEXT	SEGMENT PARA USE32 PUBLIC 'CODE'
_TEXT	ENDS
;	COMDAT ?GetTickCount@CTime@ATL@@SG?AV12@XZ
_TEXT	SEGMENT PARA USE32 PUBLIC 'CODE'
_TEXT	ENDS
;	COMDAT ??0CTime@ATL@@QAE@_J@Z
_TEXT	SEGMENT PARA USE32 PUBLIC 'CODE'
_TEXT	ENDS
;	COMDAT ?GetRootItem@CTreeCtrl@@QBEPAU_TREEITEM@@XZ
_TEXT	SEGMENT PARA USE32 PUBLIC 'CODE'
_TEXT	ENDS
;	COMDAT ??_7CDPMonitor@@6B@
CONST	SEGMENT DWORD USE32 PUBLIC 'CONST'
CONST	ENDS
;	COMDAT ??1CMclAutoLock@@QAE@XZ
_TEXT	SEGMENT PARA USE32 PUBLIC 'CODE'
_TEXT	ENDS
;	COMDAT ?Leave@CMclCritSec@@QAEXXZ
_TEXT	SEGMENT PARA USE32 PUBLIC 'CODE'
_TEXT	ENDS
;	COMDAT ??0CMclAutoLock@@QAE@AAVCMclCritSec@@@Z
_TEXT	SEGMENT PARA USE32 PUBLIC 'CODE'
_TEXT	ENDS
;	COMDAT ?Enter@CMclCritSec@@QAEXXZ
_TEXT	SEGMENT PARA USE32 PUBLIC 'CODE'
_TEXT	ENDS
;	COMDAT ??_7CBuffer2@@6B@
CONST	SEGMENT DWORD USE32 PUBLIC 'CONST'
CONST	ENDS
;	COMDAT ??0CTime@ATL@@QAE@XZ
_TEXT	SEGMENT PARA USE32 PUBLIC 'CODE'
_TEXT	ENDS
sxdata	SEGMENT DWORD USE32 'SXDATA'
sxdata	ENDS
FLAT	GROUP _DATA, CONST, _BSS
	ASSUME	CS: FLAT, DS: FLAT, SS: FLAT
endif

INCLUDELIB LIBCMT
INCLUDELIB OLDNAMES

PUBLIC	??2@YAPAXIPAX@Z					; operator new
; Function compile flags: /Ogty
; File c:\program files\microsoft visual studio .net 2003\vc7\include\new.h
;	COMDAT ??2@YAPAXIPAX@Z
_TEXT	SEGMENT
___formal$ = 8						; size = 4
__P$ = 12						; size = 4
??2@YAPAXIPAX@Z PROC NEAR				; operator new, COMDAT

; 109  :         {return (_P); }

  00000	8b 44 24 08	 mov	 eax, DWORD PTR __P$[esp-4]
  00004	c3		 ret	 0
??2@YAPAXIPAX@Z ENDP					; operator new
_TEXT	ENDS
PUBLIC	??3@YAXPAX0@Z					; operator delete
; Function compile flags: /Ogty
;	COMDAT ??3@YAXPAX0@Z
_TEXT	SEGMENT
___formal$ = 8						; size = 4
___formal$ = 12						; size = 4
??3@YAXPAX0@Z PROC NEAR					; operator delete, COMDAT

; 112  :         {return; }

  00000	c3		 ret	 0
??3@YAXPAX0@Z ENDP					; operator delete
_TEXT	ENDS
PUBLIC	??5CAr@@QAEAAV0@AAK@Z				; CAr::operator>>
; Function compile flags: /Ogty
; File c:\offi src_real\offi src!\_network\misc\include\ar.h
;	COMDAT ??5CAr@@QAEAAV0@AAK@Z
_TEXT	SEGMENT
_dw$ = 8						; size = 4
??5CAr@@QAEAAV0@AAK@Z PROC NEAR				; CAr::operator>>, COMDAT
; _this$ = ecx

; 146  : 	{	CAR_SAFE_READ( DWORD, dw );	}

  00000	8b c1		 mov	 eax, ecx
  00002	8b 48 08	 mov	 ecx, DWORD PTR [eax+8]
  00005	56		 push	 esi
  00006	8b 70 0c	 mov	 esi, DWORD PTR [eax+12]
  00009	8d 51 04	 lea	 edx, DWORD PTR [ecx+4]
  0000c	3b d6		 cmp	 edx, esi
  0000e	5e		 pop	 esi
  0000f	77 0f		 ja	 SHORT $L154039
  00011	8b 09		 mov	 ecx, DWORD PTR [ecx]
  00013	8b 54 24 04	 mov	 edx, DWORD PTR _dw$[esp-4]
  00017	89 0a		 mov	 DWORD PTR [edx], ecx
  00019	83 40 08 04	 add	 DWORD PTR [eax+8], 4
  0001d	c2 04 00	 ret	 4
$L154039:
  00020	8b 4c 24 04	 mov	 ecx, DWORD PTR _dw$[esp-4]
  00024	c7 01 00 00 00
	00		 mov	 DWORD PTR [ecx], 0
  0002a	8b 50 0c	 mov	 edx, DWORD PTR [eax+12]
  0002d	89 50 08	 mov	 DWORD PTR [eax+8], edx
  00030	c2 04 00	 ret	 4
??5CAr@@QAEAAV0@AAK@Z ENDP				; CAr::operator>>
_TEXT	ENDS
PUBLIC	??5CAr@@QAEAAV0@AAJ@Z				; CAr::operator>>
; Function compile flags: /Ogty
;	COMDAT ??5CAr@@QAEAAV0@AAJ@Z
_TEXT	SEGMENT
_l$ = 8							; size = 4
??5CAr@@QAEAAV0@AAJ@Z PROC NEAR				; CAr::operator>>, COMDAT
; _this$ = ecx

; 152  : 	{	CAR_SAFE_READ( LONG, l );	}

  00000	8b c1		 mov	 eax, ecx
  00002	8b 48 08	 mov	 ecx, DWORD PTR [eax+8]
  00005	56		 push	 esi
  00006	8b 70 0c	 mov	 esi, DWORD PTR [eax+12]
  00009	8d 51 04	 lea	 edx, DWORD PTR [ecx+4]
  0000c	3b d6		 cmp	 edx, esi
  0000e	5e		 pop	 esi
  0000f	77 0f		 ja	 SHORT $L154069
  00011	8b 09		 mov	 ecx, DWORD PTR [ecx]
  00013	8b 54 24 04	 mov	 edx, DWORD PTR _l$[esp-4]
  00017	89 0a		 mov	 DWORD PTR [edx], ecx
  00019	83 40 08 04	 add	 DWORD PTR [eax+8], 4
  0001d	c2 04 00	 ret	 4
$L154069:
  00020	8b 4c 24 04	 mov	 ecx, DWORD PTR _l$[esp-4]
  00024	c7 01 00 00 00
	00		 mov	 DWORD PTR [ecx], 0
  0002a	8b 50 0c	 mov	 edx, DWORD PTR [eax+12]
  0002d	89 50 08	 mov	 DWORD PTR [eax+8], edx
  00030	c2 04 00	 ret	 4
??5CAr@@QAEAAV0@AAJ@Z ENDP				; CAr::operator>>
_TEXT	ENDS
PUBLIC	?AtlThrow@ATL@@YGXJ@Z				; ATL::AtlThrow
EXTRN	?AfxThrowMemoryException@@YGXXZ:NEAR		; AfxThrowMemoryException
EXTRN	?AfxThrowOleException@@YGXJ@Z:NEAR		; AfxThrowOleException
; Function compile flags: /Ogty
; File c:\program files\microsoft visual studio .net 2003\vc7\atlmfc\include\atlexcept.h
;	COMDAT ?AtlThrow@ATL@@YGXJ@Z
_TEXT	SEGMENT
_hr$ = 8						; size = 4
?AtlThrow@ATL@@YGXJ@Z PROC NEAR				; ATL::AtlThrow, COMDAT

; 62   : 	ATLTRACE(atlTraceException, 0, _T("AtlThrow: hr = 0x%x\n"), hr );
; 63   : #ifdef _AFX
; 64   : 	if( hr == E_OUTOFMEMORY )

  00000	8b 44 24 04	 mov	 eax, DWORD PTR _hr$[esp-4]
  00004	3d 0e 00 07 80	 cmp	 eax, -2147024882	; 8007000eH
  00009	75 05		 jne	 SHORT $L37616

; 65   : 	{
; 66   : 		AfxThrowMemoryException();

  0000b	e8 00 00 00 00	 call	 ?AfxThrowMemoryException@@YGXXZ ; AfxThrowMemoryException
$L159915:
$L37616:

; 67   : 	}
; 68   : 	else
; 69   : 	{
; 70   : 		AfxThrowOleException( hr );

  00010	50		 push	 eax
  00011	e8 00 00 00 00	 call	 ?AfxThrowOleException@@YGXJ@Z ; AfxThrowOleException
$L159916:
$L159914:
  00016	cc		 int	 3
?AtlThrow@ATL@@YGXJ@Z ENDP				; ATL::AtlThrow
_TEXT	ENDS
PUBLIC	??0?$allocator@D@std@@QAE@XZ			; std::allocator<char>::allocator<char>
; Function compile flags: /Ogty
; File c:\program files\microsoft visual studio .net 2003\vc7\include\xmemory
;	COMDAT ??0?$allocator@D@std@@QAE@XZ
_TEXT	SEGMENT
??0?$allocator@D@std@@QAE@XZ PROC NEAR			; std::allocator<char>::allocator<char>, COMDAT
; _this$ = ecx

; 111  : 	allocator()

  00000	8b c1		 mov	 eax, ecx

; 112  : 		{	// construct default allocator (do nothing)
; 113  : 		}

  00002	c3		 ret	 0
??0?$allocator@D@std@@QAE@XZ ENDP			; std::allocator<char>::allocator<char>
_TEXT	ENDS
PUBLIC	?data@CStringData@ATL@@QAEPAXXZ			; ATL::CStringData::data
; Function compile flags: /Ogty
; File c:\program files\microsoft visual studio .net 2003\vc7\atlmfc\include\atlsimpstr.h
;	COMDAT ?data@CStringData@ATL@@QAEPAXXZ
_TEXT	SEGMENT
?data@CStringData@ATL@@QAEPAXXZ PROC NEAR		; ATL::CStringData::data, COMDAT
; _this$ = ecx

; 66   : 		return (this+1);

  00000	8d 41 10	 lea	 eax, DWORD PTR [ecx+16]

; 67   : 	}

  00003	c3		 ret	 0
?data@CStringData@ATL@@QAEPAXXZ ENDP			; ATL::CStringData::data
_TEXT	ENDS
PUBLIC	?IsShared@CStringData@ATL@@QBE_NXZ		; ATL::CStringData::IsShared
; Function compile flags: /Ogty
;	COMDAT ?IsShared@CStringData@ATL@@QBE_NXZ
_TEXT	SEGMENT
?IsShared@CStringData@ATL@@QBE_NXZ PROC NEAR		; ATL::CStringData::IsShared, COMDAT
; _this$ = ecx

; 80   : 		return( nRefs > 1 ); 

  00000	8b 51 0c	 mov	 edx, DWORD PTR [ecx+12]
  00003	33 c0		 xor	 eax, eax
  00005	83 fa 01	 cmp	 edx, 1
  00008	0f 9f c0	 setg	 al

; 81   : 	}

  0000b	c3		 ret	 0
?IsShared@CStringData@ATL@@QBE_NXZ ENDP			; ATL::CStringData::IsShared
_TEXT	ENDS
PUBLIC	?Release@CStringData@ATL@@QAEXXZ		; ATL::CStringData::Release
; Function compile flags: /Ogty
;	COMDAT ?Release@CStringData@ATL@@QAEXXZ
_TEXT	SEGMENT
?Release@CStringData@ATL@@QAEXXZ PROC NEAR		; ATL::CStringData::Release, COMDAT
; _this$ = ecx

; 93   : 		ATLASSERT( nRefs != 0 );
; 94   : 
; 95   : 		if( _InterlockedDecrement( &nRefs ) <= 0 )

  00000	8d 41 0c	 lea	 eax, DWORD PTR [ecx+12]
  00003	83 ca ff	 or	 edx, -1
  00006	f0 0f c1 10	 lock	  xadd	 DWORD PTR [eax], edx
  0000a	4a		 dec	 edx
  0000b	85 d2		 test	 edx, edx
  0000d	7f 0a		 jg	 SHORT $L38333

; 96   : 		{
; 97   : 			pStringMgr->Free( this );

  0000f	8b 01		 mov	 eax, DWORD PTR [ecx]
  00011	8b 10		 mov	 edx, DWORD PTR [eax]
  00013	51		 push	 ecx
  00014	8b c8		 mov	 ecx, eax
  00016	ff 52 04	 call	 DWORD PTR [edx+4]
$L38333:

; 98   : 		}
; 99   : 	}

  00019	c3		 ret	 0
?Release@CStringData@ATL@@QAEXXZ ENDP			; ATL::CStringData::Release
_TEXT	ENDS
PUBLIC	?empty@?$deque@PAV?$CMyBucket@P8CDPMonitor@@AEXAAVCAr@@K@Z@@V?$allocator@PAV?$CMyBucket@P8CDPMonitor@@AEXAAVCAr@@K@Z@@@std@@@std@@QBE_NXZ ; std::deque<CMyBucket<void (__thiscall CDPMonitor::*)(CAr &,unsigned long)> *,std::allocator<CMyBucket<void (__thiscall CDPMonitor::*)(CAr &,unsigned long)> *> >::empty
; Function compile flags: /Ogty
; File c:\program files\microsoft visual studio .net 2003\vc7\include\deque
;	COMDAT ?empty@?$deque@PAV?$CMyBucket@P8CDPMonitor@@AEXAAVCAr@@K@Z@@V?$allocator@PAV?$CMyBucket@P8CDPMonitor@@AEXAAVCAr@@K@Z@@@std@@@std@@QBE_NXZ
_TEXT	SEGMENT
?empty@?$deque@PAV?$CMyBucket@P8CDPMonitor@@AEXAAVCAr@@K@Z@@V?$allocator@PAV?$CMyBucket@P8CDPMonitor@@AEXAAVCAr@@K@Z@@@std@@@std@@QBE_NXZ PROC NEAR ; std::deque<CMyBucket<void (__thiscall CDPMonitor::*)(CAr &,unsigned long)> *,std::allocator<CMyBucket<void (__thiscall CDPMonitor::*)(CAr &,unsigned long)> *> >::empty, COMDAT
; _this$ = ecx

; 502  : 		return (_Mysize == 0);

  00000	8b 51 10	 mov	 edx, DWORD PTR [ecx+16]
  00003	33 c0		 xor	 eax, eax
  00005	85 d2		 test	 edx, edx
  00007	0f 94 c0	 sete	 al

; 503  : 		}

  0000a	c3		 ret	 0
?empty@?$deque@PAV?$CMyBucket@P8CDPMonitor@@AEXAAVCAr@@K@Z@@V?$allocator@PAV?$CMyBucket@P8CDPMonitor@@AEXAAVCAr@@K@Z@@@std@@@std@@QBE_NXZ ENDP ; std::deque<CMyBucket<void (__thiscall CDPMonitor::*)(CAr &,unsigned long)> *,std::allocator<CMyBucket<void (__thiscall CDPMonitor::*)(CAr &,unsigned long)> *> >::empty
_TEXT	ENDS
PUBLIC	?deallocate@?$allocator@PAV?$CMyBucket@P8CDPMonitor@@AEXAAVCAr@@K@Z@@@std@@QAEXPAPAV?$CMyBucket@P8CDPMonitor@@AEXAAVCAr@@K@Z@@I@Z ; std::allocator<CMyBucket<void (__thiscall CDPMonitor::*)(CAr &,unsigned long)> *>::deallocate
EXTRN	??3@YAXPAX@Z:NEAR				; operator delete
; Function compile flags: /Ogty
; File c:\program files\microsoft visual studio .net 2003\vc7\include\xmemory
;	COMDAT ?deallocate@?$allocator@PAV?$CMyBucket@P8CDPMonitor@@AEXAAVCAr@@K@Z@@@std@@QAEXPAPAV?$CMyBucket@P8CDPMonitor@@AEXAAVCAr@@K@Z@@I@Z
_TEXT	SEGMENT
__Ptr$ = 8						; size = 4
___formal$ = 12						; size = 4
?deallocate@?$allocator@PAV?$CMyBucket@P8CDPMonitor@@AEXAAVCAr@@K@Z@@@std@@QAEXPAPAV?$CMyBucket@P8CDPMonitor@@AEXAAVCAr@@K@Z@@I@Z PROC NEAR ; std::allocator<CMyBucket<void (__thiscall CDPMonitor::*)(CAr &,unsigned long)> *>::deallocate, COMDAT
; _this$ = ecx

; 132  : 		operator delete(_Ptr);

  00000	8b 44 24 04	 mov	 eax, DWORD PTR __Ptr$[esp-4]
  00004	50		 push	 eax
  00005	e8 00 00 00 00	 call	 ??3@YAXPAX@Z		; operator delete
  0000a	59		 pop	 ecx

; 133  : 		}

  0000b	c2 08 00	 ret	 8
?deallocate@?$allocator@PAV?$CMyBucket@P8CDPMonitor@@AEXAAVCAr@@K@Z@@@std@@QAEXPAPAV?$CMyBucket@P8CDPMonitor@@AEXAAVCAr@@K@Z@@I@Z ENDP ; std::allocator<CMyBucket<void (__thiscall CDPMonitor::*)(CAr &,unsigned long)> *>::deallocate
_TEXT	ENDS
PUBLIC	?deallocate@?$allocator@PAPAV?$CMyBucket@P8CDPMonitor@@AEXAAVCAr@@K@Z@@@std@@QAEXPAPAPAV?$CMyBucket@P8CDPMonitor@@AEXAAVCAr@@K@Z@@I@Z ; std::allocator<CMyBucket<void (__thiscall CDPMonitor::*)(CAr &,unsigned long)> * *>::deallocate
; Function compile flags: /Ogty
;	COMDAT ?deallocate@?$allocator@PAPAV?$CMyBucket@P8CDPMonitor@@AEXAAVCAr@@K@Z@@@std@@QAEXPAPAPAV?$CMyBucket@P8CDPMonitor@@AEXAAVCAr@@K@Z@@I@Z
_TEXT	SEGMENT
__Ptr$ = 8						; size = 4
___formal$ = 12						; size = 4
?deallocate@?$allocator@PAPAV?$CMyBucket@P8CDPMonitor@@AEXAAVCAr@@K@Z@@@std@@QAEXPAPAPAV?$CMyBucket@P8CDPMonitor@@AEXAAVCAr@@K@Z@@I@Z PROC NEAR ; std::allocator<CMyBucket<void (__thiscall CDPMonitor::*)(CAr &,unsigned long)> * *>::deallocate, COMDAT
; _this$ = ecx

; 132  : 		operator delete(_Ptr);

  00000	8b 44 24 04	 mov	 eax, DWORD PTR __Ptr$[esp-4]
  00004	50		 push	 eax
  00005	e8 00 00 00 00	 call	 ??3@YAXPAX@Z		; operator delete
  0000a	59		 pop	 ecx

; 133  : 		}

  0000b	c2 08 00	 ret	 8
?deallocate@?$allocator@PAPAV?$CMyBucket@P8CDPMonitor@@AEXAAVCAr@@K@Z@@@std@@QAEXPAPAPAV?$CMyBucket@P8CDPMonitor@@AEXAAVCAr@@K@Z@@I@Z ENDP ; std::allocator<CMyBucket<void (__thiscall CDPMonitor::*)(CAr &,unsigned long)> * *>::deallocate
_TEXT	ENDS
PUBLIC	?_Nextnode@?$list@PAV?$CMyBucket@P8CDPMonitor@@AEXAAVCAr@@K@Z@@V?$allocator@PAV?$CMyBucket@P8CDPMonitor@@AEXAAVCAr@@K@Z@@@std@@@std@@KAAAPAU_Node@?$_List_nod@PAV?$CMyBucket@P8CDPMonitor@@AEXAAVCAr@@K@Z@@V?$allocator@PAV?$CMyBucket@P8CDPMonitor@@AEXAAVCAr@@K@Z@@@std@@@2@PAU342@@Z ; std::list<CMyBucket<void (__thiscall CDPMonitor::*)(CAr &,unsigned long)> *,std::allocator<CMyBucket<void (__thiscall CDPMonitor::*)(CAr &,unsigned long)> *> >::_Nextnode
; Function compile flags: /Ogty
; File c:\program files\microsoft visual studio .net 2003\vc7\include\list
;	COMDAT ?_Nextnode@?$list@PAV?$CMyBucket@P8CDPMonitor@@AEXAAVCAr@@K@Z@@V?$allocator@PAV?$CMyBucket@P8CDPMonitor@@AEXAAVCAr@@K@Z@@@std@@@std@@KAAAPAU_Node@?$_List_nod@PAV?$CMyBucket@P8CDPMonitor@@AEXAAVCAr@@K@Z@@V?$allocator@PAV?$CMyBucket@P8CDPMonitor@@AEXAAVCAr@@K@Z@@@std@@@2@PAU342@@Z
_TEXT	SEGMENT
__Pnode$ = 8						; size = 4
?_Nextnode@?$list@PAV?$CMyBucket@P8CDPMonitor@@AEXAAVCAr@@K@Z@@V?$allocator@PAV?$CMyBucket@P8CDPMonitor@@AEXAAVCAr@@K@Z@@@std@@@std@@KAAAPAU_Node@?$_List_nod@PAV?$CMyBucket@P8CDPMonitor@@AEXAAVCAr@@K@Z@@V?$allocator@PAV?$CMyBucket@P8CDPMonitor@@AEXAAVCAr@@K@Z@@@std@@@2@PAU342@@Z PROC NEAR ; std::list<CMyBucket<void (__thiscall CDPMonitor::*)(CAr &,unsigned long)> *,std::allocator<CMyBucket<void (__thiscall CDPMonitor::*)(CAr &,unsigned long)> *> >::_Nextnode, COMDAT

; 108  : 		return ((_Nodepref)(*_Pnode)._Next);

  00000	8b 44 24 04	 mov	 eax, DWORD PTR __Pnode$[esp-4]

; 109  : 		}

  00004	c3		 ret	 0
?_Nextnode@?$list@PAV?$CMyBucket@P8CDPMonitor@@AEXAAVCAr@@K@Z@@V?$allocator@PAV?$CMyBucket@P8CDPMonitor@@AEXAAVCAr@@K@Z@@@std@@@std@@KAAAPAU_Node@?$_List_nod@PAV?$CMyBucket@P8CDPMonitor@@AEXAAVCAr@@K@Z@@V?$allocator@PAV?$CMyBucket@P8CDPMonitor@@AEXAAVCAr@@K@Z@@@std@@@2@PAU342@@Z ENDP ; std::list<CMyBucket<void (__thiscall CDPMonitor::*)(CAr &,unsigned long)> *,std::allocator<CMyBucket<void (__thiscall CDPMonitor::*)(CAr &,unsigned long)> *> >::_Nextnode
_TEXT	ENDS
PUBLIC	?_Prevnode@?$list@PAV?$CMyBucket@P8CDPMonitor@@AEXAAVCAr@@K@Z@@V?$allocator@PAV?$CMyBucket@P8CDPMonitor@@AEXAAVCAr@@K@Z@@@std@@@std@@KAAAPAU_Node@?$_List_nod@PAV?$CMyBucket@P8CDPMonitor@@AEXAAVCAr@@K@Z@@V?$allocator@PAV?$CMyBucket@P8CDPMonitor@@AEXAAVCAr@@K@Z@@@std@@@2@PAU342@@Z ; std::list<CMyBucket<void (__thiscall CDPMonitor::*)(CAr &,unsigned long)> *,std::allocator<CMyBucket<void (__thiscall CDPMonitor::*)(CAr &,unsigned long)> *> >::_Prevnode
; Function compile flags: /Ogty
;	COMDAT ?_Prevnode@?$list@PAV?$CMyBucket@P8CDPMonitor@@AEXAAVCAr@@K@Z@@V?$allocator@PAV?$CMyBucket@P8CDPMonitor@@AEXAAVCAr@@K@Z@@@std@@@std@@KAAAPAU_Node@?$_List_nod@PAV?$CMyBucket@P8CDPMonitor@@AEXAAVCAr@@K@Z@@V?$allocator@PAV?$CMyBucket@P8CDPMonitor@@AEXAAVCAr@@K@Z@@@std@@@2@PAU342@@Z
_TEXT	SEGMENT
__Pnode$ = 8						; size = 4
?_Prevnode@?$list@PAV?$CMyBucket@P8CDPMonitor@@AEXAAVCAr@@K@Z@@V?$allocator@PAV?$CMyBucket@P8CDPMonitor@@AEXAAVCAr@@K@Z@@@std@@@std@@KAAAPAU_Node@?$_List_nod@PAV?$CMyBucket@P8CDPMonitor@@AEXAAVCAr@@K@Z@@V?$allocator@PAV?$CMyBucket@P8CDPMonitor@@AEXAAVCAr@@K@Z@@@std@@@2@PAU342@@Z PROC NEAR ; std::list<CMyBucket<void (__thiscall CDPMonitor::*)(CAr &,unsigned long)> *,std::allocator<CMyBucket<void (__thiscall CDPMonitor::*)(CAr &,unsigned long)> *> >::_Prevnode, COMDAT

; 113  : 		return ((_Nodepref)(*_Pnode)._Prev);

  00000	8b 44 24 04	 mov	 eax, DWORD PTR __Pnode$[esp-4]
  00004	83 c0 04	 add	 eax, 4

; 114  : 		}

  00007	c3		 ret	 0
?_Prevnode@?$list@PAV?$CMyBucket@P8CDPMonitor@@AEXAAVCAr@@K@Z@@V?$allocator@PAV?$CMyBucket@P8CDPMonitor@@AEXAAVCAr@@K@Z@@@std@@@std@@KAAAPAU_Node@?$_List_nod@PAV?$CMyBucket@P8CDPMonitor@@AEXAAVCAr@@K@Z@@V?$allocator@PAV?$CMyBucket@P8CDPMonitor@@AEXAAVCAr@@K@Z@@@std@@@2@PAU342@@Z ENDP ; std::list<CMyBucket<void (__thiscall CDPMonitor::*)(CAr &,unsigned long)> *,std::allocator<CMyBucket<void (__thiscall CDPMonitor::*)(CAr &,unsigned long)> *> >::_Prevnode
_TEXT	ENDS
PUBLIC	?deallocate@?$allocator@U_Node@?$_List_nod@PAV?$CMyBucket@P8CDPMonitor@@AEXAAVCAr@@K@Z@@V?$allocator@PAV?$CMyBucket@P8CDPMonitor@@AEXAAVCAr@@K@Z@@@std@@@std@@@std@@QAEXPAU_Node@?$_List_nod@PAV?$CMyBucket@P8CDPMonitor@@AEXAAVCAr@@K@Z@@V?$allocator@PAV?$CMyBucket@P8CDPMonitor@@AEXAAVCAr@@K@Z@@@std@@@2@I@Z ; std::allocator<std::_List_nod<CMyBucket<void (__thiscall CDPMonitor::*)(CAr &,unsigned long)> *,std::allocator<CMyBucket<void (__thiscall CDPMonitor::*)(CAr &,unsigned long)> *> >::_Node>::deallocate
; Function compile flags: /Ogty
; File c:\program files\microsoft visual studio .net 2003\vc7\include\xmemory
;	COMDAT ?deallocate@?$allocator@U_Node@?$_List_nod@PAV?$CMyBucket@P8CDPMonitor@@AEXAAVCAr@@K@Z@@V?$allocator@PAV?$CMyBucket@P8CDPMonitor@@AEXAAVCAr@@K@Z@@@std@@@std@@@std@@QAEXPAU_Node@?$_List_nod@PAV?$CMyBucket@P8CDPMonitor@@AEXAAVCAr@@K@Z@@V?$allocator@PAV?$CMyBucket@P8CDPMonitor@@AEXAAVCAr@@K@Z@@@std@@@2@I@Z
_TEXT	SEGMENT
__Ptr$ = 8						; size = 4
___formal$ = 12						; size = 4
?deallocate@?$allocator@U_Node@?$_List_nod@PAV?$CMyBucket@P8CDPMonitor@@AEXAAVCAr@@K@Z@@V?$allocator@PAV?$CMyBucket@P8CDPMonitor@@AEXAAVCAr@@K@Z@@@std@@@std@@@std@@QAEXPAU_Node@?$_List_nod@PAV?$CMyBucket@P8CDPMonitor@@AEXAAVCAr@@K@Z@@V?$allocator@PAV?$CMyBucket@P8CDPMonitor@@AEXAAVCAr@@K@Z@@@std@@@2@I@Z PROC NEAR ; std::allocator<std::_List_nod<CMyBucket<void (__thiscall CDPMonitor::*)(CAr &,unsigned long)> *,std::allocator<CMyBucket<void (__thiscall CDPMonitor::*)(CAr &,unsigned long)> *> >::_Node>::deallocate, COMDAT
; _this$ = ecx

; 132  : 		operator delete(_Ptr);

  00000	8b 44 24 04	 mov	 eax, DWORD PTR __Ptr$[esp-4]
  00004	50		 push	 eax
  00005	e8 00 00 00 00	 call	 ??3@YAXPAX@Z		; operator delete
  0000a	59		 pop	 ecx

; 133  : 		}

  0000b	c2 08 00	 ret	 8
?deallocate@?$allocator@U_Node@?$_List_nod@PAV?$CMyBucket@P8CDPMonitor@@AEXAAVCAr@@K@Z@@V?$allocator@PAV?$CMyBucket@P8CDPMonitor@@AEXAAVCAr@@K@Z@@@std@@@std@@@std@@QAEXPAU_Node@?$_List_nod@PAV?$CMyBucket@P8CDPMonitor@@AEXAAVCAr@@K@Z@@V?$allocator@PAV?$CMyBucket@P8CDPMonitor@@AEXAAVCAr@@K@Z@@@std@@@2@I@Z ENDP ; std::allocator<std::_List_nod<CMyBucket<void (__thiscall CDPMonitor::*)(CAr &,unsigned long)> *,std::allocator<CMyBucket<void (__thiscall CDPMonitor::*)(CAr &,unsigned long)> *> >::_Node>::deallocate
_TEXT	ENDS
PUBLIC	??0CTime@ATL@@QAE@_J@Z				; ATL::CTime::CTime
; Function compile flags: /Ogty
; File c:\program files\microsoft visual studio .net 2003\vc7\atlmfc\include\atltime.inl
;	COMDAT ??0CTime@ATL@@QAE@_J@Z
_TEXT	SEGMENT
_time$ = 8						; size = 8
??0CTime@ATL@@QAE@_J@Z PROC NEAR			; ATL::CTime::CTime, COMDAT
; _this$ = ecx

; 149  : {

  00000	8b 54 24 08	 mov	 edx, DWORD PTR _time$[esp]
  00004	8b c1		 mov	 eax, ecx
  00006	8b 4c 24 04	 mov	 ecx, DWORD PTR _time$[esp-4]
  0000a	89 08		 mov	 DWORD PTR [eax], ecx
  0000c	89 50 04	 mov	 DWORD PTR [eax+4], edx

; 150  : }

  0000f	c2 08 00	 ret	 8
??0CTime@ATL@@QAE@_J@Z ENDP				; ATL::CTime::CTime
_TEXT	ENDS
PUBLIC	?AddItToActiveList@?$CMyMap@P8CDPMonitor@@AEXAAVCAr@@K@Z@@QAEXPAV?$CMyBucket@P8CDPMonitor@@AEXAAVCAr@@K@Z@@@Z ; CMyMap<void (__thiscall CDPMonitor::*)(CAr &,unsigned long)>::AddItToActiveList
; Function compile flags: /Ogty
; File c:\offi src_real\offi src!\_network\misc\include\mymap.h
;	COMDAT ?AddItToActiveList@?$CMyMap@P8CDPMonitor@@AEXAAVCAr@@K@Z@@QAEXPAV?$CMyBucket@P8CDPMonitor@@AEXAAVCAr@@K@Z@@@Z
_TEXT	SEGMENT
_pBucket$ = 8						; size = 4
?AddItToActiveList@?$CMyMap@P8CDPMonitor@@AEXAAVCAr@@K@Z@@QAEXPAV?$CMyBucket@P8CDPMonitor@@AEXAAVCAr@@K@Z@@@Z PROC NEAR ; CMyMap<void (__thiscall CDPMonitor::*)(CAr &,unsigned long)>::AddItToActiveList, COMDAT
; _this$ = ecx

; 443  : 	// Add it to the active list
; 444  : 	if( m_pFirstActive )

  00000	8b 51 34	 mov	 edx, DWORD PTR [ecx+52]
  00003	85 d2		 test	 edx, edx
  00005	8b 44 24 04	 mov	 eax, DWORD PTR _pBucket$[esp-4]
  00009	74 03		 je	 SHORT $L158717

; 445  : 		m_pFirstActive->pPrevious	= pBucket;

  0000b	89 42 10	 mov	 DWORD PTR [edx+16], eax
$L158717:

; 446  : 	pBucket->pNext	= m_pFirstActive;

  0000e	8b 51 34	 mov	 edx, DWORD PTR [ecx+52]
  00011	89 50 14	 mov	 DWORD PTR [eax+20], edx

; 447  : 	pBucket->pPrevious	= NULL;

  00014	c7 40 10 00 00
	00 00		 mov	 DWORD PTR [eax+16], 0

; 448  : 	m_pFirstActive	= pBucket;

  0001b	89 41 34	 mov	 DWORD PTR [ecx+52], eax

; 449  : }

  0001e	c2 04 00	 ret	 4
?AddItToActiveList@?$CMyMap@P8CDPMonitor@@AEXAAVCAr@@K@Z@@QAEXPAV?$CMyBucket@P8CDPMonitor@@AEXAAVCAr@@K@Z@@@Z ENDP ; CMyMap<void (__thiscall CDPMonitor::*)(CAr &,unsigned long)>::AddItToActiveList
_TEXT	ENDS
PUBLIC	??0?$CMyBucket@P8CDPMonitor@@AEXAAVCAr@@K@Z@@QAE@XZ ; CMyBucket<void (__thiscall CDPMonitor::*)(CAr &,unsigned long)>::CMyBucket<void (__thiscall CDPMonitor::*)(CAr &,unsigned long)>
PUBLIC	??_7?$CMyBucket@P8CDPMonitor@@AEXAAVCAr@@K@Z@@6B@ ; CMyBucket<void (__thiscall CDPMonitor::*)(CAr &,unsigned long)>::`vftable'
PUBLIC	??_E?$CMyBucket@P8CDPMonitor@@AEXAAVCAr@@K@Z@@UAEPAXI@Z ; CMyBucket<void (__thiscall CDPMonitor::*)(CAr &,unsigned long)>::`vector deleting destructor'
;	COMDAT ??_7?$CMyBucket@P8CDPMonitor@@AEXAAVCAr@@K@Z@@6B@
CONST	SEGMENT
??_7?$CMyBucket@P8CDPMonitor@@AEXAAVCAr@@K@Z@@6B@ DD FLAT:??_E?$CMyBucket@P8CDPMonitor@@AEXAAVCAr@@K@Z@@UAEPAXI@Z ; CMyBucket<void (__thiscall CDPMonitor::*)(CAr &,unsigned long)>::`vftable'
; Function compile flags: /Ogty
CONST	ENDS
;	COMDAT ??0?$CMyBucket@P8CDPMonitor@@AEXAAVCAr@@K@Z@@QAE@XZ
_TEXT	SEGMENT
??0?$CMyBucket@P8CDPMonitor@@AEXAAVCAr@@K@Z@@QAE@XZ PROC NEAR ; CMyBucket<void (__thiscall CDPMonitor::*)(CAr &,unsigned long)>::CMyBucket<void (__thiscall CDPMonitor::*)(CAr &,unsigned long)>, COMDAT
; _this$ = ecx

; 52   : {

  00000	8b c1		 mov	 eax, ecx

; 53   : 	m_dwKey		= INVALID_KEY;
; 54   : 	m_pNext		= NULL;	// map

  00002	33 c9		 xor	 ecx, ecx
  00004	c7 00 00 00 00
	00		 mov	 DWORD PTR [eax], OFFSET FLAT:??_7?$CMyBucket@P8CDPMonitor@@AEXAAVCAr@@K@Z@@6B@
  0000a	c7 40 04 ff ff
	ff ff		 mov	 DWORD PTR [eax+4], -1
  00011	89 48 0c	 mov	 DWORD PTR [eax+12], ecx

; 55   : 	pPrevious	= pNext		= NULL;	// list

  00014	89 48 14	 mov	 DWORD PTR [eax+20], ecx
  00017	89 48 10	 mov	 DWORD PTR [eax+16], ecx

; 56   : }

  0001a	c3		 ret	 0
??0?$CMyBucket@P8CDPMonitor@@AEXAAVCAr@@K@Z@@QAE@XZ ENDP ; CMyBucket<void (__thiscall CDPMonitor::*)(CAr &,unsigned long)>::CMyBucket<void (__thiscall CDPMonitor::*)(CAr &,unsigned long)>
_TEXT	ENDS
PUBLIC	??1?$CMyBucket@P8CDPMonitor@@AEXAAVCAr@@K@Z@@UAE@XZ ; CMyBucket<void (__thiscall CDPMonitor::*)(CAr &,unsigned long)>::~CMyBucket<void (__thiscall CDPMonitor::*)(CAr &,unsigned long)>
; Function compile flags: /Ogty
;	COMDAT ??1?$CMyBucket@P8CDPMonitor@@AEXAAVCAr@@K@Z@@UAE@XZ
_TEXT	SEGMENT
??1?$CMyBucket@P8CDPMonitor@@AEXAAVCAr@@K@Z@@UAE@XZ PROC NEAR ; CMyBucket<void (__thiscall CDPMonitor::*)(CAr &,unsigned long)>::~CMyBucket<void (__thiscall CDPMonitor::*)(CAr &,unsigned long)>, COMDAT
; _this$ = ecx

; 59   : {

  00000	c7 01 00 00 00
	00		 mov	 DWORD PTR [ecx], OFFSET FLAT:??_7?$CMyBucket@P8CDPMonitor@@AEXAAVCAr@@K@Z@@6B@

; 60   : 
; 61   : }

  00006	c3		 ret	 0
??1?$CMyBucket@P8CDPMonitor@@AEXAAVCAr@@K@Z@@UAE@XZ ENDP ; CMyBucket<void (__thiscall CDPMonitor::*)(CAr &,unsigned long)>::~CMyBucket<void (__thiscall CDPMonitor::*)(CAr &,unsigned long)>
_TEXT	ENDS
PUBLIC	?IsEqual@?$CMyBucket@P8CDPMonitor@@AEXAAVCAr@@K@Z@@QAEHK@Z ; CMyBucket<void (__thiscall CDPMonitor::*)(CAr &,unsigned long)>::IsEqual
; Function compile flags: /Ogty
;	COMDAT ?IsEqual@?$CMyBucket@P8CDPMonitor@@AEXAAVCAr@@K@Z@@QAEHK@Z
_TEXT	SEGMENT
_dwKey$ = 8						; size = 4
?IsEqual@?$CMyBucket@P8CDPMonitor@@AEXAAVCAr@@K@Z@@QAEHK@Z PROC NEAR ; CMyBucket<void (__thiscall CDPMonitor::*)(CAr &,unsigned long)>::IsEqual, COMDAT
; _this$ = ecx

; 70   : 	return( dwKey == m_dwKey );

  00000	8b 54 24 04	 mov	 edx, DWORD PTR _dwKey$[esp-4]
  00004	56		 push	 esi
  00005	8b 71 04	 mov	 esi, DWORD PTR [ecx+4]
  00008	33 c0		 xor	 eax, eax
  0000a	3b d6		 cmp	 edx, esi
  0000c	0f 94 c0	 sete	 al
  0000f	5e		 pop	 esi

; 71   : }

  00010	c2 04 00	 ret	 4
?IsEqual@?$CMyBucket@P8CDPMonitor@@AEXAAVCAr@@K@Z@@QAEHK@Z ENDP ; CMyBucket<void (__thiscall CDPMonitor::*)(CAr &,unsigned long)>::IsEqual
_TEXT	ENDS
PUBLIC	?IsEmpty@?$CMyBucket@P8CDPMonitor@@AEXAAVCAr@@K@Z@@QAEHXZ ; CMyBucket<void (__thiscall CDPMonitor::*)(CAr &,unsigned long)>::IsEmpty
; Function compile flags: /Ogty
;	COMDAT ?IsEmpty@?$CMyBucket@P8CDPMonitor@@AEXAAVCAr@@K@Z@@QAEHXZ
_TEXT	SEGMENT
?IsEmpty@?$CMyBucket@P8CDPMonitor@@AEXAAVCAr@@K@Z@@QAEHXZ PROC NEAR ; CMyBucket<void (__thiscall CDPMonitor::*)(CAr &,unsigned long)>::IsEmpty, COMDAT
; _this$ = ecx

; 75   : 	return( m_dwKey == INVALID_KEY );

  00000	8b 51 04	 mov	 edx, DWORD PTR [ecx+4]
  00003	33 c0		 xor	 eax, eax
  00005	83 fa ff	 cmp	 edx, -1
  00008	0f 94 c0	 sete	 al

; 76   : }

  0000b	c3		 ret	 0
?IsEmpty@?$CMyBucket@P8CDPMonitor@@AEXAAVCAr@@K@Z@@QAEHXZ ENDP ; CMyBucket<void (__thiscall CDPMonitor::*)(CAr &,unsigned long)>::IsEmpty
_TEXT	ENDS
PUBLIC	??$_Destroy@PAPAV?$CMyBucket@P8CDPMonitor@@AEXAAVCAr@@K@Z@@@std@@YAXPAPAPAV?$CMyBucket@P8CDPMonitor@@AEXAAVCAr@@K@Z@@@Z ; std::_Destroy<CMyBucket<void (__thiscall CDPMonitor::*)(CAr &,unsigned long)> * *>
; Function compile flags: /Ogty
; File c:\program files\microsoft visual studio .net 2003\vc7\include\xmemory
;	COMDAT ??$_Destroy@PAPAV?$CMyBucket@P8CDPMonitor@@AEXAAVCAr@@K@Z@@@std@@YAXPAPAPAV?$CMyBucket@P8CDPMonitor@@AEXAAVCAr@@K@Z@@@Z
_TEXT	SEGMENT
__Ptr$ = 8						; size = 4
??$_Destroy@PAPAV?$CMyBucket@P8CDPMonitor@@AEXAAVCAr@@K@Z@@@std@@YAXPAPAPAV?$CMyBucket@P8CDPMonitor@@AEXAAVCAr@@K@Z@@@Z PROC NEAR ; std::_Destroy<CMyBucket<void (__thiscall CDPMonitor::*)(CAr &,unsigned long)> * *>, COMDAT

; 49   : 	_DESTRUCTOR(_Ty, _Ptr);
; 50   : 	}

  00000	c3		 ret	 0
??$_Destroy@PAPAV?$CMyBucket@P8CDPMonitor@@AEXAAVCAr@@K@Z@@@std@@YAXPAPAPAV?$CMyBucket@P8CDPMonitor@@AEXAAVCAr@@K@Z@@@Z ENDP ; std::_Destroy<CMyBucket<void (__thiscall CDPMonitor::*)(CAr &,unsigned long)> * *>
_TEXT	ENDS
PUBLIC	??$_Destroy@PAU_Node@?$_List_nod@PAV?$CMyBucket@P8CDPMonitor@@AEXAAVCAr@@K@Z@@V?$allocator@PAV?$CMyBucket@P8CDPMonitor@@AEXAAVCAr@@K@Z@@@std@@@std@@@std@@YAXPAPAU_Node@?$_List_nod@PAV?$CMyBucket@P8CDPMonitor@@AEXAAVCAr@@K@Z@@V?$allocator@PAV?$CMyBucket@P8CDPMonitor@@AEXAAVCAr@@K@Z@@@std@@@0@@Z ; std::_Destroy<std::_List_nod<CMyBucket<void (__thiscall CDPMonitor::*)(CAr &,unsigned long)> *,std::allocator<CMyBucket<void (__thiscall CDPMonitor::*)(CAr &,unsigned long)> *> >::_Node *>
; Function compile flags: /Ogty
;	COMDAT ??$_Destroy@PAU_Node@?$_List_nod@PAV?$CMyBucket@P8CDPMonitor@@AEXAAVCAr@@K@Z@@V?$allocator@PAV?$CMyBucket@P8CDPMonitor@@AEXAAVCAr@@K@Z@@@std@@@std@@@std@@YAXPAPAU_Node@?$_List_nod@PAV?$CMyBucket@P8CDPMonitor@@AEXAAVCAr@@K@Z@@V?$allocator@PAV?$CMyBucket@P8CDPMonitor@@AEXAAVCAr@@K@Z@@@std@@@0@@Z
_TEXT	SEGMENT
__Ptr$ = 8						; size = 4
??$_Destroy@PAU_Node@?$_List_nod@PAV?$CMyBucket@P8CDPMonitor@@AEXAAVCAr@@K@Z@@V?$allocator@PAV?$CMyBucket@P8CDPMonitor@@AEXAAVCAr@@K@Z@@@std@@@std@@@std@@YAXPAPAU_Node@?$_List_nod@PAV?$CMyBucket@P8CDPMonitor@@AEXAAVCAr@@K@Z@@V?$allocator@PAV?$CMyBucket@P8CDPMonitor@@AEXAAVCAr@@K@Z@@@std@@@0@@Z PROC NEAR ; std::_Destroy<std::_List_nod<CMyBucket<void (__thiscall CDPMonitor::*)(CAr &,unsigned long)> *,std::allocator<CMyBucket<void (__thiscall CDPMonitor::*)(CAr &,unsigned long)> *> >::_Node *>, COMDAT

; 49   : 	_DESTRUCTOR(_Ty, _Ptr);
; 50   : 	}

  00000	c3		 ret	 0
??$_Destroy@PAU_Node@?$_List_nod@PAV?$CMyBucket@P8CDPMonitor@@AEXAAVCAr@@K@Z@@V?$allocator@PAV?$CMyBucket@P8CDPMonitor@@AEXAAVCAr@@K@Z@@@std@@@std@@@std@@YAXPAPAU_Node@?$_List_nod@PAV?$CMyBucket@P8CDPMonitor@@AEXAAVCAr@@K@Z@@V?$allocator@PAV?$CMyBucket@P8CDPMonitor@@AEXAAVCAr@@K@Z@@@std@@@0@@Z ENDP ; std::_Destroy<std::_List_nod<CMyBucket<void (__thiscall CDPMonitor::*)(CAr &,unsigned long)> *,std::allocator<CMyBucket<void (__thiscall CDPMonitor::*)(CAr &,unsigned long)> *> >::_Node *>
_TEXT	ENDS
PUBLIC	??$_Destroy@PAV?$CMyBucket@P8CDPMonitor@@AEXAAVCAr@@K@Z@@@std@@YAXPAPAV?$CMyBucket@P8CDPMonitor@@AEXAAVCAr@@K@Z@@@Z ; std::_Destroy<CMyBucket<void (__thiscall CDPMonitor::*)(CAr &,unsigned long)> *>
; Function compile flags: /Ogty
;	COMDAT ??$_Destroy@PAV?$CMyBucket@P8CDPMonitor@@AEXAAVCAr@@K@Z@@@std@@YAXPAPAV?$CMyBucket@P8CDPMonitor@@AEXAAVCAr@@K@Z@@@Z
_TEXT	SEGMENT
__Ptr$ = 8						; size = 4
??$_Destroy@PAV?$CMyBucket@P8CDPMonitor@@AEXAAVCAr@@K@Z@@@std@@YAXPAPAV?$CMyBucket@P8CDPMonitor@@AEXAAVCAr@@K@Z@@@Z PROC NEAR ; std::_Destroy<CMyBucket<void (__thiscall CDPMonitor::*)(CAr &,unsigned long)> *>, COMDAT

; 49   : 	_DESTRUCTOR(_Ty, _Ptr);
; 50   : 	}

  00000	c3		 ret	 0
??$_Destroy@PAV?$CMyBucket@P8CDPMonitor@@AEXAAVCAr@@K@Z@@@std@@YAXPAPAV?$CMyBucket@P8CDPMonitor@@AEXAAVCAr@@K@Z@@@Z ENDP ; std::_Destroy<CMyBucket<void (__thiscall CDPMonitor::*)(CAr &,unsigned long)> *>
_TEXT	ENDS
PUBLIC	??$_Destroy@U_Node@?$_List_nod@PAV?$CMyBucket@P8CDPMonitor@@AEXAAVCAr@@K@Z@@V?$allocator@PAV?$CMyBucket@P8CDPMonitor@@AEXAAVCAr@@K@Z@@@std@@@std@@@std@@YAXPAU_Node@?$_List_nod@PAV?$CMyBucket@P8CDPMonitor@@AEXAAVCAr@@K@Z@@V?$allocator@PAV?$CMyBucket@P8CDPMonitor@@AEXAAVCAr@@K@Z@@@std@@@0@@Z ; std::_Destroy<std::_List_nod<CMyBucket<void (__thiscall CDPMonitor::*)(CAr &,unsigned long)> *,std::allocator<CMyBucket<void (__thiscall CDPMonitor::*)(CAr &,unsigned long)> *> >::_Node>
; Function compile flags: /Ogty
;	COMDAT ??$_Destroy@U_Node@?$_List_nod@PAV?$CMyBucket@P8CDPMonitor@@AEXAAVCAr@@K@Z@@V?$allocator@PAV?$CMyBucket@P8CDPMonitor@@AEXAAVCAr@@K@Z@@@std@@@std@@@std@@YAXPAU_Node@?$_List_nod@PAV?$CMyBucket@P8CDPMonitor@@AEXAAVCAr@@K@Z@@V?$allocator@PAV?$CMyBucket@P8CDPMonitor@@AEXAAVCAr@@K@Z@@@std@@@0@@Z
_TEXT	SEGMENT
__Ptr$ = 8						; size = 4
??$_Destroy@U_Node@?$_List_nod@PAV?$CMyBucket@P8CDPMonitor@@AEXAAVCAr@@K@Z@@V?$allocator@PAV?$CMyBucket@P8CDPMonitor@@AEXAAVCAr@@K@Z@@@std@@@std@@@std@@YAXPAU_Node@?$_List_nod@PAV?$CMyBucket@P8CDPMonitor@@AEXAAVCAr@@K@Z@@V?$allocator@PAV?$CMyBucket@P8CDPMonitor@@AEXAAVCAr@@K@Z@@@std@@@0@@Z PROC NEAR ; std::_Destroy<std::_List_nod<CMyBucket<void (__thiscall CDPMonitor::*)(CAr &,unsigned long)> *,std::allocator<CMyBucket<void (__thiscall CDPMonitor::*)(CAr &,unsigned long)> *> >::_Node>, COMDAT

; 49   : 	_DESTRUCTOR(_Ty, _Ptr);
; 50   : 	}

  00000	c3		 ret	 0
??$_Destroy@U_Node@?$_List_nod@PAV?$CMyBucket@P8CDPMonitor@@AEXAAVCAr@@K@Z@@V?$allocator@PAV?$CMyBucket@P8CDPMonitor@@AEXAAVCAr@@K@Z@@@std@@@std@@@std@@YAXPAU_Node@?$_List_nod@PAV?$CMyBucket@P8CDPMonitor@@AEXAAVCAr@@K@Z@@V?$allocator@PAV?$CMyBucket@P8CDPMonitor@@AEXAAVCAr@@K@Z@@@std@@@0@@Z ENDP ; std::_Destroy<std::_List_nod<CMyBucket<void (__thiscall CDPMonitor::*)(CAr &,unsigned long)> *,std::allocator<CMyBucket<void (__thiscall CDPMonitor::*)(CAr &,unsigned long)> *> >::_Node>
_TEXT	ENDS
PUBLIC	?empty@?$stack@PAV?$CMyBucket@P8CDPMonitor@@AEXAAVCAr@@K@Z@@V?$deque@PAV?$CMyBucket@P8CDPMonitor@@AEXAAVCAr@@K@Z@@V?$allocator@PAV?$CMyBucket@P8CDPMonitor@@AEXAAVCAr@@K@Z@@@std@@@std@@@std@@QBE_NXZ ; std::stack<CMyBucket<void (__thiscall CDPMonitor::*)(CAr &,unsigned long)> *,std::deque<CMyBucket<void (__thiscall CDPMonitor::*)(CAr &,unsigned long)> *,std::allocator<CMyBucket<void (__thiscall CDPMonitor::*)(CAr &,unsigned long)> *> > >::empty
; Function compile flags: /Ogty
; File c:\program files\microsoft visual studio .net 2003\vc7\include\stack
;	COMDAT ?empty@?$stack@PAV?$CMyBucket@P8CDPMonitor@@AEXAAVCAr@@K@Z@@V?$deque@PAV?$CMyBucket@P8CDPMonitor@@AEXAAVCAr@@K@Z@@V?$allocator@PAV?$CMyBucket@P8CDPMonitor@@AEXAAVCAr@@K@Z@@@std@@@std@@@std@@QBE_NXZ
_TEXT	SEGMENT
?empty@?$stack@PAV?$CMyBucket@P8CDPMonitor@@AEXAAVCAr@@K@Z@@V?$deque@PAV?$CMyBucket@P8CDPMonitor@@AEXAAVCAr@@K@Z@@V?$allocator@PAV?$CMyBucket@P8CDPMonitor@@AEXAAVCAr@@K@Z@@@std@@@std@@@std@@QBE_NXZ PROC NEAR ; std::stack<CMyBucket<void (__thiscall CDPMonitor::*)(CAr &,unsigned long)> *,std::deque<CMyBucket<void (__thiscall CDPMonitor::*)(CAr &,unsigned long)> *,std::allocator<CMyBucket<void (__thiscall CDPMonitor::*)(CAr &,unsigned long)> *> > >::empty, COMDAT
; _this$ = ecx

; 33   : 		return (c.empty());

  00000	8b 51 10	 mov	 edx, DWORD PTR [ecx+16]
  00003	33 c0		 xor	 eax, eax
  00005	85 d2		 test	 edx, edx
  00007	0f 94 c0	 sete	 al

; 34   : 		}

  0000a	c3		 ret	 0
?empty@?$stack@PAV?$CMyBucket@P8CDPMonitor@@AEXAAVCAr@@K@Z@@V?$deque@PAV?$CMyBucket@P8CDPMonitor@@AEXAAVCAr@@K@Z@@V?$allocator@PAV?$CMyBucket@P8CDPMonitor@@AEXAAVCAr@@K@Z@@@std@@@std@@@std@@QBE_NXZ ENDP ; std::stack<CMyBucket<void (__thiscall CDPMonitor::*)(CAr &,unsigned long)> *,std::deque<CMyBucket<void (__thiscall CDPMonitor::*)(CAr &,unsigned long)> *,std::allocator<CMyBucket<void (__thiscall CDPMonitor::*)(CAr &,unsigned long)> *> > >::empty
_TEXT	ENDS
PUBLIC	??0?$allocator@PAV?$CMyBucket@P8CDPMonitor@@AEXAAVCAr@@K@Z@@@std@@QAE@XZ ; std::allocator<CMyBucket<void (__thiscall CDPMonitor::*)(CAr &,unsigned long)> *>::allocator<CMyBucket<void (__thiscall CDPMonitor::*)(CAr &,unsigned long)> *>
; Function compile flags: /Ogty
; File c:\program files\microsoft visual studio .net 2003\vc7\include\xmemory
;	COMDAT ??0?$allocator@PAV?$CMyBucket@P8CDPMonitor@@AEXAAVCAr@@K@Z@@@std@@QAE@XZ
_TEXT	SEGMENT
??0?$allocator@PAV?$CMyBucket@P8CDPMonitor@@AEXAAVCAr@@K@Z@@@std@@QAE@XZ PROC NEAR ; std::allocator<CMyBucket<void (__thiscall CDPMonitor::*)(CAr &,unsigned long)> *>::allocator<CMyBucket<void (__thiscall CDPMonitor::*)(CAr &,unsigned long)> *>, COMDAT
; _this$ = ecx

; 111  : 	allocator()

  00000	8b c1		 mov	 eax, ecx

; 112  : 		{	// construct default allocator (do nothing)
; 113  : 		}

  00002	c3		 ret	 0
??0?$allocator@PAV?$CMyBucket@P8CDPMonitor@@AEXAAVCAr@@K@Z@@@std@@QAE@XZ ENDP ; std::allocator<CMyBucket<void (__thiscall CDPMonitor::*)(CAr &,unsigned long)> *>::allocator<CMyBucket<void (__thiscall CDPMonitor::*)(CAr &,unsigned long)> *>
_TEXT	ENDS
PUBLIC	??Econst_iterator@?$list@PAV?$CMyBucket@P8CDPMonitor@@AEXAAVCAr@@K@Z@@V?$allocator@PAV?$CMyBucket@P8CDPMonitor@@AEXAAVCAr@@K@Z@@@std@@@std@@QAEAAV012@XZ ; std::list<CMyBucket<void (__thiscall CDPMonitor::*)(CAr &,unsigned long)> *,std::allocator<CMyBucket<void (__thiscall CDPMonitor::*)(CAr &,unsigned long)> *> >::const_iterator::operator++
; Function compile flags: /Ogty
; File c:\program files\microsoft visual studio .net 2003\vc7\include\list
;	COMDAT ??Econst_iterator@?$list@PAV?$CMyBucket@P8CDPMonitor@@AEXAAVCAr@@K@Z@@V?$allocator@PAV?$CMyBucket@P8CDPMonitor@@AEXAAVCAr@@K@Z@@@std@@@std@@QAEAAV012@XZ
_TEXT	SEGMENT
??Econst_iterator@?$list@PAV?$CMyBucket@P8CDPMonitor@@AEXAAVCAr@@K@Z@@V?$allocator@PAV?$CMyBucket@P8CDPMonitor@@AEXAAVCAr@@K@Z@@@std@@@std@@QAEAAV012@XZ PROC NEAR ; std::list<CMyBucket<void (__thiscall CDPMonitor::*)(CAr &,unsigned long)> *,std::allocator<CMyBucket<void (__thiscall CDPMonitor::*)(CAr &,unsigned long)> *> >::const_iterator::operator++, COMDAT
; _this$ = ecx

; 170  : 			{	// preincrement

  00000	8b c1		 mov	 eax, ecx

; 171  : 			_Ptr = _Nextnode(_Ptr);

  00002	8b 08		 mov	 ecx, DWORD PTR [eax]
  00004	8b 11		 mov	 edx, DWORD PTR [ecx]
  00006	89 10		 mov	 DWORD PTR [eax], edx

; 172  : 			return (*this);
; 173  : 			}

  00008	c3		 ret	 0
??Econst_iterator@?$list@PAV?$CMyBucket@P8CDPMonitor@@AEXAAVCAr@@K@Z@@V?$allocator@PAV?$CMyBucket@P8CDPMonitor@@AEXAAVCAr@@K@Z@@@std@@@std@@QAEAAV012@XZ ENDP ; std::list<CMyBucket<void (__thiscall CDPMonitor::*)(CAr &,unsigned long)> *,std::allocator<CMyBucket<void (__thiscall CDPMonitor::*)(CAr &,unsigned long)> *> >::const_iterator::operator++
_TEXT	ENDS
PUBLIC	??8const_iterator@?$list@PAV?$CMyBucket@P8CDPMonitor@@AEXAAVCAr@@K@Z@@V?$allocator@PAV?$CMyBucket@P8CDPMonitor@@AEXAAVCAr@@K@Z@@@std@@@std@@QBE_NABV012@@Z ; std::list<CMyBucket<void (__thiscall CDPMonitor::*)(CAr &,unsigned long)> *,std::allocator<CMyBucket<void (__thiscall CDPMonitor::*)(CAr &,unsigned long)> *> >::const_iterator::operator==
; Function compile flags: /Ogty
;	COMDAT ??8const_iterator@?$list@PAV?$CMyBucket@P8CDPMonitor@@AEXAAVCAr@@K@Z@@V?$allocator@PAV?$CMyBucket@P8CDPMonitor@@AEXAAVCAr@@K@Z@@@std@@@std@@QBE_NABV012@@Z
_TEXT	SEGMENT
__Right$ = 8						; size = 4
??8const_iterator@?$list@PAV?$CMyBucket@P8CDPMonitor@@AEXAAVCAr@@K@Z@@V?$allocator@PAV?$CMyBucket@P8CDPMonitor@@AEXAAVCAr@@K@Z@@@std@@@std@@QBE_NABV012@@Z PROC NEAR ; std::list<CMyBucket<void (__thiscall CDPMonitor::*)(CAr &,unsigned long)> *,std::allocator<CMyBucket<void (__thiscall CDPMonitor::*)(CAr &,unsigned long)> *> >::const_iterator::operator==, COMDAT
; _this$ = ecx

; 197  : 			return (_Ptr == _Right._Ptr);

  00000	8b 01		 mov	 eax, DWORD PTR [ecx]
  00002	8b 4c 24 04	 mov	 ecx, DWORD PTR __Right$[esp-4]
  00006	2b 01		 sub	 eax, DWORD PTR [ecx]
  00008	f7 d8		 neg	 eax
  0000a	1b c0		 sbb	 eax, eax
  0000c	40		 inc	 eax

; 198  : 			}

  0000d	c2 04 00	 ret	 4
??8const_iterator@?$list@PAV?$CMyBucket@P8CDPMonitor@@AEXAAVCAr@@K@Z@@V?$allocator@PAV?$CMyBucket@P8CDPMonitor@@AEXAAVCAr@@K@Z@@@std@@@std@@QBE_NABV012@@Z ENDP ; std::list<CMyBucket<void (__thiscall CDPMonitor::*)(CAr &,unsigned long)> *,std::allocator<CMyBucket<void (__thiscall CDPMonitor::*)(CAr &,unsigned long)> *> >::const_iterator::operator==
_TEXT	ENDS
PUBLIC	??0?$allocator@PAV?$CMyBucket@P8CDPMonitor@@AEXAAVCAr@@K@Z@@@std@@QAE@ABV01@@Z ; std::allocator<CMyBucket<void (__thiscall CDPMonitor::*)(CAr &,unsigned long)> *>::allocator<CMyBucket<void (__thiscall CDPMonitor::*)(CAr &,unsigned long)> *>
; Function compile flags: /Ogty
; File c:\program files\microsoft visual studio .net 2003\vc7\include\xmemory
;	COMDAT ??0?$allocator@PAV?$CMyBucket@P8CDPMonitor@@AEXAAVCAr@@K@Z@@@std@@QAE@ABV01@@Z
_TEXT	SEGMENT
___formal$ = 8						; size = 4
??0?$allocator@PAV?$CMyBucket@P8CDPMonitor@@AEXAAVCAr@@K@Z@@@std@@QAE@ABV01@@Z PROC NEAR ; std::allocator<CMyBucket<void (__thiscall CDPMonitor::*)(CAr &,unsigned long)> *>::allocator<CMyBucket<void (__thiscall CDPMonitor::*)(CAr &,unsigned long)> *>, COMDAT
; _this$ = ecx

; 115  : 	allocator(const allocator<_Ty>&)

  00000	8b c1		 mov	 eax, ecx

; 116  : 		{	// construct by copying (do nothing)
; 117  : 		}

  00002	c2 04 00	 ret	 4
??0?$allocator@PAV?$CMyBucket@P8CDPMonitor@@AEXAAVCAr@@K@Z@@@std@@QAE@ABV01@@Z ENDP ; std::allocator<CMyBucket<void (__thiscall CDPMonitor::*)(CAr &,unsigned long)> *>::allocator<CMyBucket<void (__thiscall CDPMonitor::*)(CAr &,unsigned long)> *>
_TEXT	ENDS
PUBLIC	?_Myval@?$list@PAV?$CMyBucket@P8CDPMonitor@@AEXAAVCAr@@K@Z@@V?$allocator@PAV?$CMyBucket@P8CDPMonitor@@AEXAAVCAr@@K@Z@@@std@@@std@@KAAAPAV?$CMyBucket@P8CDPMonitor@@AEXAAVCAr@@K@Z@@PAU_Node@?$_List_nod@PAV?$CMyBucket@P8CDPMonitor@@AEXAAVCAr@@K@Z@@V?$allocator@PAV?$CMyBucket@P8CDPMonitor@@AEXAAVCAr@@K@Z@@@std@@@2@@Z ; std::list<CMyBucket<void (__thiscall CDPMonitor::*)(CAr &,unsigned long)> *,std::allocator<CMyBucket<void (__thiscall CDPMonitor::*)(CAr &,unsigned long)> *> >::_Myval
; Function compile flags: /Ogty
; File c:\program files\microsoft visual studio .net 2003\vc7\include\list
;	COMDAT ?_Myval@?$list@PAV?$CMyBucket@P8CDPMonitor@@AEXAAVCAr@@K@Z@@V?$allocator@PAV?$CMyBucket@P8CDPMonitor@@AEXAAVCAr@@K@Z@@@std@@@std@@KAAAPAV?$CMyBucket@P8CDPMonitor@@AEXAAVCAr@@K@Z@@PAU_Node@?$_List_nod@PAV?$CMyBucket@P8CDPMonitor@@AEXAAVCAr@@K@Z@@V?$allocator@PAV?$CMyBucket@P8CDPMonitor@@AEXAAVCAr@@K@Z@@@std@@@2@@Z
_TEXT	SEGMENT
__Pnode$ = 8						; size = 4
?_Myval@?$list@PAV?$CMyBucket@P8CDPMonitor@@AEXAAVCAr@@K@Z@@V?$allocator@PAV?$CMyBucket@P8CDPMonitor@@AEXAAVCAr@@K@Z@@@std@@@std@@KAAAPAV?$CMyBucket@P8CDPMonitor@@AEXAAVCAr@@K@Z@@PAU_Node@?$_List_nod@PAV?$CMyBucket@P8CDPMonitor@@AEXAAVCAr@@K@Z@@V?$allocator@PAV?$CMyBucket@P8CDPMonitor@@AEXAAVCAr@@K@Z@@@std@@@2@@Z PROC NEAR ; std::list<CMyBucket<void (__thiscall CDPMonitor::*)(CAr &,unsigned long)> *,std::allocator<CMyBucket<void (__thiscall CDPMonitor::*)(CAr &,unsigned long)> *> >::_Myval, COMDAT

; 118  : 		return ((_Vref)(*_Pnode)._Myval);

  00000	8b 44 24 04	 mov	 eax, DWORD PTR __Pnode$[esp-4]
  00004	83 c0 08	 add	 eax, 8

; 119  : 		}

  00007	c3		 ret	 0
?_Myval@?$list@PAV?$CMyBucket@P8CDPMonitor@@AEXAAVCAr@@K@Z@@V?$allocator@PAV?$CMyBucket@P8CDPMonitor@@AEXAAVCAr@@K@Z@@@std@@@std@@KAAAPAV?$CMyBucket@P8CDPMonitor@@AEXAAVCAr@@K@Z@@PAU_Node@?$_List_nod@PAV?$CMyBucket@P8CDPMonitor@@AEXAAVCAr@@K@Z@@V?$allocator@PAV?$CMyBucket@P8CDPMonitor@@AEXAAVCAr@@K@Z@@@std@@@2@@Z ENDP ; std::list<CMyBucket<void (__thiscall CDPMonitor::*)(CAr &,unsigned long)> *,std::allocator<CMyBucket<void (__thiscall CDPMonitor::*)(CAr &,unsigned long)> *> >::_Myval
_TEXT	ENDS
PUBLIC	??0const_iterator@?$list@PAV?$CMyBucket@P8CDPMonitor@@AEXAAVCAr@@K@Z@@V?$allocator@PAV?$CMyBucket@P8CDPMonitor@@AEXAAVCAr@@K@Z@@@std@@@std@@QAE@PAU_Node@?$_List_nod@PAV?$CMyBucket@P8CDPMonitor@@AEXAAVCAr@@K@Z@@V?$allocator@PAV?$CMyBucket@P8CDPMonitor@@AEXAAVCAr@@K@Z@@@std@@@2@@Z ; std::list<CMyBucket<void (__thiscall CDPMonitor::*)(CAr &,unsigned long)> *,std::allocator<CMyBucket<void (__thiscall CDPMonitor::*)(CAr &,unsigned long)> *> >::const_iterator::const_iterator
; Function compile flags: /Ogty
;	COMDAT ??0const_iterator@?$list@PAV?$CMyBucket@P8CDPMonitor@@AEXAAVCAr@@K@Z@@V?$allocator@PAV?$CMyBucket@P8CDPMonitor@@AEXAAVCAr@@K@Z@@@std@@@std@@QAE@PAU_Node@?$_List_nod@PAV?$CMyBucket@P8CDPMonitor@@AEXAAVCAr@@K@Z@@V?$allocator@PAV?$CMyBucket@P8CDPMonitor@@AEXAAVCAr@@K@Z@@@std@@@2@@Z
_TEXT	SEGMENT
__Pnode$ = 8						; size = 4
??0const_iterator@?$list@PAV?$CMyBucket@P8CDPMonitor@@AEXAAVCAr@@K@Z@@V?$allocator@PAV?$CMyBucket@P8CDPMonitor@@AEXAAVCAr@@K@Z@@@std@@@std@@QAE@PAU_Node@?$_List_nod@PAV?$CMyBucket@P8CDPMonitor@@AEXAAVCAr@@K@Z@@V?$allocator@PAV?$CMyBucket@P8CDPMonitor@@AEXAAVCAr@@K@Z@@@std@@@2@@Z PROC NEAR ; std::list<CMyBucket<void (__thiscall CDPMonitor::*)(CAr &,unsigned long)> *,std::allocator<CMyBucket<void (__thiscall CDPMonitor::*)(CAr &,unsigned long)> *> >::const_iterator::const_iterator, COMDAT
; _this$ = ecx

; 156  : 			{	// construct with node pointer _Pnode

  00000	8b c1		 mov	 eax, ecx
  00002	8b 4c 24 04	 mov	 ecx, DWORD PTR __Pnode$[esp-4]
  00006	89 08		 mov	 DWORD PTR [eax], ecx

; 157  : 			}

  00008	c2 04 00	 ret	 4
??0const_iterator@?$list@PAV?$CMyBucket@P8CDPMonitor@@AEXAAVCAr@@K@Z@@V?$allocator@PAV?$CMyBucket@P8CDPMonitor@@AEXAAVCAr@@K@Z@@@std@@@std@@QAE@PAU_Node@?$_List_nod@PAV?$CMyBucket@P8CDPMonitor@@AEXAAVCAr@@K@Z@@V?$allocator@PAV?$CMyBucket@P8CDPMonitor@@AEXAAVCAr@@K@Z@@@std@@@2@@Z ENDP ; std::list<CMyBucket<void (__thiscall CDPMonitor::*)(CAr &,unsigned long)> *,std::allocator<CMyBucket<void (__thiscall CDPMonitor::*)(CAr &,unsigned long)> *> >::const_iterator::const_iterator
_TEXT	ENDS
PUBLIC	??Dconst_iterator@?$deque@PAV?$CMyBucket@P8CDPMonitor@@AEXAAVCAr@@K@Z@@V?$allocator@PAV?$CMyBucket@P8CDPMonitor@@AEXAAVCAr@@K@Z@@@std@@@std@@QBEABQAV?$CMyBucket@P8CDPMonitor@@AEXAAVCAr@@K@Z@@XZ ; std::deque<CMyBucket<void (__thiscall CDPMonitor::*)(CAr &,unsigned long)> *,std::allocator<CMyBucket<void (__thiscall CDPMonitor::*)(CAr &,unsigned long)> *> >::const_iterator::operator*
; Function compile flags: /Ogty
; File c:\program files\microsoft visual studio .net 2003\vc7\include\deque
;	COMDAT ??Dconst_iterator@?$deque@PAV?$CMyBucket@P8CDPMonitor@@AEXAAVCAr@@K@Z@@V?$allocator@PAV?$CMyBucket@P8CDPMonitor@@AEXAAVCAr@@K@Z@@@std@@@std@@QBEABQAV?$CMyBucket@P8CDPMonitor@@AEXAAVCAr@@K@Z@@XZ
_TEXT	SEGMENT
??Dconst_iterator@?$deque@PAV?$CMyBucket@P8CDPMonitor@@AEXAAVCAr@@K@Z@@V?$allocator@PAV?$CMyBucket@P8CDPMonitor@@AEXAAVCAr@@K@Z@@@std@@@std@@QBEABQAV?$CMyBucket@P8CDPMonitor@@AEXAAVCAr@@K@Z@@XZ PROC NEAR ; std::deque<CMyBucket<void (__thiscall CDPMonitor::*)(CAr &,unsigned long)> *,std::allocator<CMyBucket<void (__thiscall CDPMonitor::*)(CAr &,unsigned long)> *> >::const_iterator::operator*, COMDAT
; _this$ = ecx

; 109  : 			size_type _Block = _Myoff / _DEQUESIZ;

  00000	8b 51 04	 mov	 edx, DWORD PTR [ecx+4]

; 110  : 			size_type _Off = _Myoff - _Block * _DEQUESIZ;
; 111  : 			if (_Mycont->_Mapsize <= _Block)

  00003	8b 09		 mov	 ecx, DWORD PTR [ecx]
  00005	8b c2		 mov	 eax, edx
  00007	c1 e8 02	 shr	 eax, 2
  0000a	56		 push	 esi
  0000b	8d 34 85 00 00
	00 00		 lea	 esi, DWORD PTR [eax*4]
  00012	2b d6		 sub	 edx, esi
  00014	8b 71 08	 mov	 esi, DWORD PTR [ecx+8]
  00017	3b f0		 cmp	 esi, eax
  00019	77 02		 ja	 SHORT $L159110

; 112  : 				_Block -= _Mycont->_Mapsize;

  0001b	2b c6		 sub	 eax, esi
$L159110:

; 113  : 			return ((_Mycont->_Map)[_Block][_Off]);

  0001d	8b 49 04	 mov	 ecx, DWORD PTR [ecx+4]
  00020	8b 04 81	 mov	 eax, DWORD PTR [ecx+eax*4]
  00023	8d 04 90	 lea	 eax, DWORD PTR [eax+edx*4]
  00026	5e		 pop	 esi

; 114  : 			}

  00027	c3		 ret	 0
??Dconst_iterator@?$deque@PAV?$CMyBucket@P8CDPMonitor@@AEXAAVCAr@@K@Z@@V?$allocator@PAV?$CMyBucket@P8CDPMonitor@@AEXAAVCAr@@K@Z@@@std@@@std@@QBEABQAV?$CMyBucket@P8CDPMonitor@@AEXAAVCAr@@K@Z@@XZ ENDP ; std::deque<CMyBucket<void (__thiscall CDPMonitor::*)(CAr &,unsigned long)> *,std::allocator<CMyBucket<void (__thiscall CDPMonitor::*)(CAr &,unsigned long)> *> >::const_iterator::operator*
_TEXT	ENDS
PUBLIC	??Yiterator@?$deque@PAV?$CMyBucket@P8CDPMonitor@@AEXAAVCAr@@K@Z@@V?$allocator@PAV?$CMyBucket@P8CDPMonitor@@AEXAAVCAr@@K@Z@@@std@@@std@@QAEAAV012@H@Z ; std::deque<CMyBucket<void (__thiscall CDPMonitor::*)(CAr &,unsigned long)> *,std::allocator<CMyBucket<void (__thiscall CDPMonitor::*)(CAr &,unsigned long)> *> >::iterator::operator+=
; Function compile flags: /Ogty
;	COMDAT ??Yiterator@?$deque@PAV?$CMyBucket@P8CDPMonitor@@AEXAAVCAr@@K@Z@@V?$allocator@PAV?$CMyBucket@P8CDPMonitor@@AEXAAVCAr@@K@Z@@@std@@@std@@QAEAAV012@H@Z
_TEXT	SEGMENT
__Off$ = 8						; size = 4
??Yiterator@?$deque@PAV?$CMyBucket@P8CDPMonitor@@AEXAAVCAr@@K@Z@@V?$allocator@PAV?$CMyBucket@P8CDPMonitor@@AEXAAVCAr@@K@Z@@@std@@@std@@QAEAAV012@H@Z PROC NEAR ; std::deque<CMyBucket<void (__thiscall CDPMonitor::*)(CAr &,unsigned long)> *,std::allocator<CMyBucket<void (__thiscall CDPMonitor::*)(CAr &,unsigned long)> *> >::iterator::operator+=, COMDAT
; _this$ = ecx

; 282  : 			{	// increment by integer

  00000	8b c1		 mov	 eax, ecx

; 283  : 			this->_Myoff += _Off;

  00002	8b 50 04	 mov	 edx, DWORD PTR [eax+4]
  00005	8b 4c 24 04	 mov	 ecx, DWORD PTR __Off$[esp-4]
  00009	03 d1		 add	 edx, ecx
  0000b	89 50 04	 mov	 DWORD PTR [eax+4], edx

; 284  : 			return (*this);
; 285  : 			}

  0000e	c2 04 00	 ret	 4
??Yiterator@?$deque@PAV?$CMyBucket@P8CDPMonitor@@AEXAAVCAr@@K@Z@@V?$allocator@PAV?$CMyBucket@P8CDPMonitor@@AEXAAVCAr@@K@Z@@@std@@@std@@QAEAAV012@H@Z ENDP ; std::deque<CMyBucket<void (__thiscall CDPMonitor::*)(CAr &,unsigned long)> *,std::allocator<CMyBucket<void (__thiscall CDPMonitor::*)(CAr &,unsigned long)> *> >::iterator::operator+=
_TEXT	ENDS
PUBLIC	??0const_iterator@?$deque@PAV?$CMyBucket@P8CDPMonitor@@AEXAAVCAr@@K@Z@@V?$allocator@PAV?$CMyBucket@P8CDPMonitor@@AEXAAVCAr@@K@Z@@@std@@@std@@QAE@IPBV12@@Z ; std::deque<CMyBucket<void (__thiscall CDPMonitor::*)(CAr &,unsigned long)> *,std::allocator<CMyBucket<void (__thiscall CDPMonitor::*)(CAr &,unsigned long)> *> >::const_iterator::const_iterator
; Function compile flags: /Ogty
;	COMDAT ??0const_iterator@?$deque@PAV?$CMyBucket@P8CDPMonitor@@AEXAAVCAr@@K@Z@@V?$allocator@PAV?$CMyBucket@P8CDPMonitor@@AEXAAVCAr@@K@Z@@@std@@@std@@QAE@IPBV12@@Z
_TEXT	SEGMENT
__Off$ = 8						; size = 4
__Pdeque$ = 12						; size = 4
??0const_iterator@?$deque@PAV?$CMyBucket@P8CDPMonitor@@AEXAAVCAr@@K@Z@@V?$allocator@PAV?$CMyBucket@P8CDPMonitor@@AEXAAVCAr@@K@Z@@@std@@@std@@QAE@IPBV12@@Z PROC NEAR ; std::deque<CMyBucket<void (__thiscall CDPMonitor::*)(CAr &,unsigned long)> *,std::allocator<CMyBucket<void (__thiscall CDPMonitor::*)(CAr &,unsigned long)> *> >::const_iterator::const_iterator, COMDAT
; _this$ = ecx

; 102  : 			{	// construct with offset _Off in *_Pdeque
; 103  : 			_Mycont = _Pdeque;
; 104  : 			_Myoff = _Off;

  00000	8b 54 24 04	 mov	 edx, DWORD PTR __Off$[esp-4]
  00004	8b c1		 mov	 eax, ecx
  00006	8b 4c 24 08	 mov	 ecx, DWORD PTR __Pdeque$[esp-4]
  0000a	89 08		 mov	 DWORD PTR [eax], ecx
  0000c	89 50 04	 mov	 DWORD PTR [eax+4], edx

; 105  : 			}

  0000f	c2 08 00	 ret	 8
??0const_iterator@?$deque@PAV?$CMyBucket@P8CDPMonitor@@AEXAAVCAr@@K@Z@@V?$allocator@PAV?$CMyBucket@P8CDPMonitor@@AEXAAVCAr@@K@Z@@@std@@@std@@QAE@IPBV12@@Z ENDP ; std::deque<CMyBucket<void (__thiscall CDPMonitor::*)(CAr &,unsigned long)> *,std::allocator<CMyBucket<void (__thiscall CDPMonitor::*)(CAr &,unsigned long)> *> >::const_iterator::const_iterator
_TEXT	ENDS
PUBLIC	??$?0PAV?$CMyBucket@P8CDPMonitor@@AEXAAVCAr@@K@Z@@@?$allocator@PAU_Node@?$_List_nod@PAV?$CMyBucket@P8CDPMonitor@@AEXAAVCAr@@K@Z@@V?$allocator@PAV?$CMyBucket@P8CDPMonitor@@AEXAAVCAr@@K@Z@@@std@@@std@@@std@@QAE@ABV?$allocator@PAV?$CMyBucket@P8CDPMonitor@@AEXAAVCAr@@K@Z@@@1@@Z ; std::allocator<std::_List_nod<CMyBucket<void (__thiscall CDPMonitor::*)(CAr &,unsigned long)> *,std::allocator<CMyBucket<void (__thiscall CDPMonitor::*)(CAr &,unsigned long)> *> >::_Node *>::allocator<std::_List_nod<CMyBucket<void (__thiscall CDPMonitor::*)(CAr &,unsigned long)> *,std::allocator<CMyBucket<void (__thiscall CDPMonitor::*)(CAr &,unsigned long)> *> >::_Node *><CMyBucket<void (__thiscall CDPMonitor::*)(CAr &,unsigned long)> *>
; Function compile flags: /Ogty
; File c:\program files\microsoft visual studio .net 2003\vc7\include\xmemory
;	COMDAT ??$?0PAV?$CMyBucket@P8CDPMonitor@@AEXAAVCAr@@K@Z@@@?$allocator@PAU_Node@?$_List_nod@PAV?$CMyBucket@P8CDPMonitor@@AEXAAVCAr@@K@Z@@V?$allocator@PAV?$CMyBucket@P8CDPMonitor@@AEXAAVCAr@@K@Z@@@std@@@std@@@std@@QAE@ABV?$allocator@PAV?$CMyBucket@P8CDPMonitor@@AEXAAVCAr@@K@Z@@@1@@Z
_TEXT	SEGMENT
___formal$ = 8						; size = 4
??$?0PAV?$CMyBucket@P8CDPMonitor@@AEXAAVCAr@@K@Z@@@?$allocator@PAU_Node@?$_List_nod@PAV?$CMyBucket@P8CDPMonitor@@AEXAAVCAr@@K@Z@@V?$allocator@PAV?$CMyBucket@P8CDPMonitor@@AEXAAVCAr@@K@Z@@@std@@@std@@@std@@QAE@ABV?$allocator@PAV?$CMyBucket@P8CDPMonitor@@AEXAAVCAr@@K@Z@@@1@@Z PROC NEAR ; std::allocator<std::_List_nod<CMyBucket<void (__thiscall CDPMonitor::*)(CAr &,unsigned long)> *,std::allocator<CMyBucket<void (__thiscall CDPMonitor::*)(CAr &,unsigned long)> *> >::_Node *>::allocator<std::_List_nod<CMyBucket<void (__thiscall CDPMonitor::*)(CAr &,unsigned long)> *,std::allocator<CMyBucket<void (__thiscall CDPMonitor::*)(CAr &,unsigned long)> *> >::_Node *><CMyBucket<void (__thiscall CDPMonitor::*)(CAr &,unsigned long)> *>, COMDAT
; _this$ = ecx

; 120  : 		allocator(const allocator<_Other>&)

  00000	8b c1		 mov	 eax, ecx

; 121  : 		{	// construct from a related allocator (do nothing)
; 122  : 		}

  00002	c2 04 00	 ret	 4
??$?0PAV?$CMyBucket@P8CDPMonitor@@AEXAAVCAr@@K@Z@@@?$allocator@PAU_Node@?$_List_nod@PAV?$CMyBucket@P8CDPMonitor@@AEXAAVCAr@@K@Z@@V?$allocator@PAV?$CMyBucket@P8CDPMonitor@@AEXAAVCAr@@K@Z@@@std@@@std@@@std@@QAE@ABV?$allocator@PAV?$CMyBucket@P8CDPMonitor@@AEXAAVCAr@@K@Z@@@1@@Z ENDP ; std::allocator<std::_List_nod<CMyBucket<void (__thiscall CDPMonitor::*)(CAr &,unsigned long)> *,std::allocator<CMyBucket<void (__thiscall CDPMonitor::*)(CAr &,unsigned long)> *> >::_Node *>::allocator<std::_List_nod<CMyBucket<void (__thiscall CDPMonitor::*)(CAr &,unsigned long)> *,std::allocator<CMyBucket<void (__thiscall CDPMonitor::*)(CAr &,unsigned long)> *> >::_Node *><CMyBucket<void (__thiscall CDPMonitor::*)(CAr &,unsigned long)> *>
_TEXT	ENDS
PUBLIC	??$_Allocate@U_Node@?$_List_nod@PAV?$CMyBucket@P8CDPMonitor@@AEXAAVCAr@@K@Z@@V?$allocator@PAV?$CMyBucket@P8CDPMonitor@@AEXAAVCAr@@K@Z@@@std@@@std@@@std@@YAPAU_Node@?$_List_nod@PAV?$CMyBucket@P8CDPMonitor@@AEXAAVCAr@@K@Z@@V?$allocator@PAV?$CMyBucket@P8CDPMonitor@@AEXAAVCAr@@K@Z@@@std@@@0@IPAU120@@Z ; std::_Allocate<std::_List_nod<CMyBucket<void (__thiscall CDPMonitor::*)(CAr &,unsigned long)> *,std::allocator<CMyBucket<void (__thiscall CDPMonitor::*)(CAr &,unsigned long)> *> >::_Node>
EXTRN	??2@YAPAXI@Z:NEAR				; operator new
; Function compile flags: /Ogty
;	COMDAT ??$_Allocate@U_Node@?$_List_nod@PAV?$CMyBucket@P8CDPMonitor@@AEXAAVCAr@@K@Z@@V?$allocator@PAV?$CMyBucket@P8CDPMonitor@@AEXAAVCAr@@K@Z@@@std@@@std@@@std@@YAPAU_Node@?$_List_nod@PAV?$CMyBucket@P8CDPMonitor@@AEXAAVCAr@@K@Z@@V?$allocator@PAV?$CMyBucket@P8CDPMonitor@@AEXAAVCAr@@K@Z@@@std@@@0@IPAU120@@Z
_TEXT	SEGMENT
__Count$ = 8						; size = 4
___formal$ = 12						; size = 4
??$_Allocate@U_Node@?$_List_nod@PAV?$CMyBucket@P8CDPMonitor@@AEXAAVCAr@@K@Z@@V?$allocator@PAV?$CMyBucket@P8CDPMonitor@@AEXAAVCAr@@K@Z@@@std@@@std@@@std@@YAPAU_Node@?$_List_nod@PAV?$CMyBucket@P8CDPMonitor@@AEXAAVCAr@@K@Z@@V?$allocator@PAV?$CMyBucket@P8CDPMonitor@@AEXAAVCAr@@K@Z@@@std@@@0@IPAU120@@Z PROC NEAR ; std::_Allocate<std::_List_nod<CMyBucket<void (__thiscall CDPMonitor::*)(CAr &,unsigned long)> *,std::allocator<CMyBucket<void (__thiscall CDPMonitor::*)(CAr &,unsigned long)> *> >::_Node>, COMDAT

; 34   : 	return ((_Ty _FARQ *)operator new(_Count * sizeof (_Ty)));

  00000	8b 44 24 04	 mov	 eax, DWORD PTR __Count$[esp-4]
  00004	8d 04 40	 lea	 eax, DWORD PTR [eax+eax*2]
  00007	c1 e0 02	 shl	 eax, 2
  0000a	50		 push	 eax
  0000b	e8 00 00 00 00	 call	 ??2@YAPAXI@Z		; operator new
  00010	83 c4 04	 add	 esp, 4

; 35   : 	}

  00013	c3		 ret	 0
??$_Allocate@U_Node@?$_List_nod@PAV?$CMyBucket@P8CDPMonitor@@AEXAAVCAr@@K@Z@@V?$allocator@PAV?$CMyBucket@P8CDPMonitor@@AEXAAVCAr@@K@Z@@@std@@@std@@@std@@YAPAU_Node@?$_List_nod@PAV?$CMyBucket@P8CDPMonitor@@AEXAAVCAr@@K@Z@@V?$allocator@PAV?$CMyBucket@P8CDPMonitor@@AEXAAVCAr@@K@Z@@@std@@@0@IPAU120@@Z ENDP ; std::_Allocate<std::_List_nod<CMyBucket<void (__thiscall CDPMonitor::*)(CAr &,unsigned long)> *,std::allocator<CMyBucket<void (__thiscall CDPMonitor::*)(CAr &,unsigned long)> *> >::_Node>
_TEXT	ENDS
PUBLIC	??$_Construct@PAU_Node@?$_List_nod@PAV?$CMyBucket@P8CDPMonitor@@AEXAAVCAr@@K@Z@@V?$allocator@PAV?$CMyBucket@P8CDPMonitor@@AEXAAVCAr@@K@Z@@@std@@@std@@PAU123@@std@@YAXPAPAU_Node@?$_List_nod@PAV?$CMyBucket@P8CDPMonitor@@AEXAAVCAr@@K@Z@@V?$allocator@PAV?$CMyBucket@P8CDPMonitor@@AEXAAVCAr@@K@Z@@@std@@@0@ABQAU120@@Z ; std::_Construct<std::_List_nod<CMyBucket<void (__thiscall CDPMonitor::*)(CAr &,unsigned long)> *,std::allocator<CMyBucket<void (__thiscall CDPMonitor::*)(CAr &,unsigned long)> *> >::_Node *,std::_List_nod<CMyBucket<void (__thiscall CDPMonitor::*)(CAr &,unsigned long)> *,std::allocator<CMyBucket<void (__thiscall CDPMonitor::*)(CAr &,unsigned long)> *> >::_Node *>
; Function compile flags: /Ogty
;	COMDAT ??$_Construct@PAU_Node@?$_List_nod@PAV?$CMyBucket@P8CDPMonitor@@AEXAAVCAr@@K@Z@@V?$allocator@PAV?$CMyBucket@P8CDPMonitor@@AEXAAVCAr@@K@Z@@@std@@@std@@PAU123@@std@@YAXPAPAU_Node@?$_List_nod@PAV?$CMyBucket@P8CDPMonitor@@AEXAAVCAr@@K@Z@@V?$allocator@PAV?$CMyBucket@P8CDPMonitor@@AEXAAVCAr@@K@Z@@@std@@@0@ABQAU120@@Z
_TEXT	SEGMENT
__Ptr$ = 8						; size = 4
__Val$ = 12						; size = 4
??$_Construct@PAU_Node@?$_List_nod@PAV?$CMyBucket@P8CDPMonitor@@AEXAAVCAr@@K@Z@@V?$allocator@PAV?$CMyBucket@P8CDPMonitor@@AEXAAVCAr@@K@Z@@@std@@@std@@PAU123@@std@@YAXPAPAU_Node@?$_List_nod@PAV?$CMyBucket@P8CDPMonitor@@AEXAAVCAr@@K@Z@@V?$allocator@PAV?$CMyBucket@P8CDPMonitor@@AEXAAVCAr@@K@Z@@@std@@@0@ABQAU120@@Z PROC NEAR ; std::_Construct<std::_List_nod<CMyBucket<void (__thiscall CDPMonitor::*)(CAr &,unsigned long)> *,std::allocator<CMyBucket<void (__thiscall CDPMonitor::*)(CAr &,unsigned long)> *> >::_Node *,std::_List_nod<CMyBucket<void (__thiscall CDPMonitor::*)(CAr &,unsigned long)> *,std::allocator<CMyBucket<void (__thiscall CDPMonitor::*)(CAr &,unsigned long)> *> >::_Node *>, COMDAT

; 42   : 	new ((void _FARQ *)_Ptr) _T1(_Val);

  00000	8b 44 24 04	 mov	 eax, DWORD PTR __Ptr$[esp-4]
  00004	85 c0		 test	 eax, eax
  00006	74 08		 je	 SHORT $L160024
  00008	8b 4c 24 08	 mov	 ecx, DWORD PTR __Val$[esp-4]
  0000c	8b 11		 mov	 edx, DWORD PTR [ecx]
  0000e	89 10		 mov	 DWORD PTR [eax], edx
$L160024:

; 43   : 	}

  00010	c3		 ret	 0
??$_Construct@PAU_Node@?$_List_nod@PAV?$CMyBucket@P8CDPMonitor@@AEXAAVCAr@@K@Z@@V?$allocator@PAV?$CMyBucket@P8CDPMonitor@@AEXAAVCAr@@K@Z@@@std@@@std@@PAU123@@std@@YAXPAPAU_Node@?$_List_nod@PAV?$CMyBucket@P8CDPMonitor@@AEXAAVCAr@@K@Z@@V?$allocator@PAV?$CMyBucket@P8CDPMonitor@@AEXAAVCAr@@K@Z@@@std@@@0@ABQAU120@@Z ENDP ; std::_Construct<std::_List_nod<CMyBucket<void (__thiscall CDPMonitor::*)(CAr &,unsigned long)> *,std::allocator<CMyBucket<void (__thiscall CDPMonitor::*)(CAr &,unsigned long)> *> >::_Node *,std::_List_nod<CMyBucket<void (__thiscall CDPMonitor::*)(CAr &,unsigned long)> *,std::allocator<CMyBucket<void (__thiscall CDPMonitor::*)(CAr &,unsigned long)> *> >::_Node *>
_TEXT	ENDS
PUBLIC	??$?0PAV?$CMyBucket@P8CDPMonitor@@AEXAAVCAr@@K@Z@@@?$allocator@PAPAV?$CMyBucket@P8CDPMonitor@@AEXAAVCAr@@K@Z@@@std@@QAE@ABV?$allocator@PAV?$CMyBucket@P8CDPMonitor@@AEXAAVCAr@@K@Z@@@1@@Z ; std::allocator<CMyBucket<void (__thiscall CDPMonitor::*)(CAr &,unsigned long)> * *>::allocator<CMyBucket<void (__thiscall CDPMonitor::*)(CAr &,unsigned long)> * *><CMyBucket<void (__thiscall CDPMonitor::*)(CAr &,unsigned long)> *>
; Function compile flags: /Ogty
;	COMDAT ??$?0PAV?$CMyBucket@P8CDPMonitor@@AEXAAVCAr@@K@Z@@@?$allocator@PAPAV?$CMyBucket@P8CDPMonitor@@AEXAAVCAr@@K@Z@@@std@@QAE@ABV?$allocator@PAV?$CMyBucket@P8CDPMonitor@@AEXAAVCAr@@K@Z@@@1@@Z
_TEXT	SEGMENT
___formal$ = 8						; size = 4
??$?0PAV?$CMyBucket@P8CDPMonitor@@AEXAAVCAr@@K@Z@@@?$allocator@PAPAV?$CMyBucket@P8CDPMonitor@@AEXAAVCAr@@K@Z@@@std@@QAE@ABV?$allocator@PAV?$CMyBucket@P8CDPMonitor@@AEXAAVCAr@@K@Z@@@1@@Z PROC NEAR ; std::allocator<CMyBucket<void (__thiscall CDPMonitor::*)(CAr &,unsigned long)> * *>::allocator<CMyBucket<void (__thiscall CDPMonitor::*)(CAr &,unsigned long)> * *><CMyBucket<void (__thiscall CDPMonitor::*)(CAr &,unsigned long)> *>, COMDAT
; _this$ = ecx

; 120  : 		allocator(const allocator<_Other>&)

  00000	8b c1		 mov	 eax, ecx

; 121  : 		{	// construct from a related allocator (do nothing)
; 122  : 		}

  00002	c2 04 00	 ret	 4
??$?0PAV?$CMyBucket@P8CDPMonitor@@AEXAAVCAr@@K@Z@@@?$allocator@PAPAV?$CMyBucket@P8CDPMonitor@@AEXAAVCAr@@K@Z@@@std@@QAE@ABV?$allocator@PAV?$CMyBucket@P8CDPMonitor@@AEXAAVCAr@@K@Z@@@1@@Z ENDP ; std::allocator<CMyBucket<void (__thiscall CDPMonitor::*)(CAr &,unsigned long)> * *>::allocator<CMyBucket<void (__thiscall CDPMonitor::*)(CAr &,unsigned long)> * *><CMyBucket<void (__thiscall CDPMonitor::*)(CAr &,unsigned long)> *>
_TEXT	ENDS
PUBLIC	??$?0PAV?$CMyBucket@P8CDPMonitor@@AEXAAVCAr@@K@Z@@@?$allocator@U_Node@?$_List_nod@PAV?$CMyBucket@P8CDPMonitor@@AEXAAVCAr@@K@Z@@V?$allocator@PAV?$CMyBucket@P8CDPMonitor@@AEXAAVCAr@@K@Z@@@std@@@std@@@std@@QAE@ABV?$allocator@PAV?$CMyBucket@P8CDPMonitor@@AEXAAVCAr@@K@Z@@@1@@Z ; std::allocator<std::_List_nod<CMyBucket<void (__thiscall CDPMonitor::*)(CAr &,unsigned long)> *,std::allocator<CMyBucket<void (__thiscall CDPMonitor::*)(CAr &,unsigned long)> *> >::_Node>::allocator<std::_List_nod<CMyBucket<void (__thiscall CDPMonitor::*)(CAr &,unsigned long)> *,std::allocator<CMyBucket<void (__thiscall CDPMonitor::*)(CAr &,unsigned long)> *> >::_Node><CMyBucket<void (__thiscall CDPMonitor::*)(CAr &,unsigned long)> *>
; Function compile flags: /Ogty
;	COMDAT ??$?0PAV?$CMyBucket@P8CDPMonitor@@AEXAAVCAr@@K@Z@@@?$allocator@U_Node@?$_List_nod@PAV?$CMyBucket@P8CDPMonitor@@AEXAAVCAr@@K@Z@@V?$allocator@PAV?$CMyBucket@P8CDPMonitor@@AEXAAVCAr@@K@Z@@@std@@@std@@@std@@QAE@ABV?$allocator@PAV?$CMyBucket@P8CDPMonitor@@AEXAAVCAr@@K@Z@@@1@@Z
_TEXT	SEGMENT
___formal$ = 8						; size = 4
??$?0PAV?$CMyBucket@P8CDPMonitor@@AEXAAVCAr@@K@Z@@@?$allocator@U_Node@?$_List_nod@PAV?$CMyBucket@P8CDPMonitor@@AEXAAVCAr@@K@Z@@V?$allocator@PAV?$CMyBucket@P8CDPMonitor@@AEXAAVCAr@@K@Z@@@std@@@std@@@std@@QAE@ABV?$allocator@PAV?$CMyBucket@P8CDPMonitor@@AEXAAVCAr@@K@Z@@@1@@Z PROC NEAR ; std::allocator<std::_List_nod<CMyBucket<void (__thiscall CDPMonitor::*)(CAr &,unsigned long)> *,std::allocator<CMyBucket<void (__thiscall CDPMonitor::*)(CAr &,unsigned long)> *> >::_Node>::allocator<std::_List_nod<CMyBucket<void (__thiscall CDPMonitor::*)(CAr &,unsigned long)> *,std::allocator<CMyBucket<void (__thiscall CDPMonitor::*)(CAr &,unsigned long)> *> >::_Node><CMyBucket<void (__thiscall CDPMonitor::*)(CAr &,unsigned long)> *>, COMDAT
; _this$ = ecx

; 120  : 		allocator(const allocator<_Other>&)

  00000	8b c1		 mov	 eax, ecx

; 121  : 		{	// construct from a related allocator (do nothing)
; 122  : 		}

  00002	c2 04 00	 ret	 4
??$?0PAV?$CMyBucket@P8CDPMonitor@@AEXAAVCAr@@K@Z@@@?$allocator@U_Node@?$_List_nod@PAV?$CMyBucket@P8CDPMonitor@@AEXAAVCAr@@K@Z@@V?$allocator@PAV?$CMyBucket@P8CDPMonitor@@AEXAAVCAr@@K@Z@@@std@@@std@@@std@@QAE@ABV?$allocator@PAV?$CMyBucket@P8CDPMonitor@@AEXAAVCAr@@K@Z@@@1@@Z ENDP ; std::allocator<std::_List_nod<CMyBucket<void (__thiscall CDPMonitor::*)(CAr &,unsigned long)> *,std::allocator<CMyBucket<void (__thiscall CDPMonitor::*)(CAr &,unsigned long)> *> >::_Node>::allocator<std::_List_nod<CMyBucket<void (__thiscall CDPMonitor::*)(CAr &,unsigned long)> *,std::allocator<CMyBucket<void (__thiscall CDPMonitor::*)(CAr &,unsigned long)> *> >::_Node><CMyBucket<void (__thiscall CDPMonitor::*)(CAr &,unsigned long)> *>
_TEXT	ENDS
PUBLIC	?_Mynode@const_iterator@?$list@PAV?$CMyBucket@P8CDPMonitor@@AEXAAVCAr@@K@Z@@V?$allocator@PAV?$CMyBucket@P8CDPMonitor@@AEXAAVCAr@@K@Z@@@std@@@std@@QBEPAU_Node@?$_List_nod@PAV?$CMyBucket@P8CDPMonitor@@AEXAAVCAr@@K@Z@@V?$allocator@PAV?$CMyBucket@P8CDPMonitor@@AEXAAVCAr@@K@Z@@@std@@@3@XZ ; std::list<CMyBucket<void (__thiscall CDPMonitor::*)(CAr &,unsigned long)> *,std::allocator<CMyBucket<void (__thiscall CDPMonitor::*)(CAr &,unsigned long)> *> >::const_iterator::_Mynode
; Function compile flags: /Ogty
; File c:\program files\microsoft visual studio .net 2003\vc7\include\list
;	COMDAT ?_Mynode@const_iterator@?$list@PAV?$CMyBucket@P8CDPMonitor@@AEXAAVCAr@@K@Z@@V?$allocator@PAV?$CMyBucket@P8CDPMonitor@@AEXAAVCAr@@K@Z@@@std@@@std@@QBEPAU_Node@?$_List_nod@PAV?$CMyBucket@P8CDPMonitor@@AEXAAVCAr@@K@Z@@V?$allocator@PAV?$CMyBucket@P8CDPMonitor@@AEXAAVCAr@@K@Z@@@std@@@3@XZ
_TEXT	SEGMENT
?_Mynode@const_iterator@?$list@PAV?$CMyBucket@P8CDPMonitor@@AEXAAVCAr@@K@Z@@V?$allocator@PAV?$CMyBucket@P8CDPMonitor@@AEXAAVCAr@@K@Z@@@std@@@std@@QBEPAU_Node@?$_List_nod@PAV?$CMyBucket@P8CDPMonitor@@AEXAAVCAr@@K@Z@@V?$allocator@PAV?$CMyBucket@P8CDPMonitor@@AEXAAVCAr@@K@Z@@@std@@@3@XZ PROC NEAR ; std::list<CMyBucket<void (__thiscall CDPMonitor::*)(CAr &,unsigned long)> *,std::allocator<CMyBucket<void (__thiscall CDPMonitor::*)(CAr &,unsigned long)> *> >::const_iterator::_Mynode, COMDAT
; _this$ = ecx

; 207  : 			return (_Ptr);

  00000	8b 01		 mov	 eax, DWORD PTR [ecx]

; 208  : 			}

  00002	c3		 ret	 0
?_Mynode@const_iterator@?$list@PAV?$CMyBucket@P8CDPMonitor@@AEXAAVCAr@@K@Z@@V?$allocator@PAV?$CMyBucket@P8CDPMonitor@@AEXAAVCAr@@K@Z@@@std@@@std@@QBEPAU_Node@?$_List_nod@PAV?$CMyBucket@P8CDPMonitor@@AEXAAVCAr@@K@Z@@V?$allocator@PAV?$CMyBucket@P8CDPMonitor@@AEXAAVCAr@@K@Z@@@std@@@3@XZ ENDP ; std::list<CMyBucket<void (__thiscall CDPMonitor::*)(CAr &,unsigned long)> *,std::allocator<CMyBucket<void (__thiscall CDPMonitor::*)(CAr &,unsigned long)> *> >::const_iterator::_Mynode
_TEXT	ENDS
PUBLIC	??0_Node@?$_List_nod@PAV?$CMyBucket@P8CDPMonitor@@AEXAAVCAr@@K@Z@@V?$allocator@PAV?$CMyBucket@P8CDPMonitor@@AEXAAVCAr@@K@Z@@@std@@@std@@QAE@PAU012@0ABQAV?$CMyBucket@P8CDPMonitor@@AEXAAVCAr@@K@Z@@@Z ; std::_List_nod<CMyBucket<void (__thiscall CDPMonitor::*)(CAr &,unsigned long)> *,std::allocator<CMyBucket<void (__thiscall CDPMonitor::*)(CAr &,unsigned long)> *> >::_Node::_Node
; Function compile flags: /Ogty
;	COMDAT ??0_Node@?$_List_nod@PAV?$CMyBucket@P8CDPMonitor@@AEXAAVCAr@@K@Z@@V?$allocator@PAV?$CMyBucket@P8CDPMonitor@@AEXAAVCAr@@K@Z@@@std@@@std@@QAE@PAU012@0ABQAV?$CMyBucket@P8CDPMonitor@@AEXAAVCAr@@K@Z@@@Z
_TEXT	SEGMENT
__Nextarg$ = 8						; size = 4
__Prevarg$ = 12						; size = 4
__Myvalarg$ = 16					; size = 4
??0_Node@?$_List_nod@PAV?$CMyBucket@P8CDPMonitor@@AEXAAVCAr@@K@Z@@V?$allocator@PAV?$CMyBucket@P8CDPMonitor@@AEXAAVCAr@@K@Z@@@std@@@std@@QAE@PAU012@0ABQAV?$CMyBucket@P8CDPMonitor@@AEXAAVCAr@@K@Z@@@Z PROC NEAR ; std::_List_nod<CMyBucket<void (__thiscall CDPMonitor::*)(CAr &,unsigned long)> *,std::allocator<CMyBucket<void (__thiscall CDPMonitor::*)(CAr &,unsigned long)> *> >::_Node::_Node, COMDAT
; _this$ = ecx

; 34   : 			{	// construct a node with value

  00000	8b 54 24 08	 mov	 edx, DWORD PTR __Prevarg$[esp-4]
  00004	8b c1		 mov	 eax, ecx
  00006	8b 4c 24 04	 mov	 ecx, DWORD PTR __Nextarg$[esp-4]
  0000a	89 08		 mov	 DWORD PTR [eax], ecx
  0000c	8b 4c 24 0c	 mov	 ecx, DWORD PTR __Myvalarg$[esp-4]
  00010	89 50 04	 mov	 DWORD PTR [eax+4], edx
  00013	8b 11		 mov	 edx, DWORD PTR [ecx]
  00015	89 50 08	 mov	 DWORD PTR [eax+8], edx

; 35   : 			}

  00018	c2 0c 00	 ret	 12			; 0000000cH
??0_Node@?$_List_nod@PAV?$CMyBucket@P8CDPMonitor@@AEXAAVCAr@@K@Z@@V?$allocator@PAV?$CMyBucket@P8CDPMonitor@@AEXAAVCAr@@K@Z@@@std@@@std@@QAE@PAU012@0ABQAV?$CMyBucket@P8CDPMonitor@@AEXAAVCAr@@K@Z@@@Z ENDP ; std::_List_nod<CMyBucket<void (__thiscall CDPMonitor::*)(CAr &,unsigned long)> *,std::allocator<CMyBucket<void (__thiscall CDPMonitor::*)(CAr &,unsigned long)> *> >::_Node::_Node
_TEXT	ENDS
PUBLIC	?max_size@?$allocator@PAV?$CMyBucket@P8CDPMonitor@@AEXAAVCAr@@K@Z@@@std@@QBEIXZ ; std::allocator<CMyBucket<void (__thiscall CDPMonitor::*)(CAr &,unsigned long)> *>::max_size
; Function compile flags: /Ogty
; File c:\program files\microsoft visual studio .net 2003\vc7\include\xmemory
;	COMDAT ?max_size@?$allocator@PAV?$CMyBucket@P8CDPMonitor@@AEXAAVCAr@@K@Z@@@std@@QBEIXZ
_TEXT	SEGMENT
?max_size@?$allocator@PAV?$CMyBucket@P8CDPMonitor@@AEXAAVCAr@@K@Z@@@std@@QBEIXZ PROC NEAR ; std::allocator<CMyBucket<void (__thiscall CDPMonitor::*)(CAr &,unsigned long)> *>::max_size, COMDAT
; _this$ = ecx

; 157  : 		_SIZT _Count = (_SIZT)(-1) / sizeof (_Ty);
; 158  : 		return (0 < _Count ? _Count : 1);

  00000	b8 ff ff ff 3f	 mov	 eax, 1073741823		; 3fffffffH

; 159  : 		}

  00005	c3		 ret	 0
?max_size@?$allocator@PAV?$CMyBucket@P8CDPMonitor@@AEXAAVCAr@@K@Z@@@std@@QBEIXZ ENDP ; std::allocator<CMyBucket<void (__thiscall CDPMonitor::*)(CAr &,unsigned long)> *>::max_size
_TEXT	ENDS
PUBLIC	??$_Allocate@PAV?$CMyBucket@P8CDPMonitor@@AEXAAVCAr@@K@Z@@@std@@YAPAPAV?$CMyBucket@P8CDPMonitor@@AEXAAVCAr@@K@Z@@IPAPAV1@@Z ; std::_Allocate<CMyBucket<void (__thiscall CDPMonitor::*)(CAr &,unsigned long)> *>
; Function compile flags: /Ogty
;	COMDAT ??$_Allocate@PAV?$CMyBucket@P8CDPMonitor@@AEXAAVCAr@@K@Z@@@std@@YAPAPAV?$CMyBucket@P8CDPMonitor@@AEXAAVCAr@@K@Z@@IPAPAV1@@Z
_TEXT	SEGMENT
__Count$ = 8						; size = 4
___formal$ = 12						; size = 4
??$_Allocate@PAV?$CMyBucket@P8CDPMonitor@@AEXAAVCAr@@K@Z@@@std@@YAPAPAV?$CMyBucket@P8CDPMonitor@@AEXAAVCAr@@K@Z@@IPAPAV1@@Z PROC NEAR ; std::_Allocate<CMyBucket<void (__thiscall CDPMonitor::*)(CAr &,unsigned long)> *>, COMDAT

; 34   : 	return ((_Ty _FARQ *)operator new(_Count * sizeof (_Ty)));

  00000	8b 44 24 04	 mov	 eax, DWORD PTR __Count$[esp-4]
  00004	8d 0c 85 00 00
	00 00		 lea	 ecx, DWORD PTR [eax*4]
  0000b	51		 push	 ecx
  0000c	e8 00 00 00 00	 call	 ??2@YAPAXI@Z		; operator new
  00011	83 c4 04	 add	 esp, 4

; 35   : 	}

  00014	c3		 ret	 0
??$_Allocate@PAV?$CMyBucket@P8CDPMonitor@@AEXAAVCAr@@K@Z@@@std@@YAPAPAV?$CMyBucket@P8CDPMonitor@@AEXAAVCAr@@K@Z@@IPAPAV1@@Z ENDP ; std::_Allocate<CMyBucket<void (__thiscall CDPMonitor::*)(CAr &,unsigned long)> *>
_TEXT	ENDS
PUBLIC	??$_Construct@PAV?$CMyBucket@P8CDPMonitor@@AEXAAVCAr@@K@Z@@PAV1@@std@@YAXPAPAV?$CMyBucket@P8CDPMonitor@@AEXAAVCAr@@K@Z@@ABQAV1@@Z ; std::_Construct<CMyBucket<void (__thiscall CDPMonitor::*)(CAr &,unsigned long)> *,CMyBucket<void (__thiscall CDPMonitor::*)(CAr &,unsigned long)> *>
; Function compile flags: /Ogty
;	COMDAT ??$_Construct@PAV?$CMyBucket@P8CDPMonitor@@AEXAAVCAr@@K@Z@@PAV1@@std@@YAXPAPAV?$CMyBucket@P8CDPMonitor@@AEXAAVCAr@@K@Z@@ABQAV1@@Z
_TEXT	SEGMENT
__Ptr$ = 8						; size = 4
__Val$ = 12						; size = 4
??$_Construct@PAV?$CMyBucket@P8CDPMonitor@@AEXAAVCAr@@K@Z@@PAV1@@std@@YAXPAPAV?$CMyBucket@P8CDPMonitor@@AEXAAVCAr@@K@Z@@ABQAV1@@Z PROC NEAR ; std::_Construct<CMyBucket<void (__thiscall CDPMonitor::*)(CAr &,unsigned long)> *,CMyBucket<void (__thiscall CDPMonitor::*)(CAr &,unsigned long)> *>, COMDAT

; 42   : 	new ((void _FARQ *)_Ptr) _T1(_Val);

  00000	8b 44 24 04	 mov	 eax, DWORD PTR __Ptr$[esp-4]
  00004	85 c0		 test	 eax, eax
  00006	74 08		 je	 SHORT $L160053
  00008	8b 4c 24 08	 mov	 ecx, DWORD PTR __Val$[esp-4]
  0000c	8b 11		 mov	 edx, DWORD PTR [ecx]
  0000e	89 10		 mov	 DWORD PTR [eax], edx
$L160053:

; 43   : 	}

  00010	c3		 ret	 0
??$_Construct@PAV?$CMyBucket@P8CDPMonitor@@AEXAAVCAr@@K@Z@@PAV1@@std@@YAXPAPAV?$CMyBucket@P8CDPMonitor@@AEXAAVCAr@@K@Z@@ABQAV1@@Z ENDP ; std::_Construct<CMyBucket<void (__thiscall CDPMonitor::*)(CAr &,unsigned long)> *,CMyBucket<void (__thiscall CDPMonitor::*)(CAr &,unsigned long)> *>
_TEXT	ENDS
PUBLIC	??$_Allocate@PAPAV?$CMyBucket@P8CDPMonitor@@AEXAAVCAr@@K@Z@@@std@@YAPAPAPAV?$CMyBucket@P8CDPMonitor@@AEXAAVCAr@@K@Z@@IPAPAPAV1@@Z ; std::_Allocate<CMyBucket<void (__thiscall CDPMonitor::*)(CAr &,unsigned long)> * *>
; Function compile flags: /Ogty
;	COMDAT ??$_Allocate@PAPAV?$CMyBucket@P8CDPMonitor@@AEXAAVCAr@@K@Z@@@std@@YAPAPAPAV?$CMyBucket@P8CDPMonitor@@AEXAAVCAr@@K@Z@@IPAPAPAV1@@Z
_TEXT	SEGMENT
__Count$ = 8						; size = 4
___formal$ = 12						; size = 4
??$_Allocate@PAPAV?$CMyBucket@P8CDPMonitor@@AEXAAVCAr@@K@Z@@@std@@YAPAPAPAV?$CMyBucket@P8CDPMonitor@@AEXAAVCAr@@K@Z@@IPAPAPAV1@@Z PROC NEAR ; std::_Allocate<CMyBucket<void (__thiscall CDPMonitor::*)(CAr &,unsigned long)> * *>, COMDAT

; 34   : 	return ((_Ty _FARQ *)operator new(_Count * sizeof (_Ty)));

  00000	8b 44 24 04	 mov	 eax, DWORD PTR __Count$[esp-4]
  00004	8d 0c 85 00 00
	00 00		 lea	 ecx, DWORD PTR [eax*4]
  0000b	51		 push	 ecx
  0000c	e8 00 00 00 00	 call	 ??2@YAPAXI@Z		; operator new
  00011	83 c4 04	 add	 esp, 4

; 35   : 	}

  00014	c3		 ret	 0
??$_Allocate@PAPAV?$CMyBucket@P8CDPMonitor@@AEXAAVCAr@@K@Z@@@std@@YAPAPAPAV?$CMyBucket@P8CDPMonitor@@AEXAAVCAr@@K@Z@@IPAPAPAV1@@Z ENDP ; std::_Allocate<CMyBucket<void (__thiscall CDPMonitor::*)(CAr &,unsigned long)> * *>
_TEXT	ENDS
PUBLIC	??$_Ptr_cat@PAV?$CMyBucket@P8CDPMonitor@@AEXAAVCAr@@K@Z@@@std@@YA?AU_Scalar_ptr_iterator_tag@0@PAPAPAV?$CMyBucket@P8CDPMonitor@@AEXAAVCAr@@K@Z@@0@Z ; std::_Ptr_cat<CMyBucket<void (__thiscall CDPMonitor::*)(CAr &,unsigned long)> *>
; Function compile flags: /Ogty
; File c:\program files\microsoft visual studio .net 2003\vc7\include\xutility
;	COMDAT ??$_Ptr_cat@PAV?$CMyBucket@P8CDPMonitor@@AEXAAVCAr@@K@Z@@@std@@YA?AU_Scalar_ptr_iterator_tag@0@PAPAPAV?$CMyBucket@P8CDPMonitor@@AEXAAVCAr@@K@Z@@0@Z
_TEXT	SEGMENT
__Cat$ = -1						; size = 1
___formal$ = 8						; size = 4
___formal$ = 12						; size = 4
??$_Ptr_cat@PAV?$CMyBucket@P8CDPMonitor@@AEXAAVCAr@@K@Z@@@std@@YA?AU_Scalar_ptr_iterator_tag@0@PAPAPAV?$CMyBucket@P8CDPMonitor@@AEXAAVCAr@@K@Z@@0@Z PROC NEAR ; std::_Ptr_cat<CMyBucket<void (__thiscall CDPMonitor::*)(CAr &,unsigned long)> *>, COMDAT

; 218  : 	{	// return pointer category from pointer to pointer arguments

  00000	51		 push	 ecx

; 219  : 	_Scalar_ptr_iterator_tag _Cat;
; 220  : 	return (_Cat);

  00001	8a 44 24 03	 mov	 al, BYTE PTR __Cat$[esp+4]

; 221  : 	}

  00005	59		 pop	 ecx
  00006	c3		 ret	 0
??$_Ptr_cat@PAV?$CMyBucket@P8CDPMonitor@@AEXAAVCAr@@K@Z@@@std@@YA?AU_Scalar_ptr_iterator_tag@0@PAPAPAV?$CMyBucket@P8CDPMonitor@@AEXAAVCAr@@K@Z@@0@Z ENDP ; std::_Ptr_cat<CMyBucket<void (__thiscall CDPMonitor::*)(CAr &,unsigned long)> *>
_TEXT	ENDS
PUBLIC	??$_Uninit_copy@PAPAV?$CMyBucket@P8CDPMonitor@@AEXAAVCAr@@K@Z@@PAPAV1@@std@@YAPAPAPAV?$CMyBucket@P8CDPMonitor@@AEXAAVCAr@@K@Z@@PAPAPAV1@00AAV?$allocator@PAPAV?$CMyBucket@P8CDPMonitor@@AEXAAVCAr@@K@Z@@@0@U_Scalar_ptr_iterator_tag@0@@Z ; std::_Uninit_copy<CMyBucket<void (__thiscall CDPMonitor::*)(CAr &,unsigned long)> * *,CMyBucket<void (__thiscall CDPMonitor::*)(CAr &,unsigned long)> * *>
EXTRN	_memmove:NEAR
; Function compile flags: /Ogty
; File c:\program files\microsoft visual studio .net 2003\vc7\include\memory
;	COMDAT ??$_Uninit_copy@PAPAV?$CMyBucket@P8CDPMonitor@@AEXAAVCAr@@K@Z@@PAPAV1@@std@@YAPAPAPAV?$CMyBucket@P8CDPMonitor@@AEXAAVCAr@@K@Z@@PAPAPAV1@00AAV?$allocator@PAPAV?$CMyBucket@P8CDPMonitor@@AEXAAVCAr@@K@Z@@@0@U_Scalar_ptr_iterator_tag@0@@Z
_TEXT	SEGMENT
__First$ = 8						; size = 4
__Last$ = 12						; size = 4
__Dest$ = 16						; size = 4
___formal$ = 20						; size = 4
___formal$ = 24						; size = 1
??$_Uninit_copy@PAPAV?$CMyBucket@P8CDPMonitor@@AEXAAVCAr@@K@Z@@PAPAV1@@std@@YAPAPAPAV?$CMyBucket@P8CDPMonitor@@AEXAAVCAr@@K@Z@@PAPAPAV1@00AAV?$allocator@PAPAV?$CMyBucket@P8CDPMonitor@@AEXAAVCAr@@K@Z@@@0@U_Scalar_ptr_iterator_tag@0@@Z PROC NEAR ; std::_Uninit_copy<CMyBucket<void (__thiscall CDPMonitor::*)(CAr &,unsigned long)> * *,CMyBucket<void (__thiscall CDPMonitor::*)(CAr &,unsigned long)> * *>, COMDAT

; 106  : 	size_t _Count = (size_t)(_Last - _First);

  00000	8b 4c 24 04	 mov	 ecx, DWORD PTR __First$[esp-4]
  00004	8b 44 24 08	 mov	 eax, DWORD PTR __Last$[esp-4]
  00008	2b c1		 sub	 eax, ecx
  0000a	56		 push	 esi
  0000b	c1 f8 02	 sar	 eax, 2

; 107  : 	return ((_Ty2 *)memmove(&*_Dest, &*_First,
; 108  : 		_Count * sizeof (*_First)) + _Count);	// NB: non-overlapping move

  0000e	8d 34 85 00 00
	00 00		 lea	 esi, DWORD PTR [eax*4]
  00015	8b 44 24 10	 mov	 eax, DWORD PTR __Dest$[esp]
  00019	56		 push	 esi
  0001a	51		 push	 ecx
  0001b	50		 push	 eax
  0001c	e8 00 00 00 00	 call	 _memmove
  00021	83 c4 0c	 add	 esp, 12			; 0000000cH
  00024	03 c6		 add	 eax, esi
  00026	5e		 pop	 esi

; 109  : 	}

  00027	c3		 ret	 0
??$_Uninit_copy@PAPAV?$CMyBucket@P8CDPMonitor@@AEXAAVCAr@@K@Z@@PAPAV1@@std@@YAPAPAPAV?$CMyBucket@P8CDPMonitor@@AEXAAVCAr@@K@Z@@PAPAPAV1@00AAV?$allocator@PAPAV?$CMyBucket@P8CDPMonitor@@AEXAAVCAr@@K@Z@@@0@U_Scalar_ptr_iterator_tag@0@@Z ENDP ; std::_Uninit_copy<CMyBucket<void (__thiscall CDPMonitor::*)(CAr &,unsigned long)> * *,CMyBucket<void (__thiscall CDPMonitor::*)(CAr &,unsigned long)> * *>
_TEXT	ENDS
PUBLIC	??$_Destroy_range@PAPAV?$CMyBucket@P8CDPMonitor@@AEXAAVCAr@@K@Z@@V?$allocator@PAPAV?$CMyBucket@P8CDPMonitor@@AEXAAVCAr@@K@Z@@@std@@@std@@YAXPAPAPAV?$CMyBucket@P8CDPMonitor@@AEXAAVCAr@@K@Z@@0AAV?$allocator@PAPAV?$CMyBucket@P8CDPMonitor@@AEXAAVCAr@@K@Z@@@0@U_Scalar_ptr_iterator_tag@0@@Z ; std::_Destroy_range<CMyBucket<void (__thiscall CDPMonitor::*)(CAr &,unsigned long)> * *,std::allocator<CMyBucket<void (__thiscall CDPMonitor::*)(CAr &,unsigned long)> * *> >
; Function compile flags: /Ogty
; File c:\program files\microsoft visual studio .net 2003\vc7\include\xmemory
;	COMDAT ??$_Destroy_range@PAPAV?$CMyBucket@P8CDPMonitor@@AEXAAVCAr@@K@Z@@V?$allocator@PAPAV?$CMyBucket@P8CDPMonitor@@AEXAAVCAr@@K@Z@@@std@@@std@@YAXPAPAPAV?$CMyBucket@P8CDPMonitor@@AEXAAVCAr@@K@Z@@0AAV?$allocator@PAPAV?$CMyBucket@P8CDPMonitor@@AEXAAVCAr@@K@Z@@@0@U_Scalar_ptr_iterator_tag@0@@Z
_TEXT	SEGMENT
__First$ = 8						; size = 4
__Last$ = 12						; size = 4
__Al$ = 16						; size = 4
___formal$ = 20						; size = 1
??$_Destroy_range@PAPAV?$CMyBucket@P8CDPMonitor@@AEXAAVCAr@@K@Z@@V?$allocator@PAPAV?$CMyBucket@P8CDPMonitor@@AEXAAVCAr@@K@Z@@@std@@@std@@YAXPAPAPAV?$CMyBucket@P8CDPMonitor@@AEXAAVCAr@@K@Z@@0AAV?$allocator@PAPAV?$CMyBucket@P8CDPMonitor@@AEXAAVCAr@@K@Z@@@0@U_Scalar_ptr_iterator_tag@0@@Z PROC NEAR ; std::_Destroy_range<CMyBucket<void (__thiscall CDPMonitor::*)(CAr &,unsigned long)> * *,std::allocator<CMyBucket<void (__thiscall CDPMonitor::*)(CAr &,unsigned long)> * *> >, COMDAT

; 234  : 	}

  00000	c3		 ret	 0
??$_Destroy_range@PAPAV?$CMyBucket@P8CDPMonitor@@AEXAAVCAr@@K@Z@@V?$allocator@PAPAV?$CMyBucket@P8CDPMonitor@@AEXAAVCAr@@K@Z@@@std@@@std@@YAXPAPAPAV?$CMyBucket@P8CDPMonitor@@AEXAAVCAr@@K@Z@@0AAV?$allocator@PAPAV?$CMyBucket@P8CDPMonitor@@AEXAAVCAr@@K@Z@@@0@U_Scalar_ptr_iterator_tag@0@@Z ENDP ; std::_Destroy_range<CMyBucket<void (__thiscall CDPMonitor::*)(CAr &,unsigned long)> * *,std::allocator<CMyBucket<void (__thiscall CDPMonitor::*)(CAr &,unsigned long)> * *> >
_TEXT	ENDS
PUBLIC	??$fill_n@PAPAPAV?$CMyBucket@P8CDPMonitor@@AEXAAVCAr@@K@Z@@IPAPAV1@@std@@YAXPAPAPAV?$CMyBucket@P8CDPMonitor@@AEXAAVCAr@@K@Z@@IABQAPAV1@@Z ; std::fill_n<CMyBucket<void (__thiscall CDPMonitor::*)(CAr &,unsigned long)> * * *,unsigned int,CMyBucket<void (__thiscall CDPMonitor::*)(CAr &,unsigned long)> * *>
; Function compile flags: /Ogty
; File c:\program files\microsoft visual studio .net 2003\vc7\include\xutility
;	COMDAT ??$fill_n@PAPAPAV?$CMyBucket@P8CDPMonitor@@AEXAAVCAr@@K@Z@@IPAPAV1@@std@@YAXPAPAPAV?$CMyBucket@P8CDPMonitor@@AEXAAVCAr@@K@Z@@IABQAPAV1@@Z
_TEXT	SEGMENT
__First$ = 8						; size = 4
__Count$ = 12						; size = 4
__Val$ = 16						; size = 4
??$fill_n@PAPAPAV?$CMyBucket@P8CDPMonitor@@AEXAAVCAr@@K@Z@@IPAPAV1@@std@@YAXPAPAPAV?$CMyBucket@P8CDPMonitor@@AEXAAVCAr@@K@Z@@IABQAPAV1@@Z PROC NEAR ; std::fill_n<CMyBucket<void (__thiscall CDPMonitor::*)(CAr &,unsigned long)> * * *,unsigned int,CMyBucket<void (__thiscall CDPMonitor::*)(CAr &,unsigned long)> * *>, COMDAT

; 1160 : 	for (; 0 < _Count; --_Count, ++_First)

  00000	8b 4c 24 08	 mov	 ecx, DWORD PTR __Count$[esp-4]
  00004	85 c9		 test	 ecx, ecx
  00006	76 14		 jbe	 SHORT $L159478
  00008	8b 54 24 0c	 mov	 edx, DWORD PTR __Val$[esp-4]
  0000c	8b 44 24 04	 mov	 eax, DWORD PTR __First$[esp-4]
  00010	56		 push	 esi
$L159476:

; 1161 : 		*_First = _Val;

  00011	8b 32		 mov	 esi, DWORD PTR [edx]
  00013	89 30		 mov	 DWORD PTR [eax], esi
  00015	83 c0 04	 add	 eax, 4
  00018	49		 dec	 ecx
  00019	75 f6		 jne	 SHORT $L159476
  0001b	5e		 pop	 esi
$L159478:

; 1162 : 	}

  0001c	c3		 ret	 0
??$fill_n@PAPAPAV?$CMyBucket@P8CDPMonitor@@AEXAAVCAr@@K@Z@@IPAPAV1@@std@@YAXPAPAPAV?$CMyBucket@P8CDPMonitor@@AEXAAVCAr@@K@Z@@IABQAPAV1@@Z ENDP ; std::fill_n<CMyBucket<void (__thiscall CDPMonitor::*)(CAr &,unsigned long)> * * *,unsigned int,CMyBucket<void (__thiscall CDPMonitor::*)(CAr &,unsigned long)> * *>
_TEXT	ENDS
PUBLIC	?GetRootItem@CTreeCtrl@@QBEPAU_TREEITEM@@XZ	; CTreeCtrl::GetRootItem
EXTRN	__imp__SendMessageA@16:NEAR
; Function compile flags: /Ogty
; File c:\program files\microsoft visual studio .net 2003\vc7\atlmfc\include\afxcmn.inl
;	COMDAT ?GetRootItem@CTreeCtrl@@QBEPAU_TREEITEM@@XZ
_TEXT	SEGMENT
?GetRootItem@CTreeCtrl@@QBEPAU_TREEITEM@@XZ PROC NEAR	; CTreeCtrl::GetRootItem, COMDAT
; _this$ = ecx

; 286  : 	{ ASSERT(::IsWindow(m_hWnd)); return (HTREEITEM)::SendMessage(m_hWnd, TVM_GETNEXTITEM, TVGN_ROOT, 0); }

  00000	8b 41 1c	 mov	 eax, DWORD PTR [ecx+28]
  00003	6a 00		 push	 0
  00005	6a 00		 push	 0
  00007	68 0a 11 00 00	 push	 4362			; 0000110aH
  0000c	50		 push	 eax
  0000d	ff 15 00 00 00
	00		 call	 DWORD PTR __imp__SendMessageA@16
  00013	c3		 ret	 0
?GetRootItem@CTreeCtrl@@QBEPAU_TREEITEM@@XZ ENDP	; CTreeCtrl::GetRootItem
_TEXT	ENDS
PUBLIC	?SelectItem@CTreeCtrl@@QAEHPAU_TREEITEM@@@Z	; CTreeCtrl::SelectItem
; Function compile flags: /Ogty
;	COMDAT ?SelectItem@CTreeCtrl@@QAEHPAU_TREEITEM@@@Z
_TEXT	SEGMENT
_hItem$ = 8						; size = 4
?SelectItem@CTreeCtrl@@QAEHPAU_TREEITEM@@@Z PROC NEAR	; CTreeCtrl::SelectItem, COMDAT
; _this$ = ecx

; 290  : 	{ ASSERT(::IsWindow(m_hWnd)); return (BOOL) ::SendMessage(m_hWnd, TVM_SELECTITEM, TVGN_CARET, (LPARAM)hItem); }

  00000	8b 44 24 04	 mov	 eax, DWORD PTR _hItem$[esp-4]
  00004	8b 49 1c	 mov	 ecx, DWORD PTR [ecx+28]
  00007	50		 push	 eax
  00008	6a 09		 push	 9
  0000a	68 0b 11 00 00	 push	 4363			; 0000110bH
  0000f	51		 push	 ecx
  00010	ff 15 00 00 00
	00		 call	 DWORD PTR __imp__SendMessageA@16
  00016	c2 04 00	 ret	 4
?SelectItem@CTreeCtrl@@QAEHPAU_TREEITEM@@@Z ENDP	; CTreeCtrl::SelectItem
_TEXT	ENDS
PUBLIC	?SetItemText@CTreeCtrl@@QAEHPAU_TREEITEM@@PBD@Z	; CTreeCtrl::SetItemText
EXTRN	?SetItem@CTreeCtrl@@QAEHPAU_TREEITEM@@IPBDHHIIJ@Z:NEAR ; CTreeCtrl::SetItem
; Function compile flags: /Ogty
;	COMDAT ?SetItemText@CTreeCtrl@@QAEHPAU_TREEITEM@@PBD@Z
_TEXT	SEGMENT
_hItem$ = 8						; size = 4
_lpszItem$ = 12						; size = 4
?SetItemText@CTreeCtrl@@QAEHPAU_TREEITEM@@PBD@Z PROC NEAR ; CTreeCtrl::SetItemText, COMDAT
; _this$ = ecx

; 300  : 	{ ASSERT(::IsWindow(m_hWnd)); return SetItem(hItem, TVIF_TEXT, lpszItem, 0, 0, 0, 0, NULL); }

  00000	8b 44 24 08	 mov	 eax, DWORD PTR _lpszItem$[esp-4]
  00004	8b 54 24 04	 mov	 edx, DWORD PTR _hItem$[esp-4]
  00008	6a 00		 push	 0
  0000a	6a 00		 push	 0
  0000c	6a 00		 push	 0
  0000e	6a 00		 push	 0
  00010	6a 00		 push	 0
  00012	50		 push	 eax
  00013	6a 01		 push	 1
  00015	52		 push	 edx
  00016	e8 00 00 00 00	 call	 ?SetItem@CTreeCtrl@@QAEHPAU_TREEITEM@@IPBDHHIIJ@Z ; CTreeCtrl::SetItem
  0001b	c2 08 00	 ret	 8
?SetItemText@CTreeCtrl@@QAEHPAU_TREEITEM@@PBD@Z ENDP	; CTreeCtrl::SetItemText
_TEXT	ENDS
PUBLIC	?assign@?$char_traits@D@std@@SAXAADABD@Z	; std::char_traits<char>::assign
; Function compile flags: /Ogty
; File c:\program files\microsoft visual studio .net 2003\vc7\include\iosfwd
;	COMDAT ?assign@?$char_traits@D@std@@SAXAADABD@Z
_TEXT	SEGMENT
__Left$ = 8						; size = 4
__Right$ = 12						; size = 4
?assign@?$char_traits@D@std@@SAXAADABD@Z PROC NEAR	; std::char_traits<char>::assign, COMDAT

; 331  : 		_Left = _Right;

  00000	8b 44 24 08	 mov	 eax, DWORD PTR __Right$[esp-4]
  00004	8a 08		 mov	 cl, BYTE PTR [eax]
  00006	8b 54 24 04	 mov	 edx, DWORD PTR __Left$[esp-4]
  0000a	88 0a		 mov	 BYTE PTR [edx], cl

; 332  : 		}

  0000c	c3		 ret	 0
?assign@?$char_traits@D@std@@SAXAADABD@Z ENDP		; std::char_traits<char>::assign
_TEXT	ENDS
PUBLIC	?length@?$char_traits@D@std@@SAIPBD@Z		; std::char_traits<char>::length
; Function compile flags: /Ogty
;	COMDAT ?length@?$char_traits@D@std@@SAIPBD@Z
_TEXT	SEGMENT
__First$ = 8						; size = 4
?length@?$char_traits@D@std@@SAIPBD@Z PROC NEAR		; std::char_traits<char>::length, COMDAT

; 352  : 		return (::strlen(_First));

  00000	8b 44 24 04	 mov	 eax, DWORD PTR __First$[esp-4]
  00004	8d 50 01	 lea	 edx, DWORD PTR [eax+1]
$L160090:
  00007	8a 08		 mov	 cl, BYTE PTR [eax]
  00009	40		 inc	 eax
  0000a	84 c9		 test	 cl, cl
  0000c	75 f9		 jne	 SHORT $L160090
  0000e	2b c2		 sub	 eax, edx

; 353  : 		}

  00010	c3		 ret	 0
?length@?$char_traits@D@std@@SAIPBD@Z ENDP		; std::char_traits<char>::length
_TEXT	ENDS
PUBLIC	?copy@?$char_traits@D@std@@SAPADPADPBDI@Z	; std::char_traits<char>::copy
; Function compile flags: /Ogty
;	COMDAT ?copy@?$char_traits@D@std@@SAPADPADPBDI@Z
_TEXT	SEGMENT
__First1$ = 8						; size = 4
__First2$ = 12						; size = 4
__Count$ = 16						; size = 4
?copy@?$char_traits@D@std@@SAPADPADPBDI@Z PROC NEAR	; std::char_traits<char>::copy, COMDAT

; 358  : 		return ((_Elem *)::memcpy(_First1, _First2, _Count));

  00000	8b 4c 24 0c	 mov	 ecx, DWORD PTR __Count$[esp-4]
  00004	56		 push	 esi
  00005	8b 74 24 0c	 mov	 esi, DWORD PTR __First2$[esp]
  00009	57		 push	 edi
  0000a	8b 7c 24 0c	 mov	 edi, DWORD PTR __First1$[esp+4]
  0000e	8b c1		 mov	 eax, ecx
  00010	8b d7		 mov	 edx, edi
  00012	c1 e9 02	 shr	 ecx, 2
  00015	f3 a5		 rep movsd
  00017	8b c8		 mov	 ecx, eax
  00019	83 e1 03	 and	 ecx, 3
  0001c	f3 a4		 rep movsb
  0001e	5f		 pop	 edi
  0001f	8b c2		 mov	 eax, edx
  00021	5e		 pop	 esi

; 359  : 		}

  00022	c3		 ret	 0
?copy@?$char_traits@D@std@@SAPADPADPBDI@Z ENDP		; std::char_traits<char>::copy
_TEXT	ENDS
PUBLIC	?move@?$char_traits@D@std@@SAPADPADPBDI@Z	; std::char_traits<char>::move
; Function compile flags: /Ogty
;	COMDAT ?move@?$char_traits@D@std@@SAPADPADPBDI@Z
_TEXT	SEGMENT
__First1$ = 8						; size = 4
__First2$ = 12						; size = 4
__Count$ = 16						; size = 4
?move@?$char_traits@D@std@@SAPADPADPBDI@Z PROC NEAR	; std::char_traits<char>::move, COMDAT

; 370  : 		return ((_Elem *)::memmove(_First1, _First2, _Count));

  00000	e9 00 00 00 00	 jmp	 _memmove
?move@?$char_traits@D@std@@SAPADPADPBDI@Z ENDP		; std::char_traits<char>::move
_TEXT	ENDS
PUBLIC	??0CMclCritSec@@QAE@XZ				; CMclCritSec::CMclCritSec
PUBLIC	??_7CMclCritSec@@6B@				; CMclCritSec::`vftable'
PUBLIC	??_GCMclCritSec@@UAEPAXI@Z			; CMclCritSec::`scalar deleting destructor'
EXTRN	??_ECMclCritSec@@UAEPAXI@Z:NEAR			; CMclCritSec::`vector deleting destructor'
EXTRN	__imp__InitializeCriticalSection@4:NEAR
;	COMDAT ??_7CMclCritSec@@6B@
; File c:\offi src_real\offi src!\_network\mcl\include\cmclcritsec.h
CONST	SEGMENT
??_7CMclCritSec@@6B@ DD FLAT:??_ECMclCritSec@@UAEPAXI@Z	; CMclCritSec::`vftable'
; Function compile flags: /Ogty
CONST	ENDS
;	COMDAT ??0CMclCritSec@@QAE@XZ
_TEXT	SEGMENT
??0CMclCritSec@@QAE@XZ PROC NEAR			; CMclCritSec::CMclCritSec, COMDAT
; _this$ = ecx

; 19   :     CMclCritSec(void)

  00000	56		 push	 esi
  00001	8b f1		 mov	 esi, ecx

; 20   :     {
; 21   : 		::InitializeCriticalSection( &m_CritSec );

  00003	8d 46 04	 lea	 eax, DWORD PTR [esi+4]
  00006	50		 push	 eax
  00007	c7 06 00 00 00
	00		 mov	 DWORD PTR [esi], OFFSET FLAT:??_7CMclCritSec@@6B@
  0000d	ff 15 00 00 00
	00		 call	 DWORD PTR __imp__InitializeCriticalSection@4

; 22   : 	}

  00013	8b c6		 mov	 eax, esi
  00015	5e		 pop	 esi
  00016	c3		 ret	 0
??0CMclCritSec@@QAE@XZ ENDP				; CMclCritSec::CMclCritSec
_TEXT	ENDS
PUBLIC	??1CMclCritSec@@UAE@XZ				; CMclCritSec::~CMclCritSec
EXTRN	__imp__DeleteCriticalSection@4:NEAR
; Function compile flags: /Ogty
;	COMDAT ??1CMclCritSec@@UAE@XZ
_TEXT	SEGMENT
??1CMclCritSec@@UAE@XZ PROC NEAR			; CMclCritSec::~CMclCritSec, COMDAT
; _this$ = ecx

; 26   : 	{

  00000	c7 01 00 00 00
	00		 mov	 DWORD PTR [ecx], OFFSET FLAT:??_7CMclCritSec@@6B@

; 27   : 		::DeleteCriticalSection( &m_CritSec );

  00006	83 c1 04	 add	 ecx, 4
  00009	51		 push	 ecx
  0000a	ff 15 00 00 00
	00		 call	 DWORD PTR __imp__DeleteCriticalSection@4

; 28   : 	}

  00010	c3		 ret	 0
??1CMclCritSec@@UAE@XZ ENDP				; CMclCritSec::~CMclCritSec
; Function compile flags: /Ogty
_TEXT	ENDS
;	COMDAT ??_GCMclCritSec@@UAEPAXI@Z
_TEXT	SEGMENT
___flags$ = 8						; size = 4
??_GCMclCritSec@@UAEPAXI@Z PROC NEAR			; CMclCritSec::`scalar deleting destructor', COMDAT
; _this$ = ecx
  00000	56		 push	 esi
  00001	8b f1		 mov	 esi, ecx
  00003	8d 46 04	 lea	 eax, DWORD PTR [esi+4]
  00006	50		 push	 eax
  00007	c7 06 00 00 00
	00		 mov	 DWORD PTR [esi], OFFSET FLAT:??_7CMclCritSec@@6B@
  0000d	ff 15 00 00 00
	00		 call	 DWORD PTR __imp__DeleteCriticalSection@4
  00013	f6 44 24 08 01	 test	 BYTE PTR ___flags$[esp], 1
  00018	74 09		 je	 SHORT $L160110
  0001a	56		 push	 esi
  0001b	e8 00 00 00 00	 call	 ??3@YAXPAX@Z		; operator delete
  00020	83 c4 04	 add	 esp, 4
$L160110:
  00023	8b c6		 mov	 eax, esi
  00025	5e		 pop	 esi
  00026	c2 04 00	 ret	 4
??_GCMclCritSec@@UAEPAXI@Z ENDP				; CMclCritSec::`scalar deleting destructor'
_TEXT	ENDS
PUBLIC	?IDHash@@YAKKI@Z				; IDHash
; Function compile flags: /Ogty
; File c:\offi src_real\offi src!\_network\cmnhdr.h
;	COMDAT ?IDHash@@YAKKI@Z
_TEXT	SEGMENT
_id$ = 8						; size = 4
_HashSize$ = 12						; size = 4
?IDHash@@YAKKI@Z PROC NEAR				; IDHash, COMDAT

; 48   : 	return (((id) + (id>>8) + (id>>16) + (id>>24)) & (HashSize-1));

  00000	8b 44 24 04	 mov	 eax, DWORD PTR _id$[esp-4]
  00004	8b d0		 mov	 edx, eax
  00006	8b c8		 mov	 ecx, eax
  00008	c1 ea 10	 shr	 edx, 16			; 00000010H
  0000b	03 d0		 add	 edx, eax
  0000d	c1 e9 18	 shr	 ecx, 24			; 00000018H
  00010	c1 e8 08	 shr	 eax, 8
  00013	03 d1		 add	 edx, ecx
  00015	8b 4c 24 08	 mov	 ecx, DWORD PTR _HashSize$[esp-4]
  00019	03 c2		 add	 eax, edx
  0001b	49		 dec	 ecx
  0001c	23 c1		 and	 eax, ecx

; 49   : }

  0001e	c3		 ret	 0
?IDHash@@YAKKI@Z ENDP					; IDHash
_TEXT	ENDS
PUBLIC	?IsPrime@@YAHK@Z				; IsPrime
; Function compile flags: /Ogty
;	COMDAT ?IsPrime@@YAHK@Z
_TEXT	SEGMENT
_n$ = 8							; size = 4
?IsPrime@@YAHK@Z PROC NEAR				; IsPrime, COMDAT

; 78   : {

  00000	56		 push	 esi

; 79   : 	u_long i = 2, j = n;
; 80   : 	while( i < j ) {

  00001	8b 74 24 08	 mov	 esi, DWORD PTR _n$[esp]
  00005	b9 02 00 00 00	 mov	 ecx, 2
  0000a	3b f1		 cmp	 esi, ecx
  0000c	76 11		 jbe	 SHORT $L130212
  0000e	8b ff		 npad	 2
$L130211:

; 81   : 		if( n % i == 0 )

  00010	33 d2		 xor	 edx, edx
  00012	8b c6		 mov	 eax, esi
  00014	f7 f1		 div	 ecx
  00016	85 d2		 test	 edx, edx
  00018	74 0c		 je	 SHORT $L160118

; 83   : 		j = n / i++;

  0001a	41		 inc	 ecx
  0001b	3b c8		 cmp	 ecx, eax
  0001d	72 f1		 jb	 SHORT $L130211
$L130212:

; 84   : 	}
; 85   : 	return TRUE;

  0001f	b8 01 00 00 00	 mov	 eax, 1
  00024	5e		 pop	 esi

; 86   : }

  00025	c3		 ret	 0
$L160118:

; 82   : 			return FALSE;

  00026	33 c0		 xor	 eax, eax
  00028	5e		 pop	 esi

; 86   : }

  00029	c3		 ret	 0
?IsPrime@@YAHK@Z ENDP					; IsPrime
_TEXT	ENDS
PUBLIC	??B?$CSimpleStringT@D$0A@@ATL@@QBEPBDXZ		; ATL::CSimpleStringT<char,0>::operator char const *
; Function compile flags: /Ogty
; File c:\program files\microsoft visual studio .net 2003\vc7\atlmfc\include\atlsimpstr.h
;	COMDAT ??B?$CSimpleStringT@D$0A@@ATL@@QBEPBDXZ
_TEXT	SEGMENT
??B?$CSimpleStringT@D$0A@@ATL@@QBEPBDXZ PROC NEAR	; ATL::CSimpleStringT<char,0>::operator char const *, COMDAT
; _this$ = ecx

; 379  : 		return( m_pszData );

  00000	8b 01		 mov	 eax, DWORD PTR [ecx]

; 380  : 	}

  00002	c3		 ret	 0
??B?$CSimpleStringT@D$0A@@ATL@@QBEPBDXZ ENDP		; ATL::CSimpleStringT<char,0>::operator char const *
_TEXT	ENDS
PUBLIC	?size@?$basic_string@DU?$char_traits@D@std@@V?$allocator@D@2@@std@@QBEIXZ ; std::basic_string<char,std::char_traits<char>,std::allocator<char> >::size
; Function compile flags: /Ogty
; File c:\program files\microsoft visual studio .net 2003\vc7\include\xstring
;	COMDAT ?size@?$basic_string@DU?$char_traits@D@std@@V?$allocator@D@2@@std@@QBEIXZ
_TEXT	SEGMENT
?size@?$basic_string@DU?$char_traits@D@std@@V?$allocator@D@2@@std@@QBEIXZ PROC NEAR ; std::basic_string<char,std::char_traits<char>,std::allocator<char> >::size, COMDAT
; _this$ = ecx

; 1109 : 		return (_Mysize);

  00000	8b 41 14	 mov	 eax, DWORD PTR [ecx+20]

; 1110 : 		}

  00003	c3		 ret	 0
?size@?$basic_string@DU?$char_traits@D@std@@V?$allocator@D@2@@std@@QBEIXZ ENDP ; std::basic_string<char,std::char_traits<char>,std::allocator<char> >::size
_TEXT	ENDS
PUBLIC	?GetString@?$CSimpleStringT@D$0A@@ATL@@QBEPBDXZ	; ATL::CSimpleStringT<char,0>::GetString
; Function compile flags: /Ogty
; File c:\program files\microsoft visual studio .net 2003\vc7\atlmfc\include\atlsimpstr.h
;	COMDAT ?GetString@?$CSimpleStringT@D$0A@@ATL@@QBEPBDXZ
_TEXT	SEGMENT
?GetString@?$CSimpleStringT@D$0A@@ATL@@QBEPBDXZ PROC NEAR ; ATL::CSimpleStringT<char,0>::GetString, COMDAT
; _this$ = ecx

; 510  : 		return( m_pszData );

  00000	8b 01		 mov	 eax, DWORD PTR [ecx]

; 511  : 	}

  00002	c3		 ret	 0
?GetString@?$CSimpleStringT@D$0A@@ATL@@QBEPBDXZ ENDP	; ATL::CSimpleStringT<char,0>::GetString
_TEXT	ENDS
PUBLIC	?StringLength@?$CSimpleStringT@D$0A@@ATL@@SAHPBD@Z ; ATL::CSimpleStringT<char,0>::StringLength
; Function compile flags: /Ogty
;	COMDAT ?StringLength@?$CSimpleStringT@D$0A@@ATL@@SAHPBD@Z
_TEXT	SEGMENT
_psz$ = 8						; size = 4
?StringLength@?$CSimpleStringT@D$0A@@ATL@@SAHPBD@Z PROC NEAR ; ATL::CSimpleStringT<char,0>::StringLength, COMDAT

; 678  : 		if( psz == NULL )

  00000	8b 44 24 04	 mov	 eax, DWORD PTR _psz$[esp-4]
  00004	85 c0		 test	 eax, eax
  00006	75 01		 jne	 SHORT $L147353

; 683  : 	}

  00008	c3		 ret	 0
$L147353:

; 679  : 		{
; 680  : 			return( 0 );
; 681  : 		}
; 682  : 		return( int( strlen( psz ) ) );

  00009	8d 50 01	 lea	 edx, DWORD PTR [eax+1]
  0000c	8d 64 24 00	 npad	 4
$L160132:
  00010	8a 08		 mov	 cl, BYTE PTR [eax]
  00012	40		 inc	 eax
  00013	84 c9		 test	 cl, cl
  00015	75 f9		 jne	 SHORT $L160132
  00017	2b c2		 sub	 eax, edx

; 683  : 	}

  00019	c3		 ret	 0
?StringLength@?$CSimpleStringT@D$0A@@ATL@@SAHPBD@Z ENDP	; ATL::CSimpleStringT<char,0>::StringLength
_TEXT	ENDS
PUBLIC	?GetData@?$CSimpleStringT@D$0A@@ATL@@ABEPAUCStringData@2@XZ ; ATL::CSimpleStringT<char,0>::GetData
; Function compile flags: /Ogty
;	COMDAT ?GetData@?$CSimpleStringT@D$0A@@ATL@@ABEPAUCStringData@2@XZ
_TEXT	SEGMENT
?GetData@?$CSimpleStringT@D$0A@@ATL@@ABEPAUCStringData@2@XZ PROC NEAR ; ATL::CSimpleStringT<char,0>::GetData, COMDAT
; _this$ = ecx

; 731  : 		return( reinterpret_cast< CStringData* >( m_pszData )-1 );

  00000	8b 01		 mov	 eax, DWORD PTR [ecx]
  00002	83 e8 10	 sub	 eax, 16			; 00000010H

; 732  : 	}

  00005	c3		 ret	 0
?GetData@?$CSimpleStringT@D$0A@@ATL@@ABEPAUCStringData@2@XZ ENDP ; ATL::CSimpleStringT<char,0>::GetData
_TEXT	ENDS
PUBLIC	?SetLength@?$CSimpleStringT@D$0A@@ATL@@AAEXH@Z	; ATL::CSimpleStringT<char,0>::SetLength
; Function compile flags: /Ogty
;	COMDAT ?SetLength@?$CSimpleStringT@D$0A@@ATL@@AAEXH@Z
_TEXT	SEGMENT
_nLength$ = 8						; size = 4
?SetLength@?$CSimpleStringT@D$0A@@ATL@@AAEXH@Z PROC NEAR ; ATL::CSimpleStringT<char,0>::SetLength, COMDAT
; _this$ = ecx

; 790  : 		ATLASSERT( nLength >= 0 );
; 791  : 		ATLASSERT( nLength <= GetData()->nAllocLength );
; 792  : 
; 793  : 		if( nLength < 0 || nLength > GetData()->nAllocLength)

  00000	8b 44 24 04	 mov	 eax, DWORD PTR _nLength$[esp-4]
  00004	85 c0		 test	 eax, eax
  00006	7c 13		 jl	 SHORT $L147368
  00008	8b 11		 mov	 edx, DWORD PTR [ecx]
  0000a	3b 42 f8	 cmp	 eax, DWORD PTR [edx-8]
  0000d	7f 0c		 jg	 SHORT $L147368

; 794  : 			AtlThrow(E_INVALIDARG);
; 795  : 			
; 796  : 		GetData()->nDataLength = nLength;

  0000f	89 42 f4	 mov	 DWORD PTR [edx-12], eax

; 797  : 		m_pszData[nLength] = 0;

  00012	8b 09		 mov	 ecx, DWORD PTR [ecx]
  00014	c6 04 08 00	 mov	 BYTE PTR [eax+ecx], 0

; 798  : 	}

  00018	c2 04 00	 ret	 4
$L147368:
  0001b	68 57 00 07 80	 push	 -2147024809		; 80070057H
  00020	e8 00 00 00 00	 call	 ?AtlThrow@ATL@@YGXJ@Z	; ATL::AtlThrow
$L160146:
$L160145:
  00025	cc		 int	 3
?SetLength@?$CSimpleStringT@D$0A@@ATL@@AAEXH@Z ENDP	; ATL::CSimpleStringT<char,0>::SetLength
_TEXT	ENDS
PUBLIC	?StringFindString@?$ChTraitsCRT@D@ATL@@SAPBDPBD0@Z ; ATL::ChTraitsCRT<char>::StringFindString
EXTRN	__mbsstr:NEAR
; Function compile flags: /Ogty
; File c:\program files\microsoft visual studio .net 2003\vc7\atlmfc\include\cstringt.h
;	COMDAT ?StringFindString@?$ChTraitsCRT@D@ATL@@SAPBDPBD0@Z
_TEXT	SEGMENT
_pszBlock$ = 8						; size = 4
_pszMatch$ = 12						; size = 4
?StringFindString@?$ChTraitsCRT@D@ATL@@SAPBDPBD0@Z PROC NEAR ; ATL::ChTraitsCRT<char>::StringFindString, COMDAT

; 356  : 		return reinterpret_cast< LPCSTR >( _mbsstr( reinterpret_cast< const unsigned char* >( pszBlock ),
; 357  : 			reinterpret_cast< const unsigned char* >( pszMatch ) ) );

  00000	e9 00 00 00 00	 jmp	 __mbsstr
?StringFindString@?$ChTraitsCRT@D@ATL@@SAPBDPBD0@Z ENDP	; ATL::ChTraitsCRT<char>::StringFindString
_TEXT	ENDS
PUBLIC	?_Myptr@?$basic_string@DU?$char_traits@D@std@@V?$allocator@D@2@@std@@QBEPBDXZ ; std::basic_string<char,std::char_traits<char>,std::allocator<char> >::_Myptr
; Function compile flags: /Ogty
; File c:\program files\microsoft visual studio .net 2003\vc7\include\xstring
;	COMDAT ?_Myptr@?$basic_string@DU?$char_traits@D@std@@V?$allocator@D@2@@std@@QBEPBDXZ
_TEXT	SEGMENT
?_Myptr@?$basic_string@DU?$char_traits@D@std@@V?$allocator@D@2@@std@@QBEPBDXZ PROC NEAR ; std::basic_string<char,std::char_traits<char>,std::allocator<char> >::_Myptr, COMDAT
; _this$ = ecx

; 1537 : 		return (_BUF_SIZE <= _Myres ? _Bx._Ptr : _Bx._Buf);

  00000	83 79 18 10	 cmp	 DWORD PTR [ecx+24], 16	; 00000010H
  00004	72 04		 jb	 SHORT $L160154
  00006	8b 41 04	 mov	 eax, DWORD PTR [ecx+4]

; 1538 : 		}

  00009	c3		 ret	 0
$L160154:

; 1537 : 		return (_BUF_SIZE <= _Myres ? _Bx._Ptr : _Bx._Buf);

  0000a	8d 41 04	 lea	 eax, DWORD PTR [ecx+4]

; 1538 : 		}

  0000d	c3		 ret	 0
?_Myptr@?$basic_string@DU?$char_traits@D@std@@V?$allocator@D@2@@std@@QBEPBDXZ ENDP ; std::basic_string<char,std::char_traits<char>,std::allocator<char> >::_Myptr
_TEXT	ENDS
PUBLIC	??0?$allocator@D@std@@QAE@ABV01@@Z		; std::allocator<char>::allocator<char>
; Function compile flags: /Ogty
; File c:\program files\microsoft visual studio .net 2003\vc7\include\xmemory
;	COMDAT ??0?$allocator@D@std@@QAE@ABV01@@Z
_TEXT	SEGMENT
___formal$ = 8						; size = 4
??0?$allocator@D@std@@QAE@ABV01@@Z PROC NEAR		; std::allocator<char>::allocator<char>, COMDAT
; _this$ = ecx

; 115  : 	allocator(const allocator<_Ty>&)

  00000	8b c1		 mov	 eax, ecx

; 116  : 		{	// construct by copying (do nothing)
; 117  : 		}

  00002	c2 04 00	 ret	 4
??0?$allocator@D@std@@QAE@ABV01@@Z ENDP			; std::allocator<char>::allocator<char>
_TEXT	ENDS
PUBLIC	?Attach@?$CSimpleStringT@D$0A@@ATL@@AAEXPAUCStringData@2@@Z ; ATL::CSimpleStringT<char,0>::Attach
; Function compile flags: /Ogty
; File c:\program files\microsoft visual studio .net 2003\vc7\atlmfc\include\atlsimpstr.h
;	COMDAT ?Attach@?$CSimpleStringT@D$0A@@ATL@@AAEXPAUCStringData@2@@Z
_TEXT	SEGMENT
_pData$ = 8						; size = 4
?Attach@?$CSimpleStringT@D$0A@@ATL@@AAEXPAUCStringData@2@@Z PROC NEAR ; ATL::CSimpleStringT<char,0>::Attach, COMDAT
; _this$ = ecx

; 712  : 		m_pszData = static_cast< PXSTR >( pData->data() );

  00000	8b 44 24 04	 mov	 eax, DWORD PTR _pData$[esp-4]
  00004	83 c0 10	 add	 eax, 16			; 00000010H
  00007	89 01		 mov	 DWORD PTR [ecx], eax

; 713  : 	}

  00009	c2 04 00	 ret	 4
?Attach@?$CSimpleStringT@D$0A@@ATL@@AAEXPAUCStringData@2@@Z ENDP ; ATL::CSimpleStringT<char,0>::Attach
_TEXT	ENDS
PUBLIC	?_Myptr@?$basic_string@DU?$char_traits@D@std@@V?$allocator@D@2@@std@@QAEPADXZ ; std::basic_string<char,std::char_traits<char>,std::allocator<char> >::_Myptr
; Function compile flags: /Ogty
; File c:\program files\microsoft visual studio .net 2003\vc7\include\xstring
;	COMDAT ?_Myptr@?$basic_string@DU?$char_traits@D@std@@V?$allocator@D@2@@std@@QAEPADXZ
_TEXT	SEGMENT
?_Myptr@?$basic_string@DU?$char_traits@D@std@@V?$allocator@D@2@@std@@QAEPADXZ PROC NEAR ; std::basic_string<char,std::char_traits<char>,std::allocator<char> >::_Myptr, COMDAT
; _this$ = ecx

; 1532 : 		return (_BUF_SIZE <= _Myres ? _Bx._Ptr : _Bx._Buf);

  00000	83 79 18 10	 cmp	 DWORD PTR [ecx+24], 16	; 00000010H
  00004	72 04		 jb	 SHORT $L160168
  00006	8b 41 04	 mov	 eax, DWORD PTR [ecx+4]

; 1533 : 		}

  00009	c3		 ret	 0
$L160168:

; 1532 : 		return (_BUF_SIZE <= _Myres ? _Bx._Ptr : _Bx._Buf);

  0000a	8d 41 04	 lea	 eax, DWORD PTR [ecx+4]

; 1533 : 		}

  0000d	c3		 ret	 0
?_Myptr@?$basic_string@DU?$char_traits@D@std@@V?$allocator@D@2@@std@@QAEPADXZ ENDP ; std::basic_string<char,std::char_traits<char>,std::allocator<char> >::_Myptr
_TEXT	ENDS
PUBLIC	?deallocate@?$allocator@D@std@@QAEXPADI@Z	; std::allocator<char>::deallocate
; Function compile flags: /Ogty
; File c:\program files\microsoft visual studio .net 2003\vc7\include\xmemory
;	COMDAT ?deallocate@?$allocator@D@std@@QAEXPADI@Z
_TEXT	SEGMENT
__Ptr$ = 8						; size = 4
___formal$ = 12						; size = 4
?deallocate@?$allocator@D@std@@QAEXPADI@Z PROC NEAR	; std::allocator<char>::deallocate, COMDAT
; _this$ = ecx

; 132  : 		operator delete(_Ptr);

  00000	8b 44 24 04	 mov	 eax, DWORD PTR __Ptr$[esp-4]
  00004	50		 push	 eax
  00005	e8 00 00 00 00	 call	 ??3@YAXPAX@Z		; operator delete
  0000a	59		 pop	 ecx

; 133  : 		}

  0000b	c2 08 00	 ret	 8
?deallocate@?$allocator@D@std@@QAEXPADI@Z ENDP		; std::allocator<char>::deallocate
_TEXT	ENDS
PUBLIC	?CopyChars@?$CSimpleStringT@D$0A@@ATL@@SAXPADPBDH@Z ; ATL::CSimpleStringT<char,0>::CopyChars
; Function compile flags: /Ogty
; File c:\program files\microsoft visual studio .net 2003\vc7\atlmfc\include\atlsimpstr.h
;	COMDAT ?CopyChars@?$CSimpleStringT@D$0A@@ATL@@SAXPADPBDH@Z
_TEXT	SEGMENT
_pchDest$ = 8						; size = 4
_pchSrc$ = 12						; size = 4
_nChars$ = 16						; size = 4
?CopyChars@?$CSimpleStringT@D$0A@@ATL@@SAXPADPBDH@Z PROC NEAR ; ATL::CSimpleStringT<char,0>::CopyChars, COMDAT

; 653  : 		memcpy( pchDest, pchSrc, nChars*sizeof( XCHAR ) );

  00000	8b 4c 24 0c	 mov	 ecx, DWORD PTR _nChars$[esp-4]
  00004	56		 push	 esi
  00005	8b 74 24 0c	 mov	 esi, DWORD PTR _pchSrc$[esp]
  00009	8b c1		 mov	 eax, ecx
  0000b	57		 push	 edi
  0000c	8b 7c 24 0c	 mov	 edi, DWORD PTR _pchDest$[esp+4]
  00010	c1 e9 02	 shr	 ecx, 2
  00013	f3 a5		 rep movsd
  00015	8b c8		 mov	 ecx, eax
  00017	83 e1 03	 and	 ecx, 3
  0001a	f3 a4		 rep movsb
  0001c	5f		 pop	 edi
  0001d	5e		 pop	 esi

; 654  : 	}

  0001e	c3		 ret	 0
?CopyChars@?$CSimpleStringT@D$0A@@ATL@@SAXPADPBDH@Z ENDP ; ATL::CSimpleStringT<char,0>::CopyChars
_TEXT	ENDS
PUBLIC	?ThrowMemoryException@?$CSimpleStringT@D$0A@@ATL@@KAXXZ ; ATL::CSimpleStringT<char,0>::ThrowMemoryException
; Function compile flags: /Ogty
;	COMDAT ?ThrowMemoryException@?$CSimpleStringT@D$0A@@ATL@@KAXXZ
_TEXT	SEGMENT
?ThrowMemoryException@?$CSimpleStringT@D$0A@@ATL@@KAXXZ PROC NEAR ; ATL::CSimpleStringT<char,0>::ThrowMemoryException, COMDAT

; 705  : 		AtlThrow( E_OUTOFMEMORY );

  00000	68 0e 00 07 80	 push	 -2147024882		; 8007000eH
  00005	e8 00 00 00 00	 call	 ?AtlThrow@ATL@@YGXJ@Z	; ATL::AtlThrow
$L160180:
$L160179:
  0000a	cc		 int	 3
?ThrowMemoryException@?$CSimpleStringT@D$0A@@ATL@@KAXXZ ENDP ; ATL::CSimpleStringT<char,0>::ThrowMemoryException
_TEXT	ENDS
PUBLIC	?Fork@?$CSimpleStringT@D$0A@@ATL@@AAEXH@Z	; ATL::CSimpleStringT<char,0>::Fork
; Function compile flags: /Ogty
;	COMDAT ?Fork@?$CSimpleStringT@D$0A@@ATL@@AAEXH@Z
_TEXT	SEGMENT
_this$ = -4						; size = 4
tv181 = 8						; size = 4
_nLength$ = 8						; size = 4
?Fork@?$CSimpleStringT@D$0A@@ATL@@AAEXH@Z PROC NEAR	; ATL::CSimpleStringT<char,0>::Fork, COMDAT
; _this$ = ecx

; 715  : 	{

  00000	51		 push	 ecx
  00001	53		 push	 ebx

; 716  : 		CStringData* pOldData = GetData();

  00002	8b 19		 mov	 ebx, DWORD PTR [ecx]
  00004	83 eb 10	 sub	 ebx, 16			; 00000010H
  00007	55		 push	 ebp

; 717  : 		int nOldLength = pOldData->nDataLength;

  00008	8b 6b 04	 mov	 ebp, DWORD PTR [ebx+4]
  0000b	89 4c 24 08	 mov	 DWORD PTR _this$[esp+12], ecx

; 718  : 		CStringData* pNewData = pOldData->pStringMgr->Clone()->Allocate( nLength, sizeof( XCHAR ) );

  0000f	8b 0b		 mov	 ecx, DWORD PTR [ebx]
  00011	8b 01		 mov	 eax, DWORD PTR [ecx]
  00013	56		 push	 esi
  00014	ff 50 10	 call	 DWORD PTR [eax+16]
  00017	8b 74 24 14	 mov	 esi, DWORD PTR _nLength$[esp+12]
  0001b	8b 10		 mov	 edx, DWORD PTR [eax]
  0001d	6a 01		 push	 1
  0001f	56		 push	 esi
  00020	8b c8		 mov	 ecx, eax
  00022	ff 12		 call	 DWORD PTR [edx]

; 719  : 		if( pNewData == NULL )

  00024	85 c0		 test	 eax, eax
  00026	75 05		 jne	 SHORT $L147773

; 720  : 		{
; 721  : 			ThrowMemoryException();

  00028	e8 00 00 00 00	 call	 ?ThrowMemoryException@?$CSimpleStringT@D$0A@@ATL@@KAXXZ ; ATL::CSimpleStringT<char,0>::ThrowMemoryException
$L160211:
$L147773:

; 722  : 		}
; 723  : 		int nCharsToCopy = ((nOldLength < nLength) ? nOldLength : nLength)+1;  // Copy '\0'

  0002d	3b ee		 cmp	 ebp, esi
  0002f	7d 02		 jge	 SHORT $L160185
  00031	8b f5		 mov	 esi, ebp
$L160185:
  00033	8d 4e 01	 lea	 ecx, DWORD PTR [esi+1]

; 724  : 		CopyChars( PXSTR( pNewData->data() ), PCXSTR( pOldData->data() ), nCharsToCopy );

  00036	8b d1		 mov	 edx, ecx
  00038	57		 push	 edi
  00039	c1 e9 02	 shr	 ecx, 2
  0003c	8d 78 10	 lea	 edi, DWORD PTR [eax+16]
  0003f	89 7c 24 18	 mov	 DWORD PTR tv181[esp+16], edi
  00043	8d 73 10	 lea	 esi, DWORD PTR [ebx+16]
  00046	f3 a5		 rep movsd
  00048	8b ca		 mov	 ecx, edx
  0004a	83 e1 03	 and	 ecx, 3
  0004d	f3 a4		 rep movsb

; 725  : 		pNewData->nDataLength = nOldLength;

  0004f	89 68 04	 mov	 DWORD PTR [eax+4], ebp

; 726  : 		pOldData->Release();

  00052	8d 43 0c	 lea	 eax, DWORD PTR [ebx+12]
  00055	83 c9 ff	 or	 ecx, -1
  00058	f0 0f c1 08	 lock	  xadd	 DWORD PTR [eax], ecx
  0005c	49		 dec	 ecx
  0005d	85 c9		 test	 ecx, ecx
  0005f	5f		 pop	 edi
  00060	7f 08		 jg	 SHORT $L160200
  00062	8b 0b		 mov	 ecx, DWORD PTR [ebx]
  00064	8b 11		 mov	 edx, DWORD PTR [ecx]
  00066	53		 push	 ebx
  00067	ff 52 04	 call	 DWORD PTR [edx+4]
$L160200:

; 727  : 		Attach( pNewData );

  0006a	8b 44 24 14	 mov	 eax, DWORD PTR tv181[esp+12]
  0006e	8b 4c 24 0c	 mov	 ecx, DWORD PTR _this$[esp+16]
  00072	5e		 pop	 esi
  00073	5d		 pop	 ebp
  00074	89 01		 mov	 DWORD PTR [ecx], eax
  00076	5b		 pop	 ebx

; 728  : 	}

  00077	59		 pop	 ecx
  00078	c2 04 00	 ret	 4
$L160210:
?Fork@?$CSimpleStringT@D$0A@@ATL@@AAEXH@Z ENDP		; ATL::CSimpleStringT<char,0>::Fork
_TEXT	ENDS
PUBLIC	?Reallocate@?$CSimpleStringT@D$0A@@ATL@@AAEXH@Z	; ATL::CSimpleStringT<char,0>::Reallocate
; Function compile flags: /Ogty
;	COMDAT ?Reallocate@?$CSimpleStringT@D$0A@@ATL@@AAEXH@Z
_TEXT	SEGMENT
_nLength$ = 8						; size = 4
?Reallocate@?$CSimpleStringT@D$0A@@ATL@@AAEXH@Z PROC NEAR ; ATL::CSimpleStringT<char,0>::Reallocate, COMDAT
; _this$ = ecx

; 776  : 	{

  00000	56		 push	 esi
  00001	57		 push	 edi

; 777  : 		CStringData* pOldData = GetData();
; 778  : 		ATLASSERT( pOldData->nAllocLength < nLength );
; 779  : 		IAtlStringMgr* pStringMgr = pOldData->pStringMgr;
; 780  : 		CStringData* pNewData = pStringMgr->Reallocate( pOldData, nLength, sizeof( XCHAR ) );

  00002	8b 7c 24 0c	 mov	 edi, DWORD PTR _nLength$[esp+4]
  00006	8b f1		 mov	 esi, ecx
  00008	8b 06		 mov	 eax, DWORD PTR [esi]
  0000a	8b 48 f0	 mov	 ecx, DWORD PTR [eax-16]
  0000d	8b 11		 mov	 edx, DWORD PTR [ecx]
  0000f	83 e8 10	 sub	 eax, 16			; 00000010H
  00012	6a 01		 push	 1
  00014	57		 push	 edi
  00015	50		 push	 eax
  00016	ff 52 08	 call	 DWORD PTR [edx+8]

; 781  : 		if( pNewData == NULL )

  00019	85 c0		 test	 eax, eax
  0001b	75 05		 jne	 SHORT $L147782

; 782  : 		{
; 783  : 			ThrowMemoryException();

  0001d	e8 00 00 00 00	 call	 ?ThrowMemoryException@?$CSimpleStringT@D$0A@@ATL@@KAXXZ ; ATL::CSimpleStringT<char,0>::ThrowMemoryException
$L160227:
$L147782:

; 784  : 		}
; 785  : 		Attach( pNewData );

  00022	83 c0 10	 add	 eax, 16			; 00000010H
  00025	5f		 pop	 edi
  00026	89 06		 mov	 DWORD PTR [esi], eax
  00028	5e		 pop	 esi

; 786  : 	}

  00029	c2 04 00	 ret	 4
$L160226:
?Reallocate@?$CSimpleStringT@D$0A@@ATL@@AAEXH@Z ENDP	; ATL::CSimpleStringT<char,0>::Reallocate
_TEXT	ENDS
PUBLIC	?_Inside@?$basic_string@DU?$char_traits@D@std@@V?$allocator@D@2@@std@@IAE_NPBD@Z ; std::basic_string<char,std::char_traits<char>,std::allocator<char> >::_Inside
; Function compile flags: /Ogty
; File c:\program files\microsoft visual studio .net 2003\vc7\include\xstring
;	COMDAT ?_Inside@?$basic_string@DU?$char_traits@D@std@@V?$allocator@D@2@@std@@IAE_NPBD@Z
_TEXT	SEGMENT
__Ptr$ = 8						; size = 4
?_Inside@?$basic_string@DU?$char_traits@D@std@@V?$allocator@D@2@@std@@IAE_NPBD@Z PROC NEAR ; std::basic_string<char,std::char_traits<char>,std::allocator<char> >::_Inside, COMDAT
; _this$ = ecx

; 1494 : 		{	// test if _Ptr points inside string

  00000	56		 push	 esi

; 1495 : 		if (_Ptr < _Myptr() || _Myptr() + _Mysize <= _Ptr)

  00001	8b 71 18	 mov	 esi, DWORD PTR [ecx+24]
  00004	83 fe 10	 cmp	 esi, 16			; 00000010H
  00007	57		 push	 edi
  00008	8d 41 04	 lea	 eax, DWORD PTR [ecx+4]
  0000b	72 04		 jb	 SHORT $L160236
  0000d	8b 10		 mov	 edx, DWORD PTR [eax]
  0000f	eb 02		 jmp	 SHORT $L160237
$L160236:
  00011	8b d0		 mov	 edx, eax
$L160237:
  00013	8b 7c 24 0c	 mov	 edi, DWORD PTR __Ptr$[esp+4]
  00017	3b fa		 cmp	 edi, edx
  00019	72 17		 jb	 SHORT $L147799
  0001b	83 fe 10	 cmp	 esi, 16			; 00000010H
  0001e	72 02		 jb	 SHORT $L160244
  00020	8b 00		 mov	 eax, DWORD PTR [eax]
$L160244:
  00022	8b 49 14	 mov	 ecx, DWORD PTR [ecx+20]
  00025	03 c8		 add	 ecx, eax
  00027	3b cf		 cmp	 ecx, edi
  00029	76 07		 jbe	 SHORT $L147799
  0002b	5f		 pop	 edi

; 1497 : 		else
; 1498 : 			return (true);

  0002c	b0 01		 mov	 al, 1
  0002e	5e		 pop	 esi

; 1499 : 		}

  0002f	c2 04 00	 ret	 4
$L147799:
  00032	5f		 pop	 edi

; 1496 : 			return (false);	// don't ask

  00033	32 c0		 xor	 al, al
  00035	5e		 pop	 esi

; 1499 : 		}

  00036	c2 04 00	 ret	 4
?_Inside@?$basic_string@DU?$char_traits@D@std@@V?$allocator@D@2@@std@@IAE_NPBD@Z ENDP ; std::basic_string<char,std::char_traits<char>,std::allocator<char> >::_Inside
_TEXT	ENDS
PUBLIC	?max_size@?$allocator@D@std@@QBEIXZ		; std::allocator<char>::max_size
; Function compile flags: /Ogty
; File c:\program files\microsoft visual studio .net 2003\vc7\include\xmemory
;	COMDAT ?max_size@?$allocator@D@std@@QBEIXZ
_TEXT	SEGMENT
?max_size@?$allocator@D@std@@QBEIXZ PROC NEAR		; std::allocator<char>::max_size, COMDAT
; _this$ = ecx

; 157  : 		_SIZT _Count = (_SIZT)(-1) / sizeof (_Ty);
; 158  : 		return (0 < _Count ? _Count : 1);

  00000	83 c8 ff	 or	 eax, -1

; 159  : 		}

  00003	c3		 ret	 0
?max_size@?$allocator@D@std@@QBEIXZ ENDP		; std::allocator<char>::max_size
_TEXT	ENDS
PUBLIC	??$_Allocate@D@std@@YAPADIPAD@Z			; std::_Allocate<char>
; Function compile flags: /Ogty
;	COMDAT ??$_Allocate@D@std@@YAPADIPAD@Z
_TEXT	SEGMENT
__Count$ = 8						; size = 4
___formal$ = 12						; size = 4
??$_Allocate@D@std@@YAPADIPAD@Z PROC NEAR		; std::_Allocate<char>, COMDAT

; 34   : 	return ((_Ty _FARQ *)operator new(_Count * sizeof (_Ty)));

  00000	8b 44 24 04	 mov	 eax, DWORD PTR __Count$[esp-4]
  00004	50		 push	 eax
  00005	e8 00 00 00 00	 call	 ??2@YAPAXI@Z		; operator new
  0000a	83 c4 04	 add	 esp, 4

; 35   : 	}

  0000d	c3		 ret	 0
??$_Allocate@D@std@@YAPADIPAD@Z ENDP			; std::_Allocate<char>
_TEXT	ENDS
PUBLIC	??5CAr@@QAEAAV0@AAH@Z				; CAr::operator>>
; Function compile flags: /Ogty
; File c:\offi src_real\offi src!\_network\misc\include\ar.h
;	COMDAT ??5CAr@@QAEAAV0@AAH@Z
_TEXT	SEGMENT
_i$ = 8							; size = 4
??5CAr@@QAEAAV0@AAH@Z PROC NEAR				; CAr::operator>>, COMDAT
; _this$ = ecx

; 126  : 	{ return CAr::operator>>((LONG&)i); }

  00000	8b c1		 mov	 eax, ecx
  00002	8b 48 08	 mov	 ecx, DWORD PTR [eax+8]
  00005	56		 push	 esi
  00006	8b 70 0c	 mov	 esi, DWORD PTR [eax+12]
  00009	8d 51 04	 lea	 edx, DWORD PTR [ecx+4]
  0000c	3b d6		 cmp	 edx, esi
  0000e	5e		 pop	 esi
  0000f	77 0f		 ja	 SHORT $L160258
  00011	8b 09		 mov	 ecx, DWORD PTR [ecx]
  00013	8b 54 24 04	 mov	 edx, DWORD PTR _i$[esp-4]
  00017	89 0a		 mov	 DWORD PTR [edx], ecx
  00019	83 40 08 04	 add	 DWORD PTR [eax+8], 4
  0001d	c2 04 00	 ret	 4
$L160258:
  00020	8b 4c 24 04	 mov	 ecx, DWORD PTR _i$[esp-4]
  00024	c7 01 00 00 00
	00		 mov	 DWORD PTR [ecx], 0
  0002a	8b 50 0c	 mov	 edx, DWORD PTR [eax+12]
  0002d	89 50 08	 mov	 DWORD PTR [eax+8], edx
  00030	c2 04 00	 ret	 4
??5CAr@@QAEAAV0@AAH@Z ENDP				; CAr::operator>>
_TEXT	ENDS
PUBLIC	?OnRemoveConnection@CDPMonitor@@AAEXK@Z		; CDPMonitor::OnRemoveConnection
PUBLIC	??_C@_08LJOMLNG@type?4wav?$AA@			; `string'
EXTRN	?SetFocus@CWnd@@QAEPAV1@XZ:NEAR			; CWnd::SetFocus
EXTRN	__imp__sndPlaySoundA@8:NEAR
EXTRN	?WriteLogofServerDown@CDbManager@@QAEHKAAVCTime@ATL@@@Z:NEAR ; CDbManager::WriteLogofServerDown
EXTRN	?g_DbManager@@3VCDbManager@@A:BYTE		; g_DbManager
EXTRN	?SendOverview@CDPConsoleSrvr@@QAEXK@Z:NEAR	; CDPConsoleSrvr::SendOverview
EXTRN	?GetItemData@CTreeCtrl@@QBEKPAU_TREEITEM@@@Z:NEAR ; CTreeCtrl::GetItemData
EXTRN	?FindItem@CMyTreeCtrl@@QAEPAU_TREEITEM@@PAU2@K_N@Z:NEAR ; CMyTreeCtrl::FindItem
EXTRN	?SetCheck@CTreeCtrl@@QAEHPAU_TREEITEM@@H@Z:NEAR	; CTreeCtrl::SetCheck
;	COMDAT ??_C@_08LJOMLNG@type?4wav?$AA@
; File c:\program files\microsoft visual studio .net 2003\vc7\atlmfc\include\afxcmn.inl
CONST	SEGMENT
??_C@_08LJOMLNG@type?4wav?$AA@ DB 'type.wav', 00H	; `string'
; Function compile flags: /Ogty
; File c:\offi src_real\offi src!\monitor\dpmonitor.cpp
CONST	ENDS
;	COMDAT ?OnRemoveConnection@CDPMonitor@@AAEXK@Z
_TEXT	SEGMENT
_dpid$ = 8						; size = 4
?OnRemoveConnection@CDPMonitor@@AAEXK@Z PROC NEAR	; CDPMonitor::OnRemoveConnection, COMDAT
; _this$ = ecx

; 84   : {

  00000	53		 push	 ebx

; 85   : 	HTREEITEM hItem
; 86   : 							= m_pMonitorDlg->m_tree.FindItem( m_pMonitorDlg->m_tree.GetRootItem(), dpid, false );

  00001	8b 1d 00 00 00
	00		 mov	 ebx, DWORD PTR __imp__SendMessageA@16
  00007	56		 push	 esi
  00008	57		 push	 edi
  00009	6a 00		 push	 0
  0000b	8b f1		 mov	 esi, ecx
  0000d	8b 4c 24 14	 mov	 ecx, DWORD PTR _dpid$[esp+12]
  00011	8b 46 10	 mov	 eax, DWORD PTR [esi+16]
  00014	8b 90 94 00 00
	00		 mov	 edx, DWORD PTR [eax+148]
  0001a	51		 push	 ecx
  0001b	6a 00		 push	 0
  0001d	6a 00		 push	 0
  0001f	83 c0 78	 add	 eax, 120		; 00000078H
  00022	68 0a 11 00 00	 push	 4362			; 0000110aH
  00027	52		 push	 edx
  00028	ff d3		 call	 ebx
  0002a	8b 4e 10	 mov	 ecx, DWORD PTR [esi+16]
  0002d	50		 push	 eax
  0002e	83 c1 78	 add	 ecx, 120		; 00000078H
  00031	e8 00 00 00 00	 call	 ?FindItem@CMyTreeCtrl@@QAEPAU_TREEITEM@@PAU2@K_N@Z ; CMyTreeCtrl::FindItem
  00036	8b f8		 mov	 edi, eax

; 87   : 	if( hItem != NULL ) {

  00038	85 ff		 test	 edi, edi
  0003a	74 64		 je	 SHORT $L157298

; 88   : 		PSrvrData pData
; 89   : 			= (PSrvrData)m_pMonitorDlg->m_tree.GetItemData( hItem );

  0003c	8b 4e 10	 mov	 ecx, DWORD PTR [esi+16]
  0003f	57		 push	 edi
  00040	83 c1 78	 add	 ecx, 120		; 00000078H
  00043	e8 00 00 00 00	 call	 ?GetItemData@CTreeCtrl@@QBEKPAU_TREEITEM@@@Z ; CTreeCtrl::GetItemData

; 90   : 
; 91   : 		g_DbManager.WriteLogofServerDown( pData->dwId, pData->tm );

  00048	8b 10		 mov	 edx, DWORD PTR [eax]
  0004a	8d 48 0c	 lea	 ecx, DWORD PTR [eax+12]
  0004d	51		 push	 ecx
  0004e	52		 push	 edx
  0004f	b9 00 00 00 00	 mov	 ecx, OFFSET FLAT:?g_DbManager@@3VCDbManager@@A ; g_DbManager
  00054	e8 00 00 00 00	 call	 ?WriteLogofServerDown@CDbManager@@QAEHKAAVCTime@ATL@@@Z ; CDbManager::WriteLogofServerDown

; 92   : 	
; 93   : //		pData->dpid		= 0;
; 94   : 		m_pMonitorDlg->m_tree.SelectItem( hItem );

  00059	8b 46 10	 mov	 eax, DWORD PTR [esi+16]
  0005c	8b 88 94 00 00
	00		 mov	 ecx, DWORD PTR [eax+148]
  00062	57		 push	 edi
  00063	6a 09		 push	 9
  00065	68 0b 11 00 00	 push	 4363			; 0000110bH
  0006a	51		 push	 ecx
  0006b	ff d3		 call	 ebx

; 95   : 		m_pMonitorDlg->m_tree.SetCheck( hItem, TRUE );

  0006d	8b 4e 10	 mov	 ecx, DWORD PTR [esi+16]
  00070	6a 01		 push	 1
  00072	57		 push	 edi
  00073	83 c1 78	 add	 ecx, 120		; 00000078H
  00076	e8 00 00 00 00	 call	 ?SetCheck@CTreeCtrl@@QAEHPAU_TREEITEM@@H@Z ; CTreeCtrl::SetCheck

; 96   : 		m_pMonitorDlg->m_tree.SetFocus();

  0007b	8b 4e 10	 mov	 ecx, DWORD PTR [esi+16]
  0007e	83 c1 78	 add	 ecx, 120		; 00000078H
  00081	e8 00 00 00 00	 call	 ?SetFocus@CWnd@@QAEPAV1@XZ ; CWnd::SetFocus

; 97   : 
; 98   : 		sndPlaySound( "type.wav", SND_ASYNC | SND_LOOP );

  00086	6a 09		 push	 9
  00088	68 00 00 00 00	 push	 OFFSET FLAT:??_C@_08LJOMLNG@type?4wav?$AA@
  0008d	ff 15 00 00 00
	00		 call	 DWORD PTR __imp__sndPlaySoundA@8

; 99   : 
; 100  : 		m_pMonitorDlg->m_pDPConsoleSrvr->SendOverview( DPID_ALLPLAYERS );

  00093	8b 56 10	 mov	 edx, DWORD PTR [esi+16]
  00096	8b 4a 70	 mov	 ecx, DWORD PTR [edx+112]
  00099	6a 00		 push	 0
  0009b	e8 00 00 00 00	 call	 ?SendOverview@CDPConsoleSrvr@@QAEXK@Z ; CDPConsoleSrvr::SendOverview
$L157298:
  000a0	5f		 pop	 edi
  000a1	5e		 pop	 esi
  000a2	5b		 pop	 ebx

; 101  : 	}
; 102  : }

  000a3	c2 04 00	 ret	 4
?OnRemoveConnection@CDPMonitor@@AAEXK@Z ENDP		; CDPMonitor::OnRemoveConnection
_TEXT	ENDS
PUBLIC	?OnPing@CDPMonitor@@AAEXAAVCAr@@K@Z		; CDPMonitor::OnPing
EXTRN	__imp__timeGetTime@0:NEAR
; Function compile flags: /Ogty
;	COMDAT ?OnPing@CDPMonitor@@AAEXAAVCAr@@K@Z
_TEXT	SEGMENT
_ar$ = 8						; size = 4
_dpid$ = 12						; size = 4
?OnPing@CDPMonitor@@AAEXAAVCAr@@K@Z PROC NEAR		; CDPMonitor::OnPing, COMDAT
; _this$ = ecx

; 105  : {

  00000	56		 push	 esi

; 106  : 	HTREEITEM hItem
; 107  : 							= m_pMonitorDlg->m_tree.FindItem( m_pMonitorDlg->m_tree.GetRootItem(), dpid, false );

  00001	6a 00		 push	 0
  00003	8b f1		 mov	 esi, ecx
  00005	8b 4c 24 10	 mov	 ecx, DWORD PTR _dpid$[esp+4]
  00009	8b 46 10	 mov	 eax, DWORD PTR [esi+16]
  0000c	8b 90 94 00 00
	00		 mov	 edx, DWORD PTR [eax+148]
  00012	51		 push	 ecx
  00013	6a 00		 push	 0
  00015	6a 00		 push	 0
  00017	83 c0 78	 add	 eax, 120		; 00000078H
  0001a	68 0a 11 00 00	 push	 4362			; 0000110aH
  0001f	52		 push	 edx
  00020	ff 15 00 00 00
	00		 call	 DWORD PTR __imp__SendMessageA@16
  00026	8b 4e 10	 mov	 ecx, DWORD PTR [esi+16]
  00029	50		 push	 eax
  0002a	83 c1 78	 add	 ecx, 120		; 00000078H
  0002d	e8 00 00 00 00	 call	 ?FindItem@CMyTreeCtrl@@QAEPAU_TREEITEM@@PAU2@K_N@Z ; CMyTreeCtrl::FindItem

; 108  : 	if( hItem != NULL ) {

  00032	85 c0		 test	 eax, eax
  00034	74 17		 je	 SHORT $L157308

; 109  : 		PSrvrData pData
; 110  : 			= (PSrvrData)m_pMonitorDlg->m_tree.GetItemData( hItem );

  00036	8b 4e 10	 mov	 ecx, DWORD PTR [esi+16]
  00039	50		 push	 eax
  0003a	83 c1 78	 add	 ecx, 120		; 00000078H
  0003d	e8 00 00 00 00	 call	 ?GetItemData@CTreeCtrl@@QBEKPAU_TREEITEM@@@Z ; CTreeCtrl::GetItemData
  00042	8b f0		 mov	 esi, eax

; 111  : 		pData->dwPing	= timeGetTime();

  00044	ff 15 00 00 00
	00		 call	 DWORD PTR __imp__timeGetTime@0
  0004a	89 46 08	 mov	 DWORD PTR [esi+8], eax
$L157308:
  0004d	5e		 pop	 esi

; 112  : 	}
; 113  : }

  0004e	c2 08 00	 ret	 8
?OnPing@CDPMonitor@@AAEXAAVCAr@@K@Z ENDP		; CDPMonitor::OnPing
_TEXT	ENDS
PUBLIC	?Lookup@?$CMyMap@P8CDPMonitor@@AEXAAVCAr@@K@Z@@QAEHKAAP8CDPMonitor@@AEXAAVCAr@@K@Z@Z ; CMyMap<void (__thiscall CDPMonitor::*)(CAr &,unsigned long)>::Lookup
; Function compile flags: /Ogty
; File c:\offi src_real\offi src!\_network\misc\include\mymap.h
;	COMDAT ?Lookup@?$CMyMap@P8CDPMonitor@@AEXAAVCAr@@K@Z@@QAEHKAAP8CDPMonitor@@AEXAAVCAr@@K@Z@Z
_TEXT	SEGMENT
_dwKey$ = 8						; size = 4
_value$ = 12						; size = 4
?Lookup@?$CMyMap@P8CDPMonitor@@AEXAAVCAr@@K@Z@@QAEHKAAP8CDPMonitor@@AEXAAVCAr@@K@Z@Z PROC NEAR ; CMyMap<void (__thiscall CDPMonitor::*)(CAr &,unsigned long)>::Lookup, COMDAT
; _this$ = ecx

; 325  : 	ASSERT( m_nHashSize > 0 );
; 326  : 
; 327  : 	if( dwKey == INVALID_KEY )

  00000	8b 54 24 04	 mov	 edx, DWORD PTR _dwKey$[esp-4]
  00004	83 fa ff	 cmp	 edx, -1

; 328  : 		return FALSE;

  00007	74 38		 je	 SHORT $L157880
  00009	56		 push	 esi
  0000a	57		 push	 edi

; 329  : 	
; 330  : 	INIT_LOOP(1000);
; 331  : 	CMyBucket<T>* pBucket	= &m_pBuckets[IDHash( dwKey, m_nHashSize )];

  0000b	8b fa		 mov	 edi, edx
  0000d	c1 ef 10	 shr	 edi, 16			; 00000010H
  00010	03 fa		 add	 edi, edx
  00012	8b f2		 mov	 esi, edx
  00014	c1 ee 18	 shr	 esi, 24			; 00000018H
  00017	03 fe		 add	 edi, esi
  00019	8b 71 38	 mov	 esi, DWORD PTR [ecx+56]
  0001c	8b 49 04	 mov	 ecx, DWORD PTR [ecx+4]
  0001f	8b c2		 mov	 eax, edx
  00021	c1 e8 08	 shr	 eax, 8
  00024	03 c7		 add	 eax, edi
  00026	4e		 dec	 esi
  00027	23 c6		 and	 eax, esi
  00029	8d 04 40	 lea	 eax, DWORD PTR [eax+eax*2]
  0002c	8d 04 c1	 lea	 eax, DWORD PTR [ecx+eax*8]

; 332  : 	while( pBucket )

  0002f	85 c0		 test	 eax, eax
  00031	5f		 pop	 edi
  00032	5e		 pop	 esi
  00033	74 0c		 je	 SHORT $L157880
$L157879:

; 333  : 	{
; 334  : 		VERIFY_LOOP( __FILE__, __LINE__ );
; 335  : 		if( pBucket->IsEqual( dwKey ) )

  00035	3b 50 04	 cmp	 edx, DWORD PTR [eax+4]
  00038	74 0c		 je	 SHORT $L160289

; 339  : 		}
; 340  : 		pBucket		= pBucket->m_pNext;

  0003a	8b 40 0c	 mov	 eax, DWORD PTR [eax+12]
  0003d	85 c0		 test	 eax, eax
  0003f	75 f4		 jne	 SHORT $L157879
$L157880:

; 341  : 	}
; 342  : 	return FALSE;

  00041	33 c0		 xor	 eax, eax

; 343  : }

  00043	c2 08 00	 ret	 8
$L160289:

; 336  : 		{
; 337  : 			value	= pBucket->m_value;

  00046	8b 50 08	 mov	 edx, DWORD PTR [eax+8]
  00049	8b 44 24 08	 mov	 eax, DWORD PTR _value$[esp-4]
  0004d	89 10		 mov	 DWORD PTR [eax], edx

; 338  : 			return TRUE;

  0004f	b8 01 00 00 00	 mov	 eax, 1

; 343  : }

  00054	c2 08 00	 ret	 8
?Lookup@?$CMyMap@P8CDPMonitor@@AEXAAVCAr@@K@Z@@QAEHKAAP8CDPMonitor@@AEXAAVCAr@@K@Z@Z ENDP ; CMyMap<void (__thiscall CDPMonitor::*)(CAr &,unsigned long)>::Lookup
_TEXT	ENDS
EXTRN	??_M@YGXPAXIHP6EX0@Z@Z:NEAR			; `eh vector destructor iterator'
EXTRN	??_V@YAXPAX@Z:NEAR				; operator delete[]
; Function compile flags: /Ogty
;	COMDAT ??_E?$CMyBucket@P8CDPMonitor@@AEXAAVCAr@@K@Z@@UAEPAXI@Z
_TEXT	SEGMENT
___flags$ = 8						; size = 4
??_E?$CMyBucket@P8CDPMonitor@@AEXAAVCAr@@K@Z@@UAEPAXI@Z PROC NEAR ; CMyBucket<void (__thiscall CDPMonitor::*)(CAr &,unsigned long)>::`vector deleting destructor', COMDAT
; _this$ = ecx
  00000	53		 push	 ebx
  00001	8a 5c 24 08	 mov	 bl, BYTE PTR ___flags$[esp]
  00005	f6 c3 02	 test	 bl, 2
  00008	56		 push	 esi
  00009	8b f1		 mov	 esi, ecx
  0000b	74 2b		 je	 SHORT $L157945
  0000d	8b 46 fc	 mov	 eax, DWORD PTR [esi-4]
  00010	57		 push	 edi
  00011	68 00 00 00 00	 push	 OFFSET FLAT:??1?$CMyBucket@P8CDPMonitor@@AEXAAVCAr@@K@Z@@UAE@XZ ; CMyBucket<void (__thiscall CDPMonitor::*)(CAr &,unsigned long)>::~CMyBucket<void (__thiscall CDPMonitor::*)(CAr &,unsigned long)>
  00016	8d 7e fc	 lea	 edi, DWORD PTR [esi-4]
  00019	50		 push	 eax
  0001a	6a 18		 push	 24			; 00000018H
  0001c	56		 push	 esi
  0001d	e8 00 00 00 00	 call	 ??_M@YGXPAXIHP6EX0@Z@Z
  00022	f6 c3 01	 test	 bl, 1
  00025	74 09		 je	 SHORT $L157946
  00027	57		 push	 edi
  00028	e8 00 00 00 00	 call	 ??_V@YAXPAX@Z		; operator delete[]
  0002d	83 c4 04	 add	 esp, 4
$L157946:
  00030	8b c7		 mov	 eax, edi
  00032	5f		 pop	 edi
  00033	5e		 pop	 esi
  00034	5b		 pop	 ebx
  00035	c2 04 00	 ret	 4
$L157945:
  00038	f6 c3 01	 test	 bl, 1
  0003b	c7 06 00 00 00
	00		 mov	 DWORD PTR [esi], OFFSET FLAT:??_7?$CMyBucket@P8CDPMonitor@@AEXAAVCAr@@K@Z@@6B@
  00041	74 09		 je	 SHORT $L157948
  00043	56		 push	 esi
  00044	e8 00 00 00 00	 call	 ??3@YAXPAX@Z		; operator delete
  00049	83 c4 04	 add	 esp, 4
$L157948:
  0004c	8b c6		 mov	 eax, esi
  0004e	5e		 pop	 esi
  0004f	5b		 pop	 ebx
  00050	c2 04 00	 ret	 4
??_E?$CMyBucket@P8CDPMonitor@@AEXAAVCAr@@K@Z@@UAEPAXI@Z ENDP ; CMyBucket<void (__thiscall CDPMonitor::*)(CAr &,unsigned long)>::`vector deleting destructor'
_TEXT	ENDS
PUBLIC	?destroy@?$allocator@PAPAV?$CMyBucket@P8CDPMonitor@@AEXAAVCAr@@K@Z@@@std@@QAEXPAPAPAV?$CMyBucket@P8CDPMonitor@@AEXAAVCAr@@K@Z@@@Z ; std::allocator<CMyBucket<void (__thiscall CDPMonitor::*)(CAr &,unsigned long)> * *>::destroy
; Function compile flags: /Ogty
; File c:\program files\microsoft visual studio .net 2003\vc7\include\xmemory
;	COMDAT ?destroy@?$allocator@PAPAV?$CMyBucket@P8CDPMonitor@@AEXAAVCAr@@K@Z@@@std@@QAEXPAPAPAV?$CMyBucket@P8CDPMonitor@@AEXAAVCAr@@K@Z@@@Z
_TEXT	SEGMENT
__Ptr$ = 8						; size = 4
?destroy@?$allocator@PAPAV?$CMyBucket@P8CDPMonitor@@AEXAAVCAr@@K@Z@@@std@@QAEXPAPAPAV?$CMyBucket@P8CDPMonitor@@AEXAAVCAr@@K@Z@@@Z PROC NEAR ; std::allocator<CMyBucket<void (__thiscall CDPMonitor::*)(CAr &,unsigned long)> * *>::destroy, COMDAT
; _this$ = ecx

; 152  : 		_Destroy(_Ptr);
; 153  : 		}

  00000	c2 04 00	 ret	 4
?destroy@?$allocator@PAPAV?$CMyBucket@P8CDPMonitor@@AEXAAVCAr@@K@Z@@@std@@QAEXPAPAPAV?$CMyBucket@P8CDPMonitor@@AEXAAVCAr@@K@Z@@@Z ENDP ; std::allocator<CMyBucket<void (__thiscall CDPMonitor::*)(CAr &,unsigned long)> * *>::destroy
_TEXT	ENDS
PUBLIC	?destroy@?$allocator@PAU_Node@?$_List_nod@PAV?$CMyBucket@P8CDPMonitor@@AEXAAVCAr@@K@Z@@V?$allocator@PAV?$CMyBucket@P8CDPMonitor@@AEXAAVCAr@@K@Z@@@std@@@std@@@std@@QAEXPAPAU_Node@?$_List_nod@PAV?$CMyBucket@P8CDPMonitor@@AEXAAVCAr@@K@Z@@V?$allocator@PAV?$CMyBucket@P8CDPMonitor@@AEXAAVCAr@@K@Z@@@std@@@2@@Z ; std::allocator<std::_List_nod<CMyBucket<void (__thiscall CDPMonitor::*)(CAr &,unsigned long)> *,std::allocator<CMyBucket<void (__thiscall CDPMonitor::*)(CAr &,unsigned long)> *> >::_Node *>::destroy
; Function compile flags: /Ogty
;	COMDAT ?destroy@?$allocator@PAU_Node@?$_List_nod@PAV?$CMyBucket@P8CDPMonitor@@AEXAAVCAr@@K@Z@@V?$allocator@PAV?$CMyBucket@P8CDPMonitor@@AEXAAVCAr@@K@Z@@@std@@@std@@@std@@QAEXPAPAU_Node@?$_List_nod@PAV?$CMyBucket@P8CDPMonitor@@AEXAAVCAr@@K@Z@@V?$allocator@PAV?$CMyBucket@P8CDPMonitor@@AEXAAVCAr@@K@Z@@@std@@@2@@Z
_TEXT	SEGMENT
__Ptr$ = 8						; size = 4
?destroy@?$allocator@PAU_Node@?$_List_nod@PAV?$CMyBucket@P8CDPMonitor@@AEXAAVCAr@@K@Z@@V?$allocator@PAV?$CMyBucket@P8CDPMonitor@@AEXAAVCAr@@K@Z@@@std@@@std@@@std@@QAEXPAPAU_Node@?$_List_nod@PAV?$CMyBucket@P8CDPMonitor@@AEXAAVCAr@@K@Z@@V?$allocator@PAV?$CMyBucket@P8CDPMonitor@@AEXAAVCAr@@K@Z@@@std@@@2@@Z PROC NEAR ; std::allocator<std::_List_nod<CMyBucket<void (__thiscall CDPMonitor::*)(CAr &,unsigned long)> *,std::allocator<CMyBucket<void (__thiscall CDPMonitor::*)(CAr &,unsigned long)> *> >::_Node *>::destroy, COMDAT
; _this$ = ecx

; 152  : 		_Destroy(_Ptr);
; 153  : 		}

  00000	c2 04 00	 ret	 4
?destroy@?$allocator@PAU_Node@?$_List_nod@PAV?$CMyBucket@P8CDPMonitor@@AEXAAVCAr@@K@Z@@V?$allocator@PAV?$CMyBucket@P8CDPMonitor@@AEXAAVCAr@@K@Z@@@std@@@std@@@std@@QAEXPAPAU_Node@?$_List_nod@PAV?$CMyBucket@P8CDPMonitor@@AEXAAVCAr@@K@Z@@V?$allocator@PAV?$CMyBucket@P8CDPMonitor@@AEXAAVCAr@@K@Z@@@std@@@2@@Z ENDP ; std::allocator<std::_List_nod<CMyBucket<void (__thiscall CDPMonitor::*)(CAr &,unsigned long)> *,std::allocator<CMyBucket<void (__thiscall CDPMonitor::*)(CAr &,unsigned long)> *> >::_Node *>::destroy
_TEXT	ENDS
PUBLIC	?destroy@?$allocator@PAV?$CMyBucket@P8CDPMonitor@@AEXAAVCAr@@K@Z@@@std@@QAEXPAPAV?$CMyBucket@P8CDPMonitor@@AEXAAVCAr@@K@Z@@@Z ; std::allocator<CMyBucket<void (__thiscall CDPMonitor::*)(CAr &,unsigned long)> *>::destroy
; Function compile flags: /Ogty
;	COMDAT ?destroy@?$allocator@PAV?$CMyBucket@P8CDPMonitor@@AEXAAVCAr@@K@Z@@@std@@QAEXPAPAV?$CMyBucket@P8CDPMonitor@@AEXAAVCAr@@K@Z@@@Z
_TEXT	SEGMENT
__Ptr$ = 8						; size = 4
?destroy@?$allocator@PAV?$CMyBucket@P8CDPMonitor@@AEXAAVCAr@@K@Z@@@std@@QAEXPAPAV?$CMyBucket@P8CDPMonitor@@AEXAAVCAr@@K@Z@@@Z PROC NEAR ; std::allocator<CMyBucket<void (__thiscall CDPMonitor::*)(CAr &,unsigned long)> *>::destroy, COMDAT
; _this$ = ecx

; 152  : 		_Destroy(_Ptr);
; 153  : 		}

  00000	c2 04 00	 ret	 4
?destroy@?$allocator@PAV?$CMyBucket@P8CDPMonitor@@AEXAAVCAr@@K@Z@@@std@@QAEXPAPAV?$CMyBucket@P8CDPMonitor@@AEXAAVCAr@@K@Z@@@Z ENDP ; std::allocator<CMyBucket<void (__thiscall CDPMonitor::*)(CAr &,unsigned long)> *>::destroy
_TEXT	ENDS
PUBLIC	?destroy@?$allocator@U_Node@?$_List_nod@PAV?$CMyBucket@P8CDPMonitor@@AEXAAVCAr@@K@Z@@V?$allocator@PAV?$CMyBucket@P8CDPMonitor@@AEXAAVCAr@@K@Z@@@std@@@std@@@std@@QAEXPAU_Node@?$_List_nod@PAV?$CMyBucket@P8CDPMonitor@@AEXAAVCAr@@K@Z@@V?$allocator@PAV?$CMyBucket@P8CDPMonitor@@AEXAAVCAr@@K@Z@@@std@@@2@@Z ; std::allocator<std::_List_nod<CMyBucket<void (__thiscall CDPMonitor::*)(CAr &,unsigned long)> *,std::allocator<CMyBucket<void (__thiscall CDPMonitor::*)(CAr &,unsigned long)> *> >::_Node>::destroy
; Function compile flags: /Ogty
;	COMDAT ?destroy@?$allocator@U_Node@?$_List_nod@PAV?$CMyBucket@P8CDPMonitor@@AEXAAVCAr@@K@Z@@V?$allocator@PAV?$CMyBucket@P8CDPMonitor@@AEXAAVCAr@@K@Z@@@std@@@std@@@std@@QAEXPAU_Node@?$_List_nod@PAV?$CMyBucket@P8CDPMonitor@@AEXAAVCAr@@K@Z@@V?$allocator@PAV?$CMyBucket@P8CDPMonitor@@AEXAAVCAr@@K@Z@@@std@@@2@@Z
_TEXT	SEGMENT
__Ptr$ = 8						; size = 4
?destroy@?$allocator@U_Node@?$_List_nod@PAV?$CMyBucket@P8CDPMonitor@@AEXAAVCAr@@K@Z@@V?$allocator@PAV?$CMyBucket@P8CDPMonitor@@AEXAAVCAr@@K@Z@@@std@@@std@@@std@@QAEXPAU_Node@?$_List_nod@PAV?$CMyBucket@P8CDPMonitor@@AEXAAVCAr@@K@Z@@V?$allocator@PAV?$CMyBucket@P8CDPMonitor@@AEXAAVCAr@@K@Z@@@std@@@2@@Z PROC NEAR ; std::allocator<std::_List_nod<CMyBucket<void (__thiscall CDPMonitor::*)(CAr &,unsigned long)> *,std::allocator<CMyBucket<void (__thiscall CDPMonitor::*)(CAr &,unsigned long)> *> >::_Node>::destroy, COMDAT
; _this$ = ecx

; 152  : 		_Destroy(_Ptr);
; 153  : 		}

  00000	c2 04 00	 ret	 4
?destroy@?$allocator@U_Node@?$_List_nod@PAV?$CMyBucket@P8CDPMonitor@@AEXAAVCAr@@K@Z@@V?$allocator@PAV?$CMyBucket@P8CDPMonitor@@AEXAAVCAr@@K@Z@@@std@@@std@@@std@@QAEXPAU_Node@?$_List_nod@PAV?$CMyBucket@P8CDPMonitor@@AEXAAVCAr@@K@Z@@V?$allocator@PAV?$CMyBucket@P8CDPMonitor@@AEXAAVCAr@@K@Z@@@std@@@2@@Z ENDP ; std::allocator<std::_List_nod<CMyBucket<void (__thiscall CDPMonitor::*)(CAr &,unsigned long)> *,std::allocator<CMyBucket<void (__thiscall CDPMonitor::*)(CAr &,unsigned long)> *> >::_Node>::destroy
_TEXT	ENDS
PUBLIC	?GetTickCount@CTime@ATL@@SG?AV12@XZ		; ATL::CTime::GetTickCount
EXTRN	__time64:NEAR
; Function compile flags: /Ogty
; File c:\program files\microsoft visual studio .net 2003\vc7\atlmfc\include\atltime.inl
;	COMDAT ?GetTickCount@CTime@ATL@@SG?AV12@XZ
_TEXT	SEGMENT
___$ReturnUdt$ = 8					; size = 4
?GetTickCount@CTime@ATL@@SG?AV12@XZ PROC NEAR		; ATL::CTime::GetTickCount, COMDAT

; 139  : 	return( CTime( ::_time64( NULL ) ) );

  00000	6a 00		 push	 0
  00002	e8 00 00 00 00	 call	 __time64
  00007	8b 4c 24 08	 mov	 ecx, DWORD PTR ___$ReturnUdt$[esp]
  0000b	89 01		 mov	 DWORD PTR [ecx], eax
  0000d	83 c4 04	 add	 esp, 4
  00010	89 51 04	 mov	 DWORD PTR [ecx+4], edx
  00013	8b c1		 mov	 eax, ecx

; 140  : }

  00015	c2 04 00	 ret	 4
?GetTickCount@CTime@ATL@@SG?AV12@XZ ENDP		; ATL::CTime::GetTickCount
_TEXT	ENDS
PUBLIC	??Eiterator@?$list@PAV?$CMyBucket@P8CDPMonitor@@AEXAAVCAr@@K@Z@@V?$allocator@PAV?$CMyBucket@P8CDPMonitor@@AEXAAVCAr@@K@Z@@@std@@@std@@QAEAAV012@XZ ; std::list<CMyBucket<void (__thiscall CDPMonitor::*)(CAr &,unsigned long)> *,std::allocator<CMyBucket<void (__thiscall CDPMonitor::*)(CAr &,unsigned long)> *> >::iterator::operator++
; Function compile flags: /Ogty
; File c:\program files\microsoft visual studio .net 2003\vc7\include\list
;	COMDAT ??Eiterator@?$list@PAV?$CMyBucket@P8CDPMonitor@@AEXAAVCAr@@K@Z@@V?$allocator@PAV?$CMyBucket@P8CDPMonitor@@AEXAAVCAr@@K@Z@@@std@@@std@@QAEAAV012@XZ
_TEXT	SEGMENT
??Eiterator@?$list@PAV?$CMyBucket@P8CDPMonitor@@AEXAAVCAr@@K@Z@@V?$allocator@PAV?$CMyBucket@P8CDPMonitor@@AEXAAVCAr@@K@Z@@@std@@@std@@QAEAAV012@XZ PROC NEAR ; std::list<CMyBucket<void (__thiscall CDPMonitor::*)(CAr &,unsigned long)> *,std::allocator<CMyBucket<void (__thiscall CDPMonitor::*)(CAr &,unsigned long)> *> >::iterator::operator++, COMDAT
; _this$ = ecx

; 249  : 			{	// preincrement

  00000	8b c1		 mov	 eax, ecx

; 250  : 			++(*(const_iterator *)this);

  00002	8b 08		 mov	 ecx, DWORD PTR [eax]
  00004	8b 11		 mov	 edx, DWORD PTR [ecx]
  00006	89 10		 mov	 DWORD PTR [eax], edx

; 251  : 			return (*this);
; 252  : 			}

  00008	c3		 ret	 0
??Eiterator@?$list@PAV?$CMyBucket@P8CDPMonitor@@AEXAAVCAr@@K@Z@@V?$allocator@PAV?$CMyBucket@P8CDPMonitor@@AEXAAVCAr@@K@Z@@@std@@@std@@QAEAAV012@XZ ENDP ; std::list<CMyBucket<void (__thiscall CDPMonitor::*)(CAr &,unsigned long)> *,std::allocator<CMyBucket<void (__thiscall CDPMonitor::*)(CAr &,unsigned long)> *> >::iterator::operator++
_TEXT	ENDS
PUBLIC	??9const_iterator@?$list@PAV?$CMyBucket@P8CDPMonitor@@AEXAAVCAr@@K@Z@@V?$allocator@PAV?$CMyBucket@P8CDPMonitor@@AEXAAVCAr@@K@Z@@@std@@@std@@QBE_NABV012@@Z ; std::list<CMyBucket<void (__thiscall CDPMonitor::*)(CAr &,unsigned long)> *,std::allocator<CMyBucket<void (__thiscall CDPMonitor::*)(CAr &,unsigned long)> *> >::const_iterator::operator!=
; Function compile flags: /Ogty
;	COMDAT ??9const_iterator@?$list@PAV?$CMyBucket@P8CDPMonitor@@AEXAAVCAr@@K@Z@@V?$allocator@PAV?$CMyBucket@P8CDPMonitor@@AEXAAVCAr@@K@Z@@@std@@@std@@QBE_NABV012@@Z
_TEXT	SEGMENT
__Right$ = 8						; size = 4
??9const_iterator@?$list@PAV?$CMyBucket@P8CDPMonitor@@AEXAAVCAr@@K@Z@@V?$allocator@PAV?$CMyBucket@P8CDPMonitor@@AEXAAVCAr@@K@Z@@@std@@@std@@QBE_NABV012@@Z PROC NEAR ; std::list<CMyBucket<void (__thiscall CDPMonitor::*)(CAr &,unsigned long)> *,std::allocator<CMyBucket<void (__thiscall CDPMonitor::*)(CAr &,unsigned long)> *> >::const_iterator::operator!=, COMDAT
; _this$ = ecx

; 202  : 			return (!(*this == _Right));

  00000	8b 01		 mov	 eax, DWORD PTR [ecx]
  00002	8b 54 24 04	 mov	 edx, DWORD PTR __Right$[esp-4]
  00006	56		 push	 esi
  00007	8b 32		 mov	 esi, DWORD PTR [edx]
  00009	33 c9		 xor	 ecx, ecx
  0000b	3b c6		 cmp	 eax, esi
  0000d	0f 95 c1	 setne	 cl
  00010	8a c1		 mov	 al, cl
  00012	5e		 pop	 esi

; 203  : 			}

  00013	c2 04 00	 ret	 4
??9const_iterator@?$list@PAV?$CMyBucket@P8CDPMonitor@@AEXAAVCAr@@K@Z@@V?$allocator@PAV?$CMyBucket@P8CDPMonitor@@AEXAAVCAr@@K@Z@@@std@@@std@@QBE_NABV012@@Z ENDP ; std::list<CMyBucket<void (__thiscall CDPMonitor::*)(CAr &,unsigned long)> *,std::allocator<CMyBucket<void (__thiscall CDPMonitor::*)(CAr &,unsigned long)> *> >::const_iterator::operator!=
_TEXT	ENDS
PUBLIC	??0iterator@?$list@PAV?$CMyBucket@P8CDPMonitor@@AEXAAVCAr@@K@Z@@V?$allocator@PAV?$CMyBucket@P8CDPMonitor@@AEXAAVCAr@@K@Z@@@std@@@std@@QAE@PAU_Node@?$_List_nod@PAV?$CMyBucket@P8CDPMonitor@@AEXAAVCAr@@K@Z@@V?$allocator@PAV?$CMyBucket@P8CDPMonitor@@AEXAAVCAr@@K@Z@@@std@@@2@@Z ; std::list<CMyBucket<void (__thiscall CDPMonitor::*)(CAr &,unsigned long)> *,std::allocator<CMyBucket<void (__thiscall CDPMonitor::*)(CAr &,unsigned long)> *> >::iterator::iterator
; Function compile flags: /Ogty
;	COMDAT ??0iterator@?$list@PAV?$CMyBucket@P8CDPMonitor@@AEXAAVCAr@@K@Z@@V?$allocator@PAV?$CMyBucket@P8CDPMonitor@@AEXAAVCAr@@K@Z@@@std@@@std@@QAE@PAU_Node@?$_List_nod@PAV?$CMyBucket@P8CDPMonitor@@AEXAAVCAr@@K@Z@@V?$allocator@PAV?$CMyBucket@P8CDPMonitor@@AEXAAVCAr@@K@Z@@@std@@@2@@Z
_TEXT	SEGMENT
__Pnode$ = 8						; size = 4
??0iterator@?$list@PAV?$CMyBucket@P8CDPMonitor@@AEXAAVCAr@@K@Z@@V?$allocator@PAV?$CMyBucket@P8CDPMonitor@@AEXAAVCAr@@K@Z@@@std@@@std@@QAE@PAU_Node@?$_List_nod@PAV?$CMyBucket@P8CDPMonitor@@AEXAAVCAr@@K@Z@@V?$allocator@PAV?$CMyBucket@P8CDPMonitor@@AEXAAVCAr@@K@Z@@@std@@@2@@Z PROC NEAR ; std::list<CMyBucket<void (__thiscall CDPMonitor::*)(CAr &,unsigned long)> *,std::allocator<CMyBucket<void (__thiscall CDPMonitor::*)(CAr &,unsigned long)> *> >::iterator::iterator, COMDAT
; _this$ = ecx

; 235  : 			{	// construct with node pointer _Pnode

  00000	8b c1		 mov	 eax, ecx
  00002	8b 4c 24 04	 mov	 ecx, DWORD PTR __Pnode$[esp-4]
  00006	89 08		 mov	 DWORD PTR [eax], ecx

; 236  : 			}

  00008	c2 04 00	 ret	 4
??0iterator@?$list@PAV?$CMyBucket@P8CDPMonitor@@AEXAAVCAr@@K@Z@@V?$allocator@PAV?$CMyBucket@P8CDPMonitor@@AEXAAVCAr@@K@Z@@@std@@@std@@QAE@PAU_Node@?$_List_nod@PAV?$CMyBucket@P8CDPMonitor@@AEXAAVCAr@@K@Z@@V?$allocator@PAV?$CMyBucket@P8CDPMonitor@@AEXAAVCAr@@K@Z@@@std@@@2@@Z ENDP ; std::list<CMyBucket<void (__thiscall CDPMonitor::*)(CAr &,unsigned long)> *,std::allocator<CMyBucket<void (__thiscall CDPMonitor::*)(CAr &,unsigned long)> *> >::iterator::iterator
_TEXT	ENDS
PUBLIC	??Dconst_iterator@?$list@PAV?$CMyBucket@P8CDPMonitor@@AEXAAVCAr@@K@Z@@V?$allocator@PAV?$CMyBucket@P8CDPMonitor@@AEXAAVCAr@@K@Z@@@std@@@std@@QBEABQAV?$CMyBucket@P8CDPMonitor@@AEXAAVCAr@@K@Z@@XZ ; std::list<CMyBucket<void (__thiscall CDPMonitor::*)(CAr &,unsigned long)> *,std::allocator<CMyBucket<void (__thiscall CDPMonitor::*)(CAr &,unsigned long)> *> >::const_iterator::operator*
; Function compile flags: /Ogty
;	COMDAT ??Dconst_iterator@?$list@PAV?$CMyBucket@P8CDPMonitor@@AEXAAVCAr@@K@Z@@V?$allocator@PAV?$CMyBucket@P8CDPMonitor@@AEXAAVCAr@@K@Z@@@std@@@std@@QBEABQAV?$CMyBucket@P8CDPMonitor@@AEXAAVCAr@@K@Z@@XZ
_TEXT	SEGMENT
??Dconst_iterator@?$list@PAV?$CMyBucket@P8CDPMonitor@@AEXAAVCAr@@K@Z@@V?$allocator@PAV?$CMyBucket@P8CDPMonitor@@AEXAAVCAr@@K@Z@@@std@@@std@@QBEABQAV?$CMyBucket@P8CDPMonitor@@AEXAAVCAr@@K@Z@@XZ PROC NEAR ; std::list<CMyBucket<void (__thiscall CDPMonitor::*)(CAr &,unsigned long)> *,std::allocator<CMyBucket<void (__thiscall CDPMonitor::*)(CAr &,unsigned long)> *> >::const_iterator::operator*, COMDAT
; _this$ = ecx

; 161  : 			return (_Myval(_Ptr));

  00000	8b 01		 mov	 eax, DWORD PTR [ecx]
  00002	83 c0 08	 add	 eax, 8

; 162  : 			}

  00005	c3		 ret	 0
??Dconst_iterator@?$list@PAV?$CMyBucket@P8CDPMonitor@@AEXAAVCAr@@K@Z@@V?$allocator@PAV?$CMyBucket@P8CDPMonitor@@AEXAAVCAr@@K@Z@@@std@@@std@@QBEABQAV?$CMyBucket@P8CDPMonitor@@AEXAAVCAr@@K@Z@@XZ ENDP ; std::list<CMyBucket<void (__thiscall CDPMonitor::*)(CAr &,unsigned long)> *,std::allocator<CMyBucket<void (__thiscall CDPMonitor::*)(CAr &,unsigned long)> *> >::const_iterator::operator*
_TEXT	ENDS
PUBLIC	?allocate@?$allocator@U_Node@?$_List_nod@PAV?$CMyBucket@P8CDPMonitor@@AEXAAVCAr@@K@Z@@V?$allocator@PAV?$CMyBucket@P8CDPMonitor@@AEXAAVCAr@@K@Z@@@std@@@std@@@std@@QAEPAU_Node@?$_List_nod@PAV?$CMyBucket@P8CDPMonitor@@AEXAAVCAr@@K@Z@@V?$allocator@PAV?$CMyBucket@P8CDPMonitor@@AEXAAVCAr@@K@Z@@@std@@@2@I@Z ; std::allocator<std::_List_nod<CMyBucket<void (__thiscall CDPMonitor::*)(CAr &,unsigned long)> *,std::allocator<CMyBucket<void (__thiscall CDPMonitor::*)(CAr &,unsigned long)> *> >::_Node>::allocate
; Function compile flags: /Ogty
; File c:\program files\microsoft visual studio .net 2003\vc7\include\xmemory
;	COMDAT ?allocate@?$allocator@U_Node@?$_List_nod@PAV?$CMyBucket@P8CDPMonitor@@AEXAAVCAr@@K@Z@@V?$allocator@PAV?$CMyBucket@P8CDPMonitor@@AEXAAVCAr@@K@Z@@@std@@@std@@@std@@QAEPAU_Node@?$_List_nod@PAV?$CMyBucket@P8CDPMonitor@@AEXAAVCAr@@K@Z@@V?$allocator@PAV?$CMyBucket@P8CDPMonitor@@AEXAAVCAr@@K@Z@@@std@@@2@I@Z
_TEXT	SEGMENT
__Count$ = 8						; size = 4
?allocate@?$allocator@U_Node@?$_List_nod@PAV?$CMyBucket@P8CDPMonitor@@AEXAAVCAr@@K@Z@@V?$allocator@PAV?$CMyBucket@P8CDPMonitor@@AEXAAVCAr@@K@Z@@@std@@@std@@@std@@QAEPAU_Node@?$_List_nod@PAV?$CMyBucket@P8CDPMonitor@@AEXAAVCAr@@K@Z@@V?$allocator@PAV?$CMyBucket@P8CDPMonitor@@AEXAAVCAr@@K@Z@@@std@@@2@I@Z PROC NEAR ; std::allocator<std::_List_nod<CMyBucket<void (__thiscall CDPMonitor::*)(CAr &,unsigned long)> *,std::allocator<CMyBucket<void (__thiscall CDPMonitor::*)(CAr &,unsigned long)> *> >::_Node>::allocate, COMDAT
; _this$ = ecx

; 137  : 		return (_Allocate(_Count, (pointer)0));

  00000	8b 44 24 04	 mov	 eax, DWORD PTR __Count$[esp-4]
  00004	8d 04 40	 lea	 eax, DWORD PTR [eax+eax*2]
  00007	c1 e0 02	 shl	 eax, 2
  0000a	50		 push	 eax
  0000b	e8 00 00 00 00	 call	 ??2@YAPAXI@Z		; operator new
  00010	83 c4 04	 add	 esp, 4

; 138  : 		}

  00013	c2 04 00	 ret	 4
?allocate@?$allocator@U_Node@?$_List_nod@PAV?$CMyBucket@P8CDPMonitor@@AEXAAVCAr@@K@Z@@V?$allocator@PAV?$CMyBucket@P8CDPMonitor@@AEXAAVCAr@@K@Z@@@std@@@std@@@std@@QAEPAU_Node@?$_List_nod@PAV?$CMyBucket@P8CDPMonitor@@AEXAAVCAr@@K@Z@@V?$allocator@PAV?$CMyBucket@P8CDPMonitor@@AEXAAVCAr@@K@Z@@@std@@@2@I@Z ENDP ; std::allocator<std::_List_nod<CMyBucket<void (__thiscall CDPMonitor::*)(CAr &,unsigned long)> *,std::allocator<CMyBucket<void (__thiscall CDPMonitor::*)(CAr &,unsigned long)> *> >::_Node>::allocate
_TEXT	ENDS
PUBLIC	?construct@?$allocator@PAU_Node@?$_List_nod@PAV?$CMyBucket@P8CDPMonitor@@AEXAAVCAr@@K@Z@@V?$allocator@PAV?$CMyBucket@P8CDPMonitor@@AEXAAVCAr@@K@Z@@@std@@@std@@@std@@QAEXPAPAU_Node@?$_List_nod@PAV?$CMyBucket@P8CDPMonitor@@AEXAAVCAr@@K@Z@@V?$allocator@PAV?$CMyBucket@P8CDPMonitor@@AEXAAVCAr@@K@Z@@@std@@@2@ABQAU342@@Z ; std::allocator<std::_List_nod<CMyBucket<void (__thiscall CDPMonitor::*)(CAr &,unsigned long)> *,std::allocator<CMyBucket<void (__thiscall CDPMonitor::*)(CAr &,unsigned long)> *> >::_Node *>::construct
; Function compile flags: /Ogty
;	COMDAT ?construct@?$allocator@PAU_Node@?$_List_nod@PAV?$CMyBucket@P8CDPMonitor@@AEXAAVCAr@@K@Z@@V?$allocator@PAV?$CMyBucket@P8CDPMonitor@@AEXAAVCAr@@K@Z@@@std@@@std@@@std@@QAEXPAPAU_Node@?$_List_nod@PAV?$CMyBucket@P8CDPMonitor@@AEXAAVCAr@@K@Z@@V?$allocator@PAV?$CMyBucket@P8CDPMonitor@@AEXAAVCAr@@K@Z@@@std@@@2@ABQAU342@@Z
_TEXT	SEGMENT
__Ptr$ = 8						; size = 4
__Val$ = 12						; size = 4
?construct@?$allocator@PAU_Node@?$_List_nod@PAV?$CMyBucket@P8CDPMonitor@@AEXAAVCAr@@K@Z@@V?$allocator@PAV?$CMyBucket@P8CDPMonitor@@AEXAAVCAr@@K@Z@@@std@@@std@@@std@@QAEXPAPAU_Node@?$_List_nod@PAV?$CMyBucket@P8CDPMonitor@@AEXAAVCAr@@K@Z@@V?$allocator@PAV?$CMyBucket@P8CDPMonitor@@AEXAAVCAr@@K@Z@@@std@@@2@ABQAU342@@Z PROC NEAR ; std::allocator<std::_List_nod<CMyBucket<void (__thiscall CDPMonitor::*)(CAr &,unsigned long)> *,std::allocator<CMyBucket<void (__thiscall CDPMonitor::*)(CAr &,unsigned long)> *> >::_Node *>::construct, COMDAT
; _this$ = ecx

; 147  : 		_Construct(_Ptr, _Val);

  00000	8b 44 24 04	 mov	 eax, DWORD PTR __Ptr$[esp-4]
  00004	85 c0		 test	 eax, eax
  00006	74 08		 je	 SHORT $L160377
  00008	8b 4c 24 08	 mov	 ecx, DWORD PTR __Val$[esp-4]
  0000c	8b 11		 mov	 edx, DWORD PTR [ecx]
  0000e	89 10		 mov	 DWORD PTR [eax], edx
$L160377:

; 148  : 		}

  00010	c2 08 00	 ret	 8
?construct@?$allocator@PAU_Node@?$_List_nod@PAV?$CMyBucket@P8CDPMonitor@@AEXAAVCAr@@K@Z@@V?$allocator@PAV?$CMyBucket@P8CDPMonitor@@AEXAAVCAr@@K@Z@@@std@@@std@@@std@@QAEXPAPAU_Node@?$_List_nod@PAV?$CMyBucket@P8CDPMonitor@@AEXAAVCAr@@K@Z@@V?$allocator@PAV?$CMyBucket@P8CDPMonitor@@AEXAAVCAr@@K@Z@@@std@@@2@ABQAU342@@Z ENDP ; std::allocator<std::_List_nod<CMyBucket<void (__thiscall CDPMonitor::*)(CAr &,unsigned long)> *,std::allocator<CMyBucket<void (__thiscall CDPMonitor::*)(CAr &,unsigned long)> *> >::_Node *>::construct
_TEXT	ENDS
PUBLIC	??Diterator@?$deque@PAV?$CMyBucket@P8CDPMonitor@@AEXAAVCAr@@K@Z@@V?$allocator@PAV?$CMyBucket@P8CDPMonitor@@AEXAAVCAr@@K@Z@@@std@@@std@@QBEAAPAV?$CMyBucket@P8CDPMonitor@@AEXAAVCAr@@K@Z@@XZ ; std::deque<CMyBucket<void (__thiscall CDPMonitor::*)(CAr &,unsigned long)> *,std::allocator<CMyBucket<void (__thiscall CDPMonitor::*)(CAr &,unsigned long)> *> >::iterator::operator*
; Function compile flags: /Ogty
; File c:\program files\microsoft visual studio .net 2003\vc7\include\deque
;	COMDAT ??Diterator@?$deque@PAV?$CMyBucket@P8CDPMonitor@@AEXAAVCAr@@K@Z@@V?$allocator@PAV?$CMyBucket@P8CDPMonitor@@AEXAAVCAr@@K@Z@@@std@@@std@@QBEAAPAV?$CMyBucket@P8CDPMonitor@@AEXAAVCAr@@K@Z@@XZ
_TEXT	SEGMENT
??Diterator@?$deque@PAV?$CMyBucket@P8CDPMonitor@@AEXAAVCAr@@K@Z@@V?$allocator@PAV?$CMyBucket@P8CDPMonitor@@AEXAAVCAr@@K@Z@@@std@@@std@@QBEAAPAV?$CMyBucket@P8CDPMonitor@@AEXAAVCAr@@K@Z@@XZ PROC NEAR ; std::deque<CMyBucket<void (__thiscall CDPMonitor::*)(CAr &,unsigned long)> *,std::allocator<CMyBucket<void (__thiscall CDPMonitor::*)(CAr &,unsigned long)> *> >::iterator::operator*, COMDAT
; _this$ = ecx

; 247  : 			return ((reference)**(const_iterator *)this);

  00000	8b 51 04	 mov	 edx, DWORD PTR [ecx+4]
  00003	8b 09		 mov	 ecx, DWORD PTR [ecx]
  00005	8b c2		 mov	 eax, edx
  00007	c1 e8 02	 shr	 eax, 2
  0000a	56		 push	 esi
  0000b	8d 34 85 00 00
	00 00		 lea	 esi, DWORD PTR [eax*4]
  00012	2b d6		 sub	 edx, esi
  00014	8b 71 08	 mov	 esi, DWORD PTR [ecx+8]
  00017	3b f0		 cmp	 esi, eax
  00019	77 02		 ja	 SHORT $L160388
  0001b	2b c6		 sub	 eax, esi
$L160388:
  0001d	8b 49 04	 mov	 ecx, DWORD PTR [ecx+4]
  00020	8b 04 81	 mov	 eax, DWORD PTR [ecx+eax*4]
  00023	8d 04 90	 lea	 eax, DWORD PTR [eax+edx*4]
  00026	5e		 pop	 esi

; 248  : 			}

  00027	c3		 ret	 0
??Diterator@?$deque@PAV?$CMyBucket@P8CDPMonitor@@AEXAAVCAr@@K@Z@@V?$allocator@PAV?$CMyBucket@P8CDPMonitor@@AEXAAVCAr@@K@Z@@@std@@@std@@QBEAAPAV?$CMyBucket@P8CDPMonitor@@AEXAAVCAr@@K@Z@@XZ ENDP ; std::deque<CMyBucket<void (__thiscall CDPMonitor::*)(CAr &,unsigned long)> *,std::allocator<CMyBucket<void (__thiscall CDPMonitor::*)(CAr &,unsigned long)> *> >::iterator::operator*
_TEXT	ENDS
PUBLIC	??0?$_Deque_map@PAV?$CMyBucket@P8CDPMonitor@@AEXAAVCAr@@K@Z@@V?$allocator@PAV?$CMyBucket@P8CDPMonitor@@AEXAAVCAr@@K@Z@@@std@@@std@@IAE@V?$allocator@PAV?$CMyBucket@P8CDPMonitor@@AEXAAVCAr@@K@Z@@@1@@Z ; std::_Deque_map<CMyBucket<void (__thiscall CDPMonitor::*)(CAr &,unsigned long)> *,std::allocator<CMyBucket<void (__thiscall CDPMonitor::*)(CAr &,unsigned long)> *> >::_Deque_map<CMyBucket<void (__thiscall CDPMonitor::*)(CAr &,unsigned long)> *,std::allocator<CMyBucket<void (__thiscall CDPMonitor::*)(CAr &,unsigned long)> *> >
; Function compile flags: /Ogty
;	COMDAT ??0?$_Deque_map@PAV?$CMyBucket@P8CDPMonitor@@AEXAAVCAr@@K@Z@@V?$allocator@PAV?$CMyBucket@P8CDPMonitor@@AEXAAVCAr@@K@Z@@@std@@@std@@IAE@V?$allocator@PAV?$CMyBucket@P8CDPMonitor@@AEXAAVCAr@@K@Z@@@1@@Z
_TEXT	SEGMENT
__Al$ = 8						; size = 1
??0?$_Deque_map@PAV?$CMyBucket@P8CDPMonitor@@AEXAAVCAr@@K@Z@@V?$allocator@PAV?$CMyBucket@P8CDPMonitor@@AEXAAVCAr@@K@Z@@@std@@@std@@IAE@V?$allocator@PAV?$CMyBucket@P8CDPMonitor@@AEXAAVCAr@@K@Z@@@1@@Z PROC NEAR ; std::_Deque_map<CMyBucket<void (__thiscall CDPMonitor::*)(CAr &,unsigned long)> *,std::allocator<CMyBucket<void (__thiscall CDPMonitor::*)(CAr &,unsigned long)> *> >::_Deque_map<CMyBucket<void (__thiscall CDPMonitor::*)(CAr &,unsigned long)> *,std::allocator<CMyBucket<void (__thiscall CDPMonitor::*)(CAr &,unsigned long)> *> >, COMDAT
; _this$ = ecx

; 21   : 		{	// construct allocator from _Al

  00000	8b c1		 mov	 eax, ecx

; 22   : 		}

  00002	c2 04 00	 ret	 4
??0?$_Deque_map@PAV?$CMyBucket@P8CDPMonitor@@AEXAAVCAr@@K@Z@@V?$allocator@PAV?$CMyBucket@P8CDPMonitor@@AEXAAVCAr@@K@Z@@@std@@@std@@IAE@V?$allocator@PAV?$CMyBucket@P8CDPMonitor@@AEXAAVCAr@@K@Z@@@1@@Z ENDP ; std::_Deque_map<CMyBucket<void (__thiscall CDPMonitor::*)(CAr &,unsigned long)> *,std::allocator<CMyBucket<void (__thiscall CDPMonitor::*)(CAr &,unsigned long)> *> >::_Deque_map<CMyBucket<void (__thiscall CDPMonitor::*)(CAr &,unsigned long)> *,std::allocator<CMyBucket<void (__thiscall CDPMonitor::*)(CAr &,unsigned long)> *> >
_TEXT	ENDS
PUBLIC	??0?$_List_nod@PAV?$CMyBucket@P8CDPMonitor@@AEXAAVCAr@@K@Z@@V?$allocator@PAV?$CMyBucket@P8CDPMonitor@@AEXAAVCAr@@K@Z@@@std@@@std@@IAE@V?$allocator@PAV?$CMyBucket@P8CDPMonitor@@AEXAAVCAr@@K@Z@@@1@@Z ; std::_List_nod<CMyBucket<void (__thiscall CDPMonitor::*)(CAr &,unsigned long)> *,std::allocator<CMyBucket<void (__thiscall CDPMonitor::*)(CAr &,unsigned long)> *> >::_List_nod<CMyBucket<void (__thiscall CDPMonitor::*)(CAr &,unsigned long)> *,std::allocator<CMyBucket<void (__thiscall CDPMonitor::*)(CAr &,unsigned long)> *> >
; Function compile flags: /Ogty
; File c:\program files\microsoft visual studio .net 2003\vc7\include\list
;	COMDAT ??0?$_List_nod@PAV?$CMyBucket@P8CDPMonitor@@AEXAAVCAr@@K@Z@@V?$allocator@PAV?$CMyBucket@P8CDPMonitor@@AEXAAVCAr@@K@Z@@@std@@@std@@IAE@V?$allocator@PAV?$CMyBucket@P8CDPMonitor@@AEXAAVCAr@@K@Z@@@1@@Z
_TEXT	SEGMENT
__Al$ = 8						; size = 1
??0?$_List_nod@PAV?$CMyBucket@P8CDPMonitor@@AEXAAVCAr@@K@Z@@V?$allocator@PAV?$CMyBucket@P8CDPMonitor@@AEXAAVCAr@@K@Z@@@std@@@std@@IAE@V?$allocator@PAV?$CMyBucket@P8CDPMonitor@@AEXAAVCAr@@K@Z@@@1@@Z PROC NEAR ; std::_List_nod<CMyBucket<void (__thiscall CDPMonitor::*)(CAr &,unsigned long)> *,std::allocator<CMyBucket<void (__thiscall CDPMonitor::*)(CAr &,unsigned long)> *> >::_List_nod<CMyBucket<void (__thiscall CDPMonitor::*)(CAr &,unsigned long)> *,std::allocator<CMyBucket<void (__thiscall CDPMonitor::*)(CAr &,unsigned long)> *> >, COMDAT
; _this$ = ecx

; 44   : 		{	// construct allocator from _Al

  00000	8b c1		 mov	 eax, ecx

; 45   : 		}

  00002	c2 04 00	 ret	 4
??0?$_List_nod@PAV?$CMyBucket@P8CDPMonitor@@AEXAAVCAr@@K@Z@@V?$allocator@PAV?$CMyBucket@P8CDPMonitor@@AEXAAVCAr@@K@Z@@@std@@@std@@IAE@V?$allocator@PAV?$CMyBucket@P8CDPMonitor@@AEXAAVCAr@@K@Z@@@1@@Z ENDP ; std::_List_nod<CMyBucket<void (__thiscall CDPMonitor::*)(CAr &,unsigned long)> *,std::allocator<CMyBucket<void (__thiscall CDPMonitor::*)(CAr &,unsigned long)> *> >::_List_nod<CMyBucket<void (__thiscall CDPMonitor::*)(CAr &,unsigned long)> *,std::allocator<CMyBucket<void (__thiscall CDPMonitor::*)(CAr &,unsigned long)> *> >
_TEXT	ENDS
PUBLIC	??0iterator@?$deque@PAV?$CMyBucket@P8CDPMonitor@@AEXAAVCAr@@K@Z@@V?$allocator@PAV?$CMyBucket@P8CDPMonitor@@AEXAAVCAr@@K@Z@@@std@@@std@@QAE@IPBV12@@Z ; std::deque<CMyBucket<void (__thiscall CDPMonitor::*)(CAr &,unsigned long)> *,std::allocator<CMyBucket<void (__thiscall CDPMonitor::*)(CAr &,unsigned long)> *> >::iterator::iterator
; Function compile flags: /Ogty
; File c:\program files\microsoft visual studio .net 2003\vc7\include\deque
;	COMDAT ??0iterator@?$deque@PAV?$CMyBucket@P8CDPMonitor@@AEXAAVCAr@@K@Z@@V?$allocator@PAV?$CMyBucket@P8CDPMonitor@@AEXAAVCAr@@K@Z@@@std@@@std@@QAE@IPBV12@@Z
_TEXT	SEGMENT
__Off$ = 8						; size = 4
__Pdeque$ = 12						; size = 4
??0iterator@?$deque@PAV?$CMyBucket@P8CDPMonitor@@AEXAAVCAr@@K@Z@@V?$allocator@PAV?$CMyBucket@P8CDPMonitor@@AEXAAVCAr@@K@Z@@@std@@@std@@QAE@IPBV12@@Z PROC NEAR ; std::deque<CMyBucket<void (__thiscall CDPMonitor::*)(CAr &,unsigned long)> *,std::allocator<CMyBucket<void (__thiscall CDPMonitor::*)(CAr &,unsigned long)> *> >::iterator::iterator, COMDAT
; _this$ = ecx

; 242  : 			{	// construct with offset _Off in *_Pdeque

  00000	8b 54 24 04	 mov	 edx, DWORD PTR __Off$[esp-4]
  00004	8b c1		 mov	 eax, ecx
  00006	8b 4c 24 08	 mov	 ecx, DWORD PTR __Pdeque$[esp-4]
  0000a	89 08		 mov	 DWORD PTR [eax], ecx
  0000c	89 50 04	 mov	 DWORD PTR [eax+4], edx

; 243  : 			}

  0000f	c2 08 00	 ret	 8
??0iterator@?$deque@PAV?$CMyBucket@P8CDPMonitor@@AEXAAVCAr@@K@Z@@V?$allocator@PAV?$CMyBucket@P8CDPMonitor@@AEXAAVCAr@@K@Z@@@std@@@std@@QAE@IPBV12@@Z ENDP ; std::deque<CMyBucket<void (__thiscall CDPMonitor::*)(CAr &,unsigned long)> *,std::allocator<CMyBucket<void (__thiscall CDPMonitor::*)(CAr &,unsigned long)> *> >::iterator::iterator
_TEXT	ENDS
PUBLIC	??Ziterator@?$deque@PAV?$CMyBucket@P8CDPMonitor@@AEXAAVCAr@@K@Z@@V?$allocator@PAV?$CMyBucket@P8CDPMonitor@@AEXAAVCAr@@K@Z@@@std@@@std@@QAEAAV012@H@Z ; std::deque<CMyBucket<void (__thiscall CDPMonitor::*)(CAr &,unsigned long)> *,std::allocator<CMyBucket<void (__thiscall CDPMonitor::*)(CAr &,unsigned long)> *> >::iterator::operator-=
; Function compile flags: /Ogty
;	COMDAT ??Ziterator@?$deque@PAV?$CMyBucket@P8CDPMonitor@@AEXAAVCAr@@K@Z@@V?$allocator@PAV?$CMyBucket@P8CDPMonitor@@AEXAAVCAr@@K@Z@@@std@@@std@@QAEAAV012@H@Z
_TEXT	SEGMENT
__Off$ = 8						; size = 4
??Ziterator@?$deque@PAV?$CMyBucket@P8CDPMonitor@@AEXAAVCAr@@K@Z@@V?$allocator@PAV?$CMyBucket@P8CDPMonitor@@AEXAAVCAr@@K@Z@@@std@@@std@@QAEAAV012@H@Z PROC NEAR ; std::deque<CMyBucket<void (__thiscall CDPMonitor::*)(CAr &,unsigned long)> *,std::allocator<CMyBucket<void (__thiscall CDPMonitor::*)(CAr &,unsigned long)> *> >::iterator::operator-=, COMDAT
; _this$ = ecx

; 294  : 			{	// decrement by integer

  00000	8b c1		 mov	 eax, ecx

; 295  : 			return (*this += -_Off);

  00002	8b 50 04	 mov	 edx, DWORD PTR [eax+4]
  00005	8b 4c 24 04	 mov	 ecx, DWORD PTR __Off$[esp-4]
  00009	2b d1		 sub	 edx, ecx
  0000b	89 50 04	 mov	 DWORD PTR [eax+4], edx

; 296  : 			}

  0000e	c2 04 00	 ret	 4
??Ziterator@?$deque@PAV?$CMyBucket@P8CDPMonitor@@AEXAAVCAr@@K@Z@@V?$allocator@PAV?$CMyBucket@P8CDPMonitor@@AEXAAVCAr@@K@Z@@@std@@@std@@QAEAAV012@H@Z ENDP ; std::deque<CMyBucket<void (__thiscall CDPMonitor::*)(CAr &,unsigned long)> *,std::allocator<CMyBucket<void (__thiscall CDPMonitor::*)(CAr &,unsigned long)> *> >::iterator::operator-=
_TEXT	ENDS
PUBLIC	?allocate@?$allocator@PAV?$CMyBucket@P8CDPMonitor@@AEXAAVCAr@@K@Z@@@std@@QAEPAPAV?$CMyBucket@P8CDPMonitor@@AEXAAVCAr@@K@Z@@I@Z ; std::allocator<CMyBucket<void (__thiscall CDPMonitor::*)(CAr &,unsigned long)> *>::allocate
; Function compile flags: /Ogty
; File c:\program files\microsoft visual studio .net 2003\vc7\include\xmemory
;	COMDAT ?allocate@?$allocator@PAV?$CMyBucket@P8CDPMonitor@@AEXAAVCAr@@K@Z@@@std@@QAEPAPAV?$CMyBucket@P8CDPMonitor@@AEXAAVCAr@@K@Z@@I@Z
_TEXT	SEGMENT
__Count$ = 8						; size = 4
?allocate@?$allocator@PAV?$CMyBucket@P8CDPMonitor@@AEXAAVCAr@@K@Z@@@std@@QAEPAPAV?$CMyBucket@P8CDPMonitor@@AEXAAVCAr@@K@Z@@I@Z PROC NEAR ; std::allocator<CMyBucket<void (__thiscall CDPMonitor::*)(CAr &,unsigned long)> *>::allocate, COMDAT
; _this$ = ecx

; 137  : 		return (_Allocate(_Count, (pointer)0));

  00000	8b 44 24 04	 mov	 eax, DWORD PTR __Count$[esp-4]
  00004	8d 0c 85 00 00
	00 00		 lea	 ecx, DWORD PTR [eax*4]
  0000b	51		 push	 ecx
  0000c	e8 00 00 00 00	 call	 ??2@YAPAXI@Z		; operator new
  00011	83 c4 04	 add	 esp, 4

; 138  : 		}

  00014	c2 04 00	 ret	 4
?allocate@?$allocator@PAV?$CMyBucket@P8CDPMonitor@@AEXAAVCAr@@K@Z@@@std@@QAEPAPAV?$CMyBucket@P8CDPMonitor@@AEXAAVCAr@@K@Z@@I@Z ENDP ; std::allocator<CMyBucket<void (__thiscall CDPMonitor::*)(CAr &,unsigned long)> *>::allocate
_TEXT	ENDS
PUBLIC	?construct@?$allocator@PAV?$CMyBucket@P8CDPMonitor@@AEXAAVCAr@@K@Z@@@std@@QAEXPAPAV?$CMyBucket@P8CDPMonitor@@AEXAAVCAr@@K@Z@@ABQAV3@@Z ; std::allocator<CMyBucket<void (__thiscall CDPMonitor::*)(CAr &,unsigned long)> *>::construct
; Function compile flags: /Ogty
;	COMDAT ?construct@?$allocator@PAV?$CMyBucket@P8CDPMonitor@@AEXAAVCAr@@K@Z@@@std@@QAEXPAPAV?$CMyBucket@P8CDPMonitor@@AEXAAVCAr@@K@Z@@ABQAV3@@Z
_TEXT	SEGMENT
__Ptr$ = 8						; size = 4
__Val$ = 12						; size = 4
?construct@?$allocator@PAV?$CMyBucket@P8CDPMonitor@@AEXAAVCAr@@K@Z@@@std@@QAEXPAPAV?$CMyBucket@P8CDPMonitor@@AEXAAVCAr@@K@Z@@ABQAV3@@Z PROC NEAR ; std::allocator<CMyBucket<void (__thiscall CDPMonitor::*)(CAr &,unsigned long)> *>::construct, COMDAT
; _this$ = ecx

; 147  : 		_Construct(_Ptr, _Val);

  00000	8b 44 24 04	 mov	 eax, DWORD PTR __Ptr$[esp-4]
  00004	85 c0		 test	 eax, eax
  00006	74 08		 je	 SHORT $L160432
  00008	8b 4c 24 08	 mov	 ecx, DWORD PTR __Val$[esp-4]
  0000c	8b 11		 mov	 edx, DWORD PTR [ecx]
  0000e	89 10		 mov	 DWORD PTR [eax], edx
$L160432:

; 148  : 		}

  00010	c2 08 00	 ret	 8
?construct@?$allocator@PAV?$CMyBucket@P8CDPMonitor@@AEXAAVCAr@@K@Z@@@std@@QAEXPAPAV?$CMyBucket@P8CDPMonitor@@AEXAAVCAr@@K@Z@@ABQAV3@@Z ENDP ; std::allocator<CMyBucket<void (__thiscall CDPMonitor::*)(CAr &,unsigned long)> *>::construct
_TEXT	ENDS
PUBLIC	?_Buynode@?$list@PAV?$CMyBucket@P8CDPMonitor@@AEXAAVCAr@@K@Z@@V?$allocator@PAV?$CMyBucket@P8CDPMonitor@@AEXAAVCAr@@K@Z@@@std@@@std@@IAEPAU_Node@?$_List_nod@PAV?$CMyBucket@P8CDPMonitor@@AEXAAVCAr@@K@Z@@V?$allocator@PAV?$CMyBucket@P8CDPMonitor@@AEXAAVCAr@@K@Z@@@std@@@2@PAU342@0ABQAV?$CMyBucket@P8CDPMonitor@@AEXAAVCAr@@K@Z@@@Z ; std::list<CMyBucket<void (__thiscall CDPMonitor::*)(CAr &,unsigned long)> *,std::allocator<CMyBucket<void (__thiscall CDPMonitor::*)(CAr &,unsigned long)> *> >::_Buynode
EXTRN	__CxxThrowException@8:NEAR
; Function compile flags: /Ogty
; File c:\program files\microsoft visual studio .net 2003\vc7\include\list
;	COMDAT ?_Buynode@?$list@PAV?$CMyBucket@P8CDPMonitor@@AEXAAVCAr@@K@Z@@V?$allocator@PAV?$CMyBucket@P8CDPMonitor@@AEXAAVCAr@@K@Z@@@std@@@std@@IAEPAU_Node@?$_List_nod@PAV?$CMyBucket@P8CDPMonitor@@AEXAAVCAr@@K@Z@@V?$allocator@PAV?$CMyBucket@P8CDPMonitor@@AEXAAVCAr@@K@Z@@@std@@@2@PAU342@0ABQAV?$CMyBucket@P8CDPMonitor@@AEXAAVCAr@@K@Z@@@Z
_TEXT	SEGMENT
__Next$ = 8						; size = 4
__Prev$ = 12						; size = 4
__Val$ = 16						; size = 4
?_Buynode@?$list@PAV?$CMyBucket@P8CDPMonitor@@AEXAAVCAr@@K@Z@@V?$allocator@PAV?$CMyBucket@P8CDPMonitor@@AEXAAVCAr@@K@Z@@@std@@@std@@IAEPAU_Node@?$_List_nod@PAV?$CMyBucket@P8CDPMonitor@@AEXAAVCAr@@K@Z@@V?$allocator@PAV?$CMyBucket@P8CDPMonitor@@AEXAAVCAr@@K@Z@@@std@@@2@PAU342@0ABQAV?$CMyBucket@P8CDPMonitor@@AEXAAVCAr@@K@Z@@@Z PROC NEAR ; std::list<CMyBucket<void (__thiscall CDPMonitor::*)(CAr &,unsigned long)> *,std::allocator<CMyBucket<void (__thiscall CDPMonitor::*)(CAr &,unsigned long)> *> >::_Buynode, COMDAT
; _this$ = ecx

; 918  : 		_Nodeptr _Pnode = this->_Alnod.allocate(1);

  00000	6a 0c		 push	 12			; 0000000cH
  00002	e8 00 00 00 00	 call	 ??2@YAPAXI@Z		; operator new
  00007	83 c4 04	 add	 esp, 4

; 919  : 		_TRY_BEGIN
; 920  : 		new ((void *)_Pnode) _Node(_Next, _Prev, _Val);

  0000a	85 c0		 test	 eax, eax
  0000c	74 16		 je	 SHORT $L160442
  0000e	8b 4c 24 04	 mov	 ecx, DWORD PTR __Next$[esp-4]
  00012	8b 54 24 08	 mov	 edx, DWORD PTR __Prev$[esp-4]
  00016	89 08		 mov	 DWORD PTR [eax], ecx
  00018	8b 4c 24 0c	 mov	 ecx, DWORD PTR __Val$[esp-4]
  0001c	89 50 04	 mov	 DWORD PTR [eax+4], edx
  0001f	8b 11		 mov	 edx, DWORD PTR [ecx]
  00021	89 50 08	 mov	 DWORD PTR [eax+8], edx
$L160442:

; 921  : 		_CATCH_ALL
; 922  : 		this->_Alnod.deallocate(_Pnode, 1);
; 923  : 		_RERAISE;
; 924  : 		_CATCH_END
; 925  : 		return (_Pnode);
; 926  : 		}

  00024	c2 0c 00	 ret	 12			; 0000000cH
?_Buynode@?$list@PAV?$CMyBucket@P8CDPMonitor@@AEXAAVCAr@@K@Z@@V?$allocator@PAV?$CMyBucket@P8CDPMonitor@@AEXAAVCAr@@K@Z@@@std@@@std@@IAEPAU_Node@?$_List_nod@PAV?$CMyBucket@P8CDPMonitor@@AEXAAVCAr@@K@Z@@V?$allocator@PAV?$CMyBucket@P8CDPMonitor@@AEXAAVCAr@@K@Z@@@std@@@2@PAU342@0ABQAV?$CMyBucket@P8CDPMonitor@@AEXAAVCAr@@K@Z@@@Z ENDP ; std::list<CMyBucket<void (__thiscall CDPMonitor::*)(CAr &,unsigned long)> *,std::allocator<CMyBucket<void (__thiscall CDPMonitor::*)(CAr &,unsigned long)> *> >::_Buynode
_TEXT	ENDS
PUBLIC	?max_size@?$deque@PAV?$CMyBucket@P8CDPMonitor@@AEXAAVCAr@@K@Z@@V?$allocator@PAV?$CMyBucket@P8CDPMonitor@@AEXAAVCAr@@K@Z@@@std@@@std@@QBEIXZ ; std::deque<CMyBucket<void (__thiscall CDPMonitor::*)(CAr &,unsigned long)> *,std::allocator<CMyBucket<void (__thiscall CDPMonitor::*)(CAr &,unsigned long)> *> >::max_size
; Function compile flags: /Ogty
; File c:\program files\microsoft visual studio .net 2003\vc7\include\deque
;	COMDAT ?max_size@?$deque@PAV?$CMyBucket@P8CDPMonitor@@AEXAAVCAr@@K@Z@@V?$allocator@PAV?$CMyBucket@P8CDPMonitor@@AEXAAVCAr@@K@Z@@@std@@@std@@QBEIXZ
_TEXT	SEGMENT
?max_size@?$deque@PAV?$CMyBucket@P8CDPMonitor@@AEXAAVCAr@@K@Z@@V?$allocator@PAV?$CMyBucket@P8CDPMonitor@@AEXAAVCAr@@K@Z@@@std@@@std@@QBEIXZ PROC NEAR ; std::deque<CMyBucket<void (__thiscall CDPMonitor::*)(CAr &,unsigned long)> *,std::allocator<CMyBucket<void (__thiscall CDPMonitor::*)(CAr &,unsigned long)> *> >::max_size, COMDAT
; _this$ = ecx

; 497  : 		return (this->_Alval.max_size());

  00000	b8 ff ff ff 3f	 mov	 eax, 1073741823		; 3fffffffH

; 498  : 		}

  00005	c3		 ret	 0
?max_size@?$deque@PAV?$CMyBucket@P8CDPMonitor@@AEXAAVCAr@@K@Z@@V?$allocator@PAV?$CMyBucket@P8CDPMonitor@@AEXAAVCAr@@K@Z@@@std@@@std@@QBEIXZ ENDP ; std::deque<CMyBucket<void (__thiscall CDPMonitor::*)(CAr &,unsigned long)> *,std::allocator<CMyBucket<void (__thiscall CDPMonitor::*)(CAr &,unsigned long)> *> >::max_size
_TEXT	ENDS
PUBLIC	?allocate@?$allocator@PAPAV?$CMyBucket@P8CDPMonitor@@AEXAAVCAr@@K@Z@@@std@@QAEPAPAPAV?$CMyBucket@P8CDPMonitor@@AEXAAVCAr@@K@Z@@I@Z ; std::allocator<CMyBucket<void (__thiscall CDPMonitor::*)(CAr &,unsigned long)> * *>::allocate
; Function compile flags: /Ogty
; File c:\program files\microsoft visual studio .net 2003\vc7\include\xmemory
;	COMDAT ?allocate@?$allocator@PAPAV?$CMyBucket@P8CDPMonitor@@AEXAAVCAr@@K@Z@@@std@@QAEPAPAPAV?$CMyBucket@P8CDPMonitor@@AEXAAVCAr@@K@Z@@I@Z
_TEXT	SEGMENT
__Count$ = 8						; size = 4
?allocate@?$allocator@PAPAV?$CMyBucket@P8CDPMonitor@@AEXAAVCAr@@K@Z@@@std@@QAEPAPAPAV?$CMyBucket@P8CDPMonitor@@AEXAAVCAr@@K@Z@@I@Z PROC NEAR ; std::allocator<CMyBucket<void (__thiscall CDPMonitor::*)(CAr &,unsigned long)> * *>::allocate, COMDAT
; _this$ = ecx

; 137  : 		return (_Allocate(_Count, (pointer)0));

  00000	8b 44 24 04	 mov	 eax, DWORD PTR __Count$[esp-4]
  00004	8d 0c 85 00 00
	00 00		 lea	 ecx, DWORD PTR [eax*4]
  0000b	51		 push	 ecx
  0000c	e8 00 00 00 00	 call	 ??2@YAPAXI@Z		; operator new
  00011	83 c4 04	 add	 esp, 4

; 138  : 		}

  00014	c2 04 00	 ret	 4
?allocate@?$allocator@PAPAV?$CMyBucket@P8CDPMonitor@@AEXAAVCAr@@K@Z@@@std@@QAEPAPAPAV?$CMyBucket@P8CDPMonitor@@AEXAAVCAr@@K@Z@@I@Z ENDP ; std::allocator<CMyBucket<void (__thiscall CDPMonitor::*)(CAr &,unsigned long)> * *>::allocate
_TEXT	ENDS
PUBLIC	?max_size@?$list@PAV?$CMyBucket@P8CDPMonitor@@AEXAAVCAr@@K@Z@@V?$allocator@PAV?$CMyBucket@P8CDPMonitor@@AEXAAVCAr@@K@Z@@@std@@@std@@QBEIXZ ; std::list<CMyBucket<void (__thiscall CDPMonitor::*)(CAr &,unsigned long)> *,std::allocator<CMyBucket<void (__thiscall CDPMonitor::*)(CAr &,unsigned long)> *> >::max_size
; Function compile flags: /Ogty
; File c:\program files\microsoft visual studio .net 2003\vc7\include\list
;	COMDAT ?max_size@?$list@PAV?$CMyBucket@P8CDPMonitor@@AEXAAVCAr@@K@Z@@V?$allocator@PAV?$CMyBucket@P8CDPMonitor@@AEXAAVCAr@@K@Z@@@std@@@std@@QBEIXZ
_TEXT	SEGMENT
?max_size@?$list@PAV?$CMyBucket@P8CDPMonitor@@AEXAAVCAr@@K@Z@@V?$allocator@PAV?$CMyBucket@P8CDPMonitor@@AEXAAVCAr@@K@Z@@@std@@@std@@QBEIXZ PROC NEAR ; std::list<CMyBucket<void (__thiscall CDPMonitor::*)(CAr &,unsigned long)> *,std::allocator<CMyBucket<void (__thiscall CDPMonitor::*)(CAr &,unsigned long)> *> >::max_size, COMDAT
; _this$ = ecx

; 436  : 		return (this->_Alval.max_size());

  00000	b8 ff ff ff 3f	 mov	 eax, 1073741823		; 3fffffffH

; 437  : 		}

  00005	c3		 ret	 0
?max_size@?$list@PAV?$CMyBucket@P8CDPMonitor@@AEXAAVCAr@@K@Z@@V?$allocator@PAV?$CMyBucket@P8CDPMonitor@@AEXAAVCAr@@K@Z@@@std@@@std@@QBEIXZ ENDP ; std::list<CMyBucket<void (__thiscall CDPMonitor::*)(CAr &,unsigned long)> *,std::allocator<CMyBucket<void (__thiscall CDPMonitor::*)(CAr &,unsigned long)> *> >::max_size
_TEXT	ENDS
PUBLIC	??$_Uninitialized_copy@PAPAPAV?$CMyBucket@P8CDPMonitor@@AEXAAVCAr@@K@Z@@PAPAPAV1@V?$allocator@PAPAV?$CMyBucket@P8CDPMonitor@@AEXAAVCAr@@K@Z@@@std@@@std@@YAPAPAPAV?$CMyBucket@P8CDPMonitor@@AEXAAVCAr@@K@Z@@PAPAPAV1@00AAV?$allocator@PAPAV?$CMyBucket@P8CDPMonitor@@AEXAAVCAr@@K@Z@@@0@@Z ; std::_Uninitialized_copy<CMyBucket<void (__thiscall CDPMonitor::*)(CAr &,unsigned long)> * * *,CMyBucket<void (__thiscall CDPMonitor::*)(CAr &,unsigned long)> * * *,std::allocator<CMyBucket<void (__thiscall CDPMonitor::*)(CAr &,unsigned long)> * *> >
; Function compile flags: /Ogty
; File c:\program files\microsoft visual studio .net 2003\vc7\include\memory
;	COMDAT ??$_Uninitialized_copy@PAPAPAV?$CMyBucket@P8CDPMonitor@@AEXAAVCAr@@K@Z@@PAPAPAV1@V?$allocator@PAPAV?$CMyBucket@P8CDPMonitor@@AEXAAVCAr@@K@Z@@@std@@@std@@YAPAPAPAV?$CMyBucket@P8CDPMonitor@@AEXAAVCAr@@K@Z@@PAPAPAV1@00AAV?$allocator@PAPAV?$CMyBucket@P8CDPMonitor@@AEXAAVCAr@@K@Z@@@0@@Z
_TEXT	SEGMENT
__First$ = 8						; size = 4
__Last$ = 12						; size = 4
__Dest$ = 16						; size = 4
__Al$ = 20						; size = 4
??$_Uninitialized_copy@PAPAPAV?$CMyBucket@P8CDPMonitor@@AEXAAVCAr@@K@Z@@PAPAPAV1@V?$allocator@PAPAV?$CMyBucket@P8CDPMonitor@@AEXAAVCAr@@K@Z@@@std@@@std@@YAPAPAPAV?$CMyBucket@P8CDPMonitor@@AEXAAVCAr@@K@Z@@PAPAPAV1@00AAV?$allocator@PAPAV?$CMyBucket@P8CDPMonitor@@AEXAAVCAr@@K@Z@@@0@@Z PROC NEAR ; std::_Uninitialized_copy<CMyBucket<void (__thiscall CDPMonitor::*)(CAr &,unsigned long)> * * *,CMyBucket<void (__thiscall CDPMonitor::*)(CAr &,unsigned long)> * * *,std::allocator<CMyBucket<void (__thiscall CDPMonitor::*)(CAr &,unsigned long)> * *> >, COMDAT

; 127  : 	return (_Uninit_copy(_First, _Last, _Dest, _Al,
; 128  : 		_Ptr_cat(_First, _Dest)));

  00000	8b 4c 24 04	 mov	 ecx, DWORD PTR __First$[esp-4]
  00004	8b 44 24 08	 mov	 eax, DWORD PTR __Last$[esp-4]
  00008	2b c1		 sub	 eax, ecx
  0000a	56		 push	 esi
  0000b	c1 f8 02	 sar	 eax, 2
  0000e	8d 34 85 00 00
	00 00		 lea	 esi, DWORD PTR [eax*4]
  00015	8b 44 24 10	 mov	 eax, DWORD PTR __Dest$[esp]
  00019	56		 push	 esi
  0001a	51		 push	 ecx
  0001b	50		 push	 eax
  0001c	e8 00 00 00 00	 call	 _memmove
  00021	83 c4 0c	 add	 esp, 12			; 0000000cH
  00024	03 c6		 add	 eax, esi
  00026	5e		 pop	 esi

; 129  : 	}

  00027	c3		 ret	 0
??$_Uninitialized_copy@PAPAPAV?$CMyBucket@P8CDPMonitor@@AEXAAVCAr@@K@Z@@PAPAPAV1@V?$allocator@PAPAV?$CMyBucket@P8CDPMonitor@@AEXAAVCAr@@K@Z@@@std@@@std@@YAPAPAPAV?$CMyBucket@P8CDPMonitor@@AEXAAVCAr@@K@Z@@PAPAPAV1@00AAV?$allocator@PAPAV?$CMyBucket@P8CDPMonitor@@AEXAAVCAr@@K@Z@@@0@@Z ENDP ; std::_Uninitialized_copy<CMyBucket<void (__thiscall CDPMonitor::*)(CAr &,unsigned long)> * * *,CMyBucket<void (__thiscall CDPMonitor::*)(CAr &,unsigned long)> * * *,std::allocator<CMyBucket<void (__thiscall CDPMonitor::*)(CAr &,unsigned long)> * *> >
_TEXT	ENDS
PUBLIC	??$_Destroy_range@PAPAV?$CMyBucket@P8CDPMonitor@@AEXAAVCAr@@K@Z@@V?$allocator@PAPAV?$CMyBucket@P8CDPMonitor@@AEXAAVCAr@@K@Z@@@std@@@std@@YAXPAPAPAV?$CMyBucket@P8CDPMonitor@@AEXAAVCAr@@K@Z@@0AAV?$allocator@PAPAV?$CMyBucket@P8CDPMonitor@@AEXAAVCAr@@K@Z@@@0@@Z ; std::_Destroy_range<CMyBucket<void (__thiscall CDPMonitor::*)(CAr &,unsigned long)> * *,std::allocator<CMyBucket<void (__thiscall CDPMonitor::*)(CAr &,unsigned long)> * *> >
; Function compile flags: /Ogty
; File c:\program files\microsoft visual studio .net 2003\vc7\include\xmemory
;	COMDAT ??$_Destroy_range@PAPAV?$CMyBucket@P8CDPMonitor@@AEXAAVCAr@@K@Z@@V?$allocator@PAPAV?$CMyBucket@P8CDPMonitor@@AEXAAVCAr@@K@Z@@@std@@@std@@YAXPAPAPAV?$CMyBucket@P8CDPMonitor@@AEXAAVCAr@@K@Z@@0AAV?$allocator@PAPAV?$CMyBucket@P8CDPMonitor@@AEXAAVCAr@@K@Z@@@0@@Z
_TEXT	SEGMENT
__First$ = 8						; size = 4
__Last$ = 12						; size = 4
__Al$ = 16						; size = 4
??$_Destroy_range@PAPAV?$CMyBucket@P8CDPMonitor@@AEXAAVCAr@@K@Z@@V?$allocator@PAPAV?$CMyBucket@P8CDPMonitor@@AEXAAVCAr@@K@Z@@@std@@@std@@YAXPAPAPAV?$CMyBucket@P8CDPMonitor@@AEXAAVCAr@@K@Z@@0AAV?$allocator@PAPAV?$CMyBucket@P8CDPMonitor@@AEXAAVCAr@@K@Z@@@0@@Z PROC NEAR ; std::_Destroy_range<CMyBucket<void (__thiscall CDPMonitor::*)(CAr &,unsigned long)> * *,std::allocator<CMyBucket<void (__thiscall CDPMonitor::*)(CAr &,unsigned long)> * *> >, COMDAT

; 217  : 	_Destroy_range(_First, _Last, _Al, _Ptr_cat(_First, _Last));
; 218  : 	}

  00000	c3		 ret	 0
??$_Destroy_range@PAPAV?$CMyBucket@P8CDPMonitor@@AEXAAVCAr@@K@Z@@V?$allocator@PAPAV?$CMyBucket@P8CDPMonitor@@AEXAAVCAr@@K@Z@@@std@@@std@@YAXPAPAPAV?$CMyBucket@P8CDPMonitor@@AEXAAVCAr@@K@Z@@0AAV?$allocator@PAPAV?$CMyBucket@P8CDPMonitor@@AEXAAVCAr@@K@Z@@@0@@Z ENDP ; std::_Destroy_range<CMyBucket<void (__thiscall CDPMonitor::*)(CAr &,unsigned long)> * *,std::allocator<CMyBucket<void (__thiscall CDPMonitor::*)(CAr &,unsigned long)> * *> >
_TEXT	ENDS
PUBLIC	??$_Uninit_fill_n@PAPAV?$CMyBucket@P8CDPMonitor@@AEXAAVCAr@@K@Z@@IPAPAV1@@std@@YAXPAPAPAV?$CMyBucket@P8CDPMonitor@@AEXAAVCAr@@K@Z@@IABQAPAV1@AAV?$allocator@PAPAV?$CMyBucket@P8CDPMonitor@@AEXAAVCAr@@K@Z@@@0@U_Scalar_ptr_iterator_tag@0@@Z ; std::_Uninit_fill_n<CMyBucket<void (__thiscall CDPMonitor::*)(CAr &,unsigned long)> * *,unsigned int,CMyBucket<void (__thiscall CDPMonitor::*)(CAr &,unsigned long)> * *>
; Function compile flags: /Ogty
; File c:\program files\microsoft visual studio .net 2003\vc7\include\memory
;	COMDAT ??$_Uninit_fill_n@PAPAV?$CMyBucket@P8CDPMonitor@@AEXAAVCAr@@K@Z@@IPAPAV1@@std@@YAXPAPAPAV?$CMyBucket@P8CDPMonitor@@AEXAAVCAr@@K@Z@@IABQAPAV1@AAV?$allocator@PAPAV?$CMyBucket@P8CDPMonitor@@AEXAAVCAr@@K@Z@@@0@U_Scalar_ptr_iterator_tag@0@@Z
_TEXT	SEGMENT
__First$ = 8						; size = 4
__Count$ = 12						; size = 4
__Val$ = 16						; size = 4
___formal$ = 20						; size = 4
___formal$ = 24						; size = 1
??$_Uninit_fill_n@PAPAV?$CMyBucket@P8CDPMonitor@@AEXAAVCAr@@K@Z@@IPAPAV1@@std@@YAXPAPAPAV?$CMyBucket@P8CDPMonitor@@AEXAAVCAr@@K@Z@@IABQAPAV1@AAV?$allocator@PAPAV?$CMyBucket@P8CDPMonitor@@AEXAAVCAr@@K@Z@@@0@U_Scalar_ptr_iterator_tag@0@@Z PROC NEAR ; std::_Uninit_fill_n<CMyBucket<void (__thiscall CDPMonitor::*)(CAr &,unsigned long)> * *,unsigned int,CMyBucket<void (__thiscall CDPMonitor::*)(CAr &,unsigned long)> * *>, COMDAT

; 237  : 	fill_n(_First, _Count, _Val);

  00000	8b 4c 24 08	 mov	 ecx, DWORD PTR __Count$[esp-4]
  00004	85 c9		 test	 ecx, ecx
  00006	8b 44 24 04	 mov	 eax, DWORD PTR __First$[esp-4]
  0000a	76 10		 jbe	 SHORT $L160528
  0000c	8b 54 24 0c	 mov	 edx, DWORD PTR __Val$[esp-4]
  00010	56		 push	 esi
$L160526:
  00011	8b 32		 mov	 esi, DWORD PTR [edx]
  00013	89 30		 mov	 DWORD PTR [eax], esi
  00015	83 c0 04	 add	 eax, 4
  00018	49		 dec	 ecx
  00019	75 f6		 jne	 SHORT $L160526
  0001b	5e		 pop	 esi
$L160528:

; 238  : 	}

  0001c	c3		 ret	 0
??$_Uninit_fill_n@PAPAV?$CMyBucket@P8CDPMonitor@@AEXAAVCAr@@K@Z@@IPAPAV1@@std@@YAXPAPAPAV?$CMyBucket@P8CDPMonitor@@AEXAAVCAr@@K@Z@@IABQAPAV1@AAV?$allocator@PAPAV?$CMyBucket@P8CDPMonitor@@AEXAAVCAr@@K@Z@@@0@U_Scalar_ptr_iterator_tag@0@@Z ENDP ; std::_Uninit_fill_n<CMyBucket<void (__thiscall CDPMonitor::*)(CAr &,unsigned long)> * *,unsigned int,CMyBucket<void (__thiscall CDPMonitor::*)(CAr &,unsigned long)> * *>
_TEXT	ENDS
PUBLIC	?GetLength@?$CSimpleStringT@D$0A@@ATL@@QBEHXZ	; ATL::CSimpleStringT<char,0>::GetLength
; Function compile flags: /Ogty
; File c:\program files\microsoft visual studio .net 2003\vc7\atlmfc\include\atlsimpstr.h
;	COMDAT ?GetLength@?$CSimpleStringT@D$0A@@ATL@@QBEHXZ
_TEXT	SEGMENT
?GetLength@?$CSimpleStringT@D$0A@@ATL@@QBEHXZ PROC NEAR	; ATL::CSimpleStringT<char,0>::GetLength, COMDAT
; _this$ = ecx

; 501  : 		return( GetData()->nDataLength );

  00000	8b 01		 mov	 eax, DWORD PTR [ecx]
  00002	8b 40 f4	 mov	 eax, DWORD PTR [eax-12]

; 502  : 	}

  00005	c3		 ret	 0
?GetLength@?$CSimpleStringT@D$0A@@ATL@@QBEHXZ ENDP	; ATL::CSimpleStringT<char,0>::GetLength
_TEXT	ENDS
PUBLIC	??1?$CSimpleStringT@D$0A@@ATL@@QAE@XZ		; ATL::CSimpleStringT<char,0>::~CSimpleStringT<char,0>
; Function compile flags: /Ogty
;	COMDAT ??1?$CSimpleStringT@D$0A@@ATL@@QAE@XZ
_TEXT	SEGMENT
??1?$CSimpleStringT@D$0A@@ATL@@QAE@XZ PROC NEAR		; ATL::CSimpleStringT<char,0>::~CSimpleStringT<char,0>, COMDAT
; _this$ = ecx

; 263  : 		CStringData* pData = GetData();

  00000	8b 01		 mov	 eax, DWORD PTR [ecx]
  00002	83 e8 10	 sub	 eax, 16			; 00000010H

; 264  : 		pData->Release();

  00005	8d 48 0c	 lea	 ecx, DWORD PTR [eax+12]
  00008	83 ca ff	 or	 edx, -1
  0000b	f0 0f c1 11	 lock	  xadd	 DWORD PTR [ecx], edx
  0000f	4a		 dec	 edx
  00010	85 d2		 test	 edx, edx
  00012	7f 08		 jg	 SHORT $L160548
  00014	8b 08		 mov	 ecx, DWORD PTR [eax]
  00016	8b 11		 mov	 edx, DWORD PTR [ecx]
  00018	50		 push	 eax
  00019	ff 52 04	 call	 DWORD PTR [edx+4]
$L160548:

; 265  : 	}

  0001c	c3		 ret	 0
??1?$CSimpleStringT@D$0A@@ATL@@QAE@XZ ENDP		; ATL::CSimpleStringT<char,0>::~CSimpleStringT<char,0>
_TEXT	ENDS
PUBLIC	?ReleaseBufferSetLength@?$CSimpleStringT@D$0A@@ATL@@QAEXH@Z ; ATL::CSimpleStringT<char,0>::ReleaseBufferSetLength
; Function compile flags: /Ogty
;	COMDAT ?ReleaseBufferSetLength@?$CSimpleStringT@D$0A@@ATL@@QAEXH@Z
_TEXT	SEGMENT
_nNewLength$ = 8					; size = 4
?ReleaseBufferSetLength@?$CSimpleStringT@D$0A@@ATL@@QAEXH@Z PROC NEAR ; ATL::CSimpleStringT<char,0>::ReleaseBufferSetLength, COMDAT
; _this$ = ecx

; 547  : 		ATLASSERT( nNewLength >= 0 );
; 548  : 		SetLength( nNewLength );

  00000	8b 44 24 04	 mov	 eax, DWORD PTR _nNewLength$[esp-4]
  00004	85 c0		 test	 eax, eax
  00006	7c 13		 jl	 SHORT $L160567
  00008	8b 11		 mov	 edx, DWORD PTR [ecx]
  0000a	3b 42 f8	 cmp	 eax, DWORD PTR [edx-8]
  0000d	7f 0c		 jg	 SHORT $L160567
  0000f	89 42 f4	 mov	 DWORD PTR [edx-12], eax
  00012	8b 09		 mov	 ecx, DWORD PTR [ecx]
  00014	c6 04 08 00	 mov	 BYTE PTR [eax+ecx], 0

; 549  : 	}

  00018	c2 04 00	 ret	 4
$L160567:
  0001b	68 57 00 07 80	 push	 -2147024809		; 80070057H
  00020	e8 00 00 00 00	 call	 ?AtlThrow@ATL@@YGXJ@Z	; ATL::AtlThrow
$L160570:
$L160569:
  00025	cc		 int	 3
?ReleaseBufferSetLength@?$CSimpleStringT@D$0A@@ATL@@QAEXH@Z ENDP ; ATL::CSimpleStringT<char,0>::ReleaseBufferSetLength
_TEXT	ENDS
PUBLIC	??0?$_String_val@DV?$allocator@D@std@@@std@@IAE@V?$allocator@D@1@@Z ; std::_String_val<char,std::allocator<char> >::_String_val<char,std::allocator<char> >
; Function compile flags: /Ogty
; File c:\program files\microsoft visual studio .net 2003\vc7\include\xstring
;	COMDAT ??0?$_String_val@DV?$allocator@D@std@@@std@@IAE@V?$allocator@D@1@@Z
_TEXT	SEGMENT
__Al$ = 8						; size = 1
??0?$_String_val@DV?$allocator@D@std@@@std@@IAE@V?$allocator@D@1@@Z PROC NEAR ; std::_String_val<char,std::allocator<char> >::_String_val<char,std::allocator<char> >, COMDAT
; _this$ = ecx

; 34   : 		{	// construct allocator from _Al

  00000	8b c1		 mov	 eax, ecx

; 35   : 		}

  00002	c2 04 00	 ret	 4
??0?$_String_val@DV?$allocator@D@std@@@std@@IAE@V?$allocator@D@1@@Z ENDP ; std::_String_val<char,std::allocator<char> >::_String_val<char,std::allocator<char> >
_TEXT	ENDS
PUBLIC	?PrepareWrite2@?$CSimpleStringT@D$0A@@ATL@@AAEXH@Z ; ATL::CSimpleStringT<char,0>::PrepareWrite2
; Function compile flags: /Ogty
; File c:\program files\microsoft visual studio .net 2003\vc7\atlmfc\include\atlsimpstr.h
;	COMDAT ?PrepareWrite2@?$CSimpleStringT@D$0A@@ATL@@AAEXH@Z
_TEXT	SEGMENT
_nLength$ = 8						; size = 4
?PrepareWrite2@?$CSimpleStringT@D$0A@@ATL@@AAEXH@Z PROC NEAR ; ATL::CSimpleStringT<char,0>::PrepareWrite2, COMDAT
; _this$ = ecx

; 747  : 		CStringData* pOldData = GetData();

  00000	8b 01		 mov	 eax, DWORD PTR [ecx]

; 748  : 		if( pOldData->nDataLength > nLength )

  00002	8b 54 24 04	 mov	 edx, DWORD PTR _nLength$[esp-4]
  00006	83 e8 10	 sub	 eax, 16			; 00000010H
  00009	56		 push	 esi
  0000a	8b 70 04	 mov	 esi, DWORD PTR [eax+4]
  0000d	3b f2		 cmp	 esi, edx
  0000f	7e 02		 jle	 SHORT $L147693

; 749  : 		{
; 750  : 			nLength = pOldData->nDataLength;

  00011	8b d6		 mov	 edx, esi
$L147693:

; 751  : 		}
; 752  : 		if( pOldData->IsShared() )

  00013	83 78 0c 01	 cmp	 DWORD PTR [eax+12], 1
  00017	5e		 pop	 esi
  00018	7e 09		 jle	 SHORT $L147694

; 753  : 		{
; 754  : 			Fork( nLength );

  0001a	89 54 24 04	 mov	 DWORD PTR _nLength$[esp-4], edx
  0001e	e9 00 00 00 00	 jmp	 ?Fork@?$CSimpleStringT@D$0A@@ATL@@AAEXH@Z ; ATL::CSimpleStringT<char,0>::Fork
$L147694:

; 755  : 		}
; 756  : 		else if( pOldData->nAllocLength < nLength )

  00023	8b 40 08	 mov	 eax, DWORD PTR [eax+8]
  00026	3b c2		 cmp	 eax, edx
  00028	7d 1f		 jge	 SHORT $L147696

; 757  : 		{
; 758  : 			// Grow exponentially, until we hit 1K.
; 759  : 			int nNewLength = pOldData->nAllocLength;
; 760  : 			if( nNewLength > 1024 )

  0002a	3d 00 04 00 00	 cmp	 eax, 1024		; 00000400H
  0002f	7e 07		 jle	 SHORT $L147698

; 761  : 			{
; 762  : 				nNewLength += 1024;

  00031	05 00 04 00 00	 add	 eax, 1024		; 00000400H

; 763  : 			}
; 764  : 			else

  00036	eb 02		 jmp	 SHORT $L147699
$L147698:

; 765  : 			{
; 766  : 				nNewLength *= 2;

  00038	03 c0		 add	 eax, eax
$L147699:

; 767  : 			}
; 768  : 			if( nNewLength < nLength )

  0003a	3b c2		 cmp	 eax, edx
  0003c	7d 02		 jge	 SHORT $L147700

; 769  : 			{
; 770  : 				nNewLength = nLength;

  0003e	8b c2		 mov	 eax, edx
$L147700:

; 771  : 			}
; 772  : 			Reallocate( nNewLength );

  00040	89 44 24 04	 mov	 DWORD PTR _nLength$[esp-4], eax
  00044	e9 00 00 00 00	 jmp	 ?Reallocate@?$CSimpleStringT@D$0A@@ATL@@AAEXH@Z ; ATL::CSimpleStringT<char,0>::Reallocate
$L147696:

; 773  : 		}
; 774  : 	}

  00049	c2 04 00	 ret	 4
?PrepareWrite2@?$CSimpleStringT@D$0A@@ATL@@AAEXH@Z ENDP	; ATL::CSimpleStringT<char,0>::PrepareWrite2
_TEXT	ENDS
PUBLIC	?_Eos@?$basic_string@DU?$char_traits@D@std@@V?$allocator@D@2@@std@@IAEXI@Z ; std::basic_string<char,std::char_traits<char>,std::allocator<char> >::_Eos
; Function compile flags: /Ogty
; File c:\program files\microsoft visual studio .net 2003\vc7\include\xstring
;	COMDAT ?_Eos@?$basic_string@DU?$char_traits@D@std@@V?$allocator@D@2@@std@@IAEXI@Z
_TEXT	SEGMENT
__Newsize$ = 8						; size = 4
?_Eos@?$basic_string@DU?$char_traits@D@std@@V?$allocator@D@2@@std@@IAEXI@Z PROC NEAR ; std::basic_string<char,std::char_traits<char>,std::allocator<char> >::_Eos, COMDAT
; _this$ = ecx

; 1475 : 		_Traits::assign(_Myptr()[_Mysize = _Newsize], _Elem());

  00000	83 79 18 10	 cmp	 DWORD PTR [ecx+24], 16	; 00000010H
  00004	8b 44 24 04	 mov	 eax, DWORD PTR __Newsize$[esp-4]
  00008	89 41 14	 mov	 DWORD PTR [ecx+20], eax
  0000b	72 0a		 jb	 SHORT $L160595
  0000d	8b 49 04	 mov	 ecx, DWORD PTR [ecx+4]
  00010	c6 04 01 00	 mov	 BYTE PTR [ecx+eax], 0

; 1476 : 		}

  00014	c2 04 00	 ret	 4

; 1475 : 		_Traits::assign(_Myptr()[_Mysize = _Newsize], _Elem());

$L160595:
  00017	c6 44 01 04 00	 mov	 BYTE PTR [ecx+eax+4], 0

; 1476 : 		}

  0001c	c2 04 00	 ret	 4
?_Eos@?$basic_string@DU?$char_traits@D@std@@V?$allocator@D@2@@std@@IAEXI@Z ENDP ; std::basic_string<char,std::char_traits<char>,std::allocator<char> >::_Eos
_TEXT	ENDS
PUBLIC	?max_size@?$basic_string@DU?$char_traits@D@std@@V?$allocator@D@2@@std@@QBEIXZ ; std::basic_string<char,std::char_traits<char>,std::allocator<char> >::max_size
; Function compile flags: /Ogty
;	COMDAT ?max_size@?$basic_string@DU?$char_traits@D@std@@V?$allocator@D@2@@std@@QBEIXZ
_TEXT	SEGMENT
?max_size@?$basic_string@DU?$char_traits@D@std@@V?$allocator@D@2@@std@@QBEIXZ PROC NEAR ; std::basic_string<char,std::char_traits<char>,std::allocator<char> >::max_size, COMDAT
; _this$ = ecx

; 1114 : 		size_type _Num = _Mybase::_Alval.max_size();
; 1115 : 		return (_Num <= 1 ? 1 : _Num - 1);

  00000	b8 fe ff ff ff	 mov	 eax, -2			; fffffffeH

; 1116 : 		}

  00005	c3		 ret	 0
?max_size@?$basic_string@DU?$char_traits@D@std@@V?$allocator@D@2@@std@@QBEIXZ ENDP ; std::basic_string<char,std::char_traits<char>,std::allocator<char> >::max_size
_TEXT	ENDS
PUBLIC	?allocate@?$allocator@D@std@@QAEPADI@Z		; std::allocator<char>::allocate
; Function compile flags: /Ogty
; File c:\program files\microsoft visual studio .net 2003\vc7\include\xmemory
;	COMDAT ?allocate@?$allocator@D@std@@QAEPADI@Z
_TEXT	SEGMENT
__Count$ = 8						; size = 4
?allocate@?$allocator@D@std@@QAEPADI@Z PROC NEAR	; std::allocator<char>::allocate, COMDAT
; _this$ = ecx

; 137  : 		return (_Allocate(_Count, (pointer)0));

  00000	8b 44 24 04	 mov	 eax, DWORD PTR __Count$[esp-4]
  00004	50		 push	 eax
  00005	e8 00 00 00 00	 call	 ??2@YAPAXI@Z		; operator new
  0000a	83 c4 04	 add	 esp, 4

; 138  : 		}

  0000d	c2 04 00	 ret	 4
?allocate@?$allocator@D@std@@QAEPADI@Z ENDP		; std::allocator<char>::allocate
_TEXT	ENDS
PUBLIC	?GetHandler@CDPMonitor@@AAEP81@AEXAAVCAr@@K@ZK@Z ; CDPMonitor::GetHandler
; Function compile flags: /Ogty
; File c:\offi src_real\offi src!\monitor\dpmonitor.h
;	COMDAT ?GetHandler@CDPMonitor@@AAEP81@AEXAAVCAr@@K@ZK@Z
_TEXT	SEGMENT
_pfn$ = 8						; size = 4
_dwType$ = 8						; size = 4
?GetHandler@CDPMonitor@@AAEP81@AEXAAVCAr@@K@ZK@Z PROC NEAR ; CDPMonitor::GetHandler, COMDAT
; _this$ = ecx

; 27   : 	USES_PFNENTRIES;

  00000	8b 54 24 04	 mov	 edx, DWORD PTR _dwType$[esp-4]
  00004	8d 44 24 04	 lea	 eax, DWORD PTR _pfn$[esp-4]
  00008	50		 push	 eax
  00009	52		 push	 edx
  0000a	83 c1 14	 add	 ecx, 20			; 00000014H
  0000d	e8 00 00 00 00	 call	 ?Lookup@?$CMyMap@P8CDPMonitor@@AEXAAVCAr@@K@Z@@QAEHKAAP8CDPMonitor@@AEXAAVCAr@@K@Z@Z ; CMyMap<void (__thiscall CDPMonitor::*)(CAr &,unsigned long)>::Lookup
  00012	8b 4c 24 04	 mov	 ecx, DWORD PTR _pfn$[esp-4]
  00016	f7 d8		 neg	 eax
  00018	1b c0		 sbb	 eax, eax
  0001a	23 c1		 and	 eax, ecx
  0001c	c2 04 00	 ret	 4
?GetHandler@CDPMonitor@@AAEP81@AEXAAVCAr@@K@ZK@Z ENDP	; CDPMonitor::GetHandler
_TEXT	ENDS
PUBLIC	?SysMessageHandler@CDPMonitor@@UAEXPAUDPMSG_GENERIC@@KK@Z ; CDPMonitor::SysMessageHandler
; Function compile flags: /Ogty
; File c:\offi src_real\offi src!\monitor\dpmonitor.cpp
;	COMDAT ?SysMessageHandler@CDPMonitor@@UAEXPAUDPMSG_GENERIC@@KK@Z
_TEXT	SEGMENT
_lpMsg$ = 8						; size = 4
_dwMsgSize$ = 12					; size = 4
_dpid$ = 16						; size = 4
?SysMessageHandler@CDPMonitor@@UAEXPAUDPMSG_GENERIC@@KK@Z PROC NEAR ; CDPMonitor::SysMessageHandler, COMDAT
; _this$ = ecx

; 24   : 	switch( lpMsg->dwType )

  00000	8b 44 24 04	 mov	 eax, DWORD PTR _lpMsg$[esp-4]
  00004	83 38 05	 cmp	 DWORD PTR [eax], 5
  00007	75 09		 jne	 SHORT $L157254

; 25   : 	{
; 26   : 		case DPSYS_DESTROYPLAYERORGROUP:
; 27   : 			{
; 28   : 				LPDPMSG_DESTROYPLAYERORGROUP lpDestroyPlayer	= (LPDPMSG_DESTROYPLAYERORGROUP)lpMsg;
; 29   : 				OnRemoveConnection( lpDestroyPlayer->dpId );

  00009	8b 40 08	 mov	 eax, DWORD PTR [eax+8]
  0000c	50		 push	 eax
  0000d	e8 00 00 00 00	 call	 ?OnRemoveConnection@CDPMonitor@@AAEXK@Z ; CDPMonitor::OnRemoveConnection
$L157254:

; 30   : 				break;
; 31   : 			}
; 32   : 	}
; 33   : }

  00012	c2 0c 00	 ret	 12			; 0000000cH
?SysMessageHandler@CDPMonitor@@UAEXPAUDPMSG_GENERIC@@KK@Z ENDP ; CDPMonitor::SysMessageHandler
_TEXT	ENDS
PUBLIC	?UserMessageHandler@CDPMonitor@@UAEXPAUDPMSG_GENERIC@@KK@Z ; CDPMonitor::UserMessageHandler
EXTRN	??0CAr@@QAE@PAXI@Z:NEAR				; CAr::CAr
EXTRN	??1CAr@@QAE@XZ:NEAR				; CAr::~CAr
EXTRN	__except_list:DWORD
EXTRN	__chkstk:NEAR
EXTRN	___security_cookie:DWORD
EXTRN	@__security_check_cookie@4:NEAR
EXTRN	___CxxFrameHandler:NEAR
;	COMDAT xdata$x
; File c:\offi src_real\offi src!\monitor\dpmonitor.h
xdata$x	SEGMENT
$T160648 DD	0ffffffffH
	DD	FLAT:$L160629
$T160641 DD	019930520H
	DD	01H
	DD	FLAT:$T160648
	DD	2 DUP(00H)
	DD	2 DUP(00H)
; Function compile flags: /Ogty
; File c:\offi src_real\offi src!\monitor\dpmonitor.cpp
xdata$x	ENDS
;	COMDAT ?UserMessageHandler@CDPMonitor@@UAEXPAUDPMSG_GENERIC@@KK@Z
_TEXT	SEGMENT
_pfn$160637 = -16424					; size = 4
_ar$ = -16420						; size = 16404
__$ArrayPad$ = -16					; size = 4
__$EHRec$ = -12						; size = 12
__$ReturnAddr$ = 4					; size = 4
_lpMsg$ = 8						; size = 4
_dwMsgSize$ = 12					; size = 4
_dpid$ = 16						; size = 4
?UserMessageHandler@CDPMonitor@@UAEXPAUDPMSG_GENERIC@@KK@Z PROC NEAR ; CDPMonitor::UserMessageHandler, COMDAT
; _this$ = ecx

; 36   : {

  00000	6a ff		 push	 -1
  00002	64 a1 00 00 00
	00		 mov	 eax, DWORD PTR fs:__except_list
  00008	68 00 00 00 00	 push	 __ehhandler$?UserMessageHandler@CDPMonitor@@UAEXPAUDPMSG_GENERIC@@KK@Z
  0000d	50		 push	 eax
  0000e	b8 1c 40 00 00	 mov	 eax, 16412		; 0000401cH
  00013	64 89 25 00 00
	00 00		 mov	 DWORD PTR fs:__except_list, esp
  0001a	e8 00 00 00 00	 call	 __chkstk
  0001f	a1 00 00 00 00	 mov	 eax, DWORD PTR ___security_cookie
  00024	56		 push	 esi
  00025	89 84 24 1c 40
	00 00		 mov	 DWORD PTR __$ArrayPad$[esp+16428], eax

; 37   : 	CAr ar( (LPBYTE)lpMsg, dwMsgSize );

  0002c	8b 84 24 34 40
	00 00		 mov	 eax, DWORD PTR _dwMsgSize$[esp+16424]
  00033	8b f1		 mov	 esi, ecx
  00035	8b 8c 24 30 40
	00 00		 mov	 ecx, DWORD PTR _lpMsg$[esp+16424]
  0003c	50		 push	 eax
  0003d	51		 push	 ecx
  0003e	8d 4c 24 10	 lea	 ecx, DWORD PTR _ar$[esp+16436]
  00042	e8 00 00 00 00	 call	 ??0CAr@@QAE@PAXI@Z	; CAr::CAr

; 38   : 	GETTYPE( ar );

  00047	8b 4c 24 10	 mov	 ecx, DWORD PTR _ar$[esp+16436]
  0004b	8b 54 24 14	 mov	 edx, DWORD PTR _ar$[esp+16440]
  0004f	8d 41 04	 lea	 eax, DWORD PTR [ecx+4]
  00052	3b c2		 cmp	 eax, edx
  00054	c7 84 24 28 40
	00 00 00 00 00
	00		 mov	 DWORD PTR __$EHRec$[esp+16436], 0
  0005f	77 08		 ja	 SHORT $L160632
  00061	8b 09		 mov	 ecx, DWORD PTR [ecx]
  00063	89 44 24 10	 mov	 DWORD PTR _ar$[esp+16436], eax
  00067	eb 06		 jmp	 SHORT $L160633
$L160632:
  00069	33 c9		 xor	 ecx, ecx
  0006b	89 54 24 10	 mov	 DWORD PTR _ar$[esp+16436], edx
$L160633:

; 39   : 	void ( theClass::*pfn )( theParameters )

  0006f	8d 54 24 04	 lea	 edx, DWORD PTR _pfn$160637[esp+16428]
  00073	52		 push	 edx
  00074	51		 push	 ecx
  00075	8d 4e 14	 lea	 ecx, DWORD PTR [esi+20]
  00078	e8 00 00 00 00	 call	 ?Lookup@?$CMyMap@P8CDPMonitor@@AEXAAVCAr@@K@Z@@QAEHKAAP8CDPMonitor@@AEXAAVCAr@@K@Z@Z ; CMyMap<void (__thiscall CDPMonitor::*)(CAr &,unsigned long)>::Lookup
  0007d	8b 4c 24 04	 mov	 ecx, DWORD PTR _pfn$160637[esp+16428]
  00081	f7 d8		 neg	 eax
  00083	1b c0		 sbb	 eax, eax
