; Listing generated by Microsoft (R) Optimizing Compiler Version 13.10.3077 

	TITLE	.\scanner.cpp
	.386P
include listing.inc
if @Version gt 510
.model FLAT
else
_TEXT	SEGMENT PARA USE32 PUBLIC 'CODE'
_TEXT	ENDS
_DATA	SEGMENT DWORD USE32 PUBLIC 'DATA'
_DATA	ENDS
CONST	SEGMENT DWORD USE32 PUBLIC 'CONST'
CONST	ENDS
_BSS	SEGMENT DWORD USE32 PUBLIC 'BSS'
_BSS	ENDS
$$SYMBOLS	SEGMENT BYTE USE32 'DEBSYM'
$$SYMBOLS	ENDS
$$TYPES	SEGMENT BYTE USE32 'DEBTYP'
$$TYPES	ENDS
_TLS	SEGMENT DWORD USE32 PUBLIC 'TLS'
_TLS	ENDS
;	COMDAT ??_C@_0BE@NNIJINN@IDispatch?5error?5?$CD?$CFd?$AA@
CONST	SEGMENT DWORD USE32 PUBLIC 'CONST'
CONST	ENDS
;	COMDAT ??_C@_0BF@IPPGFENJ@Unknown?5error?50x?$CF0lX?$AA@
CONST	SEGMENT DWORD USE32 PUBLIC 'CONST'
CONST	ENDS
;	COMDAT ??_C@_02JDPG@rb?$AA@
CONST	SEGMENT DWORD USE32 PUBLIC 'CONST'
CONST	ENDS
;	COMDAT ??_C@_04DLJMMJGL@?$CB?$DM?$DO?$DN?$AA@
CONST	SEGMENT DWORD USE32 PUBLIC 'CONST'
CONST	ENDS
;	COMDAT ??_C@_0BB@BKECMLNK@?$CL?9?$CK?$FO?1?$CF?$DN?$DL?$CI?$CJ?0?8?3?$HL?$HN?4?$AA@
CONST	SEGMENT DWORD USE32 PUBLIC 'CONST'
CONST	ENDS
;	COMDAT ??_C@_0DN@LFHNMKPA@line?$CI?$CFd?$CJ?5?F?D?$MA?O?5?$CFs?$LP?$KB?$LM?$KN?5?$CC?$CFs?$CC?5?$LN?$LK?F?$KO?$LI?$LF@
CONST	SEGMENT DWORD USE32 PUBLIC 'CONST'
CONST	ENDS
;	COMDAT ??_C@_0DJ@HNOCKBIP@line?$CI?$CFd?$CJ?5?F?D?$MA?O?5?$CFs?$LP?$KB?$LM?$KN?5?$CC?$CFs?$CC?5?$LN?$LK?F?$KO?$LI?$LF@
CONST	SEGMENT DWORD USE32 PUBLIC 'CONST'
CONST	ENDS
;	COMDAT ??_C@_0BH@PMNGKJFP@?5?$CB?3?$DL?0?$CL?9?$DM?$DO?8?1?$CK?$CF?$FO?$DN?$CI?$CJ?$CG?$HM?$CC?$HL?$HN?$AA@
CONST	SEGMENT DWORD USE32 PUBLIC 'CONST'
CONST	ENDS
xdata$x	SEGMENT DWORD USE32 PUBLIC 'CONST'
xdata$x	ENDS
;	COMDAT ?CheckError@_com_util@@YAXJ@Z
_TEXT	SEGMENT PARA USE32 PUBLIC 'CODE'
_TEXT	ENDS
;	COMDAT ??0_bstr_t@@QAE@ABV0@@Z
_TEXT	SEGMENT PARA USE32 PUBLIC 'CODE'
_TEXT	ENDS
;	COMDAT ??0_bstr_t@@QAE@PBD@Z
_TEXT	SEGMENT PARA USE32 PUBLIC 'CODE'
_TEXT	ENDS
;	COMDAT ??0_bstr_t@@QAE@PBG@Z
_TEXT	SEGMENT PARA USE32 PUBLIC 'CODE'
_TEXT	ENDS
;	COMDAT ??0_bstr_t@@QAE@PAG_N@Z
_TEXT	SEGMENT PARA USE32 PUBLIC 'CODE'
_TEXT	ENDS
;	COMDAT ??1_bstr_t@@QAE@XZ
_TEXT	SEGMENT PARA USE32 PUBLIC 'CODE'
_TEXT	ENDS
;	COMDAT ??4_bstr_t@@QAEAAV0@PBG@Z
_TEXT	SEGMENT PARA USE32 PUBLIC 'CODE'
_TEXT	ENDS
;	COMDAT ??Y_bstr_t@@QAEAAV0@ABV0@@Z
_TEXT	SEGMENT PARA USE32 PUBLIC 'CODE'
_TEXT	ENDS
;	COMDAT ??B_bstr_t@@QBEPBGXZ
_TEXT	SEGMENT PARA USE32 PUBLIC 'CODE'
_TEXT	ENDS
;	COMDAT ??B_bstr_t@@QBEPAGXZ
_TEXT	SEGMENT PARA USE32 PUBLIC 'CODE'
_TEXT	ENDS
;	COMDAT ??7_bstr_t@@QBE_NXZ
_TEXT	SEGMENT PARA USE32 PUBLIC 'CODE'
_TEXT	ENDS
;	COMDAT ?length@_bstr_t@@QBEIXZ
_TEXT	SEGMENT PARA USE32 PUBLIC 'CODE'
_TEXT	ENDS
;	COMDAT ?Attach@_bstr_t@@QAEXPAG@Z
_TEXT	SEGMENT PARA USE32 PUBLIC 'CODE'
_TEXT	ENDS
;	COMDAT ?_AddRef@_bstr_t@@AAEXXZ
_TEXT	SEGMENT PARA USE32 PUBLIC 'CODE'
_TEXT	ENDS
;	COMDAT ?_Free@_bstr_t@@AAEXXZ
_TEXT	SEGMENT PARA USE32 PUBLIC 'CODE'
_TEXT	ENDS
;	COMDAT ?_Compare@_bstr_t@@ABEHABV1@@Z
_TEXT	SEGMENT PARA USE32 PUBLIC 'CODE'
_TEXT	ENDS
;	COMDAT ??0Data_t@_bstr_t@@QAE@PBD@Z
_TEXT	SEGMENT PARA USE32 PUBLIC 'CODE'
_TEXT	ENDS
;	COMDAT ??0Data_t@_bstr_t@@QAE@PBG@Z
_TEXT	SEGMENT PARA USE32 PUBLIC 'CODE'
_TEXT	ENDS
;	COMDAT ??0Data_t@_bstr_t@@QAE@PAG_N@Z
_TEXT	SEGMENT PARA USE32 PUBLIC 'CODE'
_TEXT	ENDS
;	COMDAT ??0Data_t@_bstr_t@@QAE@ABV1@0@Z
_TEXT	SEGMENT PARA USE32 PUBLIC 'CODE'
_TEXT	ENDS
;	COMDAT ?AddRef@Data_t@_bstr_t@@QAEKXZ
_TEXT	SEGMENT PARA USE32 PUBLIC 'CODE'
_TEXT	ENDS
;	COMDAT ?Release@Data_t@_bstr_t@@QAEKXZ
_TEXT	SEGMENT PARA USE32 PUBLIC 'CODE'
_TEXT	ENDS
;	COMDAT ??_GData_t@_bstr_t@@AAEPAXI@Z
_TEXT	SEGMENT PARA USE32 PUBLIC 'CODE'
_TEXT	ENDS
;	COMDAT ?GetWString@Data_t@_bstr_t@@QAEAAPAGXZ
_TEXT	SEGMENT PARA USE32 PUBLIC 'CODE'
_TEXT	ENDS
;	COMDAT ?GetString@Data_t@_bstr_t@@QBEPBDXZ
_TEXT	SEGMENT PARA USE32 PUBLIC 'CODE'
_TEXT	ENDS
;	COMDAT ?Copy@Data_t@_bstr_t@@QBEPAGXZ
_TEXT	SEGMENT PARA USE32 PUBLIC 'CODE'
_TEXT	ENDS
;	COMDAT ?Length@Data_t@_bstr_t@@QBEIXZ
_TEXT	SEGMENT PARA USE32 PUBLIC 'CODE'
_TEXT	ENDS
;	COMDAT ?Compare@Data_t@_bstr_t@@QBEHABV12@@Z
_TEXT	SEGMENT PARA USE32 PUBLIC 'CODE'
_TEXT	ENDS
;	COMDAT ??2Data_t@_bstr_t@@SAPAXI@Z
_TEXT	SEGMENT PARA USE32 PUBLIC 'CODE'
_TEXT	ENDS
;	COMDAT ??1Data_t@_bstr_t@@AAE@XZ
_TEXT	SEGMENT PARA USE32 PUBLIC 'CODE'
_TEXT	ENDS
;	COMDAT ?_Free@Data_t@_bstr_t@@AAEXXZ
_TEXT	SEGMENT PARA USE32 PUBLIC 'CODE'
_TEXT	ENDS
;	COMDAT ??0_variant_t@@QAE@XZ
_TEXT	SEGMENT PARA USE32 PUBLIC 'CODE'
_TEXT	ENDS
;	COMDAT ??4_variant_t@@QAEAAV0@PBD@Z
_TEXT	SEGMENT PARA USE32 PUBLIC 'CODE'
_TEXT	ENDS
;	COMDAT ??8_variant_t@@QBE_NPBUtagVARIANT@@@Z
_TEXT	SEGMENT PARA USE32 PUBLIC 'CODE'
_TEXT	ENDS
;	COMDAT ?Clear@_variant_t@@QAEXXZ
_TEXT	SEGMENT PARA USE32 PUBLIC 'CODE'
_TEXT	ENDS
;	COMDAT ?ChangeType@_variant_t@@QAEXGPBV1@@Z
_TEXT	SEGMENT PARA USE32 PUBLIC 'CODE'
_TEXT	ENDS
;	COMDAT ??1_variant_t@@QAE@XZ
_TEXT	SEGMENT PARA USE32 PUBLIC 'CODE'
_TEXT	ENDS
;	COMDAT ??_G_com_error@@UAEPAXI@Z
_TEXT	SEGMENT PARA USE32 PUBLIC 'CODE'
_TEXT	ENDS
;	COMDAT ??0_com_error@@QAE@ABV0@@Z
_TEXT	SEGMENT PARA USE32 PUBLIC 'CODE'
_TEXT	ENDS
;	COMDAT ??1_com_error@@UAE@XZ
_TEXT	SEGMENT PARA USE32 PUBLIC 'CODE'
_TEXT	ENDS
;	COMDAT ?WCode@_com_error@@QBEGXZ
_TEXT	SEGMENT PARA USE32 PUBLIC 'CODE'
_TEXT	ENDS
;	COMDAT ?HRESULTToWCode@_com_error@@SAGJ@Z
_TEXT	SEGMENT PARA USE32 PUBLIC 'CODE'
_TEXT	ENDS
;	COMDAT ?IsComposibleTh@@YA_NEEH@Z
_TEXT	SEGMENT PARA USE32 PUBLIC 'CODE'
_TEXT	ENDS
;	COMDAT ?CharNextTh@@YAPBDPBD@Z
_TEXT	SEGMENT PARA USE32 PUBLIC 'CODE'
_TEXT	ENDS
;	COMDAT ?CharNextEx@@YAPBDPBDG@Z
_TEXT	SEGMENT PARA USE32 PUBLIC 'CODE'
_TEXT	ENDS
;	COMDAT ??0CScanner@@QAE@H@Z
_TEXT	SEGMENT PARA USE32 PUBLIC 'CODE'
_TEXT	ENDS
;	COMDAT ??_GCScanner@@UAEPAXI@Z
_TEXT	SEGMENT PARA USE32 PUBLIC 'CODE'
_TEXT	ENDS
;	COMDAT ??0CScanner@@QAE@PAXH@Z
_TEXT	SEGMENT PARA USE32 PUBLIC 'CODE'
_TEXT	ENDS
;	COMDAT ??1CScanner@@UAE@XZ
_TEXT	SEGMENT PARA USE32 PUBLIC 'CODE'
_TEXT	ENDS
;	COMDAT ?Free@CScanner@@QAEXXZ
_TEXT	SEGMENT PARA USE32 PUBLIC 'CODE'
_TEXT	ENDS
;	COMDAT ?Read@CScanner@@IAEHPAVCFileIO@@H@Z
_TEXT	SEGMENT PARA USE32 PUBLIC 'CODE'
_TEXT	ENDS
;	COMDAT ?Load@CScanner@@QAEHPBDH@Z
_TEXT	SEGMENT PARA USE32 PUBLIC 'CODE'
_TEXT	ENDS
;	COMDAT ?Load_FileIO@CScanner@@QAEHPBDH@Z
_TEXT	SEGMENT PARA USE32 PUBLIC 'CODE'
_TEXT	ENDS
;	COMDAT ?SetProg@CScanner@@QAEXPAX@Z
_TEXT	SEGMENT PARA USE32 PUBLIC 'CODE'
_TEXT	ENDS
;	COMDAT ?GetLineNum@CScanner@@UAEHPAX@Z
_TEXT	SEGMENT PARA USE32 PUBLIC 'CODE'
_TEXT	ENDS
;	COMDAT ?GetLastFull@CScanner@@QAEXXZ
_TEXT	SEGMENT PARA USE32 PUBLIC 'CODE'
_TEXT	ENDS
;	COMDAT ?GetToken@CScanner@@UAEHH@Z
_TEXT	SEGMENT PARA USE32 PUBLIC 'CODE'
_TEXT	ENDS
;	COMDAT ?GetToken_Wide@CScanner@@IAEHH@Z
_TEXT	SEGMENT PARA USE32 PUBLIC 'CODE'
_TEXT	ENDS
;	COMDAT ?GetNumber@CScanner@@QAEHH@Z
_TEXT	SEGMENT PARA USE32 PUBLIC 'CODE'
_TEXT	ENDS
;	COMDAT ?GetInt64@CScanner@@QAE_JH@Z
_TEXT	SEGMENT PARA USE32 PUBLIC 'CODE'
_TEXT	ENDS
;	COMDAT ?GetFloat@CScanner@@QAEMH@Z
_TEXT	SEGMENT PARA USE32 PUBLIC 'CODE'
_TEXT	ENDS
;	COMDAT ?GetHex@CScanner@@QAEKH@Z
_TEXT	SEGMENT PARA USE32 PUBLIC 'CODE'
_TEXT	ENDS
;	COMDAT ?PutBack@CScanner@@UAEXXZ
_TEXT	SEGMENT PARA USE32 PUBLIC 'CODE'
_TEXT	ENDS
;	COMDAT ?isdelim@CScanner@@IAEHG@Z
_TEXT	SEGMENT PARA USE32 PUBLIC 'CODE'
_TEXT	ENDS
;	COMDAT ?iswhite@CScanner@@IAEHG@Z
_TEXT	SEGMENT PARA USE32 PUBLIC 'CODE'
_TEXT	ENDS
;	COMDAT ?GetSerialNumber@CScanner@@QAEKH@Z
_TEXT	SEGMENT PARA USE32 PUBLIC 'CODE'
_TEXT	ENDS
;	COMDAT ?MakeLower@?$CStringT@DV?$StrTraitMFC@DV?$ChTraitsCRT@D@ATL@@@@@ATL@@QAEAAV12@XZ
_TEXT	SEGMENT PARA USE32 PUBLIC 'CODE'
_TEXT	ENDS
;	COMDAT ?Format@?$CStringT@DV?$StrTraitMFC@DV?$ChTraitsCRT@D@ATL@@@@@ATL@@QAAXPBDZZ
_TEXT	SEGMENT PARA USE32 PUBLIC 'CODE'
_TEXT	ENDS
;	COMDAT ??A?$CSimpleStringT@D$0A@@ATL@@QBEDH@Z
_TEXT	SEGMENT PARA USE32 PUBLIC 'CODE'
_TEXT	ENDS
;	COMDAT ?IsEmpty@?$CSimpleStringT@D$0A@@ATL@@QBE_NXZ
_TEXT	SEGMENT PARA USE32 PUBLIC 'CODE'
_TEXT	ENDS
;	COMDAT ?FormatV@?$CStringT@DV?$StrTraitMFC@DV?$ChTraitsCRT@D@ATL@@@@@ATL@@QAEXPBDPAD@Z
_TEXT	SEGMENT PARA USE32 PUBLIC 'CODE'
_TEXT	ENDS
;	COMDAT ?StringLowercase@?$ChTraitsCRT@D@ATL@@SAPADPAD@Z
_TEXT	SEGMENT PARA USE32 PUBLIC 'CODE'
_TEXT	ENDS
;	COMDAT ?GoMark@CScanner@@UAEXXZ
_TEXT	SEGMENT PARA USE32 PUBLIC 'CODE'
_TEXT	ENDS
;	COMDAT ?SetMark@CScanner@@UAEXXZ
_TEXT	SEGMENT PARA USE32 PUBLIC 'CODE'
_TEXT	ENDS
;	COMDAT ?_Psave@?$_Facetptr@V?$ctype@G@std@@@std@@2PBVfacet@locale@2@B
_DATA	SEGMENT DWORD USE32 PUBLIC 'DATA'
_DATA	ENDS
;	COMDAT ?_Psave@?$_Facetptr@V?$ctype@D@std@@@std@@2PBVfacet@locale@2@B
_DATA	SEGMENT DWORD USE32 PUBLIC 'DATA'
_DATA	ENDS
;	COMDAT ?Format@?$ChTraitsCRT@D@ATL@@SAHPADPBD0@Z
_TEXT	SEGMENT PARA USE32 PUBLIC 'CODE'
_TEXT	ENDS
;	COMDAT ?GetFormattedLength@?$ChTraitsCRT@D@ATL@@SAHPBDPAD@Z
_TEXT	SEGMENT PARA USE32 PUBLIC 'CODE'
_TEXT	ENDS
;	COMDAT ?AtlThrow@ATL@@YGXJ@Z
_TEXT	SEGMENT PARA USE32 PUBLIC 'CODE'
_TEXT	ENDS
;	COMDAT ?ReleaseBufferSetLength@?$CSimpleStringT@D$0A@@ATL@@QAEXH@Z
_TEXT	SEGMENT PARA USE32 PUBLIC 'CODE'
_TEXT	ENDS
;	COMDAT ?SetLength@?$CSimpleStringT@D$0A@@ATL@@AAEXH@Z
_TEXT	SEGMENT PARA USE32 PUBLIC 'CODE'
_TEXT	ENDS
;	COMDAT ?GetData@?$CSimpleStringT@D$0A@@ATL@@ABEPAUCStringData@2@XZ
_TEXT	SEGMENT PARA USE32 PUBLIC 'CODE'
_TEXT	ENDS
;	COMDAT ?GetBuffer@?$CSimpleStringT@D$0A@@ATL@@QAEPADH@Z
_TEXT	SEGMENT PARA USE32 PUBLIC 'CODE'
_TEXT	ENDS
;	COMDAT ?PrepareWrite@?$CSimpleStringT@D$0A@@ATL@@AAEPADH@Z
_TEXT	SEGMENT PARA USE32 PUBLIC 'CODE'
_TEXT	ENDS
;	COMDAT ?PrepareWrite2@?$CSimpleStringT@D$0A@@ATL@@AAEXH@Z
_TEXT	SEGMENT PARA USE32 PUBLIC 'CODE'
_TEXT	ENDS
;	COMDAT ?IsShared@CStringData@ATL@@QBE_NXZ
_TEXT	SEGMENT PARA USE32 PUBLIC 'CODE'
_TEXT	ENDS
;	COMDAT ?Fork@?$CSimpleStringT@D$0A@@ATL@@AAEXH@Z
_TEXT	SEGMENT PARA USE32 PUBLIC 'CODE'
_TEXT	ENDS
;	COMDAT ?ThrowMemoryException@?$CSimpleStringT@D$0A@@ATL@@KAXXZ
_TEXT	SEGMENT PARA USE32 PUBLIC 'CODE'
_TEXT	ENDS
;	COMDAT ?CopyChars@?$CSimpleStringT@D$0A@@ATL@@SAXPADPBDH@Z
_TEXT	SEGMENT PARA USE32 PUBLIC 'CODE'
_TEXT	ENDS
;	COMDAT ?data@CStringData@ATL@@QAEPAXXZ
_TEXT	SEGMENT PARA USE32 PUBLIC 'CODE'
_TEXT	ENDS
;	COMDAT ?Release@CStringData@ATL@@QAEXXZ
_TEXT	SEGMENT PARA USE32 PUBLIC 'CODE'
_TEXT	ENDS
;	COMDAT ?Attach@?$CSimpleStringT@D$0A@@ATL@@AAEXPAUCStringData@2@@Z
_TEXT	SEGMENT PARA USE32 PUBLIC 'CODE'
_TEXT	ENDS
;	COMDAT ?Reallocate@?$CSimpleStringT@D$0A@@ATL@@AAEXH@Z
_TEXT	SEGMENT PARA USE32 PUBLIC 'CODE'
_TEXT	ENDS
;	COMDAT ?GetLength@?$CSimpleStringT@D$0A@@ATL@@QBEHXZ
_TEXT	SEGMENT PARA USE32 PUBLIC 'CODE'
_TEXT	ENDS
;	COMDAT ??B?$CSimpleStringT@D$0A@@ATL@@QBEPBDXZ
_TEXT	SEGMENT PARA USE32 PUBLIC 'CODE'
_TEXT	ENDS
;	COMDAT ?isdigit2@@YAHD@Z
_TEXT	SEGMENT PARA USE32 PUBLIC 'CODE'
_TEXT	ENDS
;	COMDAT ??4?$CStringT@DV?$StrTraitMFC@DV?$ChTraitsCRT@D@ATL@@@@@ATL@@QAEAAV01@PBG@Z
_TEXT	SEGMENT PARA USE32 PUBLIC 'CODE'
_TEXT	ENDS
;	COMDAT ?GetBaseTypeLength@?$ChTraitsCRT@D@ATL@@SAHPBG@Z
_TEXT	SEGMENT PARA USE32 PUBLIC 'CODE'
_TEXT	ENDS
;	COMDAT ?_AtlGetConversionACP@ATL@@YGIXZ
_TEXT	SEGMENT PARA USE32 PUBLIC 'CODE'
_TEXT	ENDS
;	COMDAT ?g_pfnGetThreadACP@ATL@@3P6GIXZA
_DATA	SEGMENT DWORD USE32 PUBLIC 'DATA'
_DATA	ENDS
;	COMDAT ?_AtlGetThreadACPThunk@ATL@@YGIXZ
_TEXT	SEGMENT PARA USE32 PUBLIC 'CODE'
_TEXT	ENDS
;	COMDAT ?_AtlGetThreadACPReal@ATL@@YGIXZ
_TEXT	SEGMENT PARA USE32 PUBLIC 'CODE'
_TEXT	ENDS
;	COMDAT ?_AtlGetThreadACPFake@ATL@@YGIXZ
_TEXT	SEGMENT PARA USE32 PUBLIC 'CODE'
_TEXT	ENDS
;	COMDAT ?InterlockedExchangePointer@@YGPAXPAPAXPAX@Z
_TEXT	SEGMENT PARA USE32 PUBLIC 'CODE'
_TEXT	ENDS
;	COMDAT ?ConvertToBaseType@?$ChTraitsCRT@D@ATL@@SAXPADHPBGH@Z
_TEXT	SEGMENT PARA USE32 PUBLIC 'CODE'
_TEXT	ENDS
;	COMDAT ?Empty@?$CSimpleStringT@D$0A@@ATL@@QAEXXZ
_TEXT	SEGMENT PARA USE32 PUBLIC 'CODE'
_TEXT	ENDS
;	COMDAT ?IsLocked@CStringData@ATL@@QBE_NXZ
_TEXT	SEGMENT PARA USE32 PUBLIC 'CODE'
_TEXT	ENDS
;	COMDAT ??4?$CStringT@DV?$StrTraitMFC@DV?$ChTraitsCRT@D@ATL@@@@@ATL@@QAEAAV01@PBD@Z
_TEXT	SEGMENT PARA USE32 PUBLIC 'CODE'
_TEXT	ENDS
;	COMDAT ??4?$CSimpleStringT@D$0A@@ATL@@QAEAAV01@PBD@Z
_TEXT	SEGMENT PARA USE32 PUBLIC 'CODE'
_TEXT	ENDS
;	COMDAT ?SetString@?$CSimpleStringT@D$0A@@ATL@@QAEXPBD@Z
_TEXT	SEGMENT PARA USE32 PUBLIC 'CODE'
_TEXT	ENDS
;	COMDAT ?SetString@?$CSimpleStringT@D$0A@@ATL@@QAEXPBDH@Z
_TEXT	SEGMENT PARA USE32 PUBLIC 'CODE'
_TEXT	ENDS
;	COMDAT ?GetString@?$CSimpleStringT@D$0A@@ATL@@QBEPBDXZ
_TEXT	SEGMENT PARA USE32 PUBLIC 'CODE'
_TEXT	ENDS
;	COMDAT ?CopyCharsOverlapped@?$CSimpleStringT@D$0A@@ATL@@SAXPADPBDH@Z
_TEXT	SEGMENT PARA USE32 PUBLIC 'CODE'
_TEXT	ENDS
;	COMDAT ?StringLength@?$CSimpleStringT@D$0A@@ATL@@SAHPBD@Z
_TEXT	SEGMENT PARA USE32 PUBLIC 'CODE'
_TEXT	ENDS
;	COMDAT ??0?$CStringT@DV?$StrTraitMFC@DV?$ChTraitsCRT@D@ATL@@@@@ATL@@QAE@PBD@Z
_TEXT	SEGMENT PARA USE32 PUBLIC 'CODE'
_TEXT	ENDS
;	COMDAT ??0?$CSimpleStringT@D$0A@@ATL@@QAE@PAUIAtlStringMgr@1@@Z
_TEXT	SEGMENT PARA USE32 PUBLIC 'CODE'
_TEXT	ENDS
;	COMDAT ?GetDefaultManager@?$StrTraitMFC@DV?$ChTraitsCRT@D@ATL@@@@SAPAUIAtlStringMgr@ATL@@XZ
_TEXT	SEGMENT PARA USE32 PUBLIC 'CODE'
_TEXT	ENDS
;	COMDAT ??1?$CSimpleStringT@D$0A@@ATL@@QAE@XZ
_TEXT	SEGMENT PARA USE32 PUBLIC 'CODE'
_TEXT	ENDS
;	COMDAT ?CheckImplicitLoad@?$CStringT@DV?$StrTraitMFC@DV?$ChTraitsCRT@D@ATL@@@@@ATL@@AAE_NPBX@Z
_TEXT	SEGMENT PARA USE32 PUBLIC 'CODE'
_TEXT	ENDS
;	COMDAT ?LoadStringA@?$CStringT@DV?$StrTraitMFC@DV?$ChTraitsCRT@D@ATL@@@@@ATL@@QAEHI@Z
_TEXT	SEGMENT PARA USE32 PUBLIC 'CODE'
_TEXT	ENDS
;	COMDAT ?FindStringResourceInstance@?$StrTraitMFC@DV?$ChTraitsCRT@D@ATL@@@@SAPAUHINSTANCE__@@I@Z
_TEXT	SEGMENT PARA USE32 PUBLIC 'CODE'
_TEXT	ENDS
;	COMDAT ?LoadStringA@?$CStringT@DV?$StrTraitMFC@DV?$ChTraitsCRT@D@ATL@@@@@ATL@@QAEHPAUHINSTANCE__@@I@Z
_TEXT	SEGMENT PARA USE32 PUBLIC 'CODE'
_TEXT	ENDS
;	COMDAT ?AtlGetStringResourceImage@ATL@@YAPBUATLSTRINGRESOURCEIMAGE@1@PAUHINSTANCE__@@I@Z
_TEXT	SEGMENT PARA USE32 PUBLIC 'CODE'
_TEXT	ENDS
;	COMDAT ?_AtlGetStringResourceImage@ATL@@YAPBUATLSTRINGRESOURCEIMAGE@1@PAUHINSTANCE__@@PAUHRSRC__@@I@Z
_TEXT	SEGMENT PARA USE32 PUBLIC 'CODE'
_TEXT	ENDS
;	COMDAT ?GetBaseTypeLength@?$ChTraitsCRT@D@ATL@@SAHPBGH@Z
_TEXT	SEGMENT PARA USE32 PUBLIC 'CODE'
_TEXT	ENDS
;	COMDAT ??1CFileIO@@UAE@XZ
_TEXT	SEGMENT PARA USE32 PUBLIC 'CODE'
_TEXT	ENDS
;	COMDAT ??_7CFileIO@@6B@
CONST	SEGMENT DWORD USE32 PUBLIC 'CONST'
CONST	ENDS
;	COMDAT ??_GCFileIO@@UAEPAXI@Z
_TEXT	SEGMENT PARA USE32 PUBLIC 'CODE'
_TEXT	ENDS
;	COMDAT ?Flush@CFileIO@@UAEHXZ
_TEXT	SEGMENT PARA USE32 PUBLIC 'CODE'
_TEXT	ENDS
;	COMDAT ?GetC@CFileIO@@UAEDXZ
_TEXT	SEGMENT PARA USE32 PUBLIC 'CODE'
_TEXT	ENDS
;	COMDAT ?GetW@CFileIO@@UAEGXZ
_TEXT	SEGMENT PARA USE32 PUBLIC 'CODE'
_TEXT	ENDS
;	COMDAT ?GetDW@CFileIO@@UAEKXZ
_TEXT	SEGMENT PARA USE32 PUBLIC 'CODE'
_TEXT	ENDS
;	COMDAT ?Tell@CFileIO@@UAEJXZ
_TEXT	SEGMENT PARA USE32 PUBLIC 'CODE'
_TEXT	ENDS
;	COMDAT ?Seek@CFileIO@@UAEHJH@Z
_TEXT	SEGMENT PARA USE32 PUBLIC 'CODE'
_TEXT	ENDS
;	COMDAT ?GetLength@CFileIO@@UAEJXZ
_TEXT	SEGMENT PARA USE32 PUBLIC 'CODE'
_TEXT	ENDS
;	COMDAT ?Handle@CFileIO@@QAEHXZ
_TEXT	SEGMENT PARA USE32 PUBLIC 'CODE'
_TEXT	ENDS
;	COMDAT ?Read@CFileIO@@UAEIPAXII@Z
_TEXT	SEGMENT PARA USE32 PUBLIC 'CODE'
_TEXT	ENDS
;	COMDAT ??0CFileIO@@QAE@XZ
_TEXT	SEGMENT PARA USE32 PUBLIC 'CODE'
_TEXT	ENDS
;	COMDAT ??1?$CStringT@DV?$StrTraitMFC@DV?$ChTraitsCRT@D@ATL@@@@@ATL@@QAE@XZ
_TEXT	SEGMENT PARA USE32 PUBLIC 'CODE'
_TEXT	ENDS
;	COMDAT ??0?$CStringT@DV?$StrTraitMFC@DV?$ChTraitsCRT@D@ATL@@@@@ATL@@QAE@XZ
_TEXT	SEGMENT PARA USE32 PUBLIC 'CODE'
_TEXT	ENDS
;	COMDAT ??_7CScanner@@6B@
CONST	SEGMENT DWORD USE32 PUBLIC 'CONST'
CONST	ENDS
;	COMDAT __GUID_00000000_0000_0000_0000_000000000000
CONST	SEGMENT DWORD USE32 PUBLIC 'CONST'
CONST	ENDS
;	COMDAT ??_7_com_error@@6B@
CONST	SEGMENT DWORD USE32 PUBLIC 'CONST'
CONST	ENDS
sxdata	SEGMENT DWORD USE32 'SXDATA'
sxdata	ENDS
FLAT	GROUP _DATA, CONST, _BSS
	ASSUME	CS: FLAT, DS: FLAT, SS: FLAT
endif

INCLUDELIB LIBCMT
INCLUDELIB OLDNAMES

PUBLIC	?CLASS_TABLE@THAI@@3PAW4CLASS@1@A		; THAI::CLASS_TABLE
PUBLIC	?COMPOSIBLE@INPUT@THAI@@3PAY04_NA		; THAI::INPUT::COMPOSIBLE
PUBLIC	?STATE_CHECK@INPUT@THAI@@3PAY0BB@W4TYPE@12@A	; THAI::INPUT::STATE_CHECK
PUBLIC	?STATE_CHECK@OUTPUT@THAI@@3PAY0BB@W4TYPE@12@A	; THAI::OUTPUT::STATE_CHECK
PUBLIC	?g_pfnGetThreadACP@ATL@@3P6GIXZA		; ATL::g_pfnGetThreadACP
PUBLIC	?_AtlGetThreadACPThunk@ATL@@YGIXZ		; ATL::_AtlGetThreadACPThunk
PUBLIC	?g_codePage@@3GA				; g_codePage
_BSS	SEGMENT
?g_codePage@@3GA DW 01H DUP (?)				; g_codePage
_BSS	ENDS
_DATA	SEGMENT
?CLASS_TABLE@THAI@@3PAW4CLASS@1@A DD 00H		; THAI::CLASS_TABLE
	DD	00H
	DD	00H
	DD	00H
	DD	00H
	DD	00H
	DD	00H
	DD	00H
	DD	00H
	DD	00H
	DD	00H
	DD	00H
	DD	00H
	DD	00H
	DD	00H
	DD	00H
	DD	00H
	DD	00H
	DD	00H
	DD	00H
	DD	00H
	DD	00H
	DD	00H
	DD	00H
	DD	00H
	DD	00H
	DD	00H
	DD	00H
	DD	00H
	DD	00H
	DD	00H
	DD	00H
	DD	01H
	DD	01H
	DD	01H
	DD	01H
	DD	01H
	DD	01H
	DD	01H
	DD	01H
	DD	01H
	DD	01H
	DD	01H
	DD	01H
	DD	01H
	DD	01H
	DD	01H
	DD	01H
	DD	01H
	DD	01H
	DD	01H
	DD	01H
	DD	01H
	DD	01H
	DD	01H
	DD	01H
	DD	01H
	DD	01H
	DD	01H
	DD	01H
	DD	01H
	DD	01H
	DD	01H
	DD	01H
	DD	01H
	DD	01H
	DD	01H
	DD	01H
	DD	01H
	DD	01H
	DD	01H
	DD	01H
	DD	01H
	DD	01H
	DD	01H
	DD	01H
	DD	01H
	DD	01H
	DD	01H
	DD	01H
	DD	01H
	DD	01H
	DD	01H
	DD	01H
	DD	01H
	DD	01H
	DD	01H
	DD	01H
	DD	01H
	DD	01H
	DD	01H
	DD	01H
	DD	01H
	DD	01H
	DD	01H
	DD	01H
	DD	01H
	DD	01H
	DD	01H
	DD	01H
	DD	01H
	DD	01H
	DD	01H
	DD	01H
	DD	01H
	DD	01H
	DD	01H
	DD	01H
	DD	01H
	DD	01H
	DD	01H
	DD	01H
	DD	01H
	DD	01H
	DD	01H
	DD	01H
	DD	01H
	DD	01H
	DD	01H
	DD	01H
	DD	01H
	DD	01H
	DD	01H
	DD	01H
	DD	01H
	DD	01H
	DD	01H
	DD	00H
	DD	00H
	DD	00H
	DD	00H
	DD	00H
	DD	00H
	DD	00H
	DD	00H
	DD	00H
	DD	00H
	DD	00H
	DD	00H
	DD	00H
	DD	00H
	DD	00H
	DD	00H
	DD	00H
	DD	00H
	DD	00H
	DD	00H
	DD	00H
	DD	00H
	DD	00H
	DD	00H
	DD	00H
	DD	00H
	DD	00H
	DD	00H
	DD	00H
	DD	00H
	DD	00H
	DD	00H
	DD	00H
	DD	01H
	DD	02H
	DD	02H
	DD	02H
	DD	02H
	DD	02H
	DD	02H
	DD	02H
	DD	02H
	DD	02H
	DD	02H
	DD	02H
	DD	02H
	DD	02H
	DD	02H
	DD	02H
	DD	02H
	DD	02H
	DD	02H
	DD	02H
	DD	02H
	DD	02H
	DD	02H
	DD	02H
	DD	02H
	DD	02H
	DD	02H
	DD	02H
	DD	02H
	DD	02H
	DD	02H
	DD	02H
	DD	02H
	DD	02H
	DD	02H
	DD	02H
	DD	06H
	DD	02H
	DD	06H
	DD	02H
	DD	02H
	DD	02H
	DD	02H
	DD	02H
	DD	02H
	DD	02H
	DD	02H
	DD	01H
	DD	04H
	DD	0fH
	DD	04H
	DD	04H
	DD	0eH
	DD	010H
	DD	0fH
	DD	010H
	DD	07H
	DD	08H
	DD	09H
	DD	01H
	DD	01H
	DD	01H
	DD	01H
	DD	01H
	DD	03H
	DD	03H
	DD	03H
	DD	03H
	DD	03H
	DD	05H
	DD	01H
	DD	0cH
	DD	0aH
	DD	0aH
	DD	0aH
	DD	0aH
	DD	0bH
	DD	0bH
	DD	0dH
	DD	01H
	DD	01H
	DD	01H
	DD	01H
	DD	01H
	DD	01H
	DD	01H
	DD	01H
	DD	01H
	DD	01H
	DD	01H
	DD	01H
	DD	01H
	DD	01H
	DD	01H
	DD	01H
	DD	00H
?COMPOSIBLE@INPUT@THAI@@3PAY04_NA DB 01H		; THAI::INPUT::COMPOSIBLE
	DB	01H
	DB	01H
	DB	01H
	DB	01H
	DB	01H
	DB	01H
	DB	01H
	DB	00H
	DB	01H
	DB	01H
	DB	01H
	DB	00H
	DB	00H
	DB	01H
	ORG $+1
?STATE_CHECK@INPUT@THAI@@3PAY0BB@W4TYPE@12@A DD 04H	; THAI::INPUT::STATE_CHECK
	DD	00H
	DD	00H
	DD	00H
	DD	00H
	DD	00H
	DD	00H
	DD	03H
	DD	03H
	DD	03H
	DD	03H
	DD	03H
	DD	03H
	DD	03H
	DD	03H
	DD	03H
	DD	03H
	DD	04H
	DD	00H
	DD	00H
	DD	00H
	DD	02H
	DD	02H
	DD	00H
	DD	03H
	DD	03H
	DD	03H
	DD	03H
	DD	03H
	DD	03H
	DD	03H
	DD	03H
	DD	03H
	DD	03H
	DD	04H
	DD	00H
	DD	00H
	DD	00H
	DD	00H
	DD	02H
	DD	00H
	DD	01H
	DD	01H
	DD	01H
	DD	01H
	DD	01H
	DD	01H
	DD	01H
	DD	01H
	DD	01H
	DD	01H
	DD	04H
	DD	02H
	DD	00H
	DD	02H
	DD	02H
	DD	02H
	DD	02H
	DD	03H
	DD	03H
	DD	03H
	DD	03H
	DD	03H
	DD	03H
	DD	03H
	DD	03H
	DD	03H
	DD	03H
	DD	04H
	DD	02H
	DD	00H
	DD	02H
	DD	00H
	DD	02H
	DD	00H
	DD	03H
	DD	03H
	DD	03H
	DD	03H
	DD	03H
	DD	03H
	DD	03H
	DD	03H
	DD	03H
	DD	03H
	DD	04H
	DD	00H
	DD	00H
	DD	00H
	DD	00H
	DD	02H
	DD	00H
	DD	03H
	DD	03H
	DD	03H
	DD	03H
	DD	03H
	DD	03H
	DD	03H
	DD	03H
	DD	03H
	DD	03H
	DD	04H
	DD	00H
	DD	00H
	DD	00H
	DD	02H
	DD	00H
	DD	02H
	DD	03H
	DD	03H
	DD	03H
	DD	03H
	DD	03H
	DD	03H
	DD	03H
	DD	03H
	DD	03H
	DD	03H
	DD	04H
	DD	00H
	DD	00H
	DD	00H
	DD	00H
	DD	02H
	DD	00H
	DD	03H
	DD	03H
	DD	03H
	DD	01H
	DD	01H
	DD	03H
	DD	03H
	DD	03H
	DD	03H
	DD	03H
	DD	04H
	DD	00H
	DD	00H
	DD	00H
	DD	02H
	DD	02H
	DD	00H
	DD	03H
	DD	03H
	DD	03H
	DD	01H
	DD	03H
	DD	03H
	DD	03H
	DD	03H
	DD	03H
	DD	03H
	DD	04H
	DD	00H
	DD	00H
	DD	00H
	DD	02H
	DD	02H
	DD	00H
	DD	03H
	DD	03H
	DD	03H
	DD	03H
	DD	03H
	DD	03H
	DD	03H
	DD	03H
	DD	03H
	DD	03H
	DD	04H
	DD	00H
	DD	00H
	DD	00H
	DD	00H
	DD	00H
	DD	00H
	DD	03H
	DD	03H
	DD	03H
	DD	03H
	DD	03H
	DD	03H
	DD	03H
	DD	03H
	DD	03H
	DD	03H
	DD	04H
	DD	00H
	DD	00H
	DD	00H
	DD	02H
	DD	02H
	DD	00H
	DD	03H
	DD	03H
	DD	03H
	DD	03H
	DD	03H
	DD	03H
	DD	03H
	DD	03H
	DD	03H
	DD	03H
	DD	04H
	DD	00H
	DD	00H
	DD	00H
	DD	02H
	DD	02H
	DD	00H
	DD	03H
	DD	03H
	DD	03H
	DD	03H
	DD	03H
	DD	03H
	DD	03H
	DD	03H
	DD	03H
	DD	03H
	DD	04H
	DD	00H
	DD	00H
	DD	00H
	DD	02H
	DD	02H
	DD	00H
	DD	03H
	DD	03H
	DD	03H
	DD	03H
	DD	03H
	DD	03H
	DD	03H
	DD	03H
	DD	03H
	DD	03H
	DD	04H
	DD	00H
	DD	00H
	DD	00H
	DD	02H
	DD	02H
	DD	00H
	DD	03H
	DD	03H
	DD	03H
	DD	01H
	DD	01H
	DD	03H
	DD	03H
	DD	03H
	DD	03H
	DD	03H
	DD	04H
	DD	00H
	DD	00H
	DD	00H
	DD	02H
	DD	02H
	DD	00H
	DD	03H
	DD	03H
	DD	03H
	DD	01H
	DD	03H
	DD	03H
	DD	03H
	DD	03H
	DD	03H
	DD	03H
	DD	04H
	DD	00H
	DD	00H
	DD	00H
	DD	02H
	DD	02H
	DD	00H
	DD	03H
	DD	03H
	DD	03H
	DD	01H
	DD	03H
	DD	01H
	DD	03H
	DD	03H
	DD	03H
	DD	03H
	ORG $+4
?STATE_CHECK@OUTPUT@THAI@@3PAY0BB@W4TYPE@12@A DD 02H	; THAI::OUTPUT::STATE_CHECK
	DD	00H
	DD	00H
	DD	00H
	DD	00H
	DD	00H
	DD	00H
	DD	00H
	DD	00H
	DD	00H
	DD	00H
	DD	00H
	DD	00H
	DD	00H
	DD	00H
	DD	00H
	DD	00H
	DD	02H
	DD	00H
	DD	00H
	DD	00H
	DD	00H
	DD	00H
	DD	00H
	DD	00H
	DD	00H
	DD	00H
	DD	00H
	DD	00H
	DD	00H
	DD	00H
	DD	00H
	DD	00H
	DD	00H
	DD	02H
	DD	00H
	DD	00H
	DD	00H
	DD	00H
	DD	00H
	DD	00H
	DD	01H
	DD	01H
	DD	01H
	DD	01H
	DD	01H
	DD	01H
	DD	01H
	DD	01H
	DD	01H
	DD	01H
	DD	02H
	DD	00H
	DD	00H
	DD	00H
	DD	00H
	DD	00H
	DD	00H
	DD	00H
	DD	00H
	DD	00H
	DD	00H
	DD	00H
	DD	00H
	DD	00H
	DD	00H
	DD	00H
	DD	00H
	DD	02H
	DD	00H
	DD	00H
	DD	00H
	DD	00H
	DD	00H
	DD	00H
	DD	00H
	DD	00H
	DD	00H
	DD	00H
	DD	00H
	DD	00H
	DD	00H
	DD	00H
	DD	00H
	DD	00H
	DD	02H
	DD	00H
	DD	00H
	DD	00H
	DD	00H
	DD	00H
	DD	00H
	DD	00H
	DD	00H
	DD	00H
	DD	00H
	DD	00H
	DD	00H
	DD	00H
	DD	00H
	DD	00H
	DD	00H
	DD	02H
	DD	00H
	DD	00H
	DD	00H
	DD	00H
	DD	00H
	DD	00H
	DD	00H
	DD	00H
	DD	00H
	DD	00H
	DD	00H
	DD	00H
	DD	00H
	DD	00H
	DD	00H
	DD	00H
	DD	02H
	DD	00H
	DD	00H
	DD	00H
	DD	00H
	DD	00H
	DD	00H
	DD	00H
	DD	00H
	DD	00H
	DD	01H
	DD	01H
	DD	00H
	DD	00H
	DD	00H
	DD	00H
	DD	00H
	DD	02H
	DD	00H
	DD	00H
	DD	00H
	DD	00H
	DD	00H
	DD	00H
	DD	00H
	DD	00H
	DD	00H
	DD	01H
	DD	00H
	DD	00H
	DD	00H
	DD	00H
	DD	00H
	DD	00H
	DD	02H
	DD	00H
	DD	00H
	DD	00H
	DD	00H
	DD	00H
	DD	00H
	DD	00H
	DD	00H
	DD	00H
	DD	00H
	DD	00H
	DD	00H
	DD	00H
	DD	00H
	DD	00H
	DD	00H
	DD	02H
	DD	00H
	DD	00H
	DD	00H
	DD	00H
	DD	00H
	DD	00H
	DD	00H
	DD	00H
	DD	00H
	DD	00H
	DD	00H
	DD	00H
	DD	00H
	DD	00H
	DD	00H
	DD	00H
	DD	02H
	DD	00H
	DD	00H
	DD	00H
	DD	00H
	DD	00H
	DD	00H
	DD	00H
	DD	00H
	DD	00H
	DD	00H
	DD	00H
	DD	00H
	DD	00H
	DD	00H
	DD	00H
	DD	00H
	DD	02H
	DD	00H
	DD	00H
	DD	00H
	DD	00H
	DD	00H
	DD	00H
	DD	00H
	DD	00H
	DD	00H
	DD	00H
	DD	00H
	DD	00H
	DD	00H
	DD	00H
	DD	00H
	DD	00H
	DD	02H
	DD	00H
	DD	00H
	DD	00H
	DD	00H
	DD	00H
	DD	00H
	DD	00H
	DD	00H
	DD	00H
	DD	00H
	DD	00H
	DD	00H
	DD	00H
	DD	00H
	DD	00H
	DD	00H
	DD	02H
	DD	00H
	DD	00H
	DD	00H
	DD	00H
	DD	00H
	DD	00H
	DD	00H
	DD	00H
	DD	00H
	DD	01H
	DD	01H
	DD	00H
	DD	00H
	DD	00H
	DD	00H
	DD	00H
	DD	02H
	DD	00H
	DD	00H
	DD	00H
	DD	00H
	DD	00H
	DD	00H
	DD	00H
	DD	00H
	DD	00H
	DD	01H
	DD	00H
	DD	00H
	DD	00H
	DD	00H
	DD	00H
	DD	00H
	DD	02H
	DD	00H
	DD	00H
	DD	00H
	DD	00H
	DD	00H
	DD	00H
	DD	00H
	DD	00H
	DD	00H
	DD	01H
	DD	00H
	DD	01H
	DD	00H
	DD	00H
	DD	00H
	DD	00H
_DATA	ENDS
;	COMDAT ?g_pfnGetThreadACP@ATL@@3P6GIXZA
_DATA	SEGMENT
?g_pfnGetThreadACP@ATL@@3P6GIXZA DD FLAT:?_AtlGetThreadACPThunk@ATL@@YGIXZ ; ATL::g_pfnGetThreadACP
_DATA	ENDS
PUBLIC	?InterlockedExchangePointer@@YGPAXPAPAXPAX@Z	; InterlockedExchangePointer
EXTRN	__imp__InterlockedExchange@8:NEAR
; Function compile flags: /Ogty
; File c:\program files\microsoft visual studio .net 2003\vc7\atlmfc\include\atlconv.h
;	COMDAT ?InterlockedExchangePointer@@YGPAXPAPAXPAX@Z
_TEXT	SEGMENT
_pp$ = 8						; size = 4
_pNew$ = 12						; size = 4
?InterlockedExchangePointer@@YGPAXPAPAXPAX@Z PROC NEAR	; InterlockedExchangePointer, COMDAT

; 92   : 	return( reinterpret_cast<void*>(static_cast<LONG_PTR>(::InterlockedExchange(reinterpret_cast<LONG*>(pp), static_cast<LONG>(reinterpret_cast<LONG_PTR>(pNew))))) );

  00000	ff 25 00 00 00
	00		 jmp	 DWORD PTR __imp__InterlockedExchange@8
?InterlockedExchangePointer@@YGPAXPAPAXPAX@Z ENDP	; InterlockedExchangePointer
_TEXT	ENDS
PUBLIC	?_AtlGetThreadACPFake@ATL@@YGIXZ		; ATL::_AtlGetThreadACPFake
EXTRN	__imp__GetThreadLocale@0:NEAR
EXTRN	___security_cookie:DWORD
EXTRN	@__security_check_cookie@4:NEAR
EXTRN	__imp__GetACP@0:NEAR
EXTRN	__imp__GetLocaleInfoA@16:NEAR
; Function compile flags: /Ogty
;	COMDAT ?_AtlGetThreadACPFake@ATL@@YGIXZ
_TEXT	SEGMENT
_szACP$ = -12						; size = 7
__$ArrayPad$ = -4					; size = 4
__$ReturnAddr$ = 4					; size = 4
?_AtlGetThreadACPFake@ATL@@YGIXZ PROC NEAR		; ATL::_AtlGetThreadACPFake, COMDAT

; 101  : {

  00000	83 ec 0c	 sub	 esp, 12			; 0000000cH
  00003	a1 00 00 00 00	 mov	 eax, DWORD PTR ___security_cookie
  00008	56		 push	 esi
  00009	89 44 24 0c	 mov	 DWORD PTR __$ArrayPad$[esp+16], eax

; 102  : 	UINT nACP = 0;

  0000d	33 f6		 xor	 esi, esi

; 103  : 
; 104  : 	LCID lcidThread = ::GetThreadLocale();

  0000f	ff 15 00 00 00
	00		 call	 DWORD PTR __imp__GetThreadLocale@0

; 105  : 
; 106  : 	char szACP[7];
; 107  : 	// GetLocaleInfoA will fail for a Unicode-only LCID, but those are only supported on 
; 108  : 	// Windows 2000.  Since Windows 2000 supports CP_THREAD_ACP, this code path is never
; 109  : 	// executed on Windows 2000.
; 110  : 	if (::GetLocaleInfoA(lcidThread, LOCALE_IDEFAULTANSICODEPAGE, szACP, 7) != 0)

  00015	6a 07		 push	 7
  00017	8d 4c 24 08	 lea	 ecx, DWORD PTR _szACP$[esp+20]
  0001b	51		 push	 ecx
  0001c	68 04 10 00 00	 push	 4100			; 00001004H
  00021	50		 push	 eax
  00022	ff 15 00 00 00
	00		 call	 DWORD PTR __imp__GetLocaleInfoA@16
  00028	85 c0		 test	 eax, eax
  0002a	74 21		 je	 SHORT $L151343

; 111  : 	{
; 112  : 		char* pch = szACP;
; 113  : 		while (*pch != '\0')

  0002c	8a 44 24 04	 mov	 al, BYTE PTR _szACP$[esp+16]
  00030	84 c0		 test	 al, al
  00032	8d 4c 24 04	 lea	 ecx, DWORD PTR _szACP$[esp+16]
  00036	74 15		 je	 SHORT $L151343
$L37004:

; 114  : 		{
; 115  : 			nACP *= 10;
; 116  : 			nACP += *pch++ - '0';

  00038	0f be c0	 movsx	 eax, al
  0003b	8d 14 b6	 lea	 edx, DWORD PTR [esi+esi*4]
  0003e	41		 inc	 ecx
  0003f	8d 74 50 d0	 lea	 esi, DWORD PTR [eax+edx*2-48]
  00043	8a 01		 mov	 al, BYTE PTR [ecx]
  00045	84 c0		 test	 al, al
  00047	75 ef		 jne	 SHORT $L37004

; 117  : 		}
; 118  : 	}
; 119  : 	// Use the Default ANSI Code Page if we were unable to get the thread ACP or if one does not exist.
; 120  : 	if (nACP == 0)

  00049	85 f6		 test	 esi, esi
  0004b	75 14		 jne	 SHORT $L151344
$L151343:

; 121  : 		nACP = ::GetACP();

  0004d	ff 15 00 00 00
	00		 call	 DWORD PTR __imp__GetACP@0
  00053	5e		 pop	 esi

; 122  : 
; 123  : 	return nACP;
; 124  : }

  00054	8b 4c 24 08	 mov	 ecx, DWORD PTR __$ArrayPad$[esp+12]
  00058	e8 00 00 00 00	 call	 @__security_check_cookie@4
  0005d	83 c4 0c	 add	 esp, 12			; 0000000cH
  00060	c3		 ret	 0
$L151344:
  00061	8b 4c 24 0c	 mov	 ecx, DWORD PTR __$ArrayPad$[esp+16]
  00065	8b c6		 mov	 eax, esi
  00067	5e		 pop	 esi
  00068	e8 00 00 00 00	 call	 @__security_check_cookie@4
  0006d	83 c4 0c	 add	 esp, 12			; 0000000cH
  00070	c3		 ret	 0
?_AtlGetThreadACPFake@ATL@@YGIXZ ENDP			; ATL::_AtlGetThreadACPFake
_TEXT	ENDS
PUBLIC	?_AtlGetThreadACPReal@ATL@@YGIXZ		; ATL::_AtlGetThreadACPReal
; Function compile flags: /Ogty
;	COMDAT ?_AtlGetThreadACPReal@ATL@@YGIXZ
_TEXT	SEGMENT
?_AtlGetThreadACPReal@ATL@@YGIXZ PROC NEAR		; ATL::_AtlGetThreadACPReal, COMDAT

; 128  : 	return( CP_THREAD_ACP );

  00000	b8 03 00 00 00	 mov	 eax, 3

; 129  : }

  00005	c3		 ret	 0
?_AtlGetThreadACPReal@ATL@@YGIXZ ENDP			; ATL::_AtlGetThreadACPReal
_TEXT	ENDS
EXTRN	__imp__GetVersionExA@4:NEAR
; Function compile flags: /Ogty
;	COMDAT ?_AtlGetThreadACPThunk@ATL@@YGIXZ
_TEXT	SEGMENT
_ver$ = -152						; size = 148
__$ArrayPad$ = -4					; size = 4
__$ReturnAddr$ = 4					; size = 4
?_AtlGetThreadACPThunk@ATL@@YGIXZ PROC NEAR		; ATL::_AtlGetThreadACPThunk, COMDAT

; 134  : {

  00000	81 ec 98 00 00
	00		 sub	 esp, 152		; 00000098H
  00006	a1 00 00 00 00	 mov	 eax, DWORD PTR ___security_cookie
  0000b	89 84 24 94 00
	00 00		 mov	 DWORD PTR __$ArrayPad$[esp+152], eax

; 135  : 	OSVERSIONINFO ver;
; 136  : 	ATLGETTHREADACP pfnGetThreadACP;
; 137  : 
; 138  : 	ver.dwOSVersionInfoSize = sizeof( ver );
; 139  : 	::GetVersionEx( &ver );

  00012	8d 04 24	 lea	 eax, DWORD PTR _ver$[esp+152]
  00015	50		 push	 eax
  00016	c7 44 24 04 94
	00 00 00	 mov	 DWORD PTR _ver$[esp+156], 148 ; 00000094H
  0001e	ff 15 00 00 00
	00		 call	 DWORD PTR __imp__GetVersionExA@4

; 140  : 	if( (ver.dwPlatformId == VER_PLATFORM_WIN32_NT) && (ver.dwMajorVersion >= 5) )

  00024	83 7c 24 10 02	 cmp	 DWORD PTR _ver$[esp+168], 2
  00029	75 0c		 jne	 SHORT $L37014
  0002b	83 7c 24 04 05	 cmp	 DWORD PTR _ver$[esp+156], 5

; 141  : 	{
; 142  : 		// On Win2K, CP_THREAD_ACP is supported
; 143  : 		pfnGetThreadACP = _AtlGetThreadACPReal;

  00030	b8 00 00 00 00	 mov	 eax, OFFSET FLAT:?_AtlGetThreadACPReal@ATL@@YGIXZ ; ATL::_AtlGetThreadACPReal
  00035	73 05		 jae	 SHORT $L37015
$L37014:

; 144  : 	}
; 145  : 	else
; 146  : 	{
; 147  : 		pfnGetThreadACP = _AtlGetThreadACPFake;

  00037	b8 00 00 00 00	 mov	 eax, OFFSET FLAT:?_AtlGetThreadACPFake@ATL@@YGIXZ ; ATL::_AtlGetThreadACPFake
$L37015:

; 148  : 	}
; 149  : 	InterlockedExchangePointer( reinterpret_cast< void** >(&g_pfnGetThreadACP), pfnGetThreadACP );

  0003c	50		 push	 eax
  0003d	68 00 00 00 00	 push	 OFFSET FLAT:?g_pfnGetThreadACP@ATL@@3P6GIXZA ; ATL::g_pfnGetThreadACP
  00042	ff 15 00 00 00
	00		 call	 DWORD PTR __imp__InterlockedExchange@8

; 150  : 
; 151  : 	return( g_pfnGetThreadACP() );

  00048	ff 15 00 00 00
	00		 call	 DWORD PTR ?g_pfnGetThreadACP@ATL@@3P6GIXZA ; ATL::g_pfnGetThreadACP

; 152  : }

  0004e	8b 8c 24 94 00
	00 00		 mov	 ecx, DWORD PTR __$ArrayPad$[esp+152]
  00055	e8 00 00 00 00	 call	 @__security_check_cookie@4
  0005a	81 c4 98 00 00
	00		 add	 esp, 152		; 00000098H
  00060	c3		 ret	 0
?_AtlGetThreadACPThunk@ATL@@YGIXZ ENDP			; ATL::_AtlGetThreadACPThunk
_TEXT	ENDS
PUBLIC	?_AtlGetConversionACP@ATL@@YGIXZ		; ATL::_AtlGetConversionACP
; Function compile flags: /Ogty
;	COMDAT ?_AtlGetConversionACP@ATL@@YGIXZ
_TEXT	SEGMENT
?_AtlGetConversionACP@ATL@@YGIXZ PROC NEAR		; ATL::_AtlGetConversionACP, COMDAT

; 158  : 	return( g_pfnGetThreadACP() );

  00000	ff 25 00 00 00
	00		 jmp	 DWORD PTR ?g_pfnGetThreadACP@ATL@@3P6GIXZA ; ATL::g_pfnGetThreadACP
?_AtlGetConversionACP@ATL@@YGIXZ ENDP			; ATL::_AtlGetConversionACP
_TEXT	ENDS
PUBLIC	?AtlThrow@ATL@@YGXJ@Z				; ATL::AtlThrow
EXTRN	?AfxThrowMemoryException@@YGXXZ:NEAR		; AfxThrowMemoryException
EXTRN	?AfxThrowOleException@@YGXJ@Z:NEAR		; AfxThrowOleException
; Function compile flags: /Ogty
; File c:\program files\microsoft visual studio .net 2003\vc7\atlmfc\include\atlexcept.h
;	COMDAT ?AtlThrow@ATL@@YGXJ@Z
_TEXT	SEGMENT
_hr$ = 8						; size = 4
?AtlThrow@ATL@@YGXJ@Z PROC NEAR				; ATL::AtlThrow, COMDAT

; 62   : 	ATLTRACE(atlTraceException, 0, _T("AtlThrow: hr = 0x%x\n"), hr );
; 63   : #ifdef _AFX
; 64   : 	if( hr == E_OUTOFMEMORY )

  00000	8b 44 24 04	 mov	 eax, DWORD PTR _hr$[esp-4]
  00004	3d 0e 00 07 80	 cmp	 eax, -2147024882	; 8007000eH
  00009	75 05		 jne	 SHORT $L37616

; 65   : 	{
; 66   : 		AfxThrowMemoryException();

  0000b	e8 00 00 00 00	 call	 ?AfxThrowMemoryException@@YGXXZ ; AfxThrowMemoryException
$L151367:
$L37616:

; 67   : 	}
; 68   : 	else
; 69   : 	{
; 70   : 		AfxThrowOleException( hr );

  00010	50		 push	 eax
  00011	e8 00 00 00 00	 call	 ?AfxThrowOleException@@YGXJ@Z ; AfxThrowOleException
$L151368:
$L151366:
  00016	cc		 int	 3
?AtlThrow@ATL@@YGXJ@Z ENDP				; ATL::AtlThrow
_TEXT	ENDS
PUBLIC	?_AtlGetStringResourceImage@ATL@@YAPBUATLSTRINGRESOURCEIMAGE@1@PAUHINSTANCE__@@PAUHRSRC__@@I@Z ; ATL::_AtlGetStringResourceImage
EXTRN	__imp__LoadResource@8:NEAR
EXTRN	__imp__SizeofResource@8:NEAR
EXTRN	__imp__LockResource@4:NEAR
; Function compile flags: /Ogty
; File c:\program files\microsoft visual studio .net 2003\vc7\atlmfc\include\atlcore.h
;	COMDAT ?_AtlGetStringResourceImage@ATL@@YAPBUATLSTRINGRESOURCEIMAGE@1@PAUHINSTANCE__@@PAUHRSRC__@@I@Z
_TEXT	SEGMENT
_hInstance$ = 8						; size = 4
_hResource$ = 12					; size = 4
_id$ = 16						; size = 4
?_AtlGetStringResourceImage@ATL@@YAPBUATLSTRINGRESOURCEIMAGE@1@PAUHINSTANCE__@@PAUHRSRC__@@I@Z PROC NEAR ; ATL::_AtlGetStringResourceImage, COMDAT

; 239  : {

  00000	53		 push	 ebx

; 240  : 	const ATLSTRINGRESOURCEIMAGE* pImage;
; 241  : 	const ATLSTRINGRESOURCEIMAGE* pImageEnd;
; 242  : 	ULONG nResourceSize;
; 243  : 	HGLOBAL hGlobal;
; 244  : 	UINT iIndex;
; 245  : 
; 246  : 	hGlobal = ::LoadResource( hInstance, hResource );

  00001	8b 5c 24 08	 mov	 ebx, DWORD PTR _hInstance$[esp]
  00005	57		 push	 edi
  00006	8b 7c 24 10	 mov	 edi, DWORD PTR _hResource$[esp+4]
  0000a	57		 push	 edi
  0000b	53		 push	 ebx
  0000c	ff 15 00 00 00
	00		 call	 DWORD PTR __imp__LoadResource@8

; 247  : 	if( hGlobal == NULL )

  00012	85 c0		 test	 eax, eax
  00014	75 03		 jne	 SHORT $L37970
  00016	5f		 pop	 edi
  00017	5b		 pop	 ebx

; 272  : 	{
; 273  : 		return( NULL );
; 274  : 	}
; 275  : 
; 276  : 	return( pImage );
; 277  : }

  00018	c3		 ret	 0
$L37970:
  00019	56		 push	 esi

; 248  : 	{
; 249  : 		return( NULL );
; 250  : 	}
; 251  : 
; 252  : 	pImage = (const ATLSTRINGRESOURCEIMAGE*)::LockResource( hGlobal );

  0001a	50		 push	 eax
  0001b	ff 15 00 00 00
	00		 call	 DWORD PTR __imp__LockResource@4
  00021	8b f0		 mov	 esi, eax

; 253  : 	if( pImage == NULL )

  00023	85 f6		 test	 esi, esi
  00025	75 06		 jne	 SHORT $L37972
$L151374:
  00027	5e		 pop	 esi
  00028	5f		 pop	 edi

; 254  : 	{
; 255  : 		return( NULL );

  00029	33 c0		 xor	 eax, eax
  0002b	5b		 pop	 ebx

; 272  : 	{
; 273  : 		return( NULL );
; 274  : 	}
; 275  : 
; 276  : 	return( pImage );
; 277  : }

  0002c	c3		 ret	 0
$L37972:

; 256  : 	}
; 257  : 
; 258  : 	nResourceSize = ::SizeofResource( hInstance, hResource );

  0002d	57		 push	 edi
  0002e	53		 push	 ebx
  0002f	ff 15 00 00 00
	00		 call	 DWORD PTR __imp__SizeofResource@8

; 259  : 	pImageEnd = (const ATLSTRINGRESOURCEIMAGE*)(LPBYTE( pImage )+nResourceSize);
; 260  : 	iIndex = id&0x000f;

  00035	8b 4c 24 18	 mov	 ecx, DWORD PTR _id$[esp+8]
  00039	03 c6		 add	 eax, esi
  0003b	83 e1 0f	 and	 ecx, 15			; 0000000fH

; 261  : 
; 262  : 	while( (iIndex > 0) && (pImage < pImageEnd) )

  0003e	76 0e		 jbe	 SHORT $L37976
$L37975:
  00040	3b f0		 cmp	 esi, eax
  00042	73 e3		 jae	 SHORT $L151374

; 263  : 	{
; 264  : 		pImage = (const ATLSTRINGRESOURCEIMAGE*)(LPBYTE( pImage )+(sizeof( ATLSTRINGRESOURCEIMAGE )+(pImage->nLength*sizeof( WCHAR ))));
; 265  : 		iIndex--;

  00044	49		 dec	 ecx
  00045	0f b7 16	 movzx	 edx, WORD PTR [esi]
  00048	8d 74 56 02	 lea	 esi, DWORD PTR [esi+edx*2+2]
  0004c	75 f2		 jne	 SHORT $L37975
$L37976:

; 266  : 	}
; 267  : 	if( pImage >= pImageEnd )

  0004e	3b f0		 cmp	 esi, eax

; 268  : 	{
; 269  : 		return( NULL );

  00050	73 d5		 jae	 SHORT $L151374

; 270  : 	}
; 271  : 	if( pImage->nLength == 0 )

  00052	66 8b 06	 mov	 ax, WORD PTR [esi]
  00055	66 f7 d8	 neg	 ax
  00058	1b c0		 sbb	 eax, eax
  0005a	23 c6		 and	 eax, esi
  0005c	5e		 pop	 esi
  0005d	5f		 pop	 edi
  0005e	5b		 pop	 ebx

; 272  : 	{
; 273  : 		return( NULL );
; 274  : 	}
; 275  : 
; 276  : 	return( pImage );
; 277  : }

  0005f	c3		 ret	 0
?_AtlGetStringResourceImage@ATL@@YAPBUATLSTRINGRESOURCEIMAGE@1@PAUHINSTANCE__@@PAUHRSRC__@@I@Z ENDP ; ATL::_AtlGetStringResourceImage
_TEXT	ENDS
PUBLIC	?AtlGetStringResourceImage@ATL@@YAPBUATLSTRINGRESOURCEIMAGE@1@PAUHINSTANCE__@@I@Z ; ATL::AtlGetStringResourceImage
EXTRN	__imp__FindResourceA@12:NEAR
; Function compile flags: /Ogty
;	COMDAT ?AtlGetStringResourceImage@ATL@@YAPBUATLSTRINGRESOURCEIMAGE@1@PAUHINSTANCE__@@I@Z
_TEXT	SEGMENT
_hInstance$ = 8						; size = 4
_id$ = 12						; size = 4
?AtlGetStringResourceImage@ATL@@YAPBUATLSTRINGRESOURCEIMAGE@1@PAUHINSTANCE__@@I@Z PROC NEAR ; ATL::AtlGetStringResourceImage, COMDAT

; 280  : {

  00000	56		 push	 esi

; 281  : 	HRSRC hResource;
; 282  : 
; 283  : 	hResource = ::FindResource( hInstance, MAKEINTRESOURCE( ((id>>4)+1) ), RT_STRING );

  00001	8b 74 24 0c	 mov	 esi, DWORD PTR _id$[esp]
  00005	8b c6		 mov	 eax, esi
  00007	c1 e8 04	 shr	 eax, 4
  0000a	57		 push	 edi
  0000b	8b 7c 24 0c	 mov	 edi, DWORD PTR _hInstance$[esp+4]
  0000f	40		 inc	 eax
  00010	0f b7 c8	 movzx	 ecx, ax
  00013	6a 06		 push	 6
  00015	51		 push	 ecx
  00016	57		 push	 edi
  00017	ff 15 00 00 00
	00		 call	 DWORD PTR __imp__FindResourceA@12

; 284  : 	if( hResource == NULL )

  0001d	85 c0		 test	 eax, eax
  0001f	75 03		 jne	 SHORT $L37993
  00021	5f		 pop	 edi
  00022	5e		 pop	 esi

; 290  : }

  00023	c3		 ret	 0
$L37993:

; 285  : 	{
; 286  : 		return( NULL );
; 287  : 	}
; 288  : 
; 289  : 	return _AtlGetStringResourceImage( hInstance, hResource, id );

  00024	56		 push	 esi
  00025	50		 push	 eax
  00026	57		 push	 edi
  00027	e8 00 00 00 00	 call	 ?_AtlGetStringResourceImage@ATL@@YAPBUATLSTRINGRESOURCEIMAGE@1@PAUHINSTANCE__@@PAUHRSRC__@@I@Z ; ATL::_AtlGetStringResourceImage
  0002c	83 c4 0c	 add	 esp, 12			; 0000000cH
  0002f	5f		 pop	 edi
  00030	5e		 pop	 esi

; 290  : }

  00031	c3		 ret	 0
?AtlGetStringResourceImage@ATL@@YAPBUATLSTRINGRESOURCEIMAGE@1@PAUHINSTANCE__@@I@Z ENDP ; ATL::AtlGetStringResourceImage
_TEXT	ENDS
PUBLIC	?data@CStringData@ATL@@QAEPAXXZ			; ATL::CStringData::data
; Function compile flags: /Ogty
; File c:\program files\microsoft visual studio .net 2003\vc7\atlmfc\include\atlsimpstr.h
;	COMDAT ?data@CStringData@ATL@@QAEPAXXZ
_TEXT	SEGMENT
?data@CStringData@ATL@@QAEPAXXZ PROC NEAR		; ATL::CStringData::data, COMDAT
; _this$ = ecx

; 66   : 		return (this+1);

  00000	8d 41 10	 lea	 eax, DWORD PTR [ecx+16]

; 67   : 	}

  00003	c3		 ret	 0
?data@CStringData@ATL@@QAEPAXXZ ENDP			; ATL::CStringData::data
_TEXT	ENDS
PUBLIC	?IsLocked@CStringData@ATL@@QBE_NXZ		; ATL::CStringData::IsLocked
; Function compile flags: /Ogty
;	COMDAT ?IsLocked@CStringData@ATL@@QBE_NXZ
_TEXT	SEGMENT
?IsLocked@CStringData@ATL@@QBE_NXZ PROC NEAR		; ATL::CStringData::IsLocked, COMDAT
; _this$ = ecx

; 76   : 		return nRefs < 0;

  00000	8b 51 0c	 mov	 edx, DWORD PTR [ecx+12]
  00003	33 c0		 xor	 eax, eax
  00005	85 d2		 test	 edx, edx
  00007	0f 9c c0	 setl	 al

; 77   : 	}

  0000a	c3		 ret	 0
?IsLocked@CStringData@ATL@@QBE_NXZ ENDP			; ATL::CStringData::IsLocked
_TEXT	ENDS
PUBLIC	?IsShared@CStringData@ATL@@QBE_NXZ		; ATL::CStringData::IsShared
; Function compile flags: /Ogty
;	COMDAT ?IsShared@CStringData@ATL@@QBE_NXZ
_TEXT	SEGMENT
?IsShared@CStringData@ATL@@QBE_NXZ PROC NEAR		; ATL::CStringData::IsShared, COMDAT
; _this$ = ecx

; 80   : 		return( nRefs > 1 ); 

  00000	8b 51 0c	 mov	 edx, DWORD PTR [ecx+12]
  00003	33 c0		 xor	 eax, eax
  00005	83 fa 01	 cmp	 edx, 1
  00008	0f 9f c0	 setg	 al

; 81   : 	}

  0000b	c3		 ret	 0
?IsShared@CStringData@ATL@@QBE_NXZ ENDP			; ATL::CStringData::IsShared
_TEXT	ENDS
PUBLIC	?Release@CStringData@ATL@@QAEXXZ		; ATL::CStringData::Release
; Function compile flags: /Ogty
;	COMDAT ?Release@CStringData@ATL@@QAEXXZ
_TEXT	SEGMENT
?Release@CStringData@ATL@@QAEXXZ PROC NEAR		; ATL::CStringData::Release, COMDAT
; _this$ = ecx

; 93   : 		ATLASSERT( nRefs != 0 );
; 94   : 
; 95   : 		if( _InterlockedDecrement( &nRefs ) <= 0 )

  00000	8d 41 0c	 lea	 eax, DWORD PTR [ecx+12]
  00003	83 ca ff	 or	 edx, -1
  00006	f0 0f c1 10	 lock	  xadd	 DWORD PTR [eax], edx
  0000a	4a		 dec	 edx
  0000b	85 d2		 test	 edx, edx
  0000d	7f 0a		 jg	 SHORT $L38333

; 96   : 		{
; 97   : 			pStringMgr->Free( this );

  0000f	8b 01		 mov	 eax, DWORD PTR [ecx]
  00011	8b 10		 mov	 edx, DWORD PTR [eax]
  00013	51		 push	 ecx
  00014	8b c8		 mov	 ecx, eax
  00016	ff 52 04	 call	 DWORD PTR [edx+4]
$L38333:

; 98   : 		}
; 99   : 	}

  00019	c3		 ret	 0
?Release@CStringData@ATL@@QAEXXZ ENDP			; ATL::CStringData::Release
_TEXT	ENDS
PUBLIC	?IsComposibleTh@@YA_NEEH@Z			; IsComposibleTh
; Function compile flags: /Ogty
; File c:\offi src_real\offi src!\monitor\scanner.cpp
;	COMDAT ?IsComposibleTh@@YA_NEEH@Z
_TEXT	SEGMENT
_prev$ = 8						; size = 1
_curr$ = 12						; size = 1
_mode$ = 16						; size = 4
?IsComposibleTh@@YA_NEEH@Z PROC NEAR			; IsComposibleTh, COMDAT

; 125  : 	using namespace THAI;
; 126  : 	using namespace INPUT;
; 127  : 
; 128  : 	if(mode > 2) {

  00000	8b 4c 24 0c	 mov	 ecx, DWORD PTR _mode$[esp-4]
  00004	83 f9 02	 cmp	 ecx, 2
  00007	7e 03		 jle	 SHORT $L150648

; 129  : 		return false;

  00009	32 c0		 xor	 al, al

; 132  : 	}
; 133  : }

  0000b	c3		 ret	 0
$L150648:

; 130  : 	} else {
; 131  : 		return COMPOSIBLE[mode][STATE_CHECK[CLASS_TABLE[prev]][CLASS_TABLE[curr]]];

  0000c	0f b6 44 24 04	 movzx	 eax, BYTE PTR _prev$[esp-4]
  00011	8b 04 85 00 00
	00 00		 mov	 eax, DWORD PTR ?CLASS_TABLE@THAI@@3PAW4CLASS@1@A[eax*4]
  00018	8b d0		 mov	 edx, eax
  0001a	c1 e2 04	 shl	 edx, 4
  0001d	03 d0		 add	 edx, eax
  0001f	0f b6 44 24 08	 movzx	 eax, BYTE PTR _curr$[esp-4]
  00024	03 14 85 00 00
	00 00		 add	 edx, DWORD PTR ?CLASS_TABLE@THAI@@3PAW4CLASS@1@A[eax*4]
  0002b	8b 14 95 00 00
	00 00		 mov	 edx, DWORD PTR ?STATE_CHECK@INPUT@THAI@@3PAY0BB@W4TYPE@12@A[edx*4]
  00032	8d 0c 89	 lea	 ecx, DWORD PTR [ecx+ecx*4]
  00035	8a 84 0a 00 00
	00 00		 mov	 al, BYTE PTR ?COMPOSIBLE@INPUT@THAI@@3PAY04_NA[edx+ecx]

; 132  : 	}
; 133  : }

  0003c	c3		 ret	 0
?IsComposibleTh@@YA_NEEH@Z ENDP				; IsComposibleTh
_TEXT	ENDS
PUBLIC	?CharNextTh@@YAPBDPBD@Z				; CharNextTh
; Function compile flags: /Ogty
;	COMDAT ?CharNextTh@@YAPBDPBD@Z
_TEXT	SEGMENT
_lpsz$ = 8						; size = 4
?CharNextTh@@YAPBDPBD@Z PROC NEAR			; CharNextTh, COMDAT

; 141  : 	using namespace THAI;
; 142  : 	using namespace OUTPUT;
; 143  : 
; 144  : 	const BYTE* stream = (const BYTE*)(lpsz);

  00000	8b 54 24 04	 mov	 edx, DWORD PTR _lpsz$[esp-4]

; 145  : 
; 146  : 	while(STATE_CHECK
; 147  : 		[ 
; 148  : 			CLASS_TABLE
; 149  : 			[ 
; 150  : 				stream[ 0 ] 
; 151  : 			] 
; 152  : 		]
; 153  : 		[ 
; 154  : 			CLASS_TABLE
; 155  : 			[ 
; 156  : 				stream[ 1 ] 
; 157  : 			] 
; 158  : 		] == C) ++stream;

  00004	0f b6 0a	 movzx	 ecx, BYTE PTR [edx]
  00007	8b 0c 8d 00 00
	00 00		 mov	 ecx, DWORD PTR ?CLASS_TABLE@THAI@@3PAW4CLASS@1@A[ecx*4]
  0000e	53		 push	 ebx
  0000f	57		 push	 edi
  00010	8b f9		 mov	 edi, ecx
  00012	c1 e7 04	 shl	 edi, 4
  00015	03 f9		 add	 edi, ecx
  00017	0f b6 4a 01	 movzx	 ecx, BYTE PTR [edx+1]
  0001b	8b 1c 8d 00 00
	00 00		 mov	 ebx, DWORD PTR ?CLASS_TABLE@THAI@@3PAW4CLASS@1@A[ecx*4]
  00022	8d 42 01	 lea	 eax, DWORD PTR [edx+1]
  00025	03 fb		 add	 edi, ebx
  00027	83 3c bd 00 00
	00 00 01	 cmp	 DWORD PTR ?STATE_CHECK@OUTPUT@THAI@@3PAY0BB@W4TYPE@12@A[edi*4], 1
  0002f	75 33		 jne	 SHORT $L151399
$L150656:
  00031	8b c8		 mov	 ecx, eax
  00033	0f b6 11	 movzx	 edx, BYTE PTR [ecx]
  00036	8b 14 95 00 00
	00 00		 mov	 edx, DWORD PTR ?CLASS_TABLE@THAI@@3PAW4CLASS@1@A[edx*4]
  0003d	8b fa		 mov	 edi, edx
  0003f	c1 e7 04	 shl	 edi, 4
  00042	03 fa		 add	 edi, edx
  00044	0f b6 51 01	 movzx	 edx, BYTE PTR [ecx+1]
  00048	8b 1c 95 00 00
	00 00		 mov	 ebx, DWORD PTR ?CLASS_TABLE@THAI@@3PAW4CLASS@1@A[edx*4]
  0004f	8d 41 01	 lea	 eax, DWORD PTR [ecx+1]
  00052	03 fb		 add	 edi, ebx
  00054	83 3c bd 00 00
	00 00 01	 cmp	 DWORD PTR ?STATE_CHECK@OUTPUT@THAI@@3PAY0BB@W4TYPE@12@A[edi*4], 1
  0005c	74 d3		 je	 SHORT $L150656
  0005e	5f		 pop	 edi

; 159  : 
; 160  : 	return (const char*)(stream+1);

  0005f	8d 41 01	 lea	 eax, DWORD PTR [ecx+1]
  00062	5b		 pop	 ebx

; 161  : }

  00063	c3		 ret	 0
$L151399:
  00064	5f		 pop	 edi

; 159  : 
; 160  : 	return (const char*)(stream+1);

  00065	8d 42 01	 lea	 eax, DWORD PTR [edx+1]
  00068	5b		 pop	 ebx

; 161  : }

  00069	c3		 ret	 0
?CharNextTh@@YAPBDPBD@Z ENDP				; CharNextTh
_TEXT	ENDS
PUBLIC	?CharNextEx@@YAPBDPBDG@Z			; CharNextEx
EXTRN	__imp__CharNextExA@12:NEAR
; Function compile flags: /Ogty
;	COMDAT ?CharNextEx@@YAPBDPBDG@Z
_TEXT	SEGMENT
_strText$ = 8						; size = 4
_codePage$ = 12						; size = 2
?CharNextEx@@YAPBDPBDG@Z PROC NEAR			; CharNextEx, COMDAT

; 165  : 	if(codePage == 874)

  00000	66 81 7c 24 08
	6a 03		 cmp	 WORD PTR _codePage$[esp-4], 874 ; 0000036aH
  00007	75 0e		 jne	 SHORT $L150663

; 166  : 	{
; 167  : 		return CharNextTh(strText);

  00009	8b 44 24 04	 mov	 eax, DWORD PTR _strText$[esp-4]
  0000d	50		 push	 eax
  0000e	e8 00 00 00 00	 call	 ?CharNextTh@@YAPBDPBD@Z	; CharNextTh
  00013	83 c4 04	 add	 esp, 4

; 172  : 	}
; 173  : }

  00016	c3		 ret	 0
$L150663:

; 168  : 	}
; 169  : 	else
; 170  : 	{
; 171  : 		return CharNextExA(g_codePage, strText, 0);

  00017	8b 4c 24 04	 mov	 ecx, DWORD PTR _strText$[esp-4]
  0001b	33 d2		 xor	 edx, edx
  0001d	66 8b 15 00 00
	00 00		 mov	 dx, WORD PTR ?g_codePage@@3GA ; g_codePage
  00024	6a 00		 push	 0
  00026	51		 push	 ecx
  00027	52		 push	 edx
  00028	ff 15 00 00 00
	00		 call	 DWORD PTR __imp__CharNextExA@12

; 172  : 	}
; 173  : }

  0002e	c3		 ret	 0
?CharNextEx@@YAPBDPBDG@Z ENDP				; CharNextEx
_TEXT	ENDS
PUBLIC	?Free@CScanner@@QAEXXZ				; CScanner::Free
EXTRN	??3@YAXPAX@Z:NEAR				; operator delete
; Function compile flags: /Ogty
;	COMDAT ?Free@CScanner@@QAEXXZ
_TEXT	SEGMENT
?Free@CScanner@@QAEXXZ PROC NEAR			; CScanner::Free, COMDAT
; _this$ = ecx

; 207  : {

  00000	53		 push	 ebx
  00001	56		 push	 esi
  00002	8b f1		 mov	 esi, ecx

; 208  : 	if(!m_bMemFlag && m_pBuf) 

  00004	8a 46 08	 mov	 al, BYTE PTR [esi+8]
  00007	33 db		 xor	 ebx, ebx
  00009	3a c3		 cmp	 al, bl
  0000b	75 10		 jne	 SHORT $L151408
  0000d	8b 46 20	 mov	 eax, DWORD PTR [esi+32]
  00010	3b c3		 cmp	 eax, ebx
  00012	74 09		 je	 SHORT $L151408

; 209  : 		safe_delete( m_pBuf );

  00014	50		 push	 eax
  00015	e8 00 00 00 00	 call	 ??3@YAXPAX@Z		; operator delete
  0001a	83 c4 04	 add	 esp, 4
$L151408:

; 210  : 	m_pProg = m_pBuf = 0;

  0001d	89 5e 20	 mov	 DWORD PTR [esi+32], ebx
  00020	89 5e 1c	 mov	 DWORD PTR [esi+28], ebx
  00023	5e		 pop	 esi
  00024	5b		 pop	 ebx

; 211  : }

  00025	c3		 ret	 0
?Free@CScanner@@QAEXXZ ENDP				; CScanner::Free
_TEXT	ENDS
PUBLIC	?Read@CScanner@@IAEHPAVCFileIO@@H@Z		; CScanner::Read
EXTRN	??_U@YAPAXI@Z:NEAR				; operator new[]
EXTRN	__imp__WideCharToMultiByte@32:NEAR
; Function compile flags: /Ogty
;	COMDAT ?Read@CScanner@@IAEHPAVCFileIO@@H@Z
_TEXT	SEGMENT
_pFile$ = 8						; size = 4
_bMultiByte$ = 12					; size = 4
?Read@CScanner@@IAEHPAVCFileIO@@H@Z PROC NEAR		; CScanner::Read, COMDAT
; _this$ = ecx

; 214  : {

  00000	55		 push	 ebp
  00001	56		 push	 esi

; 215  : 	m_bMemFlag = 0;
; 216  : 	char* pProg;
; 217  : 	m_nProgSize = pFile->GetLength();

  00002	8b 74 24 0c	 mov	 esi, DWORD PTR _pFile$[esp+4]
  00006	8b e9		 mov	 ebp, ecx
  00008	c6 45 08 00	 mov	 BYTE PTR [ebp+8], 0
  0000c	8b 06		 mov	 eax, DWORD PTR [esi]
  0000e	57		 push	 edi
  0000f	8b ce		 mov	 ecx, esi
  00011	ff 50 24	 call	 DWORD PTR [eax+36]
  00014	89 45 0c	 mov	 DWORD PTR [ebp+12], eax

; 218  : 	pProg = new char[ m_nProgSize + 2 ];

  00017	83 c0 02	 add	 eax, 2
  0001a	50		 push	 eax
  0001b	e8 00 00 00 00	 call	 ??_U@YAPAXI@Z		; operator new[]
  00020	8b f8		 mov	 edi, eax
  00022	83 c4 04	 add	 esp, 4

; 219  : 	m_pProg = m_pBuf = pProg;
; 220  : 	if( !m_pBuf ) return 0;

  00025	85 ff		 test	 edi, edi
  00027	89 7d 20	 mov	 DWORD PTR [ebp+32], edi
  0002a	89 7d 1c	 mov	 DWORD PTR [ebp+28], edi
  0002d	75 06		 jne	 SHORT $L150696
  0002f	5f		 pop	 edi
  00030	5e		 pop	 esi
  00031	5d		 pop	 ebp

; 247  : }

  00032	c2 08 00	 ret	 8
$L150696:

; 221  : 	pFile->Read( m_pBuf,m_nProgSize );

  00035	8b 45 0c	 mov	 eax, DWORD PTR [ebp+12]
  00038	8b 16		 mov	 edx, DWORD PTR [esi]
  0003a	6a 01		 push	 1
  0003c	50		 push	 eax
  0003d	57		 push	 edi
  0003e	8b ce		 mov	 ecx, esi
  00040	ff 52 2c	 call	 DWORD PTR [edx+44]

; 222  : 	*(pProg + m_nProgSize ) = '\0';

  00043	8b 4d 0c	 mov	 ecx, DWORD PTR [ebp+12]
  00046	c6 04 0f 00	 mov	 BYTE PTR [edi+ecx], 0

; 223  : 	*(pProg + m_nProgSize + 1 ) = '\0';

  0004a	8b 55 0c	 mov	 edx, DWORD PTR [ebp+12]
  0004d	c6 44 3a 01 00	 mov	 BYTE PTR [edx+edi+1], 0

; 224  : 	// 0xfffe의 2바이트를 빼고 널(0x0000)을 2바이트를 추가해서 결국 m_nProgSize는 변화 없음.
; 225  : 	// 텍스트가 유니코드일 경우 멀티바이트로 변경 
; 226  : 	if( (BYTE)*(pProg + 0 ) == 0xff && (BYTE)*(pProg + 1 ) == 0xfe ) // is unicode ?

  00052	80 3f ff	 cmp	 BYTE PTR [edi], 255	; 000000ffH
  00055	0f 85 93 00 00
	00		 jne	 $L150709
  0005b	80 7f 01 fe	 cmp	 BYTE PTR [edi+1], 254	; 000000feH
  0005f	0f 85 89 00 00
	00		 jne	 $L150709

; 227  : 	{
; 228  : 		m_bWideChar = TRUE;
; 229  : 		if( bMultiByte ) // is unicode ?

  00065	8b 44 24 14	 mov	 eax, DWORD PTR _bMultiByte$[esp+8]
  00069	85 c0		 test	 eax, eax
  0006b	c7 45 14 01 00
	00 00		 mov	 DWORD PTR [ebp+20], 1
  00072	74 66		 je	 SHORT $L150700

; 230  : 		{
; 231  : 			CHAR* lpMultiByte = new CHAR[ m_nProgSize + 2 ];

  00074	8b 45 0c	 mov	 eax, DWORD PTR [ebp+12]
  00077	83 c0 02	 add	 eax, 2
  0007a	53		 push	 ebx
  0007b	50		 push	 eax
  0007c	e8 00 00 00 00	 call	 ??_U@YAPAXI@Z		; operator new[]

; 232  : 			int nResult = WideCharToMultiByte( g_codePage, 0, (LPCWSTR)(pProg + 2), -1, lpMultiByte, 
; 233  : 				(m_nProgSize + 2) * sizeof(CHAR), NULL, NULL );

  00081	8b 4d 0c	 mov	 ecx, DWORD PTR [ebp+12]
  00084	83 c4 04	 add	 esp, 4
  00087	6a 00		 push	 0
  00089	6a 00		 push	 0
  0008b	83 c1 02	 add	 ecx, 2
  0008e	51		 push	 ecx
  0008f	8b d8		 mov	 ebx, eax
  00091	0f b7 05 00 00
	00 00		 movzx	 eax, WORD PTR ?g_codePage@@3GA ; g_codePage
  00098	53		 push	 ebx
  00099	6a ff		 push	 -1
  0009b	8d 57 02	 lea	 edx, DWORD PTR [edi+2]
  0009e	52		 push	 edx
  0009f	6a 00		 push	 0
  000a1	50		 push	 eax
  000a2	ff 15 00 00 00
	00		 call	 DWORD PTR __imp__WideCharToMultiByte@32

; 234  : 			//cchWideChar
; 235  : 			lpMultiByte[ nResult ] = '\0';
; 236  : 			memcpy( pProg, lpMultiByte, nResult );

  000a8	8b c8		 mov	 ecx, eax
  000aa	8b d1		 mov	 edx, ecx
  000ac	c1 e9 02	 shr	 ecx, 2
  000af	c6 04 18 00	 mov	 BYTE PTR [eax+ebx], 0
  000b3	8b f3		 mov	 esi, ebx
  000b5	f3 a5		 rep movsd
  000b7	8b ca		 mov	 ecx, edx
  000b9	83 e1 03	 and	 ecx, 3

; 237  : 			safe_delete( lpMultiByte );

  000bc	53		 push	 ebx
  000bd	f3 a4		 rep movsb
  000bf	e8 00 00 00 00	 call	 ??3@YAXPAX@Z		; operator delete
  000c4	83 c4 04	 add	 esp, 4
  000c7	5b		 pop	 ebx
  000c8	5f		 pop	 edi
  000c9	5e		 pop	 esi

; 238  : 			m_bWideChar = FALSE;

  000ca	c7 45 14 00 00
	00 00		 mov	 DWORD PTR [ebp+20], 0

; 243  : 
; 244  : 		}
; 245  : 	}
; 246  : 	return 1;

  000d1	b8 01 00 00 00	 mov	 eax, 1
  000d6	5d		 pop	 ebp

; 247  : }

  000d7	c2 08 00	 ret	 8
$L150700:

; 239  : 		}
; 240  : 		else
; 241  : 		{
; 242  : 			memcpy( pProg, pProg + 2, m_nProgSize );

  000da	8b 4d 0c	 mov	 ecx, DWORD PTR [ebp+12]
  000dd	8b c1		 mov	 eax, ecx
  000df	c1 e9 02	 shr	 ecx, 2
  000e2	8d 77 02	 lea	 esi, DWORD PTR [edi+2]
  000e5	f3 a5		 rep movsd
  000e7	8b c8		 mov	 ecx, eax
  000e9	83 e1 03	 and	 ecx, 3
  000ec	f3 a4		 rep movsb
$L150709:
  000ee	5f		 pop	 edi
  000ef	5e		 pop	 esi

; 243  : 
; 244  : 		}
; 245  : 	}
; 246  : 	return 1;

  000f0	b8 01 00 00 00	 mov	 eax, 1
  000f5	5d		 pop	 ebp

; 247  : }

  000f6	c2 08 00	 ret	 8
?Read@CScanner@@IAEHPAVCFileIO@@H@Z ENDP		; CScanner::Read
_TEXT	ENDS
PUBLIC	?SetProg@CScanner@@QAEXPAX@Z			; CScanner::SetProg
; Function compile flags: /Ogty
;	COMDAT ?SetProg@CScanner@@QAEXPAX@Z
_TEXT	SEGMENT
_pProg$ = 8						; size = 4
?SetProg@CScanner@@QAEXPAX@Z PROC NEAR			; CScanner::SetProg, COMDAT
; _this$ = ecx

; 272  : 	m_bMemFlag = 1; m_pProg = m_pBuf = (CHAR*)pProg;

  00000	8b 44 24 04	 mov	 eax, DWORD PTR _pProg$[esp-4]
  00004	c6 41 08 01	 mov	 BYTE PTR [ecx+8], 1
  00008	89 41 20	 mov	 DWORD PTR [ecx+32], eax
  0000b	89 41 1c	 mov	 DWORD PTR [ecx+28], eax

; 273  : }

  0000e	c2 04 00	 ret	 4
?SetProg@CScanner@@QAEXPAX@Z ENDP			; CScanner::SetProg
_TEXT	ENDS
PUBLIC	?GetLineNum@CScanner@@UAEHPAX@Z			; CScanner::GetLineNum
; Function compile flags: /Ogty
;	COMDAT ?GetLineNum@CScanner@@UAEHPAX@Z
_TEXT	SEGMENT
_lpProg$ = 8						; size = 4
?GetLineNum@CScanner@@UAEHPAX@Z PROC NEAR		; CScanner::GetLineNum, COMDAT
; _this$ = ecx

; 276  : 	int nLine = 0;
; 277  : 	if( lpProg == NULL )

  00000	8b 54 24 04	 mov	 edx, DWORD PTR _lpProg$[esp-4]
  00004	85 d2		 test	 edx, edx
  00006	75 03		 jne	 SHORT $L150741

; 278  : 		lpProg = m_pProg;

  00008	8b 51 1c	 mov	 edx, DWORD PTR [ecx+28]
$L150741:

; 279  : 	
; 280  : 	if( m_bWideChar == FALSE )

  0000b	8b 41 14	 mov	 eax, DWORD PTR [ecx+20]
  0000e	85 c0		 test	 eax, eax

; 281  : 	{
; 282  : 		CHAR* pTemp = m_pBuf;

  00010	8b 49 20	 mov	 ecx, DWORD PTR [ecx+32]
  00013	75 19		 jne	 SHORT $L150742

; 283  : 		int nLine = 0;

  00015	33 c0		 xor	 eax, eax

; 284  : 		while( lpProg != pTemp )

  00017	3b d1		 cmp	 edx, ecx
  00019	74 27		 je	 SHORT $L150739
  0001b	eb 03 8d 49 00	 npad	 5
$L150746:

; 285  : 		{
; 286  : 			if( *pTemp == '\r' )

  00020	80 39 0d	 cmp	 BYTE PTR [ecx], 13	; 0000000dH
  00023	75 01		 jne	 SHORT $L150748

; 287  : 				nLine++;

  00025	40		 inc	 eax
$L150748:

; 288  : 			pTemp++;

  00026	41		 inc	 ecx
  00027	3b ca		 cmp	 ecx, edx
  00029	75 f5		 jne	 SHORT $L150746

; 301  : 		}
; 302  : 		return nLine;
; 303  : 	}
; 304  : 	return nLine;
; 305  : }

  0002b	c2 04 00	 ret	 4
$L150742:

; 289  : 		}
; 290  : 		return nLine;
; 291  : 	}
; 292  : 	else
; 293  : 	{
; 294  : 		wchar_t* pTemp = (wchar_t*)m_pBuf;
; 295  : 		int nLine = 0;

  0002e	33 c0		 xor	 eax, eax

; 296  : 		while( lpProg != pTemp )

  00030	3b d1		 cmp	 edx, ecx
  00032	74 0e		 je	 SHORT $L150739
$L150754:

; 297  : 		{
; 298  : 			if( *pTemp == '\r' )

  00034	66 83 39 0d	 cmp	 WORD PTR [ecx], 13	; 0000000dH
  00038	75 01		 jne	 SHORT $L150756

; 299  : 				nLine++;

  0003a	40		 inc	 eax
$L150756:

; 300  : 			pTemp++;

  0003b	83 c1 02	 add	 ecx, 2
  0003e	3b ca		 cmp	 ecx, edx
  00040	75 f2		 jne	 SHORT $L150754
$L150739:

; 301  : 		}
; 302  : 		return nLine;
; 303  : 	}
; 304  : 	return nLine;
; 305  : }

  00042	c2 04 00	 ret	 4
?GetLineNum@CScanner@@UAEHPAX@Z ENDP			; CScanner::GetLineNum
_TEXT	ENDS
PUBLIC	?PutBack@CScanner@@UAEXXZ			; CScanner::PutBack
; Function compile flags: /Ogty
;	COMDAT ?PutBack@CScanner@@UAEXXZ
_TEXT	SEGMENT
?PutBack@CScanner@@UAEXXZ PROC NEAR			; CScanner::PutBack, COMDAT
; _this$ = ecx

; 926  : 	if( m_bWideChar )

  00000	8b 41 14	 mov	 eax, DWORD PTR [ecx+20]
  00003	85 c0		 test	 eax, eax
  00005	74 30		 je	 SHORT $L151088

; 927  : 	{
; 928  : 		for( WORD *t = m_wszToken; *t; t++ ) 

  00007	66 83 79 2c 00	 cmp	 WORD PTR [ecx+44], 0
  0000c	8d 41 2c	 lea	 eax, DWORD PTR [ecx+44]
  0000f	74 18		 je	 SHORT $L151092
  00011	ba fe ff ff ff	 mov	 edx, -2			; fffffffeH
  00016	56		 push	 esi
$L151090:

; 929  : 			m_pProg-=2;

  00017	8b 71 1c	 mov	 esi, DWORD PTR [ecx+28]
  0001a	03 f2		 add	 esi, edx
  0001c	83 c0 02	 add	 eax, 2
  0001f	89 71 1c	 mov	 DWORD PTR [ecx+28], esi
  00022	66 83 38 00	 cmp	 WORD PTR [eax], 0
  00026	75 ef		 jne	 SHORT $L151090
  00028	5e		 pop	 esi
$L151092:

; 930  : 		if( tokenType == STRING ) // 따옴표 처리 

  00029	83 b9 2c 0c 00
	00 06		 cmp	 DWORD PTR [ecx+3116], 6
  00030	75 2f		 jne	 SHORT $L151099

; 931  : 			m_pProg-=4;

  00032	83 41 1c fc	 add	 DWORD PTR [ecx+28], -4	; fffffffcH

; 939  : 	}
; 940  : }

  00036	c3		 ret	 0
$L151088:

; 932  : 	}
; 933  : 	else
; 934  : 	{
; 935  : 		for( CHAR *t = m_mszToken; *t; t++ ) 

  00037	8a 91 2c 08 00
	00		 mov	 dl, BYTE PTR [ecx+2092]
  0003d	84 d2		 test	 dl, dl
  0003f	8d 81 2c 08 00
	00		 lea	 eax, DWORD PTR [ecx+2092]
  00045	74 0d		 je	 SHORT $L151098
$L151096:

; 936  : 			m_pProg--;

  00047	8b 51 1c	 mov	 edx, DWORD PTR [ecx+28]
  0004a	4a		 dec	 edx
  0004b	40		 inc	 eax
  0004c	89 51 1c	 mov	 DWORD PTR [ecx+28], edx
  0004f	80 38 00	 cmp	 BYTE PTR [eax], 0
  00052	75 f3		 jne	 SHORT $L151096
$L151098:

; 937  : 		if( tokenType == STRING ) // 따옴표 처리 

  00054	83 b9 2c 0c 00
	00 06		 cmp	 DWORD PTR [ecx+3116], 6
  0005b	75 04		 jne	 SHORT $L151099

; 938  : 			m_pProg-=2;

  0005d	83 41 1c fe	 add	 DWORD PTR [ecx+28], -2	; fffffffeH
$L151099:

; 939  : 	}
; 940  : }

  00061	c3		 ret	 0
?PutBack@CScanner@@UAEXXZ ENDP				; CScanner::PutBack
_TEXT	ENDS
PUBLIC	??_C@_0BH@PMNGKJFP@?5?$CB?3?$DL?0?$CL?9?$DM?$DO?8?1?$CK?$CF?$FO?$DN?$CI?$CJ?$CG?$HM?$CC?$HL?$HN?$AA@ ; `string'
PUBLIC	?isdelim@CScanner@@IAEHG@Z			; CScanner::isdelim
EXTRN	_strchr:NEAR
;	COMDAT ??_C@_0BH@PMNGKJFP@?5?$CB?3?$DL?0?$CL?9?$DM?$DO?8?1?$CK?$CF?$FO?$DN?$CI?$CJ?$CG?$HM?$CC?$HL?$HN?$AA@
CONST	SEGMENT
??_C@_0BH@PMNGKJFP@?5?$CB?3?$DL?0?$CL?9?$DM?$DO?8?1?$CK?$CF?$FO?$DN?$CI?$CJ?$CG?$HM?$CC?$HL?$HN?$AA@ DB ' '
	DB	'!:;,+-<>''/*%^=()&|"{}', 00H		; `string'
; Function compile flags: /Ogty
CONST	ENDS
;	COMDAT ?isdelim@CScanner@@IAEHG@Z
_TEXT	SEGMENT
_c$ = 8							; size = 2
?isdelim@CScanner@@IAEHG@Z PROC NEAR			; CScanner::isdelim, COMDAT
; _this$ = ecx

; 943  : {

  00000	56		 push	 esi

; 944  : 	// LeadByte면 delim가 아니므로 0
; 945  : 	if(strchr(" !:;,+-<>'/*%^=()&|\"{}",c) || c == 9 || c == '\r' || c == 0 || c == '\n' ) 

  00001	66 8b 74 24 08	 mov	 si, WORD PTR _c$[esp]
  00006	0f b7 c6	 movzx	 eax, si
  00009	50		 push	 eax
  0000a	68 00 00 00 00	 push	 OFFSET FLAT:??_C@_0BH@PMNGKJFP@?5?$CB?3?$DL?0?$CL?9?$DM?$DO?8?1?$CK?$CF?$FO?$DN?$CI?$CJ?$CG?$HM?$CC?$HL?$HN?$AA@
  0000f	e8 00 00 00 00	 call	 _strchr
  00014	83 c4 08	 add	 esp, 8
  00017	85 c0		 test	 eax, eax
  00019	75 1b		 jne	 SHORT $L151105
  0001b	66 83 fe 09	 cmp	 si, 9
  0001f	74 15		 je	 SHORT $L151105
  00021	66 83 fe 0d	 cmp	 si, 13			; 0000000dH
  00025	74 0f		 je	 SHORT $L151105
  00027	66 85 f6	 test	 si, si
  0002a	74 0a		 je	 SHORT $L151105
  0002c	66 83 fe 0a	 cmp	 si, 10			; 0000000aH
  00030	74 04		 je	 SHORT $L151105
  00032	5e		 pop	 esi

; 947  : 	return 0;
; 948  : }

  00033	c2 04 00	 ret	 4
$L151105:

; 946  : 		return 1;

  00036	b8 01 00 00 00	 mov	 eax, 1
  0003b	5e		 pop	 esi

; 947  : 	return 0;
; 948  : }

  0003c	c2 04 00	 ret	 4
?isdelim@CScanner@@IAEHG@Z ENDP				; CScanner::isdelim
_TEXT	ENDS
PUBLIC	?iswhite@CScanner@@IAEHG@Z			; CScanner::iswhite
; Function compile flags: /Ogty
;	COMDAT ?iswhite@CScanner@@IAEHG@Z
_TEXT	SEGMENT
_c$ = 8							; size = 2
?iswhite@CScanner@@IAEHG@Z PROC NEAR			; CScanner::iswhite, COMDAT
; _this$ = ecx

; 952  : 	if(c > 0 && c <= 0x20)

  00000	66 8b 44 24 04	 mov	 ax, WORD PTR _c$[esp-4]
  00005	66 85 c0	 test	 ax, ax
  00008	76 0e		 jbe	 SHORT $L151111
  0000a	66 3d 20 00	 cmp	 ax, 32			; 00000020H
  0000e	77 08		 ja	 SHORT $L151111

; 953  : 		return 1;

  00010	b8 01 00 00 00	 mov	 eax, 1

; 955  : }

  00015	c2 04 00	 ret	 4
$L151111:

; 954  : 	return 0;

  00018	33 c0		 xor	 eax, eax

; 955  : }

  0001a	c2 04 00	 ret	 4
?iswhite@CScanner@@IAEHG@Z ENDP				; CScanner::iswhite
_TEXT	ENDS
PUBLIC	?StringLowercase@?$ChTraitsCRT@D@ATL@@SAPADPAD@Z ; ATL::ChTraitsCRT<char>::StringLowercase
EXTRN	__mbslwr:NEAR
; Function compile flags: /Ogty
; File c:\program files\microsoft visual studio .net 2003\vc7\atlmfc\include\cstringt.h
;	COMDAT ?StringLowercase@?$ChTraitsCRT@D@ATL@@SAPADPAD@Z
_TEXT	SEGMENT
_psz$ = 8						; size = 4
?StringLowercase@?$ChTraitsCRT@D@ATL@@SAPADPAD@Z PROC NEAR ; ATL::ChTraitsCRT<char>::StringLowercase, COMDAT

; 398  : 		return reinterpret_cast< LPSTR >( _mbslwr( reinterpret_cast< unsigned char* >( psz ) ) );

  00000	e9 00 00 00 00	 jmp	 __mbslwr
?StringLowercase@?$ChTraitsCRT@D@ATL@@SAPADPAD@Z ENDP	; ATL::ChTraitsCRT<char>::StringLowercase
_TEXT	ENDS
PUBLIC	?isdigit2@@YAHD@Z				; isdigit2
; Function compile flags: /Ogty
; File c:\offi src_real\offi src!\_common\vutil.h
;	COMDAT ?isdigit2@@YAHD@Z
_TEXT	SEGMENT
_c$ = 8							; size = 1
?isdigit2@@YAHD@Z PROC NEAR				; isdigit2, COMDAT

; 105  : 	if( c >= '0' && c <= '9' )

  00000	8a 44 24 04	 mov	 al, BYTE PTR _c$[esp-4]
  00004	3c 30		 cmp	 al, 48			; 00000030H
  00006	7c 0a		 jl	 SHORT $L141302
  00008	3c 39		 cmp	 al, 57			; 00000039H
  0000a	7f 06		 jg	 SHORT $L141302

; 106  : 		return TRUE;

  0000c	b8 01 00 00 00	 mov	 eax, 1

; 109  : }

  00011	c3		 ret	 0
$L141302:

; 107  : 	else
; 108  : 		return FALSE;

  00012	33 c0		 xor	 eax, eax

; 109  : }

  00014	c3		 ret	 0
?isdigit2@@YAHD@Z ENDP					; isdigit2
_TEXT	ENDS
PUBLIC	??0CFileIO@@QAE@XZ				; CFileIO::CFileIO
PUBLIC	?Flush@CFileIO@@UAEHXZ				; CFileIO::Flush
PUBLIC	?GetC@CFileIO@@UAEDXZ				; CFileIO::GetC
PUBLIC	?GetW@CFileIO@@UAEGXZ				; CFileIO::GetW
PUBLIC	?GetDW@CFileIO@@UAEKXZ				; CFileIO::GetDW
PUBLIC	?Tell@CFileIO@@UAEJXZ				; CFileIO::Tell
PUBLIC	?Seek@CFileIO@@UAEHJH@Z				; CFileIO::Seek
PUBLIC	?GetLength@CFileIO@@UAEJXZ			; CFileIO::GetLength
PUBLIC	?Read@CFileIO@@UAEIPAXII@Z			; CFileIO::Read
PUBLIC	??_7CFileIO@@6B@				; CFileIO::`vftable'
PUBLIC	??_GCFileIO@@UAEPAXI@Z				; CFileIO::`scalar deleting destructor'
EXTRN	?Open@CFileIO@@UAEHPBDPAD@Z:NEAR		; CFileIO::Open
EXTRN	?Close@CFileIO@@UAEHXZ:NEAR			; CFileIO::Close
EXTRN	?Read@CFileIO@@UAEPAXXZ:NEAR			; CFileIO::Read
EXTRN	??_ECFileIO@@UAEPAXI@Z:NEAR			; CFileIO::`vector deleting destructor'
;	COMDAT ??_7CFileIO@@6B@
; File c:\offi src_real\offi src!\_common\file.h
CONST	SEGMENT
??_7CFileIO@@6B@ DD FLAT:??_ECFileIO@@UAEPAXI@Z		; CFileIO::`vftable'
	DD	FLAT:?Open@CFileIO@@UAEHPBDPAD@Z
	DD	FLAT:?Close@CFileIO@@UAEHXZ
	DD	FLAT:?Flush@CFileIO@@UAEHXZ
	DD	FLAT:?GetC@CFileIO@@UAEDXZ
	DD	FLAT:?GetW@CFileIO@@UAEGXZ
	DD	FLAT:?GetDW@CFileIO@@UAEKXZ
	DD	FLAT:?Tell@CFileIO@@UAEJXZ
	DD	FLAT:?Seek@CFileIO@@UAEHJH@Z
	DD	FLAT:?GetLength@CFileIO@@UAEJXZ
	DD	FLAT:?Read@CFileIO@@UAEPAXXZ
	DD	FLAT:?Read@CFileIO@@UAEIPAXII@Z
; Function compile flags: /Ogty
CONST	ENDS
;	COMDAT ??0CFileIO@@QAE@XZ
_TEXT	SEGMENT
??0CFileIO@@QAE@XZ PROC NEAR				; CFileIO::CFileIO, COMDAT
; _this$ = ecx

; 15   : 	CFileIO() { fp = NULL; } 

  00000	8b c1		 mov	 eax, ecx
  00002	c7 00 00 00 00
	00		 mov	 DWORD PTR [eax], OFFSET FLAT:??_7CFileIO@@6B@
  00008	c7 40 04 00 00
	00 00		 mov	 DWORD PTR [eax+4], 0
  0000f	c3		 ret	 0
??0CFileIO@@QAE@XZ ENDP					; CFileIO::CFileIO
_TEXT	ENDS
PUBLIC	??1CFileIO@@UAE@XZ				; CFileIO::~CFileIO
; Function compile flags: /Ogty
;	COMDAT ??1CFileIO@@UAE@XZ
_TEXT	SEGMENT
??1CFileIO@@UAE@XZ PROC NEAR				; CFileIO::~CFileIO, COMDAT
; _this$ = ecx

; 17   : 	virtual ~CFileIO() { Close(); }

  00000	c7 01 00 00 00
	00		 mov	 DWORD PTR [ecx], OFFSET FLAT:??_7CFileIO@@6B@
  00006	e9 00 00 00 00	 jmp	 ?Close@CFileIO@@UAEHXZ	; CFileIO::Close
??1CFileIO@@UAE@XZ ENDP					; CFileIO::~CFileIO
_TEXT	ENDS
EXTRN	_fflush:NEAR
; Function compile flags: /Ogty
;	COMDAT ?Flush@CFileIO@@UAEHXZ
_TEXT	SEGMENT
?Flush@CFileIO@@UAEHXZ PROC NEAR			; CFileIO::Flush, COMDAT
; _this$ = ecx

; 20   : 	virtual int	 Flush()  { return fflush( fp ); }

  00000	8b 41 04	 mov	 eax, DWORD PTR [ecx+4]
  00003	50		 push	 eax
  00004	e8 00 00 00 00	 call	 _fflush
  00009	83 c4 04	 add	 esp, 4
  0000c	c3		 ret	 0
?Flush@CFileIO@@UAEHXZ ENDP				; CFileIO::Flush
_TEXT	ENDS
EXTRN	_getc:NEAR
; Function compile flags: /Ogty
;	COMDAT ?GetC@CFileIO@@UAEDXZ
_TEXT	SEGMENT
?GetC@CFileIO@@UAEDXZ PROC NEAR				; CFileIO::GetC, COMDAT
; _this$ = ecx

; 21   : 	virtual char  GetC()  { return (char)getc( fp ); }

  00000	8b 41 04	 mov	 eax, DWORD PTR [ecx+4]
  00003	50		 push	 eax
  00004	e8 00 00 00 00	 call	 _getc
  00009	83 c4 04	 add	 esp, 4
  0000c	c3		 ret	 0
?GetC@CFileIO@@UAEDXZ ENDP				; CFileIO::GetC
_TEXT	ENDS
EXTRN	_fgetwc:NEAR
; Function compile flags: /Ogty
;	COMDAT ?GetW@CFileIO@@UAEGXZ
_TEXT	SEGMENT
?GetW@CFileIO@@UAEGXZ PROC NEAR				; CFileIO::GetW, COMDAT
; _this$ = ecx

; 22   : 	virtual WORD  GetW()  { return getwc( fp ); } 

  00000	8b 41 04	 mov	 eax, DWORD PTR [ecx+4]
  00003	50		 push	 eax
  00004	e8 00 00 00 00	 call	 _fgetwc
  00009	83 c4 04	 add	 esp, 4
  0000c	c3		 ret	 0
?GetW@CFileIO@@UAEGXZ ENDP				; CFileIO::GetW
_TEXT	ENDS
EXTRN	_fread:NEAR
; Function compile flags: /Ogty
;	COMDAT ?GetDW@CFileIO@@UAEKXZ
_TEXT	SEGMENT
_dw$ = -4						; size = 4
?GetDW@CFileIO@@UAEKXZ PROC NEAR			; CFileIO::GetDW, COMDAT
; _this$ = ecx

; 23   : 	virtual DWORD GetDW() { DWORD dw; fread( &dw, sizeof( dw ), 1, fp ); return dw; }

  00000	51		 push	 ecx
  00001	8b 41 04	 mov	 eax, DWORD PTR [ecx+4]
  00004	50		 push	 eax
  00005	6a 01		 push	 1
  00007	8d 4c 24 08	 lea	 ecx, DWORD PTR _dw$[esp+12]
  0000b	6a 04		 push	 4
  0000d	51		 push	 ecx
  0000e	e8 00 00 00 00	 call	 _fread
  00013	8b 44 24 10	 mov	 eax, DWORD PTR _dw$[esp+20]
  00017	83 c4 14	 add	 esp, 20			; 00000014H
  0001a	c3		 ret	 0
?GetDW@CFileIO@@UAEKXZ ENDP				; CFileIO::GetDW
_TEXT	ENDS
EXTRN	_ftell:NEAR
; Function compile flags: /Ogty
;	COMDAT ?Tell@CFileIO@@UAEJXZ
_TEXT	SEGMENT
?Tell@CFileIO@@UAEJXZ PROC NEAR				; CFileIO::Tell, COMDAT
; _this$ = ecx

; 24   : 	virtual long Tell()   { return ftell(fp); }

  00000	8b 41 04	 mov	 eax, DWORD PTR [ecx+4]
  00003	50		 push	 eax
  00004	e8 00 00 00 00	 call	 _ftell
  00009	83 c4 04	 add	 esp, 4
  0000c	c3		 ret	 0
?Tell@CFileIO@@UAEJXZ ENDP				; CFileIO::Tell
_TEXT	ENDS
EXTRN	_fseek:NEAR
; Function compile flags: /Ogty
;	COMDAT ?Seek@CFileIO@@UAEHJH@Z
_TEXT	SEGMENT
_offset$ = 8						; size = 4
_whence$ = 12						; size = 4
?Seek@CFileIO@@UAEHJH@Z PROC NEAR			; CFileIO::Seek, COMDAT
; _this$ = ecx

; 25   : 	virtual int  Seek( long offset, int whence ) { return fseek( fp, offset, whence ); }

  00000	8b 44 24 08	 mov	 eax, DWORD PTR _whence$[esp-4]
  00004	8b 54 24 04	 mov	 edx, DWORD PTR _offset$[esp-4]
  00008	50		 push	 eax
  00009	8b 41 04	 mov	 eax, DWORD PTR [ecx+4]
  0000c	52		 push	 edx
  0000d	50		 push	 eax
  0000e	e8 00 00 00 00	 call	 _fseek
  00013	83 c4 0c	 add	 esp, 12			; 0000000cH
  00016	c2 08 00	 ret	 8
?Seek@CFileIO@@UAEHJH@Z ENDP				; CFileIO::Seek
; Function compile flags: /Ogty
_TEXT	ENDS
;	COMDAT ?Read@CFileIO@@UAEIPAXII@Z
_TEXT	SEGMENT
_ptr$ = 8						; size = 4
_size$ = 12						; size = 4
_n$ = 16						; size = 4
?Read@CFileIO@@UAEIPAXII@Z PROC NEAR			; CFileIO::Read, COMDAT
; _this$ = ecx

; 27   : 	virtual size_t Read( void *ptr, size_t size, size_t n = 1 )	{ return fread( ptr, size, n, fp ); }

  00000	8b 41 04	 mov	 eax, DWORD PTR [ecx+4]
  00003	8b 4c 24 0c	 mov	 ecx, DWORD PTR _n$[esp-4]
  00007	8b 54 24 08	 mov	 edx, DWORD PTR _size$[esp-4]
  0000b	50		 push	 eax
  0000c	8b 44 24 08	 mov	 eax, DWORD PTR _ptr$[esp]
  00010	51		 push	 ecx
  00011	52		 push	 edx
  00012	50		 push	 eax
  00013	e8 00 00 00 00	 call	 _fread
  00018	83 c4 10	 add	 esp, 16			; 00000010H
  0001b	c2 0c 00	 ret	 12			; 0000000cH
?Read@CFileIO@@UAEIPAXII@Z ENDP				; CFileIO::Read
; Function compile flags: /Ogty
_TEXT	ENDS
;	COMDAT ??_GCFileIO@@UAEPAXI@Z
_TEXT	SEGMENT
___flags$ = 8						; size = 4
??_GCFileIO@@UAEPAXI@Z PROC NEAR			; CFileIO::`scalar deleting destructor', COMDAT
; _this$ = ecx
  00000	56		 push	 esi
  00001	8b f1		 mov	 esi, ecx
  00003	c7 06 00 00 00
	00		 mov	 DWORD PTR [esi], OFFSET FLAT:??_7CFileIO@@6B@
  00009	e8 00 00 00 00	 call	 ?Close@CFileIO@@UAEHXZ	; CFileIO::Close
  0000e	f6 44 24 08 01	 test	 BYTE PTR ___flags$[esp], 1
  00013	74 09		 je	 SHORT $L151479
  00015	56		 push	 esi
  00016	e8 00 00 00 00	 call	 ??3@YAXPAX@Z		; operator delete
  0001b	83 c4 04	 add	 esp, 4
$L151479:
  0001e	8b c6		 mov	 eax, esi
  00020	5e		 pop	 esi
  00021	c2 04 00	 ret	 4
??_GCFileIO@@UAEPAXI@Z ENDP				; CFileIO::`scalar deleting destructor'
_TEXT	ENDS
PUBLIC	??B?$CSimpleStringT@D$0A@@ATL@@QBEPBDXZ		; ATL::CSimpleStringT<char,0>::operator char const *
; Function compile flags: /Ogty
; File c:\program files\microsoft visual studio .net 2003\vc7\atlmfc\include\atlsimpstr.h
;	COMDAT ??B?$CSimpleStringT@D$0A@@ATL@@QBEPBDXZ
_TEXT	SEGMENT
??B?$CSimpleStringT@D$0A@@ATL@@QBEPBDXZ PROC NEAR	; ATL::CSimpleStringT<char,0>::operator char const *, COMDAT
; _this$ = ecx

; 379  : 		return( m_pszData );

  00000	8b 01		 mov	 eax, DWORD PTR [ecx]

; 380  : 	}

  00002	c3		 ret	 0
??B?$CSimpleStringT@D$0A@@ATL@@QBEPBDXZ ENDP		; ATL::CSimpleStringT<char,0>::operator char const *
_TEXT	ENDS
PUBLIC	?GetString@?$CSimpleStringT@D$0A@@ATL@@QBEPBDXZ	; ATL::CSimpleStringT<char,0>::GetString
; Function compile flags: /Ogty
;	COMDAT ?GetString@?$CSimpleStringT@D$0A@@ATL@@QBEPBDXZ
_TEXT	SEGMENT
?GetString@?$CSimpleStringT@D$0A@@ATL@@QBEPBDXZ PROC NEAR ; ATL::CSimpleStringT<char,0>::GetString, COMDAT
; _this$ = ecx

; 510  : 		return( m_pszData );

  00000	8b 01		 mov	 eax, DWORD PTR [ecx]

; 511  : 	}

  00002	c3		 ret	 0
?GetString@?$CSimpleStringT@D$0A@@ATL@@QBEPBDXZ ENDP	; ATL::CSimpleStringT<char,0>::GetString
_TEXT	ENDS
PUBLIC	?StringLength@?$CSimpleStringT@D$0A@@ATL@@SAHPBD@Z ; ATL::CSimpleStringT<char,0>::StringLength
; Function compile flags: /Ogty
;	COMDAT ?StringLength@?$CSimpleStringT@D$0A@@ATL@@SAHPBD@Z
_TEXT	SEGMENT
_psz$ = 8						; size = 4
?StringLength@?$CSimpleStringT@D$0A@@ATL@@SAHPBD@Z PROC NEAR ; ATL::CSimpleStringT<char,0>::StringLength, COMDAT

; 678  : 		if( psz == NULL )

  00000	8b 44 24 04	 mov	 eax, DWORD PTR _psz$[esp-4]
  00004	85 c0		 test	 eax, eax
  00006	75 01		 jne	 SHORT $L147353

; 683  : 	}

  00008	c3		 ret	 0
$L147353:

; 679  : 		{
; 680  : 			return( 0 );
; 681  : 		}
; 682  : 		return( int( strlen( psz ) ) );

  00009	8d 50 01	 lea	 edx, DWORD PTR [eax+1]
  0000c	8d 64 24 00	 npad	 4
$L151489:
  00010	8a 08		 mov	 cl, BYTE PTR [eax]
  00012	40		 inc	 eax
  00013	84 c9		 test	 cl, cl
  00015	75 f9		 jne	 SHORT $L151489
  00017	2b c2		 sub	 eax, edx

; 683  : 	}

  00019	c3		 ret	 0
?StringLength@?$CSimpleStringT@D$0A@@ATL@@SAHPBD@Z ENDP	; ATL::CSimpleStringT<char,0>::StringLength
_TEXT	ENDS
PUBLIC	?GetData@?$CSimpleStringT@D$0A@@ATL@@ABEPAUCStringData@2@XZ ; ATL::CSimpleStringT<char,0>::GetData
; Function compile flags: /Ogty
;	COMDAT ?GetData@?$CSimpleStringT@D$0A@@ATL@@ABEPAUCStringData@2@XZ
_TEXT	SEGMENT
?GetData@?$CSimpleStringT@D$0A@@ATL@@ABEPAUCStringData@2@XZ PROC NEAR ; ATL::CSimpleStringT<char,0>::GetData, COMDAT
; _this$ = ecx

; 731  : 		return( reinterpret_cast< CStringData* >( m_pszData )-1 );

  00000	8b 01		 mov	 eax, DWORD PTR [ecx]
  00002	83 e8 10	 sub	 eax, 16			; 00000010H

; 732  : 	}

  00005	c3		 ret	 0
?GetData@?$CSimpleStringT@D$0A@@ATL@@ABEPAUCStringData@2@XZ ENDP ; ATL::CSimpleStringT<char,0>::GetData
_TEXT	ENDS
PUBLIC	?SetLength@?$CSimpleStringT@D$0A@@ATL@@AAEXH@Z	; ATL::CSimpleStringT<char,0>::SetLength
; Function compile flags: /Ogty
;	COMDAT ?SetLength@?$CSimpleStringT@D$0A@@ATL@@AAEXH@Z
_TEXT	SEGMENT
_nLength$ = 8						; size = 4
?SetLength@?$CSimpleStringT@D$0A@@ATL@@AAEXH@Z PROC NEAR ; ATL::CSimpleStringT<char,0>::SetLength, COMDAT
; _this$ = ecx

; 790  : 		ATLASSERT( nLength >= 0 );
; 791  : 		ATLASSERT( nLength <= GetData()->nAllocLength );
; 792  : 
; 793  : 		if( nLength < 0 || nLength > GetData()->nAllocLength)

  00000	8b 44 24 04	 mov	 eax, DWORD PTR _nLength$[esp-4]
  00004	85 c0		 test	 eax, eax
  00006	7c 13		 jl	 SHORT $L147368
  00008	8b 11		 mov	 edx, DWORD PTR [ecx]
  0000a	3b 42 f8	 cmp	 eax, DWORD PTR [edx-8]
  0000d	7f 0c		 jg	 SHORT $L147368

; 794  : 			AtlThrow(E_INVALIDARG);
; 795  : 			
; 796  : 		GetData()->nDataLength = nLength;

  0000f	89 42 f4	 mov	 DWORD PTR [edx-12], eax

; 797  : 		m_pszData[nLength] = 0;

  00012	8b 09		 mov	 ecx, DWORD PTR [ecx]
  00014	c6 04 08 00	 mov	 BYTE PTR [eax+ecx], 0

; 798  : 	}

  00018	c2 04 00	 ret	 4
$L147368:
  0001b	68 57 00 07 80	 push	 -2147024809		; 80070057H
  00020	e8 00 00 00 00	 call	 ?AtlThrow@ATL@@YGXJ@Z	; ATL::AtlThrow
$L151503:
$L151502:
  00025	cc		 int	 3
?SetLength@?$CSimpleStringT@D$0A@@ATL@@AAEXH@Z ENDP	; ATL::CSimpleStringT<char,0>::SetLength
_TEXT	ENDS
PUBLIC	?FindStringResourceInstance@?$StrTraitMFC@DV?$ChTraitsCRT@D@ATL@@@@SAPAUHINSTANCE__@@I@Z ; StrTraitMFC<char,ATL::ChTraitsCRT<char> >::FindStringResourceInstance
EXTRN	?AfxFindStringResourceHandle@@YGPAUHINSTANCE__@@I@Z:NEAR ; AfxFindStringResourceHandle
; Function compile flags: /Ogty
; File c:\program files\microsoft visual studio .net 2003\vc7\atlmfc\include\afxstr.h
;	COMDAT ?FindStringResourceInstance@?$StrTraitMFC@DV?$ChTraitsCRT@D@ATL@@@@SAPAUHINSTANCE__@@I@Z
_TEXT	SEGMENT
_nID$ = 8						; size = 4
?FindStringResourceInstance@?$StrTraitMFC@DV?$ChTraitsCRT@D@ATL@@@@SAPAUHINSTANCE__@@I@Z PROC NEAR ; StrTraitMFC<char,ATL::ChTraitsCRT<char> >::FindStringResourceInstance, COMDAT

; 45   : 		return( AfxFindStringResourceHandle( nID ) );

  00000	8b 44 24 04	 mov	 eax, DWORD PTR _nID$[esp-4]
  00004	50		 push	 eax
  00005	e8 00 00 00 00	 call	 ?AfxFindStringResourceHandle@@YGPAUHINSTANCE__@@I@Z ; AfxFindStringResourceHandle

; 46   : 	}

  0000a	c3		 ret	 0
?FindStringResourceInstance@?$StrTraitMFC@DV?$ChTraitsCRT@D@ATL@@@@SAPAUHINSTANCE__@@I@Z ENDP ; StrTraitMFC<char,ATL::ChTraitsCRT<char> >::FindStringResourceInstance
_TEXT	ENDS
PUBLIC	?GetDefaultManager@?$StrTraitMFC@DV?$ChTraitsCRT@D@ATL@@@@SAPAUIAtlStringMgr@ATL@@XZ ; StrTraitMFC<char,ATL::ChTraitsCRT<char> >::GetDefaultManager
EXTRN	?AfxGetStringManager@@YGPAUIAtlStringMgr@ATL@@XZ:NEAR ; AfxGetStringManager
; Function compile flags: /Ogty
;	COMDAT ?GetDefaultManager@?$StrTraitMFC@DV?$ChTraitsCRT@D@ATL@@@@SAPAUIAtlStringMgr@ATL@@XZ
_TEXT	SEGMENT
?GetDefaultManager@?$StrTraitMFC@DV?$ChTraitsCRT@D@ATL@@@@SAPAUIAtlStringMgr@ATL@@XZ PROC NEAR ; StrTraitMFC<char,ATL::ChTraitsCRT<char> >::GetDefaultManager, COMDAT

; 50   : 		return( AfxGetStringManager() );

  00000	e9 00 00 00 00	 jmp	 ?AfxGetStringManager@@YGPAUIAtlStringMgr@ATL@@XZ ; AfxGetStringManager
?GetDefaultManager@?$StrTraitMFC@DV?$ChTraitsCRT@D@ATL@@@@SAPAUIAtlStringMgr@ATL@@XZ ENDP ; StrTraitMFC<char,ATL::ChTraitsCRT<char> >::GetDefaultManager
_TEXT	ENDS
PUBLIC	?Attach@?$CSimpleStringT@D$0A@@ATL@@AAEXPAUCStringData@2@@Z ; ATL::CSimpleStringT<char,0>::Attach
; Function compile flags: /Ogty
; File c:\program files\microsoft visual studio .net 2003\vc7\atlmfc\include\atlsimpstr.h
;	COMDAT ?Attach@?$CSimpleStringT@D$0A@@ATL@@AAEXPAUCStringData@2@@Z
_TEXT	SEGMENT
_pData$ = 8						; size = 4
?Attach@?$CSimpleStringT@D$0A@@ATL@@AAEXPAUCStringData@2@@Z PROC NEAR ; ATL::CSimpleStringT<char,0>::Attach, COMDAT
; _this$ = ecx

; 712  : 		m_pszData = static_cast< PXSTR >( pData->data() );

  00000	8b 44 24 04	 mov	 eax, DWORD PTR _pData$[esp-4]
  00004	83 c0 10	 add	 eax, 16			; 00000010H
  00007	89 01		 mov	 DWORD PTR [ecx], eax

; 713  : 	}

  00009	c2 04 00	 ret	 4
?Attach@?$CSimpleStringT@D$0A@@ATL@@AAEXPAUCStringData@2@@Z ENDP ; ATL::CSimpleStringT<char,0>::Attach
_TEXT	ENDS
PUBLIC	?GetFormattedLength@?$ChTraitsCRT@D@ATL@@SAHPBDPAD@Z ; ATL::ChTraitsCRT<char>::GetFormattedLength
EXTRN	__vscprintf:NEAR
; Function compile flags: /Ogty
; File c:\program files\microsoft visual studio .net 2003\vc7\atlmfc\include\cstringt.h
;	COMDAT ?GetFormattedLength@?$ChTraitsCRT@D@ATL@@SAHPBDPAD@Z
_TEXT	SEGMENT
_pszFormat$ = 8						; size = 4
_args$ = 12						; size = 4
?GetFormattedLength@?$ChTraitsCRT@D@ATL@@SAHPBDPAD@Z PROC NEAR ; ATL::ChTraitsCRT<char>::GetFormattedLength, COMDAT

; 408  : 		return _vscprintf( pszFormat, args );

  00000	e9 00 00 00 00	 jmp	 __vscprintf
?GetFormattedLength@?$ChTraitsCRT@D@ATL@@SAHPBDPAD@Z ENDP ; ATL::ChTraitsCRT<char>::GetFormattedLength
_TEXT	ENDS
PUBLIC	?Format@?$ChTraitsCRT@D@ATL@@SAHPADPBD0@Z	; ATL::ChTraitsCRT<char>::Format
EXTRN	_vsprintf:NEAR
; Function compile flags: /Ogty
;	COMDAT ?Format@?$ChTraitsCRT@D@ATL@@SAHPADPBD0@Z
_TEXT	SEGMENT
_pszBuffer$ = 8						; size = 4
_pszFormat$ = 12					; size = 4
_args$ = 16						; size = 4
?Format@?$ChTraitsCRT@D@ATL@@SAHPADPBD0@Z PROC NEAR	; ATL::ChTraitsCRT<char>::Format, COMDAT

; 413  : 		return vsprintf( pszBuffer, pszFormat, args );

  00000	e9 00 00 00 00	 jmp	 _vsprintf
?Format@?$ChTraitsCRT@D@ATL@@SAHPADPBD0@Z ENDP		; ATL::ChTraitsCRT<char>::Format
_TEXT	ENDS
PUBLIC	?GetBaseTypeLength@?$ChTraitsCRT@D@ATL@@SAHPBG@Z ; ATL::ChTraitsCRT<char>::GetBaseTypeLength
; Function compile flags: /Ogty
;	COMDAT ?GetBaseTypeLength@?$ChTraitsCRT@D@ATL@@SAHPBG@Z
_TEXT	SEGMENT
_pszSource$ = 8						; size = 4
?GetBaseTypeLength@?$ChTraitsCRT@D@ATL@@SAHPBG@Z PROC NEAR ; ATL::ChTraitsCRT<char>::GetBaseTypeLength, COMDAT

; 431  : 		// Returns required buffer length in XCHARs
; 432  : 		return ::WideCharToMultiByte( _AtlGetConversionACP(), 0, pszSource, -1, NULL, 0, NULL, NULL )-1;

  00000	8b 44 24 04	 mov	 eax, DWORD PTR _pszSource$[esp-4]
  00004	6a 00		 push	 0
  00006	6a 00		 push	 0
  00008	6a 00		 push	 0
  0000a	6a 00		 push	 0
  0000c	6a ff		 push	 -1
  0000e	50		 push	 eax
  0000f	6a 00		 push	 0
  00011	ff 15 00 00 00
	00		 call	 DWORD PTR ?g_pfnGetThreadACP@ATL@@3P6GIXZA ; ATL::g_pfnGetThreadACP
  00017	50		 push	 eax
  00018	ff 15 00 00 00
	00		 call	 DWORD PTR __imp__WideCharToMultiByte@32
  0001e	48		 dec	 eax

; 433  : 	}

  0001f	c3		 ret	 0
?GetBaseTypeLength@?$ChTraitsCRT@D@ATL@@SAHPBG@Z ENDP	; ATL::ChTraitsCRT<char>::GetBaseTypeLength
_TEXT	ENDS
PUBLIC	?GetBaseTypeLength@?$ChTraitsCRT@D@ATL@@SAHPBGH@Z ; ATL::ChTraitsCRT<char>::GetBaseTypeLength
; Function compile flags: /Ogty
;	COMDAT ?GetBaseTypeLength@?$ChTraitsCRT@D@ATL@@SAHPBGH@Z
_TEXT	SEGMENT
_pszSource$ = 8						; size = 4
_nLength$ = 12						; size = 4
?GetBaseTypeLength@?$ChTraitsCRT@D@ATL@@SAHPBGH@Z PROC NEAR ; ATL::ChTraitsCRT<char>::GetBaseTypeLength, COMDAT

; 437  : 		// Returns required buffer length in XCHARs
; 438  : 		return ::WideCharToMultiByte( _AtlGetConversionACP(), 0, pszSource, nLength, NULL, 0, NULL, NULL );

  00000	8b 44 24 08	 mov	 eax, DWORD PTR _nLength$[esp-4]
  00004	8b 4c 24 04	 mov	 ecx, DWORD PTR _pszSource$[esp-4]
  00008	6a 00		 push	 0
  0000a	6a 00		 push	 0
  0000c	6a 00		 push	 0
  0000e	6a 00		 push	 0
  00010	50		 push	 eax
  00011	51		 push	 ecx
  00012	6a 00		 push	 0
  00014	ff 15 00 00 00
	00		 call	 DWORD PTR ?g_pfnGetThreadACP@ATL@@3P6GIXZA ; ATL::g_pfnGetThreadACP
  0001a	50		 push	 eax
  0001b	ff 15 00 00 00
	00		 call	 DWORD PTR __imp__WideCharToMultiByte@32

; 439  : 	}

  00021	c3		 ret	 0
?GetBaseTypeLength@?$ChTraitsCRT@D@ATL@@SAHPBGH@Z ENDP	; ATL::ChTraitsCRT<char>::GetBaseTypeLength
_TEXT	ENDS
PUBLIC	?ConvertToBaseType@?$ChTraitsCRT@D@ATL@@SAXPADHPBGH@Z ; ATL::ChTraitsCRT<char>::ConvertToBaseType
; Function compile flags: /Ogty
;	COMDAT ?ConvertToBaseType@?$ChTraitsCRT@D@ATL@@SAXPADHPBGH@Z
_TEXT	SEGMENT
_pszDest$ = 8						; size = 4
_nDestLength$ = 12					; size = 4
_pszSrc$ = 16						; size = 4
_nSrcLength$ = 20					; size = 4
?ConvertToBaseType@?$ChTraitsCRT@D@ATL@@SAXPADHPBGH@Z PROC NEAR ; ATL::ChTraitsCRT<char>::ConvertToBaseType, COMDAT

; 452  : 		// nLen is in XCHARs
; 453  : 		::WideCharToMultiByte( _AtlGetConversionACP(), 0, pszSrc, nSrcLength, pszDest, nDestLength, NULL, NULL );

  00000	8b 44 24 08	 mov	 eax, DWORD PTR _nDestLength$[esp-4]
  00004	8b 4c 24 04	 mov	 ecx, DWORD PTR _pszDest$[esp-4]
  00008	8b 54 24 10	 mov	 edx, DWORD PTR _nSrcLength$[esp-4]
  0000c	6a 00		 push	 0
  0000e	6a 00		 push	 0
  00010	50		 push	 eax
  00011	8b 44 24 18	 mov	 eax, DWORD PTR _pszSrc$[esp+8]
  00015	51		 push	 ecx
  00016	52		 push	 edx
  00017	50		 push	 eax
  00018	6a 00		 push	 0
  0001a	ff 15 00 00 00
	00		 call	 DWORD PTR ?g_pfnGetThreadACP@ATL@@3P6GIXZA ; ATL::g_pfnGetThreadACP
  00020	50		 push	 eax
  00021	ff 15 00 00 00
	00		 call	 DWORD PTR __imp__WideCharToMultiByte@32

; 454  : 	}

  00027	c3		 ret	 0
?ConvertToBaseType@?$ChTraitsCRT@D@ATL@@SAXPADHPBGH@Z ENDP ; ATL::ChTraitsCRT<char>::ConvertToBaseType
_TEXT	ENDS
PUBLIC	?CopyChars@?$CSimpleStringT@D$0A@@ATL@@SAXPADPBDH@Z ; ATL::CSimpleStringT<char,0>::CopyChars
; Function compile flags: /Ogty
; File c:\program files\microsoft visual studio .net 2003\vc7\atlmfc\include\atlsimpstr.h
;	COMDAT ?CopyChars@?$CSimpleStringT@D$0A@@ATL@@SAXPADPBDH@Z
_TEXT	SEGMENT
_pchDest$ = 8						; size = 4
_pchSrc$ = 12						; size = 4
_nChars$ = 16						; size = 4
?CopyChars@?$CSimpleStringT@D$0A@@ATL@@SAXPADPBDH@Z PROC NEAR ; ATL::CSimpleStringT<char,0>::CopyChars, COMDAT

; 653  : 		memcpy( pchDest, pchSrc, nChars*sizeof( XCHAR ) );

  00000	8b 4c 24 0c	 mov	 ecx, DWORD PTR _nChars$[esp-4]
  00004	56		 push	 esi
  00005	8b 74 24 0c	 mov	 esi, DWORD PTR _pchSrc$[esp]
  00009	8b c1		 mov	 eax, ecx
  0000b	57		 push	 edi
  0000c	8b 7c 24 0c	 mov	 edi, DWORD PTR _pchDest$[esp+4]
  00010	c1 e9 02	 shr	 ecx, 2
  00013	f3 a5		 rep movsd
  00015	8b c8		 mov	 ecx, eax
  00017	83 e1 03	 and	 ecx, 3
  0001a	f3 a4		 rep movsb
  0001c	5f		 pop	 edi
  0001d	5e		 pop	 esi

; 654  : 	}

  0001e	c3		 ret	 0
?CopyChars@?$CSimpleStringT@D$0A@@ATL@@SAXPADPBDH@Z ENDP ; ATL::CSimpleStringT<char,0>::CopyChars
_TEXT	ENDS
PUBLIC	?CopyCharsOverlapped@?$CSimpleStringT@D$0A@@ATL@@SAXPADPBDH@Z ; ATL::CSimpleStringT<char,0>::CopyCharsOverlapped
EXTRN	_memmove:NEAR
; Function compile flags: /Ogty
;	COMDAT ?CopyCharsOverlapped@?$CSimpleStringT@D$0A@@ATL@@SAXPADPBDH@Z
_TEXT	SEGMENT
_pchDest$ = 8						; size = 4
_pchSrc$ = 12						; size = 4
_nChars$ = 16						; size = 4
?CopyCharsOverlapped@?$CSimpleStringT@D$0A@@ATL@@SAXPADPBDH@Z PROC NEAR ; ATL::CSimpleStringT<char,0>::CopyCharsOverlapped, COMDAT

; 657  : 		memmove( pchDest, pchSrc, nChars*sizeof( XCHAR ) );

  00000	e9 00 00 00 00	 jmp	 _memmove
?CopyCharsOverlapped@?$CSimpleStringT@D$0A@@ATL@@SAXPADPBDH@Z ENDP ; ATL::CSimpleStringT<char,0>::CopyCharsOverlapped
_TEXT	ENDS
PUBLIC	?ThrowMemoryException@?$CSimpleStringT@D$0A@@ATL@@KAXXZ ; ATL::CSimpleStringT<char,0>::ThrowMemoryException
; Function compile flags: /Ogty
;	COMDAT ?ThrowMemoryException@?$CSimpleStringT@D$0A@@ATL@@KAXXZ
_TEXT	SEGMENT
?ThrowMemoryException@?$CSimpleStringT@D$0A@@ATL@@KAXXZ PROC NEAR ; ATL::CSimpleStringT<char,0>::ThrowMemoryException, COMDAT

; 705  : 		AtlThrow( E_OUTOFMEMORY );

  00000	68 0e 00 07 80	 push	 -2147024882		; 8007000eH
  00005	e8 00 00 00 00	 call	 ?AtlThrow@ATL@@YGXJ@Z	; ATL::AtlThrow
$L151553:
$L151552:
  0000a	cc		 int	 3
?ThrowMemoryException@?$CSimpleStringT@D$0A@@ATL@@KAXXZ ENDP ; ATL::CSimpleStringT<char,0>::ThrowMemoryException
_TEXT	ENDS
PUBLIC	?Fork@?$CSimpleStringT@D$0A@@ATL@@AAEXH@Z	; ATL::CSimpleStringT<char,0>::Fork
; Function compile flags: /Ogty
;	COMDAT ?Fork@?$CSimpleStringT@D$0A@@ATL@@AAEXH@Z
_TEXT	SEGMENT
_this$ = -4						; size = 4
tv181 = 8						; size = 4
_nLength$ = 8						; size = 4
?Fork@?$CSimpleStringT@D$0A@@ATL@@AAEXH@Z PROC NEAR	; ATL::CSimpleStringT<char,0>::Fork, COMDAT
; _this$ = ecx

; 715  : 	{

  00000	51		 push	 ecx
  00001	53		 push	 ebx

; 716  : 		CStringData* pOldData = GetData();

  00002	8b 19		 mov	 ebx, DWORD PTR [ecx]
  00004	83 eb 10	 sub	 ebx, 16			; 00000010H
  00007	55		 push	 ebp

; 717  : 		int nOldLength = pOldData->nDataLength;

  00008	8b 6b 04	 mov	 ebp, DWORD PTR [ebx+4]
  0000b	89 4c 24 08	 mov	 DWORD PTR _this$[esp+12], ecx

; 718  : 		CStringData* pNewData = pOldData->pStringMgr->Clone()->Allocate( nLength, sizeof( XCHAR ) );

  0000f	8b 0b		 mov	 ecx, DWORD PTR [ebx]
  00011	8b 01		 mov	 eax, DWORD PTR [ecx]
  00013	56		 push	 esi
  00014	ff 50 10	 call	 DWORD PTR [eax+16]
  00017	8b 74 24 14	 mov	 esi, DWORD PTR _nLength$[esp+12]
  0001b	8b 10		 mov	 edx, DWORD PTR [eax]
  0001d	6a 01		 push	 1
  0001f	56		 push	 esi
  00020	8b c8		 mov	 ecx, eax
  00022	ff 12		 call	 DWORD PTR [edx]

; 719  : 		if( pNewData == NULL )

  00024	85 c0		 test	 eax, eax
  00026	75 05		 jne	 SHORT $L147773

; 720  : 		{
; 721  : 			ThrowMemoryException();

  00028	e8 00 00 00 00	 call	 ?ThrowMemoryException@?$CSimpleStringT@D$0A@@ATL@@KAXXZ ; ATL::CSimpleStringT<char,0>::ThrowMemoryException
$L151584:
$L147773:

; 722  : 		}
; 723  : 		int nCharsToCopy = ((nOldLength < nLength) ? nOldLength : nLength)+1;  // Copy '\0'

  0002d	3b ee		 cmp	 ebp, esi
  0002f	7d 02		 jge	 SHORT $L151558
  00031	8b f5		 mov	 esi, ebp
$L151558:
  00033	8d 4e 01	 lea	 ecx, DWORD PTR [esi+1]

; 724  : 		CopyChars( PXSTR( pNewData->data() ), PCXSTR( pOldData->data() ), nCharsToCopy );

  00036	8b d1		 mov	 edx, ecx
  00038	57		 push	 edi
  00039	c1 e9 02	 shr	 ecx, 2
  0003c	8d 78 10	 lea	 edi, DWORD PTR [eax+16]
  0003f	89 7c 24 18	 mov	 DWORD PTR tv181[esp+16], edi
  00043	8d 73 10	 lea	 esi, DWORD PTR [ebx+16]
  00046	f3 a5		 rep movsd
  00048	8b ca		 mov	 ecx, edx
  0004a	83 e1 03	 and	 ecx, 3
  0004d	f3 a4		 rep movsb

; 725  : 		pNewData->nDataLength = nOldLength;

  0004f	89 68 04	 mov	 DWORD PTR [eax+4], ebp

; 726  : 		pOldData->Release();

  00052	8d 43 0c	 lea	 eax, DWORD PTR [ebx+12]
  00055	83 c9 ff	 or	 ecx, -1
  00058	f0 0f c1 08	 lock	  xadd	 DWORD PTR [eax], ecx
  0005c	49		 dec	 ecx
  0005d	85 c9		 test	 ecx, ecx
  0005f	5f		 pop	 edi
  00060	7f 08		 jg	 SHORT $L151574
  00062	8b 0b		 mov	 ecx, DWORD PTR [ebx]
  00064	8b 11		 mov	 edx, DWORD PTR [ecx]
  00066	53		 push	 ebx
  00067	ff 52 04	 call	 DWORD PTR [edx+4]
$L151574:

; 727  : 		Attach( pNewData );

  0006a	8b 44 24 14	 mov	 eax, DWORD PTR tv181[esp+12]
  0006e	8b 4c 24 0c	 mov	 ecx, DWORD PTR _this$[esp+16]
  00072	5e		 pop	 esi
  00073	5d		 pop	 ebp
  00074	89 01		 mov	 DWORD PTR [ecx], eax
  00076	5b		 pop	 ebx

; 728  : 	}

  00077	59		 pop	 ecx
  00078	c2 04 00	 ret	 4
$L151583:
?Fork@?$CSimpleStringT@D$0A@@ATL@@AAEXH@Z ENDP		; ATL::CSimpleStringT<char,0>::Fork
_TEXT	ENDS
PUBLIC	?Reallocate@?$CSimpleStringT@D$0A@@ATL@@AAEXH@Z	; ATL::CSimpleStringT<char,0>::Reallocate
; Function compile flags: /Ogty
;	COMDAT ?Reallocate@?$CSimpleStringT@D$0A@@ATL@@AAEXH@Z
_TEXT	SEGMENT
_nLength$ = 8						; size = 4
?Reallocate@?$CSimpleStringT@D$0A@@ATL@@AAEXH@Z PROC NEAR ; ATL::CSimpleStringT<char,0>::Reallocate, COMDAT
; _this$ = ecx

; 776  : 	{

  00000	56		 push	 esi
  00001	57		 push	 edi

; 777  : 		CStringData* pOldData = GetData();
; 778  : 		ATLASSERT( pOldData->nAllocLength < nLength );
; 779  : 		IAtlStringMgr* pStringMgr = pOldData->pStringMgr;
; 780  : 		CStringData* pNewData = pStringMgr->Reallocate( pOldData, nLength, sizeof( XCHAR ) );

  00002	8b 7c 24 0c	 mov	 edi, DWORD PTR _nLength$[esp+4]
  00006	8b f1		 mov	 esi, ecx
  00008	8b 06		 mov	 eax, DWORD PTR [esi]
  0000a	8b 48 f0	 mov	 ecx, DWORD PTR [eax-16]
  0000d	8b 11		 mov	 edx, DWORD PTR [ecx]
  0000f	83 e8 10	 sub	 eax, 16			; 00000010H
  00012	6a 01		 push	 1
  00014	57		 push	 edi
  00015	50		 push	 eax
  00016	ff 52 08	 call	 DWORD PTR [edx+8]

; 781  : 		if( pNewData == NULL )

  00019	85 c0		 test	 eax, eax
  0001b	75 05		 jne	 SHORT $L147782

; 782  : 		{
; 783  : 			ThrowMemoryException();

  0001d	e8 00 00 00 00	 call	 ?ThrowMemoryException@?$CSimpleStringT@D$0A@@ATL@@KAXXZ ; ATL::CSimpleStringT<char,0>::ThrowMemoryException
$L151600:
$L147782:

; 784  : 		}
; 785  : 		Attach( pNewData );

  00022	83 c0 10	 add	 eax, 16			; 00000010H
  00025	5f		 pop	 edi
  00026	89 06		 mov	 DWORD PTR [esi], eax
  00028	5e		 pop	 esi

; 786  : 	}

  00029	c2 04 00	 ret	 4
$L151599:
?Reallocate@?$CSimpleStringT@D$0A@@ATL@@AAEXH@Z ENDP	; ATL::CSimpleStringT<char,0>::Reallocate
_TEXT	ENDS
EXTRN	__filelength:NEAR
EXTRN	_fileno:NEAR
; Function compile flags: /Ogty
; File c:\offi src_real\offi src!\_common\file.h
;	COMDAT ?GetLength@CFileIO@@UAEJXZ
_TEXT	SEGMENT
?GetLength@CFileIO@@UAEJXZ PROC NEAR			; CFileIO::GetLength, COMDAT
; _this$ = ecx

; 26   : 	virtual long GetLength() { return _filelength( Handle() ); }

  00000	8b 41 04	 mov	 eax, DWORD PTR [ecx+4]
  00003	50		 push	 eax
  00004	e8 00 00 00 00	 call	 _fileno
  00009	50		 push	 eax
  0000a	e8 00 00 00 00	 call	 __filelength
  0000f	83 c4 08	 add	 esp, 8
  00012	c3		 ret	 0
?GetLength@CFileIO@@UAEJXZ ENDP				; CFileIO::GetLength
_TEXT	ENDS
PUBLIC	?GetLength@?$CSimpleStringT@D$0A@@ATL@@QBEHXZ	; ATL::CSimpleStringT<char,0>::GetLength
; Function compile flags: /Ogty
; File c:\program files\microsoft visual studio .net 2003\vc7\atlmfc\include\atlsimpstr.h
;	COMDAT ?GetLength@?$CSimpleStringT@D$0A@@ATL@@QBEHXZ
_TEXT	SEGMENT
?GetLength@?$CSimpleStringT@D$0A@@ATL@@QBEHXZ PROC NEAR	; ATL::CSimpleStringT<char,0>::GetLength, COMDAT
; _this$ = ecx

; 501  : 		return( GetData()->nDataLength );

  00000	8b 01		 mov	 eax, DWORD PTR [ecx]
  00002	8b 40 f4	 mov	 eax, DWORD PTR [eax-12]

; 502  : 	}

  00005	c3		 ret	 0
?GetLength@?$CSimpleStringT@D$0A@@ATL@@QBEHXZ ENDP	; ATL::CSimpleStringT<char,0>::GetLength
_TEXT	ENDS
PUBLIC	??0?$CSimpleStringT@D$0A@@ATL@@QAE@PAUIAtlStringMgr@1@@Z ; ATL::CSimpleStringT<char,0>::CSimpleStringT<char,0>
; Function compile flags: /Ogty
;	COMDAT ??0?$CSimpleStringT@D$0A@@ATL@@QAE@PAUIAtlStringMgr@1@@Z
_TEXT	SEGMENT
_pStringMgr$ = 8					; size = 4
??0?$CSimpleStringT@D$0A@@ATL@@QAE@PAUIAtlStringMgr@1@@Z PROC NEAR ; ATL::CSimpleStringT<char,0>::CSimpleStringT<char,0>, COMDAT
; _this$ = ecx

; 210  : 	explicit CSimpleStringT( IAtlStringMgr* pStringMgr ) throw()

  00000	56		 push	 esi
  00001	8b f1		 mov	 esi, ecx

; 211  : 	{
; 212  : 		ATLASSERT( pStringMgr != NULL );
; 213  : 		CStringData* pData = pStringMgr->GetNilString();

  00003	8b 4c 24 08	 mov	 ecx, DWORD PTR _pStringMgr$[esp]
  00007	8b 01		 mov	 eax, DWORD PTR [ecx]
  00009	ff 50 0c	 call	 DWORD PTR [eax+12]

; 214  : 		Attach( pData );

  0000c	83 c0 10	 add	 eax, 16			; 00000010H
  0000f	89 06		 mov	 DWORD PTR [esi], eax

; 215  : 	}

  00011	8b c6		 mov	 eax, esi
  00013	5e		 pop	 esi
  00014	c2 04 00	 ret	 4
??0?$CSimpleStringT@D$0A@@ATL@@QAE@PAUIAtlStringMgr@1@@Z ENDP ; ATL::CSimpleStringT<char,0>::CSimpleStringT<char,0>
_TEXT	ENDS
PUBLIC	??1?$CSimpleStringT@D$0A@@ATL@@QAE@XZ		; ATL::CSimpleStringT<char,0>::~CSimpleStringT<char,0>
; Function compile flags: /Ogty
;	COMDAT ??1?$CSimpleStringT@D$0A@@ATL@@QAE@XZ
_TEXT	SEGMENT
??1?$CSimpleStringT@D$0A@@ATL@@QAE@XZ PROC NEAR		; ATL::CSimpleStringT<char,0>::~CSimpleStringT<char,0>, COMDAT
; _this$ = ecx

; 263  : 		CStringData* pData = GetData();

  00000	8b 01		 mov	 eax, DWORD PTR [ecx]
  00002	83 e8 10	 sub	 eax, 16			; 00000010H

; 264  : 		pData->Release();

  00005	8d 48 0c	 lea	 ecx, DWORD PTR [eax+12]
  00008	83 ca ff	 or	 edx, -1
  0000b	f0 0f c1 11	 lock	  xadd	 DWORD PTR [ecx], edx
  0000f	4a		 dec	 edx
  00010	85 d2		 test	 edx, edx
  00012	7f 08		 jg	 SHORT $L151633
  00014	8b 08		 mov	 ecx, DWORD PTR [eax]
  00016	8b 11		 mov	 edx, DWORD PTR [ecx]
  00018	50		 push	 eax
  00019	ff 52 04	 call	 DWORD PTR [edx+4]
$L151633:

; 265  : 	}

  0001c	c3		 ret	 0
??1?$CSimpleStringT@D$0A@@ATL@@QAE@XZ ENDP		; ATL::CSimpleStringT<char,0>::~CSimpleStringT<char,0>
_TEXT	ENDS
PUBLIC	?ReleaseBufferSetLength@?$CSimpleStringT@D$0A@@ATL@@QAEXH@Z ; ATL::CSimpleStringT<char,0>::ReleaseBufferSetLength
; Function compile flags: /Ogty
;	COMDAT ?ReleaseBufferSetLength@?$CSimpleStringT@D$0A@@ATL@@QAEXH@Z
_TEXT	SEGMENT
_nNewLength$ = 8					; size = 4
?ReleaseBufferSetLength@?$CSimpleStringT@D$0A@@ATL@@QAEXH@Z PROC NEAR ; ATL::CSimpleStringT<char,0>::ReleaseBufferSetLength, COMDAT
; _this$ = ecx

; 547  : 		ATLASSERT( nNewLength >= 0 );
; 548  : 		SetLength( nNewLength );

  00000	8b 44 24 04	 mov	 eax, DWORD PTR _nNewLength$[esp-4]
  00004	85 c0		 test	 eax, eax
  00006	7c 13		 jl	 SHORT $L151651
  00008	8b 11		 mov	 edx, DWORD PTR [ecx]
  0000a	3b 42 f8	 cmp	 eax, DWORD PTR [edx-8]
  0000d	7f 0c		 jg	 SHORT $L151651
  0000f	89 42 f4	 mov	 DWORD PTR [edx-12], eax
  00012	8b 09		 mov	 ecx, DWORD PTR [ecx]
  00014	c6 04 08 00	 mov	 BYTE PTR [eax+ecx], 0

; 549  : 	}

  00018	c2 04 00	 ret	 4
$L151651:
  0001b	68 57 00 07 80	 push	 -2147024809		; 80070057H
  00020	e8 00 00 00 00	 call	 ?AtlThrow@ATL@@YGXJ@Z	; ATL::AtlThrow
$L151654:
$L151653:
  00025	cc		 int	 3
?ReleaseBufferSetLength@?$CSimpleStringT@D$0A@@ATL@@QAEXH@Z ENDP ; ATL::CSimpleStringT<char,0>::ReleaseBufferSetLength
_TEXT	ENDS
PUBLIC	?Empty@?$CSimpleStringT@D$0A@@ATL@@QAEXXZ	; ATL::CSimpleStringT<char,0>::Empty
; Function compile flags: /Ogty
;	COMDAT ?Empty@?$CSimpleStringT@D$0A@@ATL@@QAEXXZ
_TEXT	SEGMENT
?Empty@?$CSimpleStringT@D$0A@@ATL@@QAEXXZ PROC NEAR	; ATL::CSimpleStringT<char,0>::Empty, COMDAT
; _this$ = ecx

; 421  : 	{

  00000	56		 push	 esi
  00001	8b f1		 mov	 esi, ecx

; 422  : 		CStringData* pOldData = GetData();

  00003	8b 0e		 mov	 ecx, DWORD PTR [esi]

; 423  : 		IAtlStringMgr* pStringMgr = pOldData->pStringMgr;
; 424  : 		if( pOldData->nDataLength == 0 )

  00005	8b 51 f4	 mov	 edx, DWORD PTR [ecx-12]
  00008	85 d2		 test	 edx, edx
  0000a	8d 41 f0	 lea	 eax, DWORD PTR [ecx-16]
  0000d	57		 push	 edi
  0000e	8b 38		 mov	 edi, DWORD PTR [eax]
  00010	74 4c		 je	 SHORT $L151691
  00012	53		 push	 ebx

; 425  : 		{
; 426  : 			return;
; 427  : 		}
; 428  : 
; 429  : 		if( pOldData->IsLocked() )

  00013	8b 58 0c	 mov	 ebx, DWORD PTR [eax+12]
  00016	8d 50 0c	 lea	 edx, DWORD PTR [eax+12]
  00019	85 db		 test	 ebx, ebx
  0001b	5b		 pop	 ebx
  0001c	7d 20		 jge	 SHORT $L147671

; 430  : 		{
; 431  : 			// Don't reallocate a locked buffer that's shrinking
; 432  : 			SetLength( 0 );

  0001e	8b 41 f8	 mov	 eax, DWORD PTR [ecx-8]
  00021	85 c0		 test	 eax, eax
  00023	7d 0a		 jge	 SHORT $L151677
  00025	68 57 00 07 80	 push	 -2147024809		; 80070057H
  0002a	e8 00 00 00 00	 call	 ?AtlThrow@ATL@@YGXJ@Z	; ATL::AtlThrow
$L151693:
$L151677:
  0002f	c7 41 f4 00 00
	00 00		 mov	 DWORD PTR [ecx-12], 0
  00036	8b 06		 mov	 eax, DWORD PTR [esi]
  00038	5f		 pop	 edi
  00039	c6 00 00	 mov	 BYTE PTR [eax], 0
  0003c	5e		 pop	 esi

; 439  : 		}
; 440  : 	}

  0003d	c3		 ret	 0
$L147671:

; 433  : 		}
; 434  : 		else
; 435  : 		{
; 436  : 			pOldData->Release();

  0003e	83 c9 ff	 or	 ecx, -1
  00041	f0 0f c1 0a	 lock	  xadd	 DWORD PTR [edx], ecx
  00045	49		 dec	 ecx
  00046	85 c9		 test	 ecx, ecx
  00048	7f 08		 jg	 SHORT $L151683
  0004a	8b 08		 mov	 ecx, DWORD PTR [eax]
  0004c	8b 11		 mov	 edx, DWORD PTR [ecx]
  0004e	50		 push	 eax
  0004f	ff 52 04	 call	 DWORD PTR [edx+4]
$L151683:

; 437  : 			CStringData* pNewData = pStringMgr->GetNilString();

  00052	8b 07		 mov	 eax, DWORD PTR [edi]
  00054	8b cf		 mov	 ecx, edi
  00056	ff 50 0c	 call	 DWORD PTR [eax+12]

; 438  : 			Attach( pNewData );

  00059	83 c0 10	 add	 eax, 16			; 00000010H
  0005c	89 06		 mov	 DWORD PTR [esi], eax
$L151691:
  0005e	5f		 pop	 edi
  0005f	5e		 pop	 esi

; 439  : 		}
; 440  : 	}

  00060	c3		 ret	 0
$L151692:
?Empty@?$CSimpleStringT@D$0A@@ATL@@QAEXXZ ENDP		; ATL::CSimpleStringT<char,0>::Empty
_TEXT	ENDS
PUBLIC	?PrepareWrite2@?$CSimpleStringT@D$0A@@ATL@@AAEXH@Z ; ATL::CSimpleStringT<char,0>::PrepareWrite2
; Function compile flags: /Ogty
;	COMDAT ?PrepareWrite2@?$CSimpleStringT@D$0A@@ATL@@AAEXH@Z
_TEXT	SEGMENT
_nLength$ = 8						; size = 4
?PrepareWrite2@?$CSimpleStringT@D$0A@@ATL@@AAEXH@Z PROC NEAR ; ATL::CSimpleStringT<char,0>::PrepareWrite2, COMDAT
; _this$ = ecx

; 747  : 		CStringData* pOldData = GetData();

  00000	8b 01		 mov	 eax, DWORD PTR [ecx]

; 748  : 		if( pOldData->nDataLength > nLength )

  00002	8b 54 24 04	 mov	 edx, DWORD PTR _nLength$[esp-4]
  00006	83 e8 10	 sub	 eax, 16			; 00000010H
  00009	56		 push	 esi
  0000a	8b 70 04	 mov	 esi, DWORD PTR [eax+4]
  0000d	3b f2		 cmp	 esi, edx
  0000f	7e 02		 jle	 SHORT $L147693

; 749  : 		{
; 750  : 			nLength = pOldData->nDataLength;

  00011	8b d6		 mov	 edx, esi
$L147693:

; 751  : 		}
; 752  : 		if( pOldData->IsShared() )

  00013	83 78 0c 01	 cmp	 DWORD PTR [eax+12], 1
  00017	5e		 pop	 esi
  00018	7e 09		 jle	 SHORT $L147694

; 753  : 		{
; 754  : 			Fork( nLength );

  0001a	89 54 24 04	 mov	 DWORD PTR _nLength$[esp-4], edx
  0001e	e9 00 00 00 00	 jmp	 ?Fork@?$CSimpleStringT@D$0A@@ATL@@AAEXH@Z ; ATL::CSimpleStringT<char,0>::Fork
$L147694:

; 755  : 		}
; 756  : 		else if( pOldData->nAllocLength < nLength )

  00023	8b 40 08	 mov	 eax, DWORD PTR [eax+8]
  00026	3b c2		 cmp	 eax, edx
  00028	7d 1f		 jge	 SHORT $L147696

; 757  : 		{
; 758  : 			// Grow exponentially, until we hit 1K.
; 759  : 			int nNewLength = pOldData->nAllocLength;
; 760  : 			if( nNewLength > 1024 )

  0002a	3d 00 04 00 00	 cmp	 eax, 1024		; 00000400H
  0002f	7e 07		 jle	 SHORT $L147698

; 761  : 			{
; 762  : 				nNewLength += 1024;

  00031	05 00 04 00 00	 add	 eax, 1024		; 00000400H

; 763  : 			}
; 764  : 			else

  00036	eb 02		 jmp	 SHORT $L147699
$L147698:

; 765  : 			{
; 766  : 				nNewLength *= 2;

  00038	03 c0		 add	 eax, eax
$L147699:

; 767  : 			}
; 768  : 			if( nNewLength < nLength )

  0003a	3b c2		 cmp	 eax, edx
  0003c	7d 02		 jge	 SHORT $L147700

; 769  : 			{
; 770  : 				nNewLength = nLength;

  0003e	8b c2		 mov	 eax, edx
$L147700:

; 771  : 			}
; 772  : 			Reallocate( nNewLength );

  00040	89 44 24 04	 mov	 DWORD PTR _nLength$[esp-4], eax
  00044	e9 00 00 00 00	 jmp	 ?Reallocate@?$CSimpleStringT@D$0A@@ATL@@AAEXH@Z ; ATL::CSimpleStringT<char,0>::Reallocate
$L147696:

; 773  : 		}
; 774  : 	}

  00049	c2 04 00	 ret	 4
?PrepareWrite2@?$CSimpleStringT@D$0A@@ATL@@AAEXH@Z ENDP	; ATL::CSimpleStringT<char,0>::PrepareWrite2
_TEXT	ENDS
PUBLIC	??A?$CSimpleStringT@D$0A@@ATL@@QBEDH@Z		; ATL::CSimpleStringT<char,0>::operator[]
; Function compile flags: /Ogty
;	COMDAT ??A?$CSimpleStringT@D$0A@@ATL@@QBEDH@Z
_TEXT	SEGMENT
_iChar$ = 8						; size = 4
??A?$CSimpleStringT@D$0A@@ATL@@QBEDH@Z PROC NEAR	; ATL::CSimpleStringT<char,0>::operator[], COMDAT
; _this$ = ecx

; 369  : 		ATLASSERT( (iChar >= 0) && (iChar <= GetLength()) );  // Indexing the '\0' is OK
; 370  : 		
; 371  : 		if( (iChar < 0) || (iChar > GetLength()) )

  00000	8b 54 24 04	 mov	 edx, DWORD PTR _iChar$[esp-4]
  00004	85 d2		 test	 edx, edx
  00006	7c 0d		 jl	 SHORT $L151133
  00008	8b 01		 mov	 eax, DWORD PTR [ecx]
  0000a	3b 50 f4	 cmp	 edx, DWORD PTR [eax-12]
  0000d	7f 06		 jg	 SHORT $L151133

; 372  : 			AtlThrow(E_INVALIDARG);
; 373  : 			
; 374  : 		return( m_pszData[iChar] );

  0000f	8a 04 10	 mov	 al, BYTE PTR [eax+edx]

; 375  : 	}

  00012	c2 04 00	 ret	 4
$L151133:
  00015	68 57 00 07 80	 push	 -2147024809		; 80070057H
  0001a	e8 00 00 00 00	 call	 ?AtlThrow@ATL@@YGXJ@Z	; ATL::AtlThrow
$L151716:
$L151715:
  0001f	cc		 int	 3
??A?$CSimpleStringT@D$0A@@ATL@@QBEDH@Z ENDP		; ATL::CSimpleStringT<char,0>::operator[]
_TEXT	ENDS
PUBLIC	?IsEmpty@?$CSimpleStringT@D$0A@@ATL@@QBE_NXZ	; ATL::CSimpleStringT<char,0>::IsEmpty
; Function compile flags: /Ogty
;	COMDAT ?IsEmpty@?$CSimpleStringT@D$0A@@ATL@@QBE_NXZ
_TEXT	SEGMENT
?IsEmpty@?$CSimpleStringT@D$0A@@ATL@@QBE_NXZ PROC NEAR	; ATL::CSimpleStringT<char,0>::IsEmpty, COMDAT
; _this$ = ecx

; 514  : 		return( GetLength() == 0 );

  00000	8b 01		 mov	 eax, DWORD PTR [ecx]
  00002	8b 50 f4	 mov	 edx, DWORD PTR [eax-12]
  00005	33 c9		 xor	 ecx, ecx
  00007	85 d2		 test	 edx, edx
  00009	0f 94 c1	 sete	 cl
  0000c	8a c1		 mov	 al, cl

; 515  : 	}

  0000e	c3		 ret	 0
?IsEmpty@?$CSimpleStringT@D$0A@@ATL@@QBE_NXZ ENDP	; ATL::CSimpleStringT<char,0>::IsEmpty
_TEXT	ENDS
PUBLIC	??0?$CStringT@DV?$StrTraitMFC@DV?$ChTraitsCRT@D@ATL@@@@@ATL@@QAE@XZ ; ATL::CStringT<char,StrTraitMFC<char,ATL::ChTraitsCRT<char> > >::CStringT<char,StrTraitMFC<char,ATL::ChTraitsCRT<char> > >
; Function compile flags: /Ogty
; File c:\program files\microsoft visual studio .net 2003\vc7\atlmfc\include\cstringt.h
;	COMDAT ??0?$CStringT@DV?$StrTraitMFC@DV?$ChTraitsCRT@D@ATL@@@@@ATL@@QAE@XZ
_TEXT	SEGMENT
??0?$CStringT@DV?$StrTraitMFC@DV?$ChTraitsCRT@D@ATL@@@@@ATL@@QAE@XZ PROC NEAR ; ATL::CStringT<char,StrTraitMFC<char,ATL::ChTraitsCRT<char> > >::CStringT<char,StrTraitMFC<char,ATL::ChTraitsCRT<char> > >, COMDAT
; _this$ = ecx

; 796  : 	{

  00000	56		 push	 esi
  00001	8b f1		 mov	 esi, ecx
  00003	e8 00 00 00 00	 call	 ?AfxGetStringManager@@YGPAUIAtlStringMgr@ATL@@XZ ; AfxGetStringManager
  00008	8b 10		 mov	 edx, DWORD PTR [eax]
  0000a	8b c8		 mov	 ecx, eax
  0000c	ff 52 0c	 call	 DWORD PTR [edx+12]
  0000f	83 c0 10	 add	 eax, 16			; 00000010H
  00012	89 06		 mov	 DWORD PTR [esi], eax

; 797  : 	}

  00014	8b c6		 mov	 eax, esi
  00016	5e		 pop	 esi
  00017	c3		 ret	 0
??0?$CStringT@DV?$StrTraitMFC@DV?$ChTraitsCRT@D@ATL@@@@@ATL@@QAE@XZ ENDP ; ATL::CStringT<char,StrTraitMFC<char,ATL::ChTraitsCRT<char> > >::CStringT<char,StrTraitMFC<char,ATL::ChTraitsCRT<char> > >
_TEXT	ENDS
PUBLIC	??1?$CStringT@DV?$StrTraitMFC@DV?$ChTraitsCRT@D@ATL@@@@@ATL@@QAE@XZ ; ATL::CStringT<char,StrTraitMFC<char,ATL::ChTraitsCRT<char> > >::~CStringT<char,StrTraitMFC<char,ATL::ChTraitsCRT<char> > >
; Function compile flags: /Ogty
;	COMDAT ??1?$CStringT@DV?$StrTraitMFC@DV?$ChTraitsCRT@D@ATL@@@@@ATL@@QAE@XZ
_TEXT	SEGMENT
??1?$CStringT@DV?$StrTraitMFC@DV?$ChTraitsCRT@D@ATL@@@@@ATL@@QAE@XZ PROC NEAR ; ATL::CStringT<char,StrTraitMFC<char,ATL::ChTraitsCRT<char> > >::~CStringT<char,StrTraitMFC<char,ATL::ChTraitsCRT<char> > >, COMDAT
; _this$ = ecx

; 963  : 	}

  00000	8b 01		 mov	 eax, DWORD PTR [ecx]
  00002	83 e8 10	 sub	 eax, 16			; 00000010H
  00005	8d 48 0c	 lea	 ecx, DWORD PTR [eax+12]
  00008	83 ca ff	 or	 edx, -1
  0000b	f0 0f c1 11	 lock	  xadd	 DWORD PTR [ecx], edx
  0000f	4a		 dec	 edx
  00010	85 d2		 test	 edx, edx
  00012	7f 08		 jg	 SHORT $L151768
  00014	8b 08		 mov	 ecx, DWORD PTR [eax]
  00016	8b 11		 mov	 edx, DWORD PTR [ecx]
  00018	50		 push	 eax
  00019	ff 52 04	 call	 DWORD PTR [edx+4]
$L151768:
  0001c	c3		 ret	 0
??1?$CStringT@DV?$StrTraitMFC@DV?$ChTraitsCRT@D@ATL@@@@@ATL@@QAE@XZ ENDP ; ATL::CStringT<char,StrTraitMFC<char,ATL::ChTraitsCRT<char> > >::~CStringT<char,StrTraitMFC<char,ATL::ChTraitsCRT<char> > >
_TEXT	ENDS
PUBLIC	?PrepareWrite@?$CSimpleStringT@D$0A@@ATL@@AAEPADH@Z ; ATL::CSimpleStringT<char,0>::PrepareWrite
; Function compile flags: /Ogty
; File c:\program files\microsoft visual studio .net 2003\vc7\atlmfc\include\atlsimpstr.h
;	COMDAT ?PrepareWrite@?$CSimpleStringT@D$0A@@ATL@@AAEPADH@Z
_TEXT	SEGMENT
_nLength$ = 8						; size = 4
?PrepareWrite@?$CSimpleStringT@D$0A@@ATL@@AAEPADH@Z PROC NEAR ; ATL::CSimpleStringT<char,0>::PrepareWrite, COMDAT
; _this$ = ecx

; 734  : 	{

  00000	56		 push	 esi
  00001	8b f1		 mov	 esi, ecx

; 735  : 		CStringData* pOldData = GetData();

  00003	8b 06		 mov	 eax, DWORD PTR [esi]

; 736  : 		int nShared = 1-pOldData->nRefs;  // nShared < 0 means true, >= 0 means false

  00005	8b 50 fc	 mov	 edx, DWORD PTR [eax-4]
  00008	83 e8 10	 sub	 eax, 16			; 00000010H
  0000b	b9 01 00 00 00	 mov	 ecx, 1
  00010	2b ca		 sub	 ecx, edx

; 737  : 		int nTooShort = pOldData->nAllocLength-nLength;  // nTooShort < 0 means true, >= 0 means false

  00012	8b 50 08	 mov	 edx, DWORD PTR [eax+8]
  00015	8b 44 24 08	 mov	 eax, DWORD PTR _nLength$[esp]
  00019	2b d0		 sub	 edx, eax

; 738  : 		if( (nShared|nTooShort) < 0 )  // If either sign bit is set (i.e. either is less than zero), we need to copy data

  0001b	0b ca		 or	 ecx, edx
  0001d	7d 08		 jge	 SHORT $L151777

; 739  : 		{
; 740  : 			PrepareWrite2( nLength );

  0001f	50		 push	 eax
  00020	8b ce		 mov	 ecx, esi
  00022	e8 00 00 00 00	 call	 ?PrepareWrite2@?$CSimpleStringT@D$0A@@ATL@@AAEXH@Z ; ATL::CSimpleStringT<char,0>::PrepareWrite2
$L151777:

; 741  : 		}
; 742  : 
; 743  : 		return( m_pszData );

  00027	8b 06		 mov	 eax, DWORD PTR [esi]
  00029	5e		 pop	 esi

; 744  : 	}

  0002a	c2 04 00	 ret	 4
?PrepareWrite@?$CSimpleStringT@D$0A@@ATL@@AAEPADH@Z ENDP ; ATL::CSimpleStringT<char,0>::PrepareWrite
_TEXT	ENDS
PUBLIC	??0CScanner@@QAE@H@Z				; CScanner::CScanner
PUBLIC	?SetMark@CScanner@@UAEXXZ			; CScanner::SetMark
PUBLIC	?GoMark@CScanner@@UAEXXZ			; CScanner::GoMark
PUBLIC	?GetToken@CScanner@@UAEHH@Z			; CScanner::GetToken
PUBLIC	??_7CScanner@@6B@				; CScanner::`vftable'
PUBLIC	??_GCScanner@@UAEPAXI@Z				; CScanner::`scalar deleting destructor'
EXTRN	??_ECScanner@@UAEPAXI@Z:NEAR			; CScanner::`vector deleting destructor'
;	COMDAT ??_7CScanner@@6B@
CONST	SEGMENT
??_7CScanner@@6B@ DD FLAT:??_ECScanner@@UAEPAXI@Z	; CScanner::`vftable'
	DD	FLAT:?SetMark@CScanner@@UAEXXZ
	DD	FLAT:?GoMark@CScanner@@UAEXXZ
	DD	FLAT:?GetLineNum@CScanner@@UAEHPAX@Z
	DD	FLAT:?PutBack@CScanner@@UAEXXZ
	DD	FLAT:?GetToken@CScanner@@UAEHH@Z
; Function compile flags: /Ogty
; File c:\offi src_real\offi src!\monitor\scanner.cpp
CONST	ENDS
;	COMDAT ??0CScanner@@QAE@H@Z
_TEXT	SEGMENT
_bComma$ = 8						; size = 4
??0CScanner@@QAE@H@Z PROC NEAR				; CScanner::CScanner, COMDAT
; _this$ = ecx

; 177  : {

  00000	56		 push	 esi
  00001	8b f1		 mov	 esi, ecx
  00003	c7 06 00 00 00
	00		 mov	 DWORD PTR [esi], OFFSET FLAT:??_7CScanner@@6B@
  00009	e8 00 00 00 00	 call	 ?AfxGetStringManager@@YGPAUIAtlStringMgr@ATL@@XZ ; AfxGetStringManager
  0000e	8b 10		 mov	 edx, DWORD PTR [eax]
  00010	8b c8		 mov	 ecx, eax
  00012	ff 52 0c	 call	 DWORD PTR [edx+12]
  00015	83 c0 10	 add	 eax, 16			; 00000010H
  00018	89 46 24	 mov	 DWORD PTR [esi+36], eax
  0001b	e8 00 00 00 00	 call	 ?AfxGetStringManager@@YGPAUIAtlStringMgr@ATL@@XZ ; AfxGetStringManager
  00020	8b 10		 mov	 edx, DWORD PTR [eax]
  00022	8b c8		 mov	 ecx, eax
  00024	ff 52 0c	 call	 DWORD PTR [edx+12]
  00027	83 c0 10	 add	 eax, 16			; 00000010H
  0002a	89 86 3c 0c 00
	00		 mov	 DWORD PTR [esi+3132], eax

; 178  : 	m_bComma = bComma;

  00030	8b 44 24 08	 mov	 eax, DWORD PTR _bComma$[esp]
  00034	89 46 04	 mov	 DWORD PTR [esi+4], eax

; 179  : 	m_pProg = m_pBuf = NULL;

  00037	33 c0		 xor	 eax, eax

; 180  : 	m_bMemFlag = 1;

  00039	b9 01 00 00 00	 mov	 ecx, 1

; 181  : 	dwValue	= 0;
; 182  : 	m_lpMark = NULL;
; 183  : 	m_dwDef = 0;
; 184  : 	token = m_mszToken;

  0003e	8d 96 2c 08 00
	00		 lea	 edx, DWORD PTR [esi+2092]
  00044	89 46 20	 mov	 DWORD PTR [esi+32], eax
  00047	89 46 1c	 mov	 DWORD PTR [esi+28], eax
  0004a	89 86 38 0c 00
	00		 mov	 DWORD PTR [esi+3128], eax
  00050	89 46 18	 mov	 DWORD PTR [esi+24], eax
  00053	89 46 10	 mov	 DWORD PTR [esi+16], eax

; 185  : 	m_bWideChar = FALSE;

  00056	89 46 14	 mov	 DWORD PTR [esi+20], eax
  00059	88 4e 08	 mov	 BYTE PTR [esi+8], cl
  0005c	89 56 28	 mov	 DWORD PTR [esi+40], edx

; 186  : 	m_bErrorCheck = TRUE;

  0005f	89 8e 40 0c 00
	00		 mov	 DWORD PTR [esi+3136], ecx

; 187  : }

  00065	8b c6		 mov	 eax, esi
  00067	5e		 pop	 esi
  00068	c2 04 00	 ret	 4
??0CScanner@@QAE@H@Z ENDP				; CScanner::CScanner
; Function compile flags: /Ogty
; File c:\offi src_real\offi src!\monitor\scanner.h
_TEXT	ENDS
;	COMDAT ?SetMark@CScanner@@UAEXXZ
_TEXT	SEGMENT
?SetMark@CScanner@@UAEXXZ PROC NEAR			; CScanner::SetMark, COMDAT
; _this$ = ecx

; 72   : 	virtual void	SetMark() { m_lpMark = m_pProg; }

  00000	8b 41 1c	 mov	 eax, DWORD PTR [ecx+28]
  00003	89 41 18	 mov	 DWORD PTR [ecx+24], eax
  00006	c3		 ret	 0
?SetMark@CScanner@@UAEXXZ ENDP				; CScanner::SetMark
; Function compile flags: /Ogty
_TEXT	ENDS
;	COMDAT ?GoMark@CScanner@@UAEXXZ
_TEXT	SEGMENT
?GoMark@CScanner@@UAEXXZ PROC NEAR			; CScanner::GoMark, COMDAT
; _this$ = ecx

; 73   : 	virtual void	GoMark() { if( m_lpMark ) m_pProg = m_lpMark; }

  00000	8b 41 18	 mov	 eax, DWORD PTR [ecx+24]
  00003	85 c0		 test	 eax, eax
  00005	74 03		 je	 SHORT $L143236
  00007	89 41 1c	 mov	 DWORD PTR [ecx+28], eax
$L143236:
  0000a	c3		 ret	 0
?GoMark@CScanner@@UAEXXZ ENDP				; CScanner::GoMark
_TEXT	ENDS
PUBLIC	??0CScanner@@QAE@PAXH@Z				; CScanner::CScanner
; Function compile flags: /Ogty
; File c:\offi src_real\offi src!\monitor\scanner.cpp
;	COMDAT ??0CScanner@@QAE@PAXH@Z
_TEXT	SEGMENT
_p$ = 8							; size = 4
_bComma$ = 12						; size = 4
??0CScanner@@QAE@PAXH@Z PROC NEAR			; CScanner::CScanner, COMDAT
; _this$ = ecx

; 190  : {

  00000	56		 push	 esi
  00001	8b f1		 mov	 esi, ecx
  00003	c7 06 00 00 00
	00		 mov	 DWORD PTR [esi], OFFSET FLAT:??_7CScanner@@6B@
  00009	e8 00 00 00 00	 call	 ?AfxGetStringManager@@YGPAUIAtlStringMgr@ATL@@XZ ; AfxGetStringManager
  0000e	8b 10		 mov	 edx, DWORD PTR [eax]
  00010	8b c8		 mov	 ecx, eax
  00012	ff 52 0c	 call	 DWORD PTR [edx+12]
  00015	83 c0 10	 add	 eax, 16			; 00000010H
  00018	89 46 24	 mov	 DWORD PTR [esi+36], eax
  0001b	e8 00 00 00 00	 call	 ?AfxGetStringManager@@YGPAUIAtlStringMgr@ATL@@XZ ; AfxGetStringManager
  00020	8b 10		 mov	 edx, DWORD PTR [eax]
  00022	8b c8		 mov	 ecx, eax
  00024	ff 52 0c	 call	 DWORD PTR [edx+12]
  00027	83 c0 10	 add	 eax, 16			; 00000010H
  0002a	89 86 3c 0c 00
	00		 mov	 DWORD PTR [esi+3132], eax

; 191  : 	m_bComma = bComma;

  00030	8b 44 24 0c	 mov	 eax, DWORD PTR _bComma$[esp]
  00034	89 46 04	 mov	 DWORD PTR [esi+4], eax

; 192  : 	m_pProg = m_pBuf = (CHAR*)p;

  00037	8b 44 24 08	 mov	 eax, DWORD PTR _p$[esp]
  0003b	89 46 20	 mov	 DWORD PTR [esi+32], eax
  0003e	89 46 1c	 mov	 DWORD PTR [esi+28], eax

; 193  : 	m_bMemFlag = 1;
; 194  : 	dwValue	= 0;

  00041	33 c0		 xor	 eax, eax
  00043	b9 01 00 00 00	 mov	 ecx, 1

; 195  : 	m_dwDef = 0;
; 196  : 	token = m_mszToken;

  00048	8d 96 2c 08 00
	00		 lea	 edx, DWORD PTR [esi+2092]
  0004e	89 86 38 0c 00
	00		 mov	 DWORD PTR [esi+3128], eax
  00054	89 46 10	 mov	 DWORD PTR [esi+16], eax

; 197  : 	m_bWideChar = FALSE;

  00057	89 46 14	 mov	 DWORD PTR [esi+20], eax
  0005a	88 4e 08	 mov	 BYTE PTR [esi+8], cl
  0005d	89 56 28	 mov	 DWORD PTR [esi+40], edx

; 198  : 	m_bErrorCheck = TRUE;

  00060	89 8e 40 0c 00
	00		 mov	 DWORD PTR [esi+3136], ecx

; 199  : }

  00066	8b c6		 mov	 eax, esi
  00068	5e		 pop	 esi
  00069	c2 08 00	 ret	 8
??0CScanner@@QAE@PAXH@Z ENDP				; CScanner::CScanner
_TEXT	ENDS
PUBLIC	??1CScanner@@UAE@XZ				; CScanner::~CScanner
; Function compile flags: /Ogty
;	COMDAT ??1CScanner@@UAE@XZ
_TEXT	SEGMENT
??1CScanner@@UAE@XZ PROC NEAR				; CScanner::~CScanner, COMDAT
; _this$ = ecx

; 202  : {

  00000	56		 push	 esi
  00001	8b f1		 mov	 esi, ecx

; 203  : 	Free();

  00003	8a 46 08	 mov	 al, BYTE PTR [esi+8]
  00006	84 c0		 test	 al, al
  00008	c7 06 00 00 00
	00		 mov	 DWORD PTR [esi], OFFSET FLAT:??_7CScanner@@6B@
  0000e	75 10		 jne	 SHORT $L151934
  00010	8b 46 20	 mov	 eax, DWORD PTR [esi+32]
  00013	85 c0		 test	 eax, eax
  00015	74 09		 je	 SHORT $L151934
  00017	50		 push	 eax
  00018	e8 00 00 00 00	 call	 ??3@YAXPAX@Z		; operator delete
  0001d	83 c4 04	 add	 esp, 4
$L151934:

; 204  : }

  00020	8b 86 3c 0c 00
	00		 mov	 eax, DWORD PTR [esi+3132]
  00026	83 e8 10	 sub	 eax, 16			; 00000010H
  00029	c7 46 20 00 00
	00 00		 mov	 DWORD PTR [esi+32], 0
  00030	c7 46 1c 00 00
	00 00		 mov	 DWORD PTR [esi+28], 0
  00037	8d 48 0c	 lea	 ecx, DWORD PTR [eax+12]
  0003a	83 ca ff	 or	 edx, -1
  0003d	f0 0f c1 11	 lock	  xadd	 DWORD PTR [ecx], edx
  00041	4a		 dec	 edx
  00042	85 d2		 test	 edx, edx
  00044	7f 08		 jg	 SHORT $L151960
  00046	8b 08		 mov	 ecx, DWORD PTR [eax]
  00048	8b 11		 mov	 edx, DWORD PTR [ecx]
  0004a	50		 push	 eax
  0004b	ff 52 04	 call	 DWORD PTR [edx+4]
$L151960:
  0004e	8b 76 24	 mov	 esi, DWORD PTR [esi+36]
  00051	83 ee 10	 sub	 esi, 16			; 00000010H
  00054	8d 46 0c	 lea	 eax, DWORD PTR [esi+12]
  00057	83 c9 ff	 or	 ecx, -1
  0005a	f0 0f c1 08	 lock	  xadd	 DWORD PTR [eax], ecx
  0005e	49		 dec	 ecx
  0005f	85 c9		 test	 ecx, ecx
  00061	7f 08		 jg	 SHORT $L151988
  00063	8b 0e		 mov	 ecx, DWORD PTR [esi]
  00065	8b 11		 mov	 edx, DWORD PTR [ecx]
  00067	56		 push	 esi
  00068	ff 52 04	 call	 DWORD PTR [edx+4]
$L151988:
  0006b	5e		 pop	 esi
  0006c	c3		 ret	 0
??1CScanner@@UAE@XZ ENDP				; CScanner::~CScanner
_TEXT	ENDS
PUBLIC	?GetInt64@CScanner@@QAE_JH@Z			; CScanner::GetInt64
EXTRN	__atoi64:NEAR
; Function compile flags: /Ogty
;	COMDAT ?GetInt64@CScanner@@QAE_JH@Z
_TEXT	SEGMENT
_bComma$ = 8						; size = 4
?GetInt64@CScanner@@QAE_JH@Z PROC NEAR			; CScanner::GetInt64, COMDAT
; _this$ = ecx

; 839  : {

  00000	53		 push	 ebx

; 840  : 	m_dwDef		= 1;
; 841  : 	if( GetToken( bComma ) == HEX )

  00001	8b 5c 24 08	 mov	 ebx, DWORD PTR _bComma$[esp]
  00005	56		 push	 esi
  00006	8b f1		 mov	 esi, ecx
  00008	8b 06		 mov	 eax, DWORD PTR [esi]
  0000a	57		 push	 edi
  0000b	53		 push	 ebx
  0000c	c7 46 10 01 00
	00 00		 mov	 DWORD PTR [esi+16], 1
  00013	ff 50 14	 call	 DWORD PTR [eax+20]
  00016	33 ff		 xor	 edi, edi
  00018	83 f8 04	 cmp	 eax, 4
  0001b	0f 84 97 00 00
	00		 je	 $L151043

; 842  : 	{
; 843  : 	}
; 844  : 	else if( !Token.IsEmpty() )

  00021	8b 4e 24	 mov	 ecx, DWORD PTR [esi+36]
  00024	39 79 f4	 cmp	 DWORD PTR [ecx-12], edi
  00027	0f 84 8b 00 00
	00		 je	 $L151043

; 845  : 	{
; 846  : 		switch( Token[0] )

  0002d	8b c1		 mov	 eax, ecx
  0002f	39 78 f4	 cmp	 DWORD PTR [eax-12], edi
  00032	7d 0a		 jge	 SHORT $L152026
  00034	68 57 00 07 80	 push	 -2147024809		; 80070057H
  00039	e8 00 00 00 00	 call	 ?AtlThrow@ATL@@YGXJ@Z	; ATL::AtlThrow
$L152045:
$L152026:
  0003e	0f be 00	 movsx	 eax, BYTE PTR [eax]
  00041	83 e8 2b	 sub	 eax, 43			; 0000002bH
  00044	74 51		 je	 SHORT $L151051
  00046	83 e8 02	 sub	 eax, 2
  00049	74 13		 je	 SHORT $L151049
  0004b	83 e8 10	 sub	 eax, 16			; 00000010H
  0004e	75 53		 jne	 SHORT $L151053

; 869  : 	}
; 870  : 	m_dwDef = 0;

  00050	89 7e 10	 mov	 DWORD PTR [esi+16], edi
  00053	5f		 pop	 edi
  00054	5e		 pop	 esi
  00055	83 c8 ff	 or	 eax, -1

; 871  : 	return (__int64)0;

  00058	33 d2		 xor	 edx, edx
  0005a	5b		 pop	 ebx

; 872  : }

  0005b	c2 04 00	 ret	 4
$L151049:

; 847  : 		{
; 848  : 			case '=': 
; 849  : 				m_dwDef = 0;
; 850  : 				return NULL_ID;
; 851  : 			case '-': 
; 852  : 				if( bComma == FALSE )

  0005e	3b df		 cmp	 ebx, edi
  00060	75 23		 jne	 SHORT $L151050

; 853  : 				{
; 854  : 					GetToken();	

  00062	8b 16		 mov	 edx, DWORD PTR [esi]
  00064	57		 push	 edi
  00065	8b ce		 mov	 ecx, esi
  00067	ff 52 14	 call	 DWORD PTR [edx+20]

; 855  : 					m_dwDef = 0;

  0006a	89 7e 10	 mov	 DWORD PTR [esi+16], edi

; 856  : 					return -_atoi64( Token );

  0006d	8b 76 24	 mov	 esi, DWORD PTR [esi+36]
  00070	56		 push	 esi
  00071	e8 00 00 00 00	 call	 __atoi64
  00076	83 c4 04	 add	 esp, 4
  00079	f7 d8		 neg	 eax
  0007b	13 d7		 adc	 edx, edi
  0007d	5f		 pop	 edi
  0007e	5e		 pop	 esi
  0007f	f7 da		 neg	 edx
  00081	5b		 pop	 ebx

; 872  : }

  00082	c2 04 00	 ret	 4
$L151050:

; 857  : 				}
; 858  : 				else
; 859  : 				{
; 860  : 					m_dwDef = 0;
; 861  : 					return _atoi64( Token );

  00085	51		 push	 ecx
  00086	89 7e 10	 mov	 DWORD PTR [esi+16], edi
  00089	e8 00 00 00 00	 call	 __atoi64
  0008e	83 c4 04	 add	 esp, 4
  00091	5f		 pop	 edi
  00092	5e		 pop	 esi
  00093	5b		 pop	 ebx

; 872  : }

  00094	c2 04 00	 ret	 4
$L151051:

; 862  : 				}
; 863  : 			case '+':	
; 864  : 				if( bComma == FALSE )

  00097	3b df		 cmp	 ebx, edi
  00099	75 08		 jne	 SHORT $L151053

; 865  : 					GetToken();	

  0009b	8b 06		 mov	 eax, DWORD PTR [esi]
  0009d	57		 push	 edi
  0009e	8b ce		 mov	 ecx, esi
  000a0	ff 50 14	 call	 DWORD PTR [eax+20]
$L151053:

; 866  : 		}
; 867  : 		m_dwDef = 0;

  000a3	89 7e 10	 mov	 DWORD PTR [esi+16], edi

; 868  : 		return _atoi64( Token );

  000a6	8b 76 24	 mov	 esi, DWORD PTR [esi+36]
  000a9	56		 push	 esi
  000aa	e8 00 00 00 00	 call	 __atoi64
  000af	83 c4 04	 add	 esp, 4
  000b2	5f		 pop	 edi
  000b3	5e		 pop	 esi
  000b4	5b		 pop	 ebx

; 872  : }

  000b5	c2 04 00	 ret	 4
$L151043:

; 869  : 	}
; 870  : 	m_dwDef = 0;

  000b8	89 7e 10	 mov	 DWORD PTR [esi+16], edi
  000bb	5f		 pop	 edi
  000bc	5e		 pop	 esi

; 871  : 	return (__int64)0;

  000bd	33 c0		 xor	 eax, eax
  000bf	33 d2		 xor	 edx, edx
  000c1	5b		 pop	 ebx

; 872  : }

  000c2	c2 04 00	 ret	 4
$L152043:
?GetInt64@CScanner@@QAE_JH@Z ENDP			; CScanner::GetInt64
_TEXT	ENDS
PUBLIC	__real@bf800000
PUBLIC	__real@00000000
PUBLIC	?GetFloat@CScanner@@QAEMH@Z			; CScanner::GetFloat
EXTRN	_atof:NEAR
EXTRN	__fltused:NEAR
;	COMDAT __real@bf800000
; File c:\program files\microsoft visual studio .net 2003\vc7\atlmfc\include\atlsimpstr.h
CONST	SEGMENT
__real@bf800000 DD 0bf800000r			; -1
CONST	ENDS
;	COMDAT __real@00000000
CONST	SEGMENT
__real@00000000 DD 000000000r			; 0
; Function compile flags: /Ogty
; File c:\offi src_real\offi src!\monitor\scanner.cpp
CONST	ENDS
;	COMDAT ?GetFloat@CScanner@@QAEMH@Z
_TEXT	SEGMENT
_bComma$ = 8						; size = 4
?GetFloat@CScanner@@QAEMH@Z PROC NEAR			; CScanner::GetFloat, COMDAT
; _this$ = ecx

; 875  : {

  00000	53		 push	 ebx
  00001	56		 push	 esi
  00002	57		 push	 edi

; 876  : 	m_dwDef = 1;
; 877  : 	GetToken( bComma );

  00003	8b 7c 24 10	 mov	 edi, DWORD PTR _bComma$[esp+8]
  00007	8b f1		 mov	 esi, ecx
  00009	8b 06		 mov	 eax, DWORD PTR [esi]
  0000b	57		 push	 edi
  0000c	c7 46 10 01 00
	00 00		 mov	 DWORD PTR [esi+16], 1
  00013	ff 50 14	 call	 DWORD PTR [eax+20]

; 878  : 	if( !Token.IsEmpty() )

  00016	8b 4e 24	 mov	 ecx, DWORD PTR [esi+36]
  00019	8b 41 f4	 mov	 eax, DWORD PTR [ecx-12]
  0001c	33 db		 xor	 ebx, ebx
  0001e	3b c3		 cmp	 eax, ebx
  00020	74 6e		 je	 SHORT $L151059

; 879  : 	{
; 880  : 		switch( Token[0] )

  00022	8b c1		 mov	 eax, ecx
  00024	39 58 f4	 cmp	 DWORD PTR [eax-12], ebx
  00027	7d 0a		 jge	 SHORT $L152081
  00029	68 57 00 07 80	 push	 -2147024809		; 80070057H
  0002e	e8 00 00 00 00	 call	 ?AtlThrow@ATL@@YGXJ@Z	; ATL::AtlThrow
$L152101:
$L152081:
  00033	0f be 00	 movsx	 eax, BYTE PTR [eax]
  00036	83 e8 2b	 sub	 eax, 43			; 0000002bH
  00039	74 38		 je	 SHORT $L151067
  0003b	83 e8 02	 sub	 eax, 2
  0003e	74 14		 je	 SHORT $L151065
  00040	83 e8 10	 sub	 eax, 16			; 00000010H
  00043	75 36		 jne	 SHORT $L151061

; 881  : 		{
; 882  : 			case '=': 
; 883  : 				m_dwDef = 0;
; 884  : 				return -1;

  00045	d9 05 00 00 00
	00		 fld	 DWORD PTR __real@bf800000
  0004b	5f		 pop	 edi

; 894  : 	}
; 895  : 	m_dwDef = 0;

  0004c	89 5e 10	 mov	 DWORD PTR [esi+16], ebx
  0004f	5e		 pop	 esi
  00050	5b		 pop	 ebx

; 897  : }

  00051	c2 04 00	 ret	 4
$L151065:

; 885  : 			case '-': 
; 886  : 				GetToken(bComma);	

  00054	8b 16		 mov	 edx, DWORD PTR [esi]
  00056	57		 push	 edi
  00057	8b ce		 mov	 ecx, esi
  00059	ff 52 14	 call	 DWORD PTR [edx+20]

; 887  : 				m_dwDef = 0;

  0005c	89 5e 10	 mov	 DWORD PTR [esi+16], ebx

; 888  : 				return (FLOAT)-atof(Token);

  0005f	8b 76 24	 mov	 esi, DWORD PTR [esi+36]
  00062	56		 push	 esi
  00063	e8 00 00 00 00	 call	 _atof
  00068	d9 e0		 fchs
  0006a	83 c4 04	 add	 esp, 4
  0006d	5f		 pop	 edi
  0006e	5e		 pop	 esi
  0006f	5b		 pop	 ebx

; 897  : }

  00070	c2 04 00	 ret	 4
$L151067:

; 889  : 			case '+':	
; 890  : 				GetToken(bComma);	

  00073	8b 06		 mov	 eax, DWORD PTR [esi]
  00075	57		 push	 edi
  00076	8b ce		 mov	 ecx, esi
  00078	ff 50 14	 call	 DWORD PTR [eax+20]
$L151061:

; 891  : 		}
; 892  : 		m_dwDef = 0;

  0007b	89 5e 10	 mov	 DWORD PTR [esi+16], ebx

; 893  : 		return (FLOAT)atof(Token);

  0007e	8b 76 24	 mov	 esi, DWORD PTR [esi+36]
  00081	56		 push	 esi
  00082	e8 00 00 00 00	 call	 _atof
  00087	83 c4 04	 add	 esp, 4
  0008a	5f		 pop	 edi
  0008b	5e		 pop	 esi
  0008c	5b		 pop	 ebx

; 897  : }

  0008d	c2 04 00	 ret	 4
$L151059:

; 896  : 	return 0.0f;

  00090	d9 05 00 00 00
	00		 fld	 DWORD PTR __real@00000000
  00096	5f		 pop	 edi
  00097	89 5e 10	 mov	 DWORD PTR [esi+16], ebx
  0009a	5e		 pop	 esi
  0009b	5b		 pop	 ebx

; 897  : }

  0009c	c2 04 00	 ret	 4
$L152098:
?GetFloat@CScanner@@QAEMH@Z ENDP			; CScanner::GetFloat
_TEXT	ENDS
PUBLIC	?GetBuffer@?$CSimpleStringT@D$0A@@ATL@@QAEPADH@Z ; ATL::CSimpleStringT<char,0>::GetBuffer
; Function compile flags: /Ogty
; File c:\program files\microsoft visual studio .net 2003\vc7\atlmfc\include\atlsimpstr.h
;	COMDAT ?GetBuffer@?$CSimpleStringT@D$0A@@ATL@@QAEPADH@Z
_TEXT	SEGMENT
_nMinBufferLength$ = 8					; size = 4
?GetBuffer@?$CSimpleStringT@D$0A@@ATL@@QAEPADH@Z PROC NEAR ; ATL::CSimpleStringT<char,0>::GetBuffer, COMDAT
; _this$ = ecx

; 489  : 	{

  00000	56		 push	 esi
  00001	8b f1		 mov	 esi, ecx

; 490  : 		return( PrepareWrite( nMinBufferLength ) );

  00003	8b 06		 mov	 eax, DWORD PTR [esi]
  00005	8b 50 fc	 mov	 edx, DWORD PTR [eax-4]
  00008	83 e8 10	 sub	 eax, 16			; 00000010H
  0000b	b9 01 00 00 00	 mov	 ecx, 1
  00010	2b ca		 sub	 ecx, edx
  00012	8b 50 08	 mov	 edx, DWORD PTR [eax+8]
  00015	8b 44 24 08	 mov	 eax, DWORD PTR _nMinBufferLength$[esp]
  00019	2b d0		 sub	 edx, eax
  0001b	0b ca		 or	 ecx, edx
  0001d	7d 08		 jge	 SHORT $L152118
  0001f	50		 push	 eax
  00020	8b ce		 mov	 ecx, esi
  00022	e8 00 00 00 00	 call	 ?PrepareWrite2@?$CSimpleStringT@D$0A@@ATL@@AAEXH@Z ; ATL::CSimpleStringT<char,0>::PrepareWrite2
$L152118:
  00027	8b 06		 mov	 eax, DWORD PTR [esi]
  00029	5e		 pop	 esi

; 491  : 	}

  0002a	c2 04 00	 ret	 4
?GetBuffer@?$CSimpleStringT@D$0A@@ATL@@QAEPADH@Z ENDP	; ATL::CSimpleStringT<char,0>::GetBuffer
_TEXT	ENDS
PUBLIC	??4?$CStringT@DV?$StrTraitMFC@DV?$ChTraitsCRT@D@ATL@@@@@ATL@@QAEAAV01@PBG@Z ; ATL::CStringT<char,StrTraitMFC<char,ATL::ChTraitsCRT<char> > >::operator=
; Function compile flags: /Ogty
; File c:\program files\microsoft visual studio .net 2003\vc7\atlmfc\include\cstringt.h
;	COMDAT ??4?$CStringT@DV?$StrTraitMFC@DV?$ChTraitsCRT@D@ATL@@@@@ATL@@QAEAAV01@PBG@Z
_TEXT	SEGMENT
_pszSrc$ = 8						; size = 4
??4?$CStringT@DV?$StrTraitMFC@DV?$ChTraitsCRT@D@ATL@@@@@ATL@@QAEAAV01@PBG@Z PROC NEAR ; ATL::CStringT<char,StrTraitMFC<char,ATL::ChTraitsCRT<char> > >::operator=, COMDAT
; _this$ = ecx

; 989  : 	{

  00000	53		 push	 ebx

; 990  : 		// nDestLength is in XCHARs
; 991  : 		int nDestLength = (pszSrc != NULL) ? StringTraits::GetBaseTypeLength( pszSrc ) : 0;

  00001	8b 5c 24 08	 mov	 ebx, DWORD PTR _pszSrc$[esp]
  00005	85 db		 test	 ebx, ebx
  00007	55		 push	 ebp
  00008	56		 push	 esi
  00009	57		 push	 edi
  0000a	8b f9		 mov	 edi, ecx
  0000c	74 7c		 je	 SHORT $L147298
  0000e	6a 00		 push	 0
  00010	6a 00		 push	 0
  00012	6a 00		 push	 0
  00014	6a 00		 push	 0
  00016	6a ff		 push	 -1
  00018	53		 push	 ebx
  00019	6a 00		 push	 0
  0001b	ff 15 00 00 00
	00		 call	 DWORD PTR ?g_pfnGetThreadACP@ATL@@3P6GIXZA ; ATL::g_pfnGetThreadACP
  00021	8b 2d 00 00 00
	00		 mov	 ebp, DWORD PTR __imp__WideCharToMultiByte@32
  00027	50		 push	 eax
  00028	ff d5		 call	 ebp
  0002a	8b f0		 mov	 esi, eax
  0002c	4e		 dec	 esi

; 992  : 		if( nDestLength > 0 )

  0002d	85 f6		 test	 esi, esi
  0002f	7e 59		 jle	 SHORT $L147298

; 993  : 		{
; 994  : 			PXSTR pszBuffer = GetBuffer( nDestLength );

  00031	8b 07		 mov	 eax, DWORD PTR [edi]
  00033	8b 50 fc	 mov	 edx, DWORD PTR [eax-4]
  00036	83 e8 10	 sub	 eax, 16			; 00000010H
  00039	b9 01 00 00 00	 mov	 ecx, 1
  0003e	2b ca		 sub	 ecx, edx
  00040	8b 50 08	 mov	 edx, DWORD PTR [eax+8]
  00043	2b d6		 sub	 edx, esi
  00045	0b ca		 or	 ecx, edx
  00047	7d 08		 jge	 SHORT $L152155
  00049	56		 push	 esi
  0004a	8b cf		 mov	 ecx, edi
  0004c	e8 00 00 00 00	 call	 ?PrepareWrite2@?$CSimpleStringT@D$0A@@ATL@@AAEXH@Z ; ATL::CSimpleStringT<char,0>::PrepareWrite2
$L152155:
  00051	8b 07		 mov	 eax, DWORD PTR [edi]

; 995  : 			StringTraits::ConvertToBaseType( pszBuffer, nDestLength, pszSrc );

  00053	6a 00		 push	 0
  00055	6a 00		 push	 0
  00057	56		 push	 esi
  00058	50		 push	 eax
  00059	6a ff		 push	 -1
  0005b	53		 push	 ebx
  0005c	6a 00		 push	 0
  0005e	ff 15 00 00 00
	00		 call	 DWORD PTR ?g_pfnGetThreadACP@ATL@@3P6GIXZA ; ATL::g_pfnGetThreadACP
  00064	50		 push	 eax
  00065	ff d5		 call	 ebp

; 996  : 			ReleaseBufferSetLength( nDestLength );

  00067	8b 07		 mov	 eax, DWORD PTR [edi]
  00069	3b 70 f8	 cmp	 esi, DWORD PTR [eax-8]
  0006c	7f 12		 jg	 SHORT $L152189
  0006e	89 70 f4	 mov	 DWORD PTR [eax-12], esi
  00071	8b 07		 mov	 eax, DWORD PTR [edi]
  00073	c6 04 06 00	 mov	 BYTE PTR [esi+eax], 0

; 1001 : 		}
; 1002 : 
; 1003 : 		return( *this );

  00077	8b c7		 mov	 eax, edi
  00079	5f		 pop	 edi
  0007a	5e		 pop	 esi
  0007b	5d		 pop	 ebp
  0007c	5b		 pop	 ebx

; 1004 : 	}

  0007d	c2 04 00	 ret	 4

; 996  : 			ReleaseBufferSetLength( nDestLength );

$L152189:
  00080	68 57 00 07 80	 push	 -2147024809		; 80070057H
  00085	e8 00 00 00 00	 call	 ?AtlThrow@ATL@@YGXJ@Z	; ATL::AtlThrow
$L152193:
$L147298:

; 997  : 		}
; 998  : 		else
; 999  : 		{
; 1000 : 			Empty();

  0008a	8b cf		 mov	 ecx, edi
  0008c	e8 00 00 00 00	 call	 ?Empty@?$CSimpleStringT@D$0A@@ATL@@QAEXXZ ; ATL::CSimpleStringT<char,0>::Empty

; 1001 : 		}
; 1002 : 
; 1003 : 		return( *this );

  00091	8b c7		 mov	 eax, edi
  00093	5f		 pop	 edi
  00094	5e		 pop	 esi
  00095	5d		 pop	 ebp
  00096	5b		 pop	 ebx

; 1004 : 	}

  00097	c2 04 00	 ret	 4
$L152192:
??4?$CStringT@DV?$StrTraitMFC@DV?$ChTraitsCRT@D@ATL@@@@@ATL@@QAEAAV01@PBG@Z ENDP ; ATL::CStringT<char,StrTraitMFC<char,ATL::ChTraitsCRT<char> > >::operator=
_TEXT	ENDS
PUBLIC	?LoadStringA@?$CStringT@DV?$StrTraitMFC@DV?$ChTraitsCRT@D@ATL@@@@@ATL@@QAEHPAUHINSTANCE__@@I@Z ; ATL::CStringT<char,StrTraitMFC<char,ATL::ChTraitsCRT<char> > >::LoadStringA
; Function compile flags: /Ogty
;	COMDAT ?LoadStringA@?$CStringT@DV?$StrTraitMFC@DV?$ChTraitsCRT@D@ATL@@@@@ATL@@QAEHPAUHINSTANCE__@@I@Z
_TEXT	SEGMENT
_hInstance$ = 8						; size = 4
_nID$ = 12						; size = 4
?LoadStringA@?$CStringT@DV?$StrTraitMFC@DV?$ChTraitsCRT@D@ATL@@@@@ATL@@QAEHPAUHINSTANCE__@@I@Z PROC NEAR ; ATL::CStringT<char,StrTraitMFC<char,ATL::ChTraitsCRT<char> > >::LoadStringA, COMDAT
; _this$ = ecx

; 1981 : 	{

  00000	53		 push	 ebx
  00001	56		 push	 esi

; 1982 : 		const ATLSTRINGRESOURCEIMAGE* pImage = AtlGetStringResourceImage( hInstance, nID );

  00002	8b 74 24 10	 mov	 esi, DWORD PTR _nID$[esp+4]
  00006	8b c6		 mov	 eax, esi
  00008	c1 e8 04	 shr	 eax, 4
  0000b	57		 push	 edi
  0000c	8b 7c 24 10	 mov	 edi, DWORD PTR _hInstance$[esp+8]
  00010	40		 inc	 eax
  00011	8b d9		 mov	 ebx, ecx
  00013	0f b7 c8	 movzx	 ecx, ax
  00016	6a 06		 push	 6
  00018	51		 push	 ecx
  00019	57		 push	 edi
  0001a	ff 15 00 00 00
	00		 call	 DWORD PTR __imp__FindResourceA@12
  00020	85 c0		 test	 eax, eax
  00022	74 11		 je	 SHORT $L152272
  00024	56		 push	 esi
  00025	50		 push	 eax
  00026	57		 push	 edi
  00027	e8 00 00 00 00	 call	 ?_AtlGetStringResourceImage@ATL@@YAPBUATLSTRINGRESOURCEIMAGE@1@PAUHINSTANCE__@@PAUHRSRC__@@I@Z ; ATL::_AtlGetStringResourceImage
  0002c	8b f8		 mov	 edi, eax
  0002e	83 c4 0c	 add	 esp, 12			; 0000000cH

; 1983 : 		if( pImage == NULL )

  00031	85 ff		 test	 edi, edi
  00033	75 08		 jne	 SHORT $L147310
$L152272:
  00035	5f		 pop	 edi
  00036	5e		 pop	 esi

; 1984 : 		{
; 1985 : 			return( FALSE );

  00037	33 c0		 xor	 eax, eax
  00039	5b		 pop	 ebx

; 1994 : 	}

  0003a	c2 08 00	 ret	 8
$L147310:

; 1986 : 		}
; 1987 : 
; 1988 : 		int nLength = StringTraits::GetBaseTypeLength( pImage->achString, pImage->nLength );

  0003d	0f b7 07	 movzx	 eax, WORD PTR [edi]
  00040	55		 push	 ebp
  00041	6a 00		 push	 0
  00043	6a 00		 push	 0
  00045	6a 00		 push	 0
  00047	6a 00		 push	 0
  00049	50		 push	 eax
  0004a	8d 6f 02	 lea	 ebp, DWORD PTR [edi+2]
  0004d	55		 push	 ebp
  0004e	6a 00		 push	 0
  00050	ff 15 00 00 00
	00		 call	 DWORD PTR ?g_pfnGetThreadACP@ATL@@3P6GIXZA ; ATL::g_pfnGetThreadACP
  00056	50		 push	 eax
  00057	ff 15 00 00 00
	00		 call	 DWORD PTR __imp__WideCharToMultiByte@32
  0005d	8b f0		 mov	 esi, eax

; 1989 : 		PXSTR pszBuffer = GetBuffer( nLength );

  0005f	8b 03		 mov	 eax, DWORD PTR [ebx]
  00061	8b 48 fc	 mov	 ecx, DWORD PTR [eax-4]
  00064	83 e8 10	 sub	 eax, 16			; 00000010H
  00067	8b 40 08	 mov	 eax, DWORD PTR [eax+8]
  0006a	ba 01 00 00 00	 mov	 edx, 1
  0006f	2b d1		 sub	 edx, ecx
  00071	2b c6		 sub	 eax, esi
  00073	0b d0		 or	 edx, eax
  00075	7d 08		 jge	 SHORT $L152234
  00077	56		 push	 esi
  00078	8b cb		 mov	 ecx, ebx
  0007a	e8 00 00 00 00	 call	 ?PrepareWrite2@?$CSimpleStringT@D$0A@@ATL@@AAEXH@Z ; ATL::CSimpleStringT<char,0>::PrepareWrite2
$L152234:
  0007f	8b 03		 mov	 eax, DWORD PTR [ebx]

; 1990 : 		StringTraits::ConvertToBaseType( pszBuffer, nLength, pImage->achString, pImage->nLength );

  00081	0f b7 0f	 movzx	 ecx, WORD PTR [edi]
  00084	6a 00		 push	 0
  00086	6a 00		 push	 0
  00088	56		 push	 esi
  00089	50		 push	 eax
  0008a	51		 push	 ecx
  0008b	55		 push	 ebp
  0008c	6a 00		 push	 0
  0008e	ff 15 00 00 00
	00		 call	 DWORD PTR ?g_pfnGetThreadACP@ATL@@3P6GIXZA ; ATL::g_pfnGetThreadACP
  00094	50		 push	 eax
  00095	ff 15 00 00 00
	00		 call	 DWORD PTR __imp__WideCharToMultiByte@32

; 1991 : 		ReleaseBufferSetLength( nLength );

  0009b	85 f6		 test	 esi, esi
  0009d	5d		 pop	 ebp
  0009e	7c 1b		 jl	 SHORT $L152269
  000a0	8b 03		 mov	 eax, DWORD PTR [ebx]
  000a2	3b 70 f8	 cmp	 esi, DWORD PTR [eax-8]
  000a5	7f 14		 jg	 SHORT $L152269
  000a7	89 70 f4	 mov	 DWORD PTR [eax-12], esi
  000aa	8b 0b		 mov	 ecx, DWORD PTR [ebx]
  000ac	5f		 pop	 edi
  000ad	c6 04 0e 00	 mov	 BYTE PTR [esi+ecx], 0
  000b1	5e		 pop	 esi

; 1992 : 
; 1993 : 		return( TRUE );

  000b2	b8 01 00 00 00	 mov	 eax, 1
  000b7	5b		 pop	 ebx

; 1994 : 	}

  000b8	c2 08 00	 ret	 8
$L152269:
  000bb	68 57 00 07 80	 push	 -2147024809		; 80070057H
  000c0	e8 00 00 00 00	 call	 ?AtlThrow@ATL@@YGXJ@Z	; ATL::AtlThrow
$L152274:
$L152273:
  000c5	cc		 int	 3
?LoadStringA@?$CStringT@DV?$StrTraitMFC@DV?$ChTraitsCRT@D@ATL@@@@@ATL@@QAEHPAUHINSTANCE__@@I@Z ENDP ; ATL::CStringT<char,StrTraitMFC<char,ATL::ChTraitsCRT<char> > >::LoadStringA
_TEXT	ENDS
PUBLIC	?SetString@?$CSimpleStringT@D$0A@@ATL@@QAEXPBDH@Z ; ATL::CSimpleStringT<char,0>::SetString
; Function compile flags: /Ogty
; File c:\program files\microsoft visual studio .net 2003\vc7\atlmfc\include\atlsimpstr.h
;	COMDAT ?SetString@?$CSimpleStringT@D$0A@@ATL@@QAEXPBDH@Z
_TEXT	SEGMENT
_pszSrc$ = 8						; size = 4
_nLength$ = 12						; size = 4
?SetString@?$CSimpleStringT@D$0A@@ATL@@QAEXPBDH@Z PROC NEAR ; ATL::CSimpleStringT<char,0>::SetString, COMDAT
; _this$ = ecx

; 583  : 	{

  00000	53		 push	 ebx

; 584  : 		if( nLength == 0 )

  00001	8b 5c 24 0c	 mov	 ebx, DWORD PTR _nLength$[esp]
  00005	85 db		 test	 ebx, ebx
  00007	55		 push	 ebp
  00008	8b e9		 mov	 ebp, ecx
  0000a	75 0a		 jne	 SHORT $L147678

; 585  : 		{
; 586  : 			Empty();

  0000c	e8 00 00 00 00	 call	 ?Empty@?$CSimpleStringT@D$0A@@ATL@@QAEXXZ ; ATL::CSimpleStringT<char,0>::Empty
  00011	5d		 pop	 ebp
  00012	5b		 pop	 ebx

; 614  : 		}
; 615  : 	}

  00013	c2 08 00	 ret	 8
$L147678:

; 587  : 		}
; 588  : 		else
; 589  : 		{
; 590  : 			// It is possible that pszSrc points to a location inside of our 
; 591  : 			// buffer.  GetBuffer() might change m_pszData if (1) the buffer 
; 592  : 			// is shared or (2) the buffer is too small to hold the new 
; 593  : 			// string.  We detect this aliasing, and modify pszSrc to point
; 594  : 			// into the newly allocated buffer instead.
; 595  : 			
; 596  : 			if(pszSrc == NULL)

  00016	8b 54 24 0c	 mov	 edx, DWORD PTR _pszSrc$[esp+4]
  0001a	85 d2		 test	 edx, edx
  0001c	75 0a		 jne	 SHORT $L147680

; 612  : 			}
; 613  : 			ReleaseBufferSetLength( nLength );

$L152346:
  0001e	68 57 00 07 80	 push	 -2147024809		; 80070057H
  00023	e8 00 00 00 00	 call	 ?AtlThrow@ATL@@YGXJ@Z	; ATL::AtlThrow
$L152350:
$L147680:

; 597  : 				AtlThrow(E_INVALIDARG);			
; 598  : 				
; 599  : 			UINT nOldLength = GetLength();

  00028	8b 45 00	 mov	 eax, DWORD PTR [ebp]
  0002b	56		 push	 esi

; 600  : 			UINT_PTR nOffset = pszSrc-GetString();

  0002c	8b f2		 mov	 esi, edx
  0002e	2b f0		 sub	 esi, eax

; 601  : 			// If 0 <= nOffset <= nOldLength, then pszSrc points into our 
; 602  : 			// buffer
; 603  : 
; 604  : 			PXSTR pszBuffer = GetBuffer( nLength );

  00030	b9 01 00 00 00	 mov	 ecx, 1
  00035	2b 48 fc	 sub	 ecx, DWORD PTR [eax-4]
  00038	57		 push	 edi
  00039	8b 78 f4	 mov	 edi, DWORD PTR [eax-12]
  0003c	8b 40 f8	 mov	 eax, DWORD PTR [eax-8]
  0003f	2b c3		 sub	 eax, ebx
  00041	0b c8		 or	 ecx, eax
  00043	7d 0c		 jge	 SHORT $L152314
  00045	53		 push	 ebx
  00046	8b cd		 mov	 ecx, ebp
  00048	e8 00 00 00 00	 call	 ?PrepareWrite2@?$CSimpleStringT@D$0A@@ATL@@AAEXH@Z ; ATL::CSimpleStringT<char,0>::PrepareWrite2
  0004d	8b 54 24 14	 mov	 edx, DWORD PTR _pszSrc$[esp+12]
$L152314:

; 605  : 			if( nOffset <= nOldLength )

  00051	3b f7		 cmp	 esi, edi
  00053	8b 45 00	 mov	 eax, DWORD PTR [ebp]
  00056	77 10		 ja	 SHORT $L147685

; 606  : 			{
; 607  : 				CopyCharsOverlapped( pszBuffer, pszBuffer+nOffset, nLength );

  00058	53		 push	 ebx
  00059	8d 0c 30	 lea	 ecx, DWORD PTR [eax+esi]
  0005c	51		 push	 ecx
  0005d	50		 push	 eax
  0005e	e8 00 00 00 00	 call	 _memmove
  00063	83 c4 0c	 add	 esp, 12			; 0000000cH

; 608  : 			}
; 609  : 			else

  00066	eb 14		 jmp	 SHORT $L152319
$L147685:

; 610  : 			{
; 611  : 				CopyChars( pszBuffer, pszSrc, nLength );

  00068	8b cb		 mov	 ecx, ebx
  0006a	8b f2		 mov	 esi, edx
  0006c	8b d1		 mov	 edx, ecx
  0006e	c1 e9 02	 shr	 ecx, 2
  00071	8b f8		 mov	 edi, eax
  00073	f3 a5		 rep movsd
  00075	8b ca		 mov	 ecx, edx
  00077	83 e1 03	 and	 ecx, 3
  0007a	f3 a4		 rep movsb
$L152319:

; 612  : 			}
; 613  : 			ReleaseBufferSetLength( nLength );

  0007c	85 db		 test	 ebx, ebx
  0007e	5f		 pop	 edi
  0007f	5e		 pop	 esi
  00080	7c 9c		 jl	 SHORT $L152346
  00082	8b 45 00	 mov	 eax, DWORD PTR [ebp]
  00085	3b 58 f8	 cmp	 ebx, DWORD PTR [eax-8]
  00088	7f 94		 jg	 SHORT $L152346
  0008a	89 58 f4	 mov	 DWORD PTR [eax-12], ebx
  0008d	8b 45 00	 mov	 eax, DWORD PTR [ebp]
  00090	5d		 pop	 ebp
  00091	c6 04 03 00	 mov	 BYTE PTR [ebx+eax], 0
  00095	5b		 pop	 ebx

; 614  : 		}
; 615  : 	}

  00096	c2 08 00	 ret	 8
$L152349:
?SetString@?$CSimpleStringT@D$0A@@ATL@@QAEXPBDH@Z ENDP	; ATL::CSimpleStringT<char,0>::SetString
; Function compile flags: /Ogty
_TEXT	ENDS
;	COMDAT ??_GCScanner@@UAEPAXI@Z
_TEXT	SEGMENT
___flags$ = 8						; size = 4
??_GCScanner@@UAEPAXI@Z PROC NEAR			; CScanner::`scalar deleting destructor', COMDAT
; _this$ = ecx
  00000	56		 push	 esi
  00001	8b f1		 mov	 esi, ecx
  00003	e8 00 00 00 00	 call	 ??1CScanner@@UAE@XZ	; CScanner::~CScanner
  00008	f6 44 24 08 01	 test	 BYTE PTR ___flags$[esp], 1
  0000d	74 09		 je	 SHORT $L152354
  0000f	56		 push	 esi
  00010	e8 00 00 00 00	 call	 ??3@YAXPAX@Z		; operator delete
  00015	83 c4 04	 add	 esp, 4
$L152354:
  00018	8b c6		 mov	 eax, esi
  0001a	5e		 pop	 esi
  0001b	c2 04 00	 ret	 4
??_GCScanner@@UAEPAXI@Z ENDP				; CScanner::`scalar deleting destructor'
_TEXT	ENDS
PUBLIC	?MakeLower@?$CStringT@DV?$StrTraitMFC@DV?$ChTraitsCRT@D@ATL@@@@@ATL@@QAEAAV12@XZ ; ATL::CStringT<char,StrTraitMFC<char,ATL::ChTraitsCRT<char> > >::MakeLower
; Function compile flags: /Ogty
; File c:\program files\microsoft visual studio .net 2003\vc7\atlmfc\include\cstringt.h
;	COMDAT ?MakeLower@?$CStringT@DV?$StrTraitMFC@DV?$ChTraitsCRT@D@ATL@@@@@ATL@@QAEAAV12@XZ
_TEXT	SEGMENT
?MakeLower@?$CStringT@DV?$StrTraitMFC@DV?$ChTraitsCRT@D@ATL@@@@@ATL@@QAEAAV12@XZ PROC NEAR ; ATL::CStringT<char,StrTraitMFC<char,ATL::ChTraitsCRT<char> > >::MakeLower, COMDAT
; _this$ = ecx

; 1446 : 	{

  00000	56		 push	 esi
  00001	8b f1		 mov	 esi, ecx

; 1447 : 		int nLength = GetLength();

  00003	8b 06		 mov	 eax, DWORD PTR [esi]

; 1448 : 		PXSTR pszBuffer = GetBuffer( nLength );

  00005	8b 50 fc	 mov	 edx, DWORD PTR [eax-4]
  00008	b9 01 00 00 00	 mov	 ecx, 1
  0000d	2b ca		 sub	 ecx, edx
  0000f	8b 50 f8	 mov	 edx, DWORD PTR [eax-8]
  00012	57		 push	 edi
  00013	8b 78 f4	 mov	 edi, DWORD PTR [eax-12]
  00016	2b d7		 sub	 edx, edi
  00018	0b ca		 or	 ecx, edx
  0001a	7d 08		 jge	 SHORT $L152389
  0001c	57		 push	 edi
  0001d	8b ce		 mov	 ecx, esi
  0001f	e8 00 00 00 00	 call	 ?PrepareWrite2@?$CSimpleStringT@D$0A@@ATL@@AAEXH@Z ; ATL::CSimpleStringT<char,0>::PrepareWrite2
$L152389:

; 1449 : 		StringTraits::StringLowercase( pszBuffer );

  00024	8b 06		 mov	 eax, DWORD PTR [esi]
  00026	50		 push	 eax
  00027	e8 00 00 00 00	 call	 __mbslwr
  0002c	83 c4 04	 add	 esp, 4

; 1450 : 		ReleaseBufferSetLength( nLength );

  0002f	85 ff		 test	 edi, edi
  00031	7c 15		 jl	 SHORT $L152418
  00033	8b 06		 mov	 eax, DWORD PTR [esi]
  00035	3b 78 f8	 cmp	 edi, DWORD PTR [eax-8]
  00038	7f 0e		 jg	 SHORT $L152418
  0003a	89 78 f4	 mov	 DWORD PTR [eax-12], edi
  0003d	8b 0e		 mov	 ecx, DWORD PTR [esi]
  0003f	c6 04 0f 00	 mov	 BYTE PTR [edi+ecx], 0
  00043	5f		 pop	 edi

; 1451 : 
; 1452 : 		return( *this );

  00044	8b c6		 mov	 eax, esi
  00046	5e		 pop	 esi

; 1453 : 	}

  00047	c3		 ret	 0
$L152418:
  00048	68 57 00 07 80	 push	 -2147024809		; 80070057H
  0004d	e8 00 00 00 00	 call	 ?AtlThrow@ATL@@YGXJ@Z	; ATL::AtlThrow
$L152422:
$L152421:
  00052	cc		 int	 3
?MakeLower@?$CStringT@DV?$StrTraitMFC@DV?$ChTraitsCRT@D@ATL@@@@@ATL@@QAEAAV12@XZ ENDP ; ATL::CStringT<char,StrTraitMFC<char,ATL::ChTraitsCRT<char> > >::MakeLower
_TEXT	ENDS
PUBLIC	?FormatV@?$CStringT@DV?$StrTraitMFC@DV?$ChTraitsCRT@D@ATL@@@@@ATL@@QAEXPBDPAD@Z ; ATL::CStringT<char,StrTraitMFC<char,ATL::ChTraitsCRT<char> > >::FormatV
; Function compile flags: /Ogty
;	COMDAT ?FormatV@?$CStringT@DV?$StrTraitMFC@DV?$ChTraitsCRT@D@ATL@@@@@ATL@@QAEXPBDPAD@Z
_TEXT	SEGMENT
_pszFormat$ = 8						; size = 4
_args$ = 12						; size = 4
?FormatV@?$CStringT@DV?$StrTraitMFC@DV?$ChTraitsCRT@D@ATL@@@@@ATL@@QAEXPBDPAD@Z PROC NEAR ; ATL::CStringT<char,StrTraitMFC<char,ATL::ChTraitsCRT<char> > >::FormatV, COMDAT
; _this$ = ecx

; 1855 : 	{

  00000	53		 push	 ebx

; 1856 : 		ATLASSERT( AtlIsValidString( pszFormat ) );
; 1857 : 		if(pszFormat == NULL)

  00001	8b 5c 24 08	 mov	 ebx, DWORD PTR _pszFormat$[esp]
  00005	85 db		 test	 ebx, ebx
  00007	57		 push	 edi
  00008	8b f9		 mov	 edi, ecx
  0000a	75 0a		 jne	 SHORT $L151140

; 1858 : 			AtlThrow(E_INVALIDARG);

  0000c	68 57 00 07 80	 push	 -2147024809		; 80070057H
  00011	e8 00 00 00 00	 call	 ?AtlThrow@ATL@@YGXJ@Z	; ATL::AtlThrow
$L152486:
$L151140:
  00016	55		 push	 ebp

; 1859 : 
; 1860 : 		int nLength = StringTraits::GetFormattedLength( pszFormat, args );

  00017	8b 6c 24 14	 mov	 ebp, DWORD PTR _args$[esp+8]
  0001b	56		 push	 esi
  0001c	55		 push	 ebp
  0001d	53		 push	 ebx
  0001e	e8 00 00 00 00	 call	 __vscprintf
  00023	8b f0		 mov	 esi, eax

; 1861 : 		PXSTR pszBuffer = GetBuffer( nLength );

  00025	8b 07		 mov	 eax, DWORD PTR [edi]
  00027	8b 50 fc	 mov	 edx, DWORD PTR [eax-4]
  0002a	83 e8 10	 sub	 eax, 16			; 00000010H
  0002d	b9 01 00 00 00	 mov	 ecx, 1
  00032	2b ca		 sub	 ecx, edx
  00034	8b 50 08	 mov	 edx, DWORD PTR [eax+8]
  00037	2b d6		 sub	 edx, esi
  00039	83 c4 08	 add	 esp, 8
  0003c	0b ca		 or	 ecx, edx
  0003e	7d 08		 jge	 SHORT $L152452
  00040	56		 push	 esi
  00041	8b cf		 mov	 ecx, edi
  00043	e8 00 00 00 00	 call	 ?PrepareWrite2@?$CSimpleStringT@D$0A@@ATL@@AAEXH@Z ; ATL::CSimpleStringT<char,0>::PrepareWrite2
$L152452:

; 1862 : 		StringTraits::Format( pszBuffer, pszFormat, args );

  00048	8b 07		 mov	 eax, DWORD PTR [edi]
  0004a	55		 push	 ebp
  0004b	53		 push	 ebx
  0004c	50		 push	 eax
  0004d	e8 00 00 00 00	 call	 _vsprintf
  00052	83 c4 0c	 add	 esp, 12			; 0000000cH

; 1863 : 		ReleaseBufferSetLength( nLength );

  00055	85 f6		 test	 esi, esi
  00057	7c 17		 jl	 SHORT $L152482
  00059	8b 07		 mov	 eax, DWORD PTR [edi]
  0005b	3b 70 f8	 cmp	 esi, DWORD PTR [eax-8]
  0005e	7f 10		 jg	 SHORT $L152482
  00060	89 70 f4	 mov	 DWORD PTR [eax-12], esi
  00063	8b 0f		 mov	 ecx, DWORD PTR [edi]
  00065	c6 04 0e 00	 mov	 BYTE PTR [esi+ecx], 0
  00069	5e		 pop	 esi
  0006a	5d		 pop	 ebp
  0006b	5f		 pop	 edi
  0006c	5b		 pop	 ebx

; 1864 : 	}

  0006d	c2 08 00	 ret	 8
$L152482:
  00070	68 57 00 07 80	 push	 -2147024809		; 80070057H
  00075	e8 00 00 00 00	 call	 ?AtlThrow@ATL@@YGXJ@Z	; ATL::AtlThrow
$L152487:
$L152485:
  0007a	cc		 int	 3
?FormatV@?$CStringT@DV?$StrTraitMFC@DV?$ChTraitsCRT@D@ATL@@@@@ATL@@QAEXPBDPAD@Z ENDP ; ATL::CStringT<char,StrTraitMFC<char,ATL::ChTraitsCRT<char> > >::FormatV
_TEXT	ENDS
PUBLIC	?LoadStringA@?$CStringT@DV?$StrTraitMFC@DV?$ChTraitsCRT@D@ATL@@@@@ATL@@QAEHI@Z ; ATL::CStringT<char,StrTraitMFC<char,ATL::ChTraitsCRT<char> > >::LoadStringA
; Function compile flags: /Ogty
;	COMDAT ?LoadStringA@?$CStringT@DV?$StrTraitMFC@DV?$ChTraitsCRT@D@ATL@@@@@ATL@@QAEHI@Z
_TEXT	SEGMENT
_nID$ = 8						; size = 4
?LoadStringA@?$CStringT@DV?$StrTraitMFC@DV?$ChTraitsCRT@D@ATL@@@@@ATL@@QAEHI@Z PROC NEAR ; ATL::CStringT<char,StrTraitMFC<char,ATL::ChTraitsCRT<char> > >::LoadStringA, COMDAT
; _this$ = ecx

; 1969 : 	{

  00000	56		 push	 esi
  00001	57		 push	 edi

; 1970 : 		HINSTANCE hInst = StringTraits::FindStringResourceInstance( nID );

  00002	8b 7c 24 0c	 mov	 edi, DWORD PTR _nID$[esp+4]
  00006	57		 push	 edi
  00007	8b f1		 mov	 esi, ecx
  00009	e8 00 00 00 00	 call	 ?AfxFindStringResourceHandle@@YGPAUHINSTANCE__@@I@Z ; AfxFindStringResourceHandle

; 1971 : 		if( hInst == NULL )

  0000e	85 c0		 test	 eax, eax
  00010	75 05		 jne	 SHORT $L146867
  00012	5f		 pop	 edi
  00013	5e		 pop	 esi

; 1977 : 	}

  00014	c2 04 00	 ret	 4
$L146867:

; 1972 : 		{
; 1973 : 			return( FALSE );
; 1974 : 		}
; 1975 : 
; 1976 : 		return( LoadString( hInst, nID ) );		

  00017	57		 push	 edi
  00018	50		 push	 eax
  00019	8b ce		 mov	 ecx, esi
  0001b	e8 00 00 00 00	 call	 ?LoadStringA@?$CStringT@DV?$StrTraitMFC@DV?$ChTraitsCRT@D@ATL@@@@@ATL@@QAEHPAUHINSTANCE__@@I@Z ; ATL::CStringT<char,StrTraitMFC<char,ATL::ChTraitsCRT<char> > >::LoadStringA
  00020	5f		 pop	 edi
  00021	5e		 pop	 esi

; 1977 : 	}

  00022	c2 04 00	 ret	 4
?LoadStringA@?$CStringT@DV?$StrTraitMFC@DV?$ChTraitsCRT@D@ATL@@@@@ATL@@QAEHI@Z ENDP ; ATL::CStringT<char,StrTraitMFC<char,ATL::ChTraitsCRT<char> > >::LoadStringA
_TEXT	ENDS
PUBLIC	?CheckImplicitLoad@?$CStringT@DV?$StrTraitMFC@DV?$ChTraitsCRT@D@ATL@@@@@ATL@@AAE_NPBX@Z ; ATL::CStringT<char,StrTraitMFC<char,ATL::ChTraitsCRT<char> > >::CheckImplicitLoad
; Function compile flags: /Ogty
;	COMDAT ?CheckImplicitLoad@?$CStringT@DV?$StrTraitMFC@DV?$ChTraitsCRT@D@ATL@@@@@ATL@@AAE_NPBX@Z
_TEXT	SEGMENT
_pv$ = 8						; size = 4
?CheckImplicitLoad@?$CStringT@DV?$StrTraitMFC@DV?$ChTraitsCRT@D@ATL@@@@@ATL@@AAE_NPBX@Z PROC NEAR ; ATL::CStringT<char,StrTraitMFC<char,ATL::ChTraitsCRT<char> > >::CheckImplicitLoad, COMDAT
; _this$ = ecx

; 2229 : 	{

  00000	57		 push	 edi
  00001	8b f9		 mov	 edi, ecx

; 2230 : 		bool bRet = false;
; 2231 : 
; 2232 : 		if( (pv != NULL) && IS_INTRESOURCE( pv ) )

  00003	8b 4c 24 08	 mov	 ecx, DWORD PTR _pv$[esp]
  00007	32 c0		 xor	 al, al
  00009	85 c9		 test	 ecx, ecx
  0000b	74 22		 je	 SHORT $L147317
  0000d	f7 c1 00 00 ff
	ff		 test	 ecx, -65536		; ffff0000H
  00013	75 1a		 jne	 SHORT $L147317
  00015	56		 push	 esi

; 2233 : 		{
; 2234 : 			UINT nID = LOWORD( reinterpret_cast< DWORD_PTR >( pv ) );

  00016	0f b7 f1	 movzx	 esi, cx

; 2235 : 			if( !LoadString( nID ) )

  00019	56		 push	 esi
  0001a	e8 00 00 00 00	 call	 ?AfxFindStringResourceHandle@@YGPAUHINSTANCE__@@I@Z ; AfxFindStringResourceHandle
  0001f	85 c0		 test	 eax, eax
  00021	74 09		 je	 SHORT $L152501
  00023	56		 push	 esi
  00024	50		 push	 eax
  00025	8b cf		 mov	 ecx, edi
  00027	e8 00 00 00 00	 call	 ?LoadStringA@?$CStringT@DV?$StrTraitMFC@DV?$ChTraitsCRT@D@ATL@@@@@ATL@@QAEHPAUHINSTANCE__@@I@Z ; ATL::CStringT<char,StrTraitMFC<char,ATL::ChTraitsCRT<char> > >::LoadStringA
$L152501:

; 2236 : 			{
; 2237 : 				ATLTRACE( atlTraceString, 2, _T( "Warning: implicit LoadString(%u) failed\n" ), nID );
; 2238 : 			}
; 2239 : 			bRet = true;

  0002c	b0 01		 mov	 al, 1
  0002e	5e		 pop	 esi
$L147317:
  0002f	5f		 pop	 edi

; 2240 : 		}
; 2241 : 
; 2242 : 		return( bRet );
; 2243 : 	}

  00030	c2 04 00	 ret	 4
?CheckImplicitLoad@?$CStringT@DV?$StrTraitMFC@DV?$ChTraitsCRT@D@ATL@@@@@ATL@@AAE_NPBX@Z ENDP ; ATL::CStringT<char,StrTraitMFC<char,ATL::ChTraitsCRT<char> > >::CheckImplicitLoad
_TEXT	ENDS
PUBLIC	?SetString@?$CSimpleStringT@D$0A@@ATL@@QAEXPBD@Z ; ATL::CSimpleStringT<char,0>::SetString
; Function compile flags: /Ogty
; File c:\program files\microsoft visual studio .net 2003\vc7\atlmfc\include\atlsimpstr.h
;	COMDAT ?SetString@?$CSimpleStringT@D$0A@@ATL@@QAEXPBD@Z
_TEXT	SEGMENT
_pszSrc$ = 8						; size = 4
?SetString@?$CSimpleStringT@D$0A@@ATL@@QAEXPBD@Z PROC NEAR ; ATL::CSimpleStringT<char,0>::SetString, COMDAT
; _this$ = ecx

; 579  : 	{

  00000	56		 push	 esi

; 580  : 		SetString( pszSrc, StringLength( pszSrc ) );

  00001	8b 74 24 08	 mov	 esi, DWORD PTR _pszSrc$[esp]
  00005	85 f6		 test	 esi, esi
  00007	75 0d		 jne	 SHORT $L152515
  00009	33 c0		 xor	 eax, eax
  0000b	50		 push	 eax
  0000c	56		 push	 esi
  0000d	e8 00 00 00 00	 call	 ?SetString@?$CSimpleStringT@D$0A@@ATL@@QAEXPBDH@Z ; ATL::CSimpleStringT<char,0>::SetString
  00012	5e		 pop	 esi

; 581  : 	}

  00013	c2 04 00	 ret	 4

; 580  : 		SetString( pszSrc, StringLength( pszSrc ) );

$L152515:
  00016	8b c6		 mov	 eax, esi
  00018	57		 push	 edi
  00019	8d 78 01	 lea	 edi, DWORD PTR [eax+1]
  0001c	8d 64 24 00	 npad	 4
$L152518:
  00020	8a 10		 mov	 dl, BYTE PTR [eax]
  00022	40		 inc	 eax
  00023	84 d2		 test	 dl, dl
  00025	75 f9		 jne	 SHORT $L152518
  00027	2b c7		 sub	 eax, edi
  00029	5f		 pop	 edi
  0002a	50		 push	 eax
  0002b	56		 push	 esi
  0002c	e8 00 00 00 00	 call	 ?SetString@?$CSimpleStringT@D$0A@@ATL@@QAEXPBDH@Z ; ATL::CSimpleStringT<char,0>::SetString
  00031	5e		 pop	 esi

; 581  : 	}

  00032	c2 04 00	 ret	 4
?SetString@?$CSimpleStringT@D$0A@@ATL@@QAEXPBD@Z ENDP	; ATL::CSimpleStringT<char,0>::SetString
_TEXT	ENDS
PUBLIC	?GetNumber@CScanner@@QAEHH@Z			; CScanner::GetNumber
EXTRN	__allshl:NEAR
EXTRN	_atoi:NEAR
; Function compile flags: /Ogty
; File c:\offi src_real\offi src!\monitor\scanner.cpp
;	COMDAT ?GetNumber@CScanner@@QAEHH@Z
_TEXT	SEGMENT
_dwlNumber$151014 = -8					; size = 8
_bComma$ = 8						; size = 4
?GetNumber@CScanner@@QAEHH@Z PROC NEAR			; CScanner::GetNumber, COMDAT
; _this$ = ecx

; 787  : {

  00000	83 ec 08	 sub	 esp, 8
  00003	53		 push	 ebx

; 788  : 	m_dwDef = 1;
; 789  : 	if( GetToken( bComma ) == HEX )

  00004	8b 5c 24 10	 mov	 ebx, DWORD PTR _bComma$[esp+8]
  00008	56		 push	 esi
  00009	57		 push	 edi
  0000a	8b f9		 mov	 edi, ecx
  0000c	8b 07		 mov	 eax, DWORD PTR [edi]
  0000e	53		 push	 ebx
  0000f	c7 47 10 01 00
	00 00		 mov	 DWORD PTR [edi+16], 1
  00016	ff 50 14	 call	 DWORD PTR [eax+20]
  00019	83 f8 04	 cmp	 eax, 4
  0001c	75 7f		 jne	 SHORT $L151013
  0001e	55		 push	 ebp

; 790  : 	{
; 791  : 		Token.MakeLower();

  0001f	8d 6f 24	 lea	 ebp, DWORD PTR [edi+36]
  00022	8b cd		 mov	 ecx, ebp
  00024	e8 00 00 00 00	 call	 ?MakeLower@?$CStringT@DV?$StrTraitMFC@DV?$ChTraitsCRT@D@ATL@@@@@ATL@@QAEAAV12@XZ ; ATL::CStringT<char,StrTraitMFC<char,ATL::ChTraitsCRT<char> > >::MakeLower

; 792  : 		DWORDLONG dwlNumber = 0;
; 793  : 		DWORD dwMulCnt = 0;
; 794  : 		CHAR cVal;
; 795  : 		for( int i = Token.GetLength() - 1; i >= 0; i--)

  00029	8b 4d 00	 mov	 ecx, DWORD PTR [ebp]
  0002c	8b 71 f4	 mov	 esi, DWORD PTR [ecx-12]
  0002f	33 db		 xor	 ebx, ebx
  00031	4e		 dec	 esi
  00032	89 5c 24 10	 mov	 DWORD PTR _dwlNumber$151014[esp+24], ebx
  00036	89 5c 24 14	 mov	 DWORD PTR _dwlNumber$151014[esp+28], ebx
  0003a	78 42		 js	 SHORT $L151020
  0003c	8d 64 24 00	 npad	 4
$L152603:

; 796  : 		{
; 797  : 			cVal = Token[ i ];

  00040	85 f6		 test	 esi, esi
  00042	7c 4f		 jl	 SHORT $L152600
  00044	8b 45 00	 mov	 eax, DWORD PTR [ebp]
  00047	3b 70 f4	 cmp	 esi, DWORD PTR [eax-12]
  0004a	7f 47		 jg	 SHORT $L152600
  0004c	8a 04 30	 mov	 al, BYTE PTR [eax+esi]

; 798  : 			if( cVal >= 'a' )

  0004f	3c 61		 cmp	 al, 97			; 00000061H
  00051	7c 04		 jl	 SHORT $L151021

; 799  : 				cVal = ( cVal - 'a' ) + 10;

  00053	04 a9		 add	 al, -87			; ffffffa9H

; 800  : 			else cVal -= '0';

  00055	eb 02		 jmp	 SHORT $L151022
$L151021:
  00057	04 d0		 add	 al, -48			; ffffffd0H
$L151022:

; 801  : 			dwlNumber |= (DWORDLONG) cVal << dwMulCnt;

  00059	0f be c0	 movsx	 eax, al
  0005c	99		 cdq
  0005d	8b cb		 mov	 ecx, ebx
  0005f	e8 00 00 00 00	 call	 __allshl
  00064	8b 4c 24 10	 mov	 ecx, DWORD PTR _dwlNumber$151014[esp+24]
  00068	0b c8		 or	 ecx, eax
  0006a	8b 44 24 14	 mov	 eax, DWORD PTR _dwlNumber$151014[esp+28]
  0006e	0b c2		 or	 eax, edx

; 802  : 			dwMulCnt += 4;

  00070	83 c3 04	 add	 ebx, 4
  00073	4e		 dec	 esi
  00074	89 4c 24 10	 mov	 DWORD PTR _dwlNumber$151014[esp+24], ecx
  00078	89 44 24 14	 mov	 DWORD PTR _dwlNumber$151014[esp+28], eax
  0007c	79 c2		 jns	 SHORT $L152603
$L151020:

; 803  : 		}
; 804  : 		m_dwDef = 0;
; 805  : 		return (DWORD)dwlNumber;

  0007e	8b 44 24 10	 mov	 eax, DWORD PTR _dwlNumber$151014[esp+24]
  00082	5d		 pop	 ebp
  00083	c7 47 10 00 00
	00 00		 mov	 DWORD PTR [edi+16], 0
  0008a	5f		 pop	 edi
  0008b	5e		 pop	 esi
  0008c	5b		 pop	 ebx

; 836  : }

  0008d	83 c4 08	 add	 esp, 8
  00090	c2 04 00	 ret	 4
$L152600:

; 796  : 		{
; 797  : 			cVal = Token[ i ];

  00093	68 57 00 07 80	 push	 -2147024809		; 80070057H
  00098	e8 00 00 00 00	 call	 ?AtlThrow@ATL@@YGXJ@Z	; ATL::AtlThrow
$L152606:
$L151013:

; 806  : 	}
; 807  : 	else
; 808  : 	if(!Token.IsEmpty())

  0009d	8b 4f 24	 mov	 ecx, DWORD PTR [edi+36]
  000a0	8b 41 f4	 mov	 eax, DWORD PTR [ecx-12]
  000a3	33 f6		 xor	 esi, esi
  000a5	3b c6		 cmp	 eax, esi
  000a7	0f 84 91 00 00
	00		 je	 $L151026

; 809  : 	{
; 810  : 		switch(Token[0])

  000ad	8b c1		 mov	 eax, ecx
  000af	39 70 f4	 cmp	 DWORD PTR [eax-12], esi
  000b2	7d 0a		 jge	 SHORT $L152578
  000b4	68 57 00 07 80	 push	 -2147024809		; 80070057H
  000b9	e8 00 00 00 00	 call	 ?AtlThrow@ATL@@YGXJ@Z	; ATL::AtlThrow
$L152607:
$L152578:
  000be	0f be 00	 movsx	 eax, BYTE PTR [eax]
  000c1	83 e8 2b	 sub	 eax, 43			; 0000002bH
  000c4	74 54		 je	 SHORT $L151034
  000c6	83 e8 02	 sub	 eax, 2
  000c9	74 14		 je	 SHORT $L151032
  000cb	83 e8 10	 sub	 eax, 16			; 00000010H
  000ce	75 56		 jne	 SHORT $L151036

; 811  : 		{
; 812  : 			case '=': 
; 813  : 				m_dwDef = 0;

  000d0	89 77 10	 mov	 DWORD PTR [edi+16], esi
  000d3	5f		 pop	 edi
  000d4	5e		 pop	 esi

; 814  : 				return NULL_ID;

  000d5	83 c8 ff	 or	 eax, -1
  000d8	5b		 pop	 ebx

; 836  : }

  000d9	83 c4 08	 add	 esp, 8
  000dc	c2 04 00	 ret	 4
$L151032:

; 815  : 			case '-': 
; 816  : 				if( bComma == FALSE )

  000df	3b de		 cmp	 ebx, esi
  000e1	75 22		 jne	 SHORT $L151033

; 817  : 				{
; 818  : 					GetToken();	

  000e3	8b 17		 mov	 edx, DWORD PTR [edi]
  000e5	56		 push	 esi
  000e6	8b cf		 mov	 ecx, edi
  000e8	ff 52 14	 call	 DWORD PTR [edx+20]

; 819  : 					m_dwDef = 0;

  000eb	89 77 10	 mov	 DWORD PTR [edi+16], esi

; 820  : 					return -atoi(Token);

  000ee	8b 7f 24	 mov	 edi, DWORD PTR [edi+36]
  000f1	57		 push	 edi
  000f2	e8 00 00 00 00	 call	 _atoi
  000f7	83 c4 04	 add	 esp, 4
  000fa	5f		 pop	 edi
  000fb	5e		 pop	 esi
  000fc	f7 d8		 neg	 eax
  000fe	5b		 pop	 ebx

; 836  : }

  000ff	83 c4 08	 add	 esp, 8
  00102	c2 04 00	 ret	 4
$L151033:

; 821  : 				}
; 822  : 				else
; 823  : 				{
; 824  : 					m_dwDef = 0;
; 825  : 					return atoi(Token);

  00105	51		 push	 ecx
  00106	89 77 10	 mov	 DWORD PTR [edi+16], esi
  00109	e8 00 00 00 00	 call	 _atoi
  0010e	83 c4 04	 add	 esp, 4
  00111	5f		 pop	 edi
  00112	5e		 pop	 esi
  00113	5b		 pop	 ebx

; 836  : }

  00114	83 c4 08	 add	 esp, 8
  00117	c2 04 00	 ret	 4
$L151034:

; 826  : 				}
; 827  : 			case '+':	
; 828  : 				if( bComma == FALSE )

  0011a	3b de		 cmp	 ebx, esi
  0011c	75 08		 jne	 SHORT $L151036

; 829  : 					GetToken();	

  0011e	8b 07		 mov	 eax, DWORD PTR [edi]
  00120	56		 push	 esi
  00121	8b cf		 mov	 ecx, edi
  00123	ff 50 14	 call	 DWORD PTR [eax+20]
$L151036:

; 830  : 		}
; 831  : 		m_dwDef = 0;

  00126	89 77 10	 mov	 DWORD PTR [edi+16], esi

; 832  : 		return atoi(Token);

  00129	8b 7f 24	 mov	 edi, DWORD PTR [edi+36]
  0012c	57		 push	 edi
  0012d	e8 00 00 00 00	 call	 _atoi
  00132	83 c4 04	 add	 esp, 4
  00135	5f		 pop	 edi
  00136	5e		 pop	 esi
  00137	5b		 pop	 ebx

; 836  : }

  00138	83 c4 08	 add	 esp, 8
  0013b	c2 04 00	 ret	 4
$L151026:

; 833  : 	}
; 834  : 	m_dwDef = 0;

  0013e	89 77 10	 mov	 DWORD PTR [edi+16], esi
  00141	5f		 pop	 edi
  00142	5e		 pop	 esi

; 835  : 	return 0;

  00143	33 c0		 xor	 eax, eax
  00145	5b		 pop	 ebx

; 836  : }

  00146	83 c4 08	 add	 esp, 8
  00149	c2 04 00	 ret	 4
$L152605:
?GetNumber@CScanner@@QAEHH@Z ENDP			; CScanner::GetNumber
_TEXT	ENDS
PUBLIC	?GetHex@CScanner@@QAEKH@Z			; CScanner::GetHex
; Function compile flags: /Ogty
;	COMDAT ?GetHex@CScanner@@QAEKH@Z
_TEXT	SEGMENT
_this$ = -12						; size = 4
_dwlNumber$151074 = -8					; size = 8
_bComma$ = 8						; size = 4
?GetHex@CScanner@@QAEKH@Z PROC NEAR			; CScanner::GetHex, COMDAT
; _this$ = ecx

; 899  : {

  00000	83 ec 0c	 sub	 esp, 12			; 0000000cH
  00003	53		 push	 ebx
  00004	8b d9		 mov	 ebx, ecx

; 900  : 	m_dwDef = 1;
; 901  : 	if( GetToken( bComma ) == HEX )

  00006	8b 4c 24 14	 mov	 ecx, DWORD PTR _bComma$[esp+12]
  0000a	8b 03		 mov	 eax, DWORD PTR [ebx]
  0000c	51		 push	 ecx
  0000d	8b cb		 mov	 ecx, ebx
  0000f	89 5c 24 08	 mov	 DWORD PTR _this$[esp+20], ebx
  00013	c7 43 10 01 00
	00 00		 mov	 DWORD PTR [ebx+16], 1
  0001a	ff 50 14	 call	 DWORD PTR [eax+20]
  0001d	83 f8 04	 cmp	 eax, 4
  00020	75 74		 jne	 SHORT $L151073
  00022	55		 push	 ebp
  00023	56		 push	 esi

; 902  : 	{
; 903  : 		Token.MakeLower();

  00024	83 c3 24	 add	 ebx, 36			; 00000024H
  00027	57		 push	 edi
  00028	8b cb		 mov	 ecx, ebx
  0002a	e8 00 00 00 00	 call	 ?MakeLower@?$CStringT@DV?$StrTraitMFC@DV?$ChTraitsCRT@D@ATL@@@@@ATL@@QAEAAV12@XZ ; ATL::CStringT<char,StrTraitMFC<char,ATL::ChTraitsCRT<char> > >::MakeLower

; 904  : 		DWORDLONG dwlNumber = 0;
; 905  : 		DWORD dwMulCnt = 0;
; 906  : 		CHAR cVal;
; 907  : 		for( int i = Token.GetLength() - 1; i >= 0; i--)

  0002f	8b 13		 mov	 edx, DWORD PTR [ebx]
  00031	8b 72 f4	 mov	 esi, DWORD PTR [edx-12]
  00034	33 ff		 xor	 edi, edi
  00036	33 ed		 xor	 ebp, ebp
  00038	4e		 dec	 esi
  00039	89 7c 24 18	 mov	 DWORD PTR _dwlNumber$151074[esp+32], edi
  0003d	78 36		 js	 SHORT $L151080
  0003f	90		 npad	 1
$L152643:

; 908  : 		{
; 909  : 			cVal = Token[ i ];

  00040	85 f6		 test	 esi, esi
  00042	7c 48		 jl	 SHORT $L152641
  00044	8b 03		 mov	 eax, DWORD PTR [ebx]
  00046	3b 70 f4	 cmp	 esi, DWORD PTR [eax-12]
  00049	7f 41		 jg	 SHORT $L152641
  0004b	8a 04 30	 mov	 al, BYTE PTR [eax+esi]

; 910  : 			if( cVal >= 'a' )

  0004e	3c 61		 cmp	 al, 97			; 00000061H
  00050	7c 04		 jl	 SHORT $L151081

; 911  : 				cVal = ( cVal - 'a' ) + 10;

  00052	04 a9		 add	 al, -87			; ffffffa9H

; 912  : 			else cVal -= '0';

  00054	eb 02		 jmp	 SHORT $L151082
$L151081:
  00056	04 d0		 add	 al, -48			; ffffffd0H
$L151082:

; 913  : 			dwlNumber |= (DWORDLONG) cVal << dwMulCnt;

  00058	0f be c0	 movsx	 eax, al
  0005b	99		 cdq
  0005c	8b cf		 mov	 ecx, edi
  0005e	e8 00 00 00 00	 call	 __allshl
  00063	0b e8		 or	 ebp, eax
  00065	8b 44 24 18	 mov	 eax, DWORD PTR _dwlNumber$151074[esp+32]
  00069	0b c2		 or	 eax, edx

; 914  : 			dwMulCnt += 4;

  0006b	83 c7 04	 add	 edi, 4
  0006e	4e		 dec	 esi
  0006f	89 44 24 18	 mov	 DWORD PTR _dwlNumber$151074[esp+32], eax
  00073	79 cb		 jns	 SHORT $L152643
$L151080:

; 915  : 		}
; 916  : 		m_dwDef = 0;

  00075	8b 44 24 10	 mov	 eax, DWORD PTR _this$[esp+28]
  00079	5f		 pop	 edi
  0007a	5e		 pop	 esi
  0007b	c7 40 10 00 00
	00 00		 mov	 DWORD PTR [eax+16], 0

; 917  : 		return (DWORD)dwlNumber;

  00082	8b c5		 mov	 eax, ebp
  00084	5d		 pop	 ebp
  00085	5b		 pop	 ebx

; 921  : }

  00086	83 c4 0c	 add	 esp, 12			; 0000000cH
  00089	c2 04 00	 ret	 4
$L152641:

; 908  : 		{
; 909  : 			cVal = Token[ i ];

  0008c	68 57 00 07 80	 push	 -2147024809		; 80070057H
  00091	e8 00 00 00 00	 call	 ?AtlThrow@ATL@@YGXJ@Z	; ATL::AtlThrow
$L152648:
$L151073:

; 918  : 	}
; 919  : 	m_dwDef = 0;

  00096	c7 43 10 00 00
	00 00		 mov	 DWORD PTR [ebx+16], 0

; 920  : 	return 0;

  0009d	33 c0		 xor	 eax, eax
  0009f	5b		 pop	 ebx

; 921  : }

  000a0	83 c4 0c	 add	 esp, 12			; 0000000cH
  000a3	c2 04 00	 ret	 4
$L152647:
?GetHex@CScanner@@QAEKH@Z ENDP				; CScanner::GetHex
_TEXT	ENDS
PUBLIC	?GetSerialNumber@CScanner@@QAEKH@Z		; CScanner::GetSerialNumber
; Function compile flags: /Ogty
;	COMDAT ?GetSerialNumber@CScanner@@QAEKH@Z
_TEXT	SEGMENT
_bComma$ = 8						; size = 4
?GetSerialNumber@CScanner@@QAEKH@Z PROC NEAR		; CScanner::GetSerialNumber, COMDAT
; _this$ = ecx

; 959  : #ifdef __EXP_SERIAL_NUMBER0323
; 960  : 	return GetInt64( bComma );
; 961  : #else	// __EXP_SERIAL_NUMBER0323
; 962  : 	return GetNumber( bComma );

  00000	e9 00 00 00 00	 jmp	 ?GetNumber@CScanner@@QAEHH@Z ; CScanner::GetNumber
?GetSerialNumber@CScanner@@QAEKH@Z ENDP			; CScanner::GetSerialNumber
_TEXT	ENDS
PUBLIC	?Format@?$CStringT@DV?$StrTraitMFC@DV?$ChTraitsCRT@D@ATL@@@@@ATL@@QAAXPBDZZ ; ATL::CStringT<char,StrTraitMFC<char,ATL::ChTraitsCRT<char> > >::Format
; Function compile flags: /Ogty
; File c:\program files\microsoft visual studio .net 2003\vc7\atlmfc\include\cstringt.h
;	COMDAT ?Format@?$CStringT@DV?$StrTraitMFC@DV?$ChTraitsCRT@D@ATL@@@@@ATL@@QAAXPBDZZ
_TEXT	SEGMENT
_this$ = 8						; size = 4
_pszFormat$ = 12					; size = 4
?Format@?$CStringT@DV?$StrTraitMFC@DV?$ChTraitsCRT@D@ATL@@@@@ATL@@QAAXPBDZZ PROC NEAR ; ATL::CStringT<char,StrTraitMFC<char,ATL::ChTraitsCRT<char> > >::Format, COMDAT

; 1796 : 		ATLASSERT( AtlIsValidString( pszFormat ) );
; 1797 : 		
; 1798 : 		va_list argList;
; 1799 : 		va_start( argList, pszFormat );
; 1800 : 		FormatV( pszFormat, argList );

  00000	8b 4c 24 08	 mov	 ecx, DWORD PTR _pszFormat$[esp-4]
  00004	8d 44 24 0c	 lea	 eax, DWORD PTR _pszFormat$[esp]
  00008	50		 push	 eax
  00009	51		 push	 ecx
  0000a	8b 4c 24 0c	 mov	 ecx, DWORD PTR _this$[esp+4]
  0000e	e8 00 00 00 00	 call	 ?FormatV@?$CStringT@DV?$StrTraitMFC@DV?$ChTraitsCRT@D@ATL@@@@@ATL@@QAEXPBDPAD@Z ; ATL::CStringT<char,StrTraitMFC<char,ATL::ChTraitsCRT<char> > >::FormatV

; 1801 : 		va_end( argList );
; 1802 : 	}

  00013	c3		 ret	 0
?Format@?$CStringT@DV?$StrTraitMFC@DV?$ChTraitsCRT@D@ATL@@@@@ATL@@QAAXPBDZZ ENDP ; ATL::CStringT<char,StrTraitMFC<char,ATL::ChTraitsCRT<char> > >::Format
_TEXT	ENDS
PUBLIC	??4?$CSimpleStringT@D$0A@@ATL@@QAEAAV01@PBD@Z	; ATL::CSimpleStringT<char,0>::operator=
; Function compile flags: /Ogty
; File c:\program files\microsoft visual studio .net 2003\vc7\atlmfc\include\atlsimpstr.h
;	COMDAT ??4?$CSimpleStringT@D$0A@@ATL@@QAEAAV01@PBD@Z
_TEXT	SEGMENT
_pszSrc$ = 8						; size = 4
??4?$CSimpleStringT@D$0A@@ATL@@QAEAAV01@PBD@Z PROC NEAR	; ATL::CSimpleStringT<char,0>::operator=, COMDAT
; _this$ = ecx

; 316  : 		SetString( pszSrc );

  00000	8b 54 24 04	 mov	 edx, DWORD PTR _pszSrc$[esp-4]
  00004	85 d2		 test	 edx, edx
  00006	57		 push	 edi
  00007	8b f9		 mov	 edi, ecx
  00009	75 0f		 jne	 SHORT $L152668
  0000b	33 c0		 xor	 eax, eax
  0000d	50		 push	 eax
  0000e	52		 push	 edx
  0000f	e8 00 00 00 00	 call	 ?SetString@?$CSimpleStringT@D$0A@@ATL@@QAEXPBDH@Z ; ATL::CSimpleStringT<char,0>::SetString

; 317  : 
; 318  : 		return( *this );

  00014	8b c7		 mov	 eax, edi
  00016	5f		 pop	 edi

; 319  : 	}

  00017	c2 04 00	 ret	 4

; 316  : 		SetString( pszSrc );

$L152668:
  0001a	8b c2		 mov	 eax, edx
  0001c	56		 push	 esi
  0001d	8d 70 01	 lea	 esi, DWORD PTR [eax+1]
$L152670:
  00020	8a 08		 mov	 cl, BYTE PTR [eax]
  00022	40		 inc	 eax
  00023	84 c9		 test	 cl, cl
  00025	75 f9		 jne	 SHORT $L152670
  00027	2b c6		 sub	 eax, esi
  00029	5e		 pop	 esi
  0002a	50		 push	 eax
  0002b	52		 push	 edx
  0002c	8b cf		 mov	 ecx, edi
  0002e	e8 00 00 00 00	 call	 ?SetString@?$CSimpleStringT@D$0A@@ATL@@QAEXPBDH@Z ; ATL::CSimpleStringT<char,0>::SetString

; 317  : 
; 318  : 		return( *this );

  00033	8b c7		 mov	 eax, edi
  00035	5f		 pop	 edi

; 319  : 	}

  00036	c2 04 00	 ret	 4
??4?$CSimpleStringT@D$0A@@ATL@@QAEAAV01@PBD@Z ENDP	; ATL::CSimpleStringT<char,0>::operator=
_TEXT	ENDS
PUBLIC	??_C@_04DLJMMJGL@?$CB?$DM?$DO?$DN?$AA@		; `string'
PUBLIC	??_C@_0BB@BKECMLNK@?$CL?9?$CK?$FO?1?$CF?$DN?$DL?$CI?$CJ?0?8?3?$HL?$HN?4?$AA@ ; `string'
PUBLIC	??_C@_0DN@LFHNMKPA@line?$CI?$CFd?$CJ?5?F?D?$MA?O?5?$CFs?$LP?$KB?$LM?$KN?5?$CC?$CFs?$CC?5?$LN?$LK?F?$KO?$LI?$LF@ ; `string'
PUBLIC	??_C@_0DJ@HNOCKBIP@line?$CI?$CFd?$CJ?5?F?D?$MA?O?5?$CFs?$LP?$KB?$LM?$KN?5?$CC?$CFs?$CC?5?$LN?$LK?F?$KO?$LI?$LF@ ; `string'
PUBLIC	?GetToken_Wide@CScanner@@IAEHH@Z		; CScanner::GetToken_Wide
EXTRN	__except_list:DWORD
EXTRN	___CxxFrameHandler:NEAR
EXTRN	_isalpha:NEAR
EXTRN	_printf:NEAR
EXTRN	__imp__IsDBCSLeadByte@4:NEAR
;	COMDAT xdata$x
xdata$x	SEGMENT
$T152746 DD	0ffffffffH
	DD	FLAT:$L152674
$T152700 DD	019930520H
	DD	01H
	DD	FLAT:$T152746
	DD	2 DUP(00H)
	DD	2 DUP(00H)
xdata$x	ENDS
;	COMDAT ??_C@_04DLJMMJGL@?$CB?$DM?$DO?$DN?$AA@
CONST	SEGMENT
??_C@_04DLJMMJGL@?$CB?$DM?$DO?$DN?$AA@ DB '!<>=', 00H	; `string'
CONST	ENDS
;	COMDAT ??_C@_0BB@BKECMLNK@?$CL?9?$CK?$FO?1?$CF?$DN?$DL?$CI?$CJ?0?8?3?$HL?$HN?4?$AA@
CONST	SEGMENT
??_C@_0BB@BKECMLNK@?$CL?9?$CK?$FO?1?$CF?$DN?$DL?$CI?$CJ?0?8?3?$HL?$HN?4?$AA@ DB '+'
	DB	'-*^/%=;(),'':{}.', 00H			; `string'
CONST	ENDS
;	COMDAT ??_C@_0DN@LFHNMKPA@line?$CI?$CFd?$CJ?5?F?D?$MA?O?5?$CFs?$LP?$KB?$LM?$KN?5?$CC?$CFs?$CC?5?$LN?$LK?F?$KO?$LI?$LF@
CONST	SEGMENT
??_C@_0DN@LFHNMKPA@line?$CI?$CFd?$CJ?5?F?D?$MA?O?5?$CFs?$LP?$KB?$LM?$KN?5?$CC?$CFs?$CC?5?$LN?$LK?F?$KO?$LI?$LF@ DB 'l'
	DB	'ine(%d) ', 0c6H, 0c4H, 0c0H, 0cfH, ' %s', 0bfH, 0a1H, 0bcH, 0adH
	DB	' "%s" ', 0bdH, 0baH, 0c6H, 0aeH, 0b8H, 0b5H, ' ', 0b1H, 0e6H, 0c0H
	DB	0ccH, 0b0H, 0a1H, ' %d', 0b9H, 0d9H, 0c0H, 0ccH, 0c6H, 0aeH, 0b8H
	DB	0a6H, ' ', 0c3H, 0caH, 0b0H, 0faH, 0c7H, 0dfH, 0c0H, 0bdH, '.', 00H ; `string'
CONST	ENDS
;	COMDAT ??_C@_0DJ@HNOCKBIP@line?$CI?$CFd?$CJ?5?F?D?$MA?O?5?$CFs?$LP?$KB?$LM?$KN?5?$CC?$CFs?$CC?5?$LN?$LK?F?$KO?$LI?$LF@
CONST	SEGMENT
??_C@_0DJ@HNOCKBIP@line?$CI?$CFd?$CJ?5?F?D?$MA?O?5?$CFs?$LP?$KB?$LM?$KN?5?$CC?$CFs?$CC?5?$LN?$LK?F?$KO?$LI?$LF@ DB 'l'
	DB	'ine(%d) ', 0c6H, 0c4H, 0c0H, 0cfH, ' %s', 0bfH, 0a1H, 0bcH, 0adH
	DB	' "%s" ', 0bdH, 0baH, 0c6H, 0aeH, 0b8H, 0b5H, 0c0H, 0ccH, ' ', 0b5H
	DB	0fbH, 0bfH, 0c8H, 0c7H, 0a5H, 0b7H, 0ceH, ' ', 0b3H, 0a1H, 0b3H
	DB	0aaH, 0c1H, 0f6H, ' ', 0beH, 0caH, 0c0H, 0bdH, '.', 00H ; `string'
; Function compile flags: /Ogty
; File c:\offi src_real\offi src!\monitor\scanner.cpp
CONST	ENDS
;	COMDAT ?GetToken_Wide@CScanner@@IAEHH@Z
_TEXT	SEGMENT
__$EHRec$ = -12						; size = 12
_string$150985 = 8					; size = 4
_bComma$ = 8						; size = 4
?GetToken_Wide@CScanner@@IAEHH@Z PROC NEAR		; CScanner::GetToken_Wide, COMDAT
; _this$ = ecx

; 578  : {

  00000	64 a1 00 00 00
	00		 mov	 eax, DWORD PTR fs:__except_list
  00006	6a ff		 push	 -1
  00008	68 00 00 00 00	 push	 __ehhandler$?GetToken_Wide@CScanner@@IAEHH@Z
  0000d	50		 push	 eax
  0000e	64 89 25 00 00
	00 00		 mov	 DWORD PTR fs:__except_list, esp
  00015	53		 push	 ebx
  00016	55		 push	 ebp
  00017	8b e9		 mov	 ebp, ecx
  00019	56		 push	 esi

; 579  : 	wchar_t* pProg = (wchar_t*)m_pProg;

  0001a	8b 75 1c	 mov	 esi, DWORD PTR [ebp+28]

; 580  : 	wchar_t* pszTemp = m_wszToken; *pszTemp = '\0';

  0001d	33 db		 xor	 ebx, ebx
  0001f	57		 push	 edi
  00020	8d 7d 2c	 lea	 edi, DWORD PTR [ebp+44]
  00023	66 89 1f	 mov	 WORD PTR [edi], bx

; 581  : 	tokenType = TEMP; tok = NONE_;

  00026	89 9d 2c 0c 00
	00		 mov	 DWORD PTR [ebp+3116], ebx
  0002c	89 9d 30 0c 00
	00		 mov	 DWORD PTR [ebp+3120], ebx

; 582  : 	m_nDoubleOps = 0;

  00032	89 9d 34 0c 00
	00		 mov	 DWORD PTR [ebp+3124], ebx
$BACK$150905:

; 583  : BACK:
; 584  : 	while( iswhite( *pProg ) && *pProg ) 

  00038	66 8b 06	 mov	 ax, WORD PTR [esi]
  0003b	66 3b c3	 cmp	 ax, bx
  0003e	76 10		 jbe	 SHORT $L150910
  00040	66 3d 20 00	 cmp	 ax, 32			; 00000020H
  00044	77 0a		 ja	 SHORT $L150910
  00046	66 3b c3	 cmp	 ax, bx
  00049	74 05		 je	 SHORT $L150910

; 585  : 		pProg++;

  0004b	83 c6 02	 add	 esi, 2
  0004e	eb e8		 jmp	 SHORT $BACK$150905
$L150910:

; 586  : 
; 587  : 	while(*pProg=='/') // 주석문 처리

  00050	66 83 3e 2f	 cmp	 WORD PTR [esi], 47	; 0000002fH
  00054	0f 85 ea 00 00
	00		 jne	 $L152735

; 588  : 	{
; 589  : 		pProg++;
; 590  : 		if(*pProg=='/') 

  0005a	66 8b 46 02	 mov	 ax, WORD PTR [esi+2]
  0005e	83 c6 02	 add	 esi, 2
  00061	66 3d 2f 00	 cmp	 ax, 47			; 0000002fH
  00065	75 2f		 jne	 SHORT $L150912

; 591  : 		{ 
; 592  : 			pProg++;
; 593  : 			while(*pProg!='\r'&&*pProg!='\0') pProg++;

  00067	66 8b 46 02	 mov	 ax, WORD PTR [esi+2]
  0006b	83 c6 02	 add	 esi, 2
  0006e	66 3d 0d 00	 cmp	 ax, 13			; 0000000dH
  00072	74 1d		 je	 SHORT $L152726
$L150914:
  00074	66 3b c3	 cmp	 ax, bx
  00077	74 12		 je	 SHORT $L150915
  00079	66 8b 46 02	 mov	 ax, WORD PTR [esi+2]
  0007d	83 c6 02	 add	 esi, 2
  00080	66 3d 0d 00	 cmp	 ax, 13			; 0000000dH
  00084	75 ee		 jne	 SHORT $L150914

; 594  : 			if(*pProg=='\r') pProg+=2;

  00086	83 c6 04	 add	 esi, 4

; 595  : 		}
; 596  : 		else

  00089	eb ad		 jmp	 SHORT $BACK$150905
$L150915:

; 594  : 			if(*pProg=='\r') pProg+=2;

  0008b	66 83 3e 0d	 cmp	 WORD PTR [esi], 13	; 0000000dH
  0008f	75 a7		 jne	 SHORT $BACK$150905
$L152726:
  00091	83 c6 04	 add	 esi, 4

; 595  : 		}
; 596  : 		else

  00094	eb a2		 jmp	 SHORT $BACK$150905
$L150912:

; 597  : 		if(*pProg=='*') 

  00096	66 3d 2a 00	 cmp	 ax, 42			; 0000002aH
  0009a	0f 85 a1 00 00
	00		 jne	 $L150918

; 598  : 		{
; 599  : 			pProg++;

  000a0	66 8b 46 02	 mov	 ax, WORD PTR [esi+2]
  000a4	83 c6 02	 add	 esi, 2
$L150919:

; 600  : 			do 
; 601  : 			{
; 602  : 				while(*pProg!='*'&&*pProg!='\0') pProg++;

  000a7	66 3d 2a 00	 cmp	 ax, 42			; 0000002aH
  000ab	74 15		 je	 SHORT $L150924
  000ad	8d 49 00	 npad	 3
$L150923:
  000b0	66 3b c3	 cmp	 ax, bx
  000b3	74 5d		 je	 SHORT $L152714
  000b5	66 8b 46 02	 mov	 ax, WORD PTR [esi+2]
  000b9	83 c6 02	 add	 esi, 2
  000bc	66 3d 2a 00	 cmp	 ax, 42			; 0000002aH
  000c0	75 ee		 jne	 SHORT $L150923
$L150924:

; 603  : 				// 파일의 끝이라면?
; 604  : 				if(*pProg=='\0') 

  000c2	66 39 1e	 cmp	 WORD PTR [esi], bx
  000c5	74 4b		 je	 SHORT $L152714

; 610  : 				}
; 611  : 				pProg++;
; 612  : 			} while(*pProg!='/');

  000c7	66 8b 46 02	 mov	 ax, WORD PTR [esi+2]
  000cb	83 c6 02	 add	 esi, 2
  000ce	66 3d 2f 00	 cmp	 ax, 47			; 0000002fH
  000d2	75 d3		 jne	 SHORT $L150919

; 613  : 			pProg++;

  000d4	83 c6 02	 add	 esi, 2

; 614  : 			while(iswhite(*pProg) && *pProg) pProg++;

  000d7	33 d2		 xor	 edx, edx
  000d9	66 8b 16	 mov	 dx, WORD PTR [esi]
  000dc	8b cd		 mov	 ecx, ebp
  000de	52		 push	 edx
  000df	e8 00 00 00 00	 call	 ?iswhite@CScanner@@IAEHG@Z ; CScanner::iswhite
  000e4	85 c0		 test	 eax, eax
  000e6	0f 84 4c ff ff
	ff		 je	 $BACK$150905
  000ec	8d 64 24 00	 npad	 4
$L150928:
  000f0	66 3b d3	 cmp	 dx, bx
  000f3	0f 84 3f ff ff
	ff		 je	 $BACK$150905
  000f9	83 c6 02	 add	 esi, 2
  000fc	33 d2		 xor	 edx, edx
  000fe	66 8b 16	 mov	 dx, WORD PTR [esi]
  00101	8b cd		 mov	 ecx, ebp
  00103	52		 push	 edx
  00104	e8 00 00 00 00	 call	 ?iswhite@CScanner@@IAEHG@Z ; CScanner::iswhite
  00109	85 c0		 test	 eax, eax
  0010b	75 e3		 jne	 SHORT $L150928

; 619  : 			break;
; 620  : 		}
; 621  : 		goto BACK;

  0010d	e9 26 ff ff ff	 jmp	 $BACK$150905
$L152714:

; 605  : 				{
; 606  : 					tok = FINISHED;
; 607  : 					tokenType = DELIMITER; 

  00112	bb 01 00 00 00	 mov	 ebx, 1
  00117	c7 85 30 0c 00
	00 15 00 00 00	 mov	 DWORD PTR [ebp+3120], 21 ; 00000015H
  00121	89 9d 2c 0c 00
	00		 mov	 DWORD PTR [ebp+3116], ebx

; 608  : 					m_pProg = (char*)pProg;

  00127	89 75 1c	 mov	 DWORD PTR [ebp+28], esi

; 609  : 					return tokenType;

  0012a	8b c3		 mov	 eax, ebx

; 784  : }

  0012c	8b 4c 24 10	 mov	 ecx, DWORD PTR __$EHRec$[esp+28]
  00130	64 89 0d 00 00
	00 00		 mov	 DWORD PTR fs:__except_list, ecx
  00137	5f		 pop	 edi
  00138	5e		 pop	 esi
  00139	5d		 pop	 ebp
  0013a	5b		 pop	 ebx
  0013b	83 c4 0c	 add	 esp, 12			; 0000000cH
  0013e	c2 04 00	 ret	 4
$L150918:

; 615  : 		}
; 616  : 		else 
; 617  : 		{
; 618  : 			pProg--;

  00141	83 ee 02	 sub	 esi, 2
$L152735:

; 622  : 	}
; 623  : 	// 화일의 끝
; 624  : 	if(*pProg=='\0') 

  00144	66 8b 06	 mov	 ax, WORD PTR [esi]
  00147	66 3b c3	 cmp	 ax, bx
  0014a	75 19		 jne	 SHORT $L150931

; 625  : 	{
; 626  : 		tok = FINISHED;

  0014c	c7 85 30 0c 00
	00 15 00 00 00	 mov	 DWORD PTR [ebp+3120], 21 ; 00000015H

; 627  : 		tokenType = DELIMITER; 

  00156	c7 85 2c 0c 00
	00 01 00 00 00	 mov	 DWORD PTR [ebp+3116], 1

; 628  : 		goto EXIT;

  00160	e9 77 04 00 00	 jmp	 $EXIT$150932
$L150931:

; 629  : 	}
; 630  : 	// Comma 형식의 구분자인가?
; 631  : 	if( bComma || m_bComma )

  00165	39 5c 24 20	 cmp	 DWORD PTR _bComma$[esp+24], ebx
  00169	0f 85 c6 03 00
	00		 jne	 $L150935
  0016f	39 5d 04	 cmp	 DWORD PTR [ebp+4], ebx
  00172	0f 85 bd 03 00
	00		 jne	 $L150935

; 660  : 		}
; 661  : 		goto EXIT;
; 662  : 	}
; 663  : 	if(strchr("!<>=",*pProg)) 

  00178	0f b7 c0	 movzx	 eax, ax
  0017b	50		 push	 eax
  0017c	68 00 00 00 00	 push	 OFFSET FLAT:??_C@_04DLJMMJGL@?$CB?$DM?$DO?$DN?$AA@
  00181	e8 00 00 00 00	 call	 _strchr
  00186	83 c4 08	 add	 esp, 8
  00189	85 c0		 test	 eax, eax
  0018b	bb 01 00 00 00	 mov	 ebx, 1
  00190	0f 84 de 00 00
	00		 je	 $L152731

; 664  : 	{ // is or might be a relation operator
; 665  : 		switch(*pProg) 

  00196	66 8b 06	 mov	 ax, WORD PTR [esi]
  00199	0f b7 c8	 movzx	 ecx, ax
  0019c	83 c1 df	 add	 ecx, -33		; ffffffdfH
  0019f	83 f9 1d	 cmp	 ecx, 29			; 0000001dH
  001a2	0f 87 c5 00 00
	00		 ja	 $L152730
  001a8	0f b6 89 00 00
	00 00		 movzx	 ecx, BYTE PTR $L152729[ecx]
  001af	ff 24 8d 00 00
	00 00		 jmp	 DWORD PTR $L152745[ecx*4]
$L150959:

; 666  : 		{
; 667  : 			case '=':
; 668  : 				if(*(pProg+1)=='=') 

  001b6	66 83 7e 02 3d	 cmp	 WORD PTR [esi+2], 61	; 0000003dH
  001bb	0f 85 ac 00 00
	00		 jne	 $L152730

; 669  : 				{
; 670  : 					*pszTemp++ = *pProg++;

  001c1	66 89 07	 mov	 WORD PTR [edi], ax

; 671  : 					*pszTemp++ = *pProg++;

  001c4	66 8b 56 02	 mov	 dx, WORD PTR [esi+2]
  001c8	83 c7 02	 add	 edi, 2
  001cb	83 c6 02	 add	 esi, 2
  001ce	66 89 17	 mov	 WORD PTR [edi], dx

; 672  : 					m_nDoubleOps = EQ;

  001d1	c7 85 34 0c 00
	00 05 00 00 00	 mov	 DWORD PTR [ebp+3124], 5

; 673  : 				}
; 674  : 				break;

  001db	e9 87 00 00 00	 jmp	 $L152741
$L150961:

; 675  : 			case '!':
; 676  : 				if(*(pProg+1)=='=') 

  001e0	66 83 7e 02 3d	 cmp	 WORD PTR [esi+2], 61	; 0000003dH

; 677  : 				{
; 678  : 					*pszTemp++ = *pProg++;

  001e5	66 89 07	 mov	 WORD PTR [edi], ax
  001e8	75 19		 jne	 SHORT $L150962

; 679  : 					*pszTemp++ = *pProg++;

  001ea	66 8b 46 02	 mov	 ax, WORD PTR [esi+2]
  001ee	83 c7 02	 add	 edi, 2
  001f1	83 c6 02	 add	 esi, 2
  001f4	66 89 07	 mov	 WORD PTR [edi], ax

; 680  : 					m_nDoubleOps = NE;

  001f7	c7 85 34 0c 00
	00 06 00 00 00	 mov	 DWORD PTR [ebp+3124], 6

; 681  : 				}
; 682  : 				else 

  00201	eb 64		 jmp	 SHORT $L152741
$L150962:

; 683  : 				{
; 684  : 					*pszTemp++ = *pProg++;
; 685  : 					m_nDoubleOps = NT;

  00203	c7 85 34 0c 00
	00 07 00 00 00	 mov	 DWORD PTR [ebp+3124], 7

; 686  : 				}
; 687  : 				break;

  0020d	eb 58		 jmp	 SHORT $L152741
$L150964:

; 688  : 			case '<':
; 689  : 				if(*(pProg+1)=='=') 

  0020f	66 83 7e 02 3d	 cmp	 WORD PTR [esi+2], 61	; 0000003dH

; 690  : 				{
; 691  : 					*pszTemp++ = *pProg++;

  00214	66 89 07	 mov	 WORD PTR [edi], ax
  00217	75 19		 jne	 SHORT $L150965

; 692  : 					*pszTemp++ = *pProg++;

  00219	66 8b 4e 02	 mov	 cx, WORD PTR [esi+2]
  0021d	83 c7 02	 add	 edi, 2
  00220	83 c6 02	 add	 esi, 2
  00223	66 89 0f	 mov	 WORD PTR [edi], cx

; 693  : 					m_nDoubleOps = LE;

  00226	c7 85 34 0c 00
	00 02 00 00 00	 mov	 DWORD PTR [ebp+3124], 2

; 694  : 				}
; 695  : 				else 

  00230	eb 35		 jmp	 SHORT $L152741
$L150965:

; 696  : 				{
; 697  : 					*pszTemp++ = *pProg++;
; 698  : 					m_nDoubleOps = LT;

  00232	89 9d 34 0c 00
	00		 mov	 DWORD PTR [ebp+3124], ebx

; 699  : 				}
; 700  : 				break;

  00238	eb 2d		 jmp	 SHORT $L152741
$L150967:

; 701  : 			case '>':
; 702  : 				if(*(pProg+1)=='=') 

  0023a	66 83 7e 02 3d	 cmp	 WORD PTR [esi+2], 61	; 0000003dH

; 703  : 				{
; 704  : 					*pszTemp++ = *pProg++;

  0023f	66 89 07	 mov	 WORD PTR [edi], ax
  00242	75 19		 jne	 SHORT $L150968

; 705  : 					*pszTemp++ = *pProg++;

  00244	66 8b 56 02	 mov	 dx, WORD PTR [esi+2]
  00248	83 c7 02	 add	 edi, 2
  0024b	83 c6 02	 add	 esi, 2
  0024e	66 89 17	 mov	 WORD PTR [edi], dx

; 706  : 					m_nDoubleOps = GE;

  00251	c7 85 34 0c 00
	00 04 00 00 00	 mov	 DWORD PTR [ebp+3124], 4

; 707  : 				}
; 708  : 				else 

  0025b	eb 0a		 jmp	 SHORT $L152741
$L150968:

; 711  : 					m_nDoubleOps = GT;

  0025d	c7 85 34 0c 00
	00 03 00 00 00	 mov	 DWORD PTR [ebp+3124], 3
$L152741:

; 709  : 				{
; 710  : 					*pszTemp++ = *pProg++;

  00267	83 c7 02	 add	 edi, 2
  0026a	83 c6 02	 add	 esi, 2
$L152730:

; 712  : 				}
; 713  : 				break;
; 714  : 		}
; 715  : 		if(m_wszToken[0]) { tokenType = DELIMITER; goto EXIT; }

  0026d	66 83 7d 2c 00	 cmp	 WORD PTR [ebp+44], 0
  00272	75 5c		 jne	 SHORT $L152743
$L152731:

; 716  : 	}
; 717  : 	// delimiter
; 718  : 	if(*pProg == '&' && *(pProg+1) == '&') 

  00274	66 8b 06	 mov	 ax, WORD PTR [esi]
  00277	b9 26 00 00 00	 mov	 ecx, 38			; 00000026H
  0027c	66 3b c1	 cmp	 ax, cx
  0027f	75 06		 jne	 SHORT $L150972
  00281	66 39 4e 02	 cmp	 WORD PTR [esi+2], cx

; 719  : 	{
; 720  : 		*pszTemp = *(pszTemp+1) = '&';
; 721  : 		pszTemp+=2; pProg+=2; tokenType = DELIMITER; goto EXIT; 

  00285	74 10		 je	 SHORT $L152744
$L150972:

; 722  : 	}
; 723  : 	if(*pProg == '|' && *(pProg+1) == '|') 

  00287	b9 7c 00 00 00	 mov	 ecx, 124		; 0000007cH
  0028c	66 3b c1	 cmp	 ax, cx
  0028f	75 1e		 jne	 SHORT $L150974
  00291	66 39 4e 02	 cmp	 WORD PTR [esi+2], cx
  00295	75 18		 jne	 SHORT $L150974
$L152744:

; 724  : 	{
; 725  : 		*pszTemp = *(pszTemp+1) = '|';

  00297	66 89 4f 02	 mov	 WORD PTR [edi+2], cx
  0029b	66 89 0f	 mov	 WORD PTR [edi], cx

; 726  : 		pszTemp+=2; pProg+=2; tokenType = DELIMITER; goto EXIT; 

  0029e	83 c7 04	 add	 edi, 4
  002a1	83 c6 04	 add	 esi, 4
  002a4	89 9d 2c 0c 00
	00		 mov	 DWORD PTR [ebp+3116], ebx
  002aa	e9 2d 03 00 00	 jmp	 $EXIT$150932
$L150974:

; 727  : 	}
; 728  : 	if( strchr( "+-*^/%=;(),':{}.", *pProg ) )  

  002af	0f b7 c0	 movzx	 eax, ax
  002b2	50		 push	 eax
  002b3	68 00 00 00 00	 push	 OFFSET FLAT:??_C@_0BB@BKECMLNK@?$CL?9?$CK?$FO?1?$CF?$DN?$DL?$CI?$CJ?0?8?3?$HL?$HN?4?$AA@
  002b8	e8 00 00 00 00	 call	 _strchr
  002bd	83 c4 08	 add	 esp, 8
  002c0	85 c0		 test	 eax, eax
  002c2	74 17		 je	 SHORT $L150976

; 729  : 	{
; 730  : 		*pszTemp = *pProg; pProg++;

  002c4	66 8b 0e	 mov	 cx, WORD PTR [esi]
  002c7	66 89 0f	 mov	 WORD PTR [edi], cx
  002ca	83 c6 02	 add	 esi, 2

; 731  : 		pszTemp++;	tokenType = DELIMITER; goto EXIT;

  002cd	83 c7 02	 add	 edi, 2
$L152743:
  002d0	89 9d 2c 0c 00
	00		 mov	 DWORD PTR [ebp+3116], ebx
  002d6	e9 01 03 00 00	 jmp	 $EXIT$150932
$L150976:

; 732  : 	}
; 733  : 	// 스트링
; 734  : 	if(*pProg=='"') 

  002db	66 8b 06	 mov	 ax, WORD PTR [esi]
  002de	66 3d 22 00	 cmp	 ax, 34			; 00000022H
  002e2	0f 85 14 01 00
	00		 jne	 $L150978

; 735  : 	{
; 736  : 		pProg++;
; 737  : 		while(*pProg!='"' && *pProg!='\r' && *pProg!='\0' && ( pszTemp - m_wszToken ) < MAX_TOKENSTR ) 

  002e8	66 8b 46 02	 mov	 ax, WORD PTR [esi+2]
  002ec	83 c6 02	 add	 esi, 2
  002ef	66 3d 22 00	 cmp	 ax, 34			; 00000022H
  002f3	74 3a		 je	 SHORT $L150981
  002f5	8b cf		 mov	 ecx, edi
  002f7	2b cd		 sub	 ecx, ebp
  002f9	83 e9 2c	 sub	 ecx, 44			; 0000002cH
  002fc	8d 64 24 00	 npad	 4
$L150980:
  00300	66 3d 0d 00	 cmp	 ax, 13			; 0000000dH
  00304	74 29		 je	 SHORT $L150981
  00306	66 85 c0	 test	 ax, ax
  00309	74 24		 je	 SHORT $L150981
  0030b	8b d1		 mov	 edx, ecx
  0030d	83 e2 fe	 and	 edx, -2			; fffffffeH
  00310	81 fa 00 08 00
	00		 cmp	 edx, 2048		; 00000800H
  00316	7d 17		 jge	 SHORT $L150981

; 738  : 			*pszTemp++ = *pProg++;

  00318	66 89 07	 mov	 WORD PTR [edi], ax
  0031b	83 c6 02	 add	 esi, 2
  0031e	33 c0		 xor	 eax, eax
  00320	66 8b 06	 mov	 ax, WORD PTR [esi]
  00323	83 c7 02	 add	 edi, 2
  00326	83 c1 02	 add	 ecx, 2
  00329	66 3d 22 00	 cmp	 ax, 34			; 00000022H
  0032d	75 d1		 jne	 SHORT $L150980
$L150981:

; 739  : 		pProg++; 

  0032f	83 c6 02	 add	 esi, 2

; 740  : 		tokenType = STRING; 

  00332	c7 85 2c 0c 00
	00 06 00 00 00	 mov	 DWORD PTR [ebp+3116], 6

; 741  : 		if( *(pProg-1 ) != '"' )

  0033c	66 8b 46 fe	 mov	 ax, WORD PTR [esi-2]
  00340	66 3d 22 00	 cmp	 ax, 34			; 00000022H
  00344	0f 84 92 02 00
	00		 je	 $EXIT$150932

; 742  : 		{
; 743  : 			if( *(pProg-1 ) == '\0' )

  0034a	66 85 c0	 test	 ax, ax
  0034d	75 03		 jne	 SHORT $L150983

; 741  : 		if( *(pProg-1 ) != '"' )

  0034f	83 c6 fe	 add	 esi, -2			; fffffffeH
$L150983:

; 744  : 				pProg--; 
; 745  : 			if( m_bErrorCheck )

  00352	8b 85 40 0c 00
	00		 mov	 eax, DWORD PTR [ebp+3136]
  00358	85 c0		 test	 eax, eax
  0035a	0f 84 7c 02 00
	00		 je	 $EXIT$150932

; 746  : 			{
; 747  : 				CString string;

  00360	8d 4c 24 20	 lea	 ecx, DWORD PTR _string$150985[esp+24]
  00364	e8 00 00 00 00	 call	 ??0?$CStringT@DV?$StrTraitMFC@DV?$ChTraitsCRT@D@ATL@@@@@ATL@@QAE@XZ ; ATL::CStringT<char,StrTraitMFC<char,ATL::ChTraitsCRT<char> > >::CStringT<char,StrTraitMFC<char,ATL::ChTraitsCRT<char> > >

; 748  : 				if( ( pszTemp - m_wszToken ) >= MAX_TOKENSTR )

  00369	8b c7		 mov	 eax, edi
  0036b	2b c5		 sub	 eax, ebp
  0036d	83 e8 2c	 sub	 eax, 44			; 0000002cH
  00370	83 e0 fe	 and	 eax, -2			; fffffffeH
  00373	3d 00 08 00 00	 cmp	 eax, 2048		; 00000800H
  00378	c7 44 24 18 00
	00 00 00	 mov	 DWORD PTR __$EHRec$[esp+36], 0
  00380	7c 2f		 jl	 SHORT $L150986

; 749  : 					string.Format( "line(%d) 파일 %s에서 \"%s\" 스트링 길이가 %d바이트를 초과했음.", GetLineNum(), m_strFileName, token, MAX_TOKENSTR );

  00382	8b 4d 28	 mov	 ecx, DWORD PTR [ebp+40]
  00385	8b 95 3c 0c 00
	00		 mov	 edx, DWORD PTR [ebp+3132]
  0038b	8b 45 00	 mov	 eax, DWORD PTR [ebp]
  0038e	68 00 04 00 00	 push	 1024			; 00000400H
  00393	51		 push	 ecx
  00394	52		 push	 edx
  00395	6a 00		 push	 0
  00397	8b cd		 mov	 ecx, ebp
  00399	ff 50 0c	 call	 DWORD PTR [eax+12]
  0039c	50		 push	 eax
  0039d	8d 4c 24 30	 lea	 ecx, DWORD PTR _string$150985[esp+40]
  003a1	68 00 00 00 00	 push	 OFFSET FLAT:??_C@_0DN@LFHNMKPA@line?$CI?$CFd?$CJ?5?F?D?$MA?O?5?$CFs?$LP?$KB?$LM?$KN?5?$CC?$CFs?$CC?5?$LN?$LK?F?$KO?$LI?$LF@
  003a6	51		 push	 ecx
  003a7	e8 00 00 00 00	 call	 ?Format@?$CStringT@DV?$StrTraitMFC@DV?$ChTraitsCRT@D@ATL@@@@@ATL@@QAAXPBDZZ ; ATL::CStringT<char,StrTraitMFC<char,ATL::ChTraitsCRT<char> > >::Format
  003ac	83 c4 18	 add	 esp, 24			; 00000018H

; 750  : 				else

  003af	eb 28		 jmp	 SHORT $L150987
$L150986:

; 751  : 					string.Format( "line(%d) 파일 %s에서 \"%s\" 스트링이 따옴표로 끝나지 않음.", GetLineNum(), m_strFileName, token );

  003b1	8b 55 28	 mov	 edx, DWORD PTR [ebp+40]
  003b4	8b 85 3c 0c 00
	00		 mov	 eax, DWORD PTR [ebp+3132]
  003ba	52		 push	 edx
  003bb	8b 55 00	 mov	 edx, DWORD PTR [ebp]
  003be	50		 push	 eax
  003bf	6a 00		 push	 0
  003c1	8b cd		 mov	 ecx, ebp
  003c3	ff 52 0c	 call	 DWORD PTR [edx+12]
  003c6	50		 push	 eax
  003c7	8d 44 24 2c	 lea	 eax, DWORD PTR _string$150985[esp+36]
  003cb	68 00 00 00 00	 push	 OFFSET FLAT:??_C@_0DJ@HNOCKBIP@line?$CI?$CFd?$CJ?5?F?D?$MA?O?5?$CFs?$LP?$KB?$LM?$KN?5?$CC?$CFs?$CC?5?$LN?$LK?F?$KO?$LI?$LF@
  003d0	50		 push	 eax
  003d1	e8 00 00 00 00	 call	 ?Format@?$CStringT@DV?$StrTraitMFC@DV?$ChTraitsCRT@D@ATL@@@@@ATL@@QAAXPBDZZ ; ATL::CStringT<char,StrTraitMFC<char,ATL::ChTraitsCRT<char> > >::Format
  003d6	83 c4 14	 add	 esp, 20			; 00000014H
$L150987:

; 752  : 				Error( string );

  003d9	8b 4c 24 20	 mov	 ecx, DWORD PTR _string$150985[esp+24]
  003dd	51		 push	 ecx
  003de	e8 00 00 00 00	 call	 _printf
  003e3	83 c4 04	 add	 esp, 4

; 753  : 			}

  003e6	8d 4c 24 20	 lea	 ecx, DWORD PTR _string$150985[esp+24]
  003ea	c7 44 24 18 ff
	ff ff ff	 mov	 DWORD PTR __$EHRec$[esp+36], -1
  003f2	e8 00 00 00 00	 call	 ??1?$CStringT@DV?$StrTraitMFC@DV?$ChTraitsCRT@D@ATL@@@@@ATL@@QAE@XZ ; ATL::CStringT<char,StrTraitMFC<char,ATL::ChTraitsCRT<char> > >::~CStringT<char,StrTraitMFC<char,ATL::ChTraitsCRT<char> > >

; 754  : 		}
; 755  : 		goto EXIT;

  003f7	e9 e0 01 00 00	 jmp	 $EXIT$150932
$L150978:

; 756  : 	}
; 757  : 	// hex
; 758  : 	if( *pProg=='0' && *(pProg + 1 )=='x' ) 

  003fc	66 3d 30 00	 cmp	 ax, 48			; 00000030H
  00400	75 43		 jne	 SHORT $L150989
  00402	66 83 7e 02 78	 cmp	 WORD PTR [esi+2], 120	; 00000078H
  00407	75 3c		 jne	 SHORT $L150989

; 759  : 	{
; 760  : 		pProg+=2;
; 761  : 		while(!isdelim(*pProg)) *pszTemp++ = *pProg++;

  00409	33 d2		 xor	 edx, edx
  0040b	66 8b 56 04	 mov	 dx, WORD PTR [esi+4]
  0040f	83 c6 04	 add	 esi, 4
  00412	8b cd		 mov	 ecx, ebp
  00414	52		 push	 edx
  00415	e8 00 00 00 00	 call	 ?isdelim@CScanner@@IAEHG@Z ; CScanner::isdelim
  0041a	85 c0		 test	 eax, eax
  0041c	0f 85 b0 01 00
	00		 jne	 $L150992
$L150991:
  00422	66 8b 06	 mov	 ax, WORD PTR [esi]
  00425	33 c9		 xor	 ecx, ecx
  00427	66 89 07	 mov	 WORD PTR [edi], ax
  0042a	66 8b 4e 02	 mov	 cx, WORD PTR [esi+2]
  0042e	83 c6 02	 add	 esi, 2
  00431	83 c7 02	 add	 edi, 2
  00434	51		 push	 ecx
  00435	8b cd		 mov	 ecx, ebp
  00437	e8 00 00 00 00	 call	 ?isdelim@CScanner@@IAEHG@Z ; CScanner::isdelim
  0043c	85 c0		 test	 eax, eax
  0043e	74 e2		 je	 SHORT $L150991

; 762  : 		tokenType = HEX; goto EXIT;

  00440	e9 8d 01 00 00	 jmp	 $L150992
$L150989:

; 763  : 	}
; 764  : 	// 숫자
; 765  : 	if( isdigit2( (CHAR)( *pProg ) ) && !IsDBCSLeadByte( (CHAR)( *pProg ) ) ) //숫자 검사만으로 끝나는데 왜 한글이 아닐 경우도 체크하지?

  00445	33 db		 xor	 ebx, ebx
  00447	8a 1e		 mov	 bl, BYTE PTR [esi]
  00449	53		 push	 ebx
  0044a	e8 00 00 00 00	 call	 ?isdigit2@@YAHD@Z	; isdigit2
  0044f	83 c4 04	 add	 esp, 4
  00452	85 c0		 test	 eax, eax
  00454	74 49		 je	 SHORT $L150996
  00456	53		 push	 ebx
  00457	ff 15 00 00 00
	00		 call	 DWORD PTR __imp__IsDBCSLeadByte@4
  0045d	85 c0		 test	 eax, eax
  0045f	75 3e		 jne	 SHORT $L150996

; 766  : 	{
; 767  : 		while( !isdelim( *pProg ) ) *pszTemp++ = *pProg++;

  00461	33 d2		 xor	 edx, edx
  00463	66 8b 16	 mov	 dx, WORD PTR [esi]
  00466	8b cd		 mov	 ecx, ebp
  00468	52		 push	 edx
  00469	e8 00 00 00 00	 call	 ?isdelim@CScanner@@IAEHG@Z ; CScanner::isdelim
  0046e	85 c0		 test	 eax, eax
  00470	75 1e		 jne	 SHORT $L150999
$L150998:
  00472	66 8b 06	 mov	 ax, WORD PTR [esi]
  00475	33 c9		 xor	 ecx, ecx
  00477	66 89 07	 mov	 WORD PTR [edi], ax
  0047a	66 8b 4e 02	 mov	 cx, WORD PTR [esi+2]
  0047e	83 c6 02	 add	 esi, 2
  00481	83 c7 02	 add	 edi, 2
  00484	51		 push	 ecx
  00485	8b cd		 mov	 ecx, ebp
  00487	e8 00 00 00 00	 call	 ?isdelim@CScanner@@IAEHG@Z ; CScanner::isdelim
  0048c	85 c0		 test	 eax, eax
  0048e	74 e2		 je	 SHORT $L150998
$L150999:

; 768  : 		tokenType = NUMBER; goto EXIT;

  00490	c7 85 2c 0c 00
	00 03 00 00 00	 mov	 DWORD PTR [ebp+3116], 3
  0049a	e9 3d 01 00 00	 jmp	 $EXIT$150932
$L150996:

; 769  : 	}
; 770  : 	// 변수와 명령
; 771  : 	if( isalpha( *pProg ) || IsDBCSLeadByte( (CHAR)( *pProg ) ) || *pProg == '#' || *pProg == '_' || *pProg == '@' || *pProg=='$' || *pProg == '?' ) 

  0049f	0f b7 16	 movzx	 edx, WORD PTR [esi]
  004a2	52		 push	 edx
  004a3	e8 00 00 00 00	 call	 _isalpha
  004a8	83 c4 04	 add	 esp, 4
  004ab	85 c0		 test	 eax, eax
  004ad	75 48		 jne	 SHORT $L152710
  004af	33 c0		 xor	 eax, eax
  004b1	8a 06		 mov	 al, BYTE PTR [esi]
  004b3	50		 push	 eax
  004b4	ff 15 00 00 00
	00		 call	 DWORD PTR __imp__IsDBCSLeadByte@4
  004ba	85 c0		 test	 eax, eax
  004bc	75 39		 jne	 SHORT $L152710
  004be	66 8b 06	 mov	 ax, WORD PTR [esi]
  004c1	66 3d 23 00	 cmp	 ax, 35			; 00000023H
  004c5	74 30		 je	 SHORT $L152710
  004c7	66 3d 5f 00	 cmp	 ax, 95			; 0000005fH
  004cb	74 2a		 je	 SHORT $L152710
  004cd	66 3d 40 00	 cmp	 ax, 64			; 00000040H
  004d1	74 24		 je	 SHORT $L152710
  004d3	66 3d 24 00	 cmp	 ax, 36			; 00000024H
  004d7	74 1e		 je	 SHORT $L152710
  004d9	66 3d 3f 00	 cmp	 ax, 63			; 0000003fH
  004dd	74 18		 je	 SHORT $L152710

; 774  : 	}
; 775  : 	else
; 776  : 		*pszTemp++ = *pProg++;

  004df	66 89 07	 mov	 WORD PTR [edi], ax
  004e2	83 c7 02	 add	 edi, 2
  004e5	83 c6 02	 add	 esi, 2

; 777  : 	tokenType = TEMP;

  004e8	c7 85 2c 0c 00
	00 00 00 00 00	 mov	 DWORD PTR [ebp+3116], 0
  004f2	e9 e5 00 00 00	 jmp	 $EXIT$150932
$L152710:

; 772  : 	{
; 773  : 		while(!isdelim(*pProg)) *pszTemp++ = *pProg++;

  004f7	33 c9		 xor	 ecx, ecx
  004f9	66 8b 0e	 mov	 cx, WORD PTR [esi]
  004fc	51		 push	 ecx
  004fd	8b cd		 mov	 ecx, ebp
  004ff	e8 00 00 00 00	 call	 ?isdelim@CScanner@@IAEHG@Z ; CScanner::isdelim
  00504	85 c0		 test	 eax, eax
  00506	75 1e		 jne	 SHORT $L151006
$L151005:
  00508	66 8b 16	 mov	 dx, WORD PTR [esi]
  0050b	66 89 17	 mov	 WORD PTR [edi], dx
  0050e	33 c0		 xor	 eax, eax
  00510	66 8b 46 02	 mov	 ax, WORD PTR [esi+2]
  00514	83 c6 02	 add	 esi, 2
  00517	8b cd		 mov	 ecx, ebp
  00519	83 c7 02	 add	 edi, 2
  0051c	50		 push	 eax
  0051d	e8 00 00 00 00	 call	 ?isdelim@CScanner@@IAEHG@Z ; CScanner::isdelim
  00522	85 c0		 test	 eax, eax
  00524	74 e2		 je	 SHORT $L151005
$L151006:

; 777  : 	tokenType = TEMP;

  00526	c7 85 2c 0c 00
	00 00 00 00 00	 mov	 DWORD PTR [ebp+3116], 0
  00530	e9 a7 00 00 00	 jmp	 $EXIT$150932
$L150935:

; 632  : 	{
; 633  : 		// 콤마나 데이타의 끝, 또는 엔터 코드가 나올 때까지 읽는다.
; 634  : 		// 콤마 구분일 경우는 그것은 pszTemp와 NUMBER만을 구분한다.
; 635  : 		if(*pProg=='"') 

  00535	66 3d 22 00	 cmp	 ax, 34			; 00000022H
  00539	0f 85 ef 00 00
	00		 jne	 $L152712

; 636  : 		{
; 637  : 			pProg++;
; 638  : 			while(*pProg!='"' && *pProg!='\r' && *pProg!='\0') *pszTemp++ = *pProg++;

  0053f	66 8b 46 02	 mov	 ax, WORD PTR [esi+2]
  00543	83 c6 02	 add	 esi, 2
  00546	66 3d 22 00	 cmp	 ax, 34			; 00000022H
  0054a	74 23		 je	 SHORT $L152733
  0054c	8d 64 24 00	 npad	 4
$L150938:
  00550	66 3d 0d 00	 cmp	 ax, 13			; 0000000dH
  00554	74 19		 je	 SHORT $L152733
  00556	66 3b c3	 cmp	 ax, bx
  00559	74 14		 je	 SHORT $L152733
  0055b	66 89 07	 mov	 WORD PTR [edi], ax
  0055e	83 c6 02	 add	 esi, 2
  00561	33 c0		 xor	 eax, eax
  00563	66 8b 06	 mov	 ax, WORD PTR [esi]
  00566	83 c7 02	 add	 edi, 2
  00569	66 3d 22 00	 cmp	 ax, 34			; 00000022H
  0056d	75 e1		 jne	 SHORT $L150938
$L152733:

; 639  : 			pProg++; 

  0056f	83 c6 02	 add	 esi, 2

; 640  : 			tokenType = STRING; 

  00572	c7 85 2c 0c 00
	00 06 00 00 00	 mov	 DWORD PTR [ebp+3116], 6
$L152737:

; 646  : 		}
; 647  : 		if( *pProg == ',' || *pProg == '\r')

  0057c	66 8b 06	 mov	 ax, WORD PTR [esi]
  0057f	66 3d 2c 00	 cmp	 ax, 44			; 0000002cH
  00583	74 06		 je	 SHORT $L152736
  00585	66 3d 0d 00	 cmp	 ax, 13			; 0000000dH
  00589	75 03		 jne	 SHORT $L152738
$L152736:

; 648  : 			pProg++; // skim comma

  0058b	83 c6 02	 add	 esi, 2
$L152738:

; 649  : 		// white space를 스킵
; 650  : 		if( pszTemp != m_wszToken )

  0058e	8d 45 2c	 lea	 eax, DWORD PTR [ebp+44]
  00591	3b f8		 cmp	 edi, eax
  00593	74 47		 je	 SHORT $EXIT$150932
$L152742:

; 651  : 		{
; 652  : 				pszTemp--;
; 653  : 			while( iswhite( *pszTemp ) && *pszTemp ) 

  00595	66 8b 47 fe	 mov	 ax, WORD PTR [edi-2]
  00599	83 ef 02	 sub	 edi, 2
  0059c	66 3b c3	 cmp	 ax, bx
  0059f	76 0b		 jbe	 SHORT $L152684
  005a1	66 3d 20 00	 cmp	 ax, 32			; 00000020H
  005a5	77 05		 ja	 SHORT $L152684
  005a7	66 3b c3	 cmp	 ax, bx

; 654  : 				pszTemp--;

  005aa	75 e9		 jne	 SHORT $L152742

; 651  : 		{
; 652  : 				pszTemp--;
; 653  : 			while( iswhite( *pszTemp ) && *pszTemp ) 

$L152684:

; 655  : 			pszTemp++;
; 656  : 			if( isdigit2( (CHAR)( m_wszToken[0] ) ) )

  005ac	8a 45 2c	 mov	 al, BYTE PTR [ebp+44]
  005af	83 c7 02	 add	 edi, 2
  005b2	3c 30		 cmp	 al, 48			; 00000030H
  005b4	7c 0e		 jl	 SHORT $L150951
  005b6	3c 39		 cmp	 al, 57			; 00000039H
  005b8	7f 0a		 jg	 SHORT $L150951

; 657  : 				tokenType = NUMBER;

  005ba	c7 85 2c 0c 00
	00 03 00 00 00	 mov	 DWORD PTR [ebp+3116], 3
$L150951:

; 658  : 			if(m_wszToken[0]=='0' && m_wszToken[1]=='x') 

  005c4	66 83 7d 2c 30	 cmp	 WORD PTR [ebp+44], 48	; 00000030H
  005c9	75 11		 jne	 SHORT $EXIT$150932
  005cb	66 83 7d 2e 78	 cmp	 WORD PTR [ebp+46], 120	; 00000078H
  005d0	75 0a		 jne	 SHORT $EXIT$150932
$L150992:

; 659  : 				tokenType = HEX;

  005d2	c7 85 2c 0c 00
	00 04 00 00 00	 mov	 DWORD PTR [ebp+3116], 4
$EXIT$150932:

; 778  : EXIT:
; 779  : 	m_pProg = (char*)pProg;

  005dc	89 75 1c	 mov	 DWORD PTR [ebp+28], esi

; 780  : 	*pszTemp = '\0';
; 781  : 	Token = m_wszToken; 

  005df	8d 75 2c	 lea	 esi, DWORD PTR [ebp+44]
  005e2	56		 push	 esi
  005e3	8d 4d 24	 lea	 ecx, DWORD PTR [ebp+36]
  005e6	66 c7 07 00 00	 mov	 WORD PTR [edi], 0
  005eb	e8 00 00 00 00	 call	 ??4?$CStringT@DV?$StrTraitMFC@DV?$ChTraitsCRT@D@ATL@@@@@ATL@@QAEAAV01@PBG@Z ; ATL::CStringT<char,StrTraitMFC<char,ATL::ChTraitsCRT<char> > >::operator=

; 782  : 	WideCharToMultiByte(g_codePage, 0, m_wszToken, -1, m_mszToken, sizeof(m_mszToken), NULL, NULL);

  005f0	0f b7 15 00 00
	00 00		 movzx	 edx, WORD PTR ?g_codePage@@3GA ; g_codePage
  005f7	6a 00		 push	 0
  005f9	6a 00		 push	 0
  005fb	68 00 04 00 00	 push	 1024			; 00000400H
  00600	8d 8d 2c 08 00
	00		 lea	 ecx, DWORD PTR [ebp+2092]
  00606	51		 push	 ecx
  00607	6a ff		 push	 -1
  00609	56		 push	 esi
  0060a	6a 00		 push	 0
  0060c	52		 push	 edx
  0060d	ff 15 00 00 00
	00		 call	 DWORD PTR __imp__WideCharToMultiByte@32

; 783  : 	return tokenType;

  00613	8b 85 2c 0c 00
	00		 mov	 eax, DWORD PTR [ebp+3116]

; 784  : }

  00619	8b 4c 24 10	 mov	 ecx, DWORD PTR __$EHRec$[esp+28]
  0061d	5f		 pop	 edi
  0061e	5e		 pop	 esi
  0061f	5d		 pop	 ebp
  00620	64 89 0d 00 00
	00 00		 mov	 DWORD PTR fs:__except_list, ecx
  00627	5b		 pop	 ebx
  00628	83 c4 0c	 add	 esp, 12			; 0000000cH
  0062b	c2 04 00	 ret	 4
$L152712:

; 641  : 		}
; 642  : 		else
; 643  : 		{
; 644  : 			while(*pProg!=',' && *pProg!='\r' && *pProg!='\0') 

  0062e	66 3d 2c 00	 cmp	 ax, 44			; 0000002cH
  00632	0f 84 53 ff ff
	ff		 je	 $L152736
  00638	eb 06 8d 9b 00
	00 00 00	 npad	 8
$L150942:
  00640	66 3d 0d 00	 cmp	 ax, 13			; 0000000dH
  00644	0f 84 32 ff ff
	ff		 je	 $L152737
  0064a	66 3b c3	 cmp	 ax, bx
  0064d	0f 84 29 ff ff
	ff		 je	 $L152737

; 645  : 				*pszTemp++ = *pProg++;

  00653	66 89 07	 mov	 WORD PTR [edi], ax
  00656	83 c6 02	 add	 esi, 2
  00659	33 c0		 xor	 eax, eax
  0065b	66 8b 06	 mov	 ax, WORD PTR [esi]
  0065e	83 c7 02	 add	 edi, 2
  00661	66 3d 2c 00	 cmp	 ax, 44			; 0000002cH
  00665	75 d9		 jne	 SHORT $L150942

; 646  : 		}
; 647  : 		if( *pProg == ',' || *pProg == '\r')

  00667	e9 1f ff ff ff	 jmp	 $L152736
$L152745:

; 784  : }

  0066c	00 00 00 00	 DD	 $L150961
  00670	00 00 00 00	 DD	 $L150964
  00674	00 00 00 00	 DD	 $L150959
  00678	00 00 00 00	 DD	 $L150967
  0067c	00 00 00 00	 DD	 $L152730
$L152729:
  00680	00		 DB	 0
  00681	04		 DB	 4
  00682	04		 DB	 4
  00683	04		 DB	 4
  00684	04		 DB	 4
  00685	04		 DB	 4
  00686	04		 DB	 4
  00687	04		 DB	 4
  00688	04		 DB	 4
  00689	04		 DB	 4
  0068a	04		 DB	 4
  0068b	04		 DB	 4
  0068c	04		 DB	 4
  0068d	04		 DB	 4
  0068e	04		 DB	 4
  0068f	04		 DB	 4
  00690	04		 DB	 4
  00691	04		 DB	 4
  00692	04		 DB	 4
  00693	04		 DB	 4
  00694	04		 DB	 4
  00695	04		 DB	 4
  00696	04		 DB	 4
  00697	04		 DB	 4
  00698	04		 DB	 4
  00699	04		 DB	 4
  0069a	04		 DB	 4
  0069b	01		 DB	 1
  0069c	02		 DB	 2
  0069d	03		 DB	 3
_TEXT	ENDS
;	COMDAT text$x
text$x	SEGMENT
$L152674:
  00000	8d 4d 04	 lea	 ecx, DWORD PTR _string$150985[ebp-4]
  00003	e9 00 00 00 00	 jmp	 ??1?$CStringT@DV?$StrTraitMFC@DV?$ChTraitsCRT@D@ATL@@@@@ATL@@QAE@XZ ; ATL::CStringT<char,StrTraitMFC<char,ATL::ChTraitsCRT<char> > >::~CStringT<char,StrTraitMFC<char,ATL::ChTraitsCRT<char> > >
__ehhandler$?GetToken_Wide@CScanner@@IAEHH@Z:
  00008	b8 00 00 00 00	 mov	 eax, OFFSET FLAT:$T152700
  0000d	e9 00 00 00 00	 jmp	 ___CxxFrameHandler
text$x	ENDS
?GetToken_Wide@CScanner@@IAEHH@Z ENDP			; CScanner::GetToken_Wide
PUBLIC	??4?$CStringT@DV?$StrTraitMFC@DV?$ChTraitsCRT@D@ATL@@@@@ATL@@QAEAAV01@PBD@Z ; ATL::CStringT<char,StrTraitMFC<char,ATL::ChTraitsCRT<char> > >::operator=
; Function compile flags: /Ogty
; File c:\program files\microsoft visual studio .net 2003\vc7\atlmfc\include\cstringt.h
;	COMDAT ??4?$CStringT@DV?$StrTraitMFC@DV?$ChTraitsCRT@D@ATL@@@@@ATL@@QAEAAV01@PBD@Z
_TEXT	SEGMENT
_pszSrc$ = 8						; size = 4
??4?$CStringT@DV?$StrTraitMFC@DV?$ChTraitsCRT@D@ATL@@@@@ATL@@QAEAAV01@PBD@Z PROC NEAR ; ATL::CStringT<char,StrTraitMFC<char,ATL::ChTraitsCRT<char> > >::operator=, COMDAT
; _this$ = ecx

; 983  : 		CThisSimpleString::operator=( pszSrc );

  00000	8b 54 24 04	 mov	 edx, DWORD PTR _pszSrc$[esp-4]
  00004	85 d2		 test	 edx, edx
  00006	57		 push	 edi
  00007	8b f9		 mov	 edi, ecx
  00009	75 0f		 jne	 SHORT $L152769
  0000b	33 c0		 xor	 eax, eax
  0000d	50		 push	 eax
  0000e	52		 push	 edx
  0000f	e8 00 00 00 00	 call	 ?SetString@?$CSimpleStringT@D$0A@@ATL@@QAEXPBDH@Z ; ATL::CSimpleStringT<char,0>::SetString

; 984  : 
; 985  : 		return( *this );

  00014	8b c7		 mov	 eax, edi
  00016	5f		 pop	 edi

; 986  : 	}

  00017	c2 04 00	 ret	 4

; 983  : 		CThisSimpleString::operator=( pszSrc );

$L152769:
  0001a	8b c2		 mov	 eax, edx
  0001c	56		 push	 esi
  0001d	8d 70 01	 lea	 esi, DWORD PTR [eax+1]
$L152772:
  00020	8a 08		 mov	 cl, BYTE PTR [eax]
  00022	40		 inc	 eax
  00023	84 c9		 test	 cl, cl
  00025	75 f9		 jne	 SHORT $L152772
  00027	2b c6		 sub	 eax, esi
  00029	5e		 pop	 esi
  0002a	50		 push	 eax
  0002b	52		 push	 edx
  0002c	8b cf		 mov	 ecx, edi
  0002e	e8 00 00 00 00	 call	 ?SetString@?$CSimpleStringT@D$0A@@ATL@@QAEXPBDH@Z ; ATL::CSimpleStringT<char,0>::SetString

; 984  : 
; 985  : 		return( *this );

  00033	8b c7		 mov	 eax, edi
  00035	5f		 pop	 edi

; 986  : 	}

  00036	c2 04 00	 ret	 4
??4?$CStringT@DV?$StrTraitMFC@DV?$ChTraitsCRT@D@ATL@@@@@ATL@@QAEAAV01@PBD@Z ENDP ; ATL::CStringT<char,StrTraitMFC<char,ATL::ChTraitsCRT<char> > >::operator=
_TEXT	ENDS
PUBLIC	?GetLastFull@CScanner@@QAEXXZ			; CScanner::GetLastFull
EXTRN	?CopyChar@@YAHPBDPAD@Z:NEAR			; CopyChar
; Function compile flags: /Ogty
; File c:\offi src_real\offi src!\monitor\scanner.cpp
;	COMDAT ?GetLastFull@CScanner@@QAEXXZ
_TEXT	SEGMENT
?GetLastFull@CScanner@@QAEXXZ PROC NEAR			; CScanner::GetLastFull, COMDAT
; _this$ = ecx

; 307  : {

  00000	56		 push	 esi
  00001	8b f1		 mov	 esi, ecx

; 308  : 	if( m_bWideChar )

  00003	8b 46 14	 mov	 eax, DWORD PTR [esi+20]
  00006	85 c0		 test	 eax, eax
  00008	57		 push	 edi
  00009	0f 84 a1 00 00
	00		 je	 $L150777

; 309  : 	{
; 310  : 		wchar_t* pProg = (wchar_t*)m_pProg;

  0000f	8b 56 1c	 mov	 edx, DWORD PTR [esi+28]
$L150764:

; 311  : 		// 앞쪽 white space를 스킵
; 312  : 		while( iswhite( *pProg ) && *pProg && *pProg != '\r' ) 

  00012	66 8b 02	 mov	 ax, WORD PTR [edx]
  00015	66 85 c0	 test	 ax, ax
  00018	76 16		 jbe	 SHORT $L152779
  0001a	66 3d 20 00	 cmp	 ax, 32			; 00000020H
  0001e	77 10		 ja	 SHORT $L152779
  00020	66 85 c0	 test	 ax, ax
  00023	74 0b		 je	 SHORT $L152779
  00025	66 3d 0d 00	 cmp	 ax, 13			; 0000000dH
  00029	74 05		 je	 SHORT $L152779

; 313  : 			pProg++;

  0002b	83 c2 02	 add	 edx, 2
  0002e	eb e2		 jmp	 SHORT $L150764

; 311  : 		// 앞쪽 white space를 스킵
; 312  : 		while( iswhite( *pProg ) && *pProg && *pProg != '\r' ) 

$L152779:

; 314  : 		
; 315  : 		wchar_t* pTemp = m_wszToken; 
; 316  : 		while( *pProg && *pProg!='\r' )

  00030	66 8b 02	 mov	 ax, WORD PTR [edx]
  00033	66 85 c0	 test	 ax, ax
  00036	8d 7e 2c	 lea	 edi, DWORD PTR [esi+44]
  00039	8b cf		 mov	 ecx, edi
  0003b	74 1c		 je	 SHORT $L150769
  0003d	8d 49 00	 npad	 3
$L150768:
  00040	66 3d 0d 00	 cmp	 ax, 13			; 0000000dH
  00044	74 13		 je	 SHORT $L150769

; 317  : 		{
; 318  : 			*pTemp++ = *pProg++;

  00046	66 89 01	 mov	 WORD PTR [ecx], ax
  00049	83 c2 02	 add	 edx, 2
  0004c	33 c0		 xor	 eax, eax
  0004e	66 8b 02	 mov	 ax, WORD PTR [edx]
  00051	83 c1 02	 add	 ecx, 2
  00054	66 85 c0	 test	 ax, ax
  00057	75 e7		 jne	 SHORT $L150768
$L150769:

; 319  : 		}
; 320  : 		// 뒤쪽 white space를 스킵
; 321  : 		if( pTemp != m_wszToken )

  00059	3b cf		 cmp	 ecx, edi
  0005b	74 1a		 je	 SHORT $L150770
$L152854:

; 322  : 		{
; 323  : 			pTemp--;
; 324  : 			while( iswhite( *pTemp ) && *pTemp ) 

  0005d	66 8b 41 fe	 mov	 ax, WORD PTR [ecx-2]
  00061	83 e9 02	 sub	 ecx, 2
  00064	66 85 c0	 test	 ax, ax
  00067	76 0b		 jbe	 SHORT $L152785
  00069	66 3d 20 00	 cmp	 ax, 32			; 00000020H
  0006d	77 05		 ja	 SHORT $L152785
  0006f	66 85 c0	 test	 ax, ax

; 325  : 				pTemp--;

  00072	75 e9		 jne	 SHORT $L152854

; 322  : 		{
; 323  : 			pTemp--;
; 324  : 			while( iswhite( *pTemp ) && *pTemp ) 

$L152785:

; 326  : 			pTemp++;

  00074	83 c1 02	 add	 ecx, 2
$L150770:

; 327  : 		}
; 328  : 		m_pProg = (char*)pProg;
; 329  : 		*pTemp = '\0';
; 330  : 
; 331  : 		WideCharToMultiByte(g_codePage, 0, m_wszToken, -1, m_mszToken, sizeof(m_mszToken), NULL, NULL);

  00077	6a 00		 push	 0
  00079	6a 00		 push	 0
  0007b	68 00 04 00 00	 push	 1024			; 00000400H
  00080	8d 86 2c 08 00
	00		 lea	 eax, DWORD PTR [esi+2092]
  00086	50		 push	 eax
  00087	6a ff		 push	 -1
  00089	89 56 1c	 mov	 DWORD PTR [esi+28], edx
  0008c	66 c7 01 00 00	 mov	 WORD PTR [ecx], 0
  00091	0f b7 0d 00 00
	00 00		 movzx	 ecx, WORD PTR ?g_codePage@@3GA ; g_codePage
  00098	57		 push	 edi
  00099	6a 00		 push	 0
  0009b	51		 push	 ecx
  0009c	ff 15 00 00 00
	00		 call	 DWORD PTR __imp__WideCharToMultiByte@32

; 332  : 		Token = m_wszToken;

  000a2	57		 push	 edi
  000a3	8d 4e 24	 lea	 ecx, DWORD PTR [esi+36]
  000a6	e8 00 00 00 00	 call	 ??4?$CStringT@DV?$StrTraitMFC@DV?$ChTraitsCRT@D@ATL@@@@@ATL@@QAEAAV01@PBG@Z ; ATL::CStringT<char,StrTraitMFC<char,ATL::ChTraitsCRT<char> > >::operator=
  000ab	5f		 pop	 edi
  000ac	5e		 pop	 esi

; 357  : 	}
; 358  : }

  000ad	c3		 ret	 0
  000ae	8b ff		 npad	 2
$L150777:

; 333  : 	}
; 334  : 	else
; 335  : 	{
; 336  : 		// 앞쪽 white space를 스킵
; 337  : 		while( iswhite( *m_pProg ) && *m_pProg && *m_pProg != '\r' ) 

  000b0	8b 56 1c	 mov	 edx, DWORD PTR [esi+28]
  000b3	8a 02		 mov	 al, BYTE PTR [edx]
  000b5	66 0f be c8	 movsx	 cx, al
  000b9	66 85 c9	 test	 cx, cx
  000bc	76 14		 jbe	 SHORT $L152791
  000be	66 83 f9 20	 cmp	 cx, 32			; 00000020H
  000c2	77 0e		 ja	 SHORT $L152791
  000c4	84 c0		 test	 al, al
  000c6	74 0a		 je	 SHORT $L152791
  000c8	3c 0d		 cmp	 al, 13			; 0000000dH
  000ca	74 06		 je	 SHORT $L152791

; 338  : 			m_pProg++;

  000cc	42		 inc	 edx
  000cd	89 56 1c	 mov	 DWORD PTR [esi+28], edx
  000d0	eb de		 jmp	 SHORT $L150777

; 333  : 	}
; 334  : 	else
; 335  : 	{
; 336  : 		// 앞쪽 white space를 스킵
; 337  : 		while( iswhite( *m_pProg ) && *m_pProg && *m_pProg != '\r' ) 

$L152791:

; 339  : 		
; 340  : 		char* pTemp = token; 
; 341  : 		while( *m_pProg && *m_pProg!='\r' )

  000d2	8b 56 1c	 mov	 edx, DWORD PTR [esi+28]
  000d5	80 3a 00	 cmp	 BYTE PTR [edx], 0
  000d8	8b 7e 28	 mov	 edi, DWORD PTR [esi+40]
  000db	74 27		 je	 SHORT $L150782
  000dd	8d 49 00	 npad	 3
$L150781:
  000e0	8b 46 1c	 mov	 eax, DWORD PTR [esi+28]
  000e3	80 38 0d	 cmp	 BYTE PTR [eax], 13	; 0000000dH
  000e6	74 1c		 je	 SHORT $L150782

; 342  : 		{
; 343  : 			int count = CopyChar( m_pProg, pTemp );

  000e8	57		 push	 edi
  000e9	50		 push	 eax
  000ea	e8 00 00 00 00	 call	 ?CopyChar@@YAHPBDPAD@Z	; CopyChar

; 344  : 			m_pProg += count;

  000ef	8b 4e 1c	 mov	 ecx, DWORD PTR [esi+28]
  000f2	03 c8		 add	 ecx, eax

; 345  : 			pTemp += count;

  000f4	03 f8		 add	 edi, eax
  000f6	8b c1		 mov	 eax, ecx
  000f8	89 4e 1c	 mov	 DWORD PTR [esi+28], ecx
  000fb	8a 08		 mov	 cl, BYTE PTR [eax]
  000fd	83 c4 08	 add	 esp, 8
  00100	84 c9		 test	 cl, cl
  00102	75 dc		 jne	 SHORT $L150781
$L150782:

; 346  : 		}
; 347  : 		// 뒤쪽 white space를 스킵
; 348  : 		if( pTemp != token )

  00104	3b 7e 28	 cmp	 edi, DWORD PTR [esi+40]
  00107	74 18		 je	 SHORT $L150784
$L152855:

; 349  : 		{
; 350  : 			pTemp--;
; 351  : 			while( iswhite( *pTemp ) && *pTemp ) 

  00109	8a 4f ff	 mov	 cl, BYTE PTR [edi-1]
  0010c	4f		 dec	 edi
  0010d	66 0f be c1	 movsx	 ax, cl
  00111	66 85 c0	 test	 ax, ax
  00114	76 0a		 jbe	 SHORT $L152797
  00116	66 3d 20 00	 cmp	 ax, 32			; 00000020H
  0011a	77 04		 ja	 SHORT $L152797
  0011c	84 c9		 test	 cl, cl

; 352  : 				pTemp--;

  0011e	75 e9		 jne	 SHORT $L152855

; 349  : 		{
; 350  : 			pTemp--;
; 351  : 			while( iswhite( *pTemp ) && *pTemp ) 

$L152797:

; 353  : 			pTemp++;

  00120	47		 inc	 edi
$L150784:

; 354  : 		}
; 355  : 		*pTemp = '\0';

  00121	c6 07 00	 mov	 BYTE PTR [edi], 0

; 356  : 		Token = token;

  00124	8b 7e 28	 mov	 edi, DWORD PTR [esi+40]
  00127	85 ff		 test	 edi, edi
  00129	8d 4e 24	 lea	 ecx, DWORD PTR [esi+36]
  0012c	75 0c		 jne	 SHORT $L152826
  0012e	33 c0		 xor	 eax, eax
  00130	50		 push	 eax
  00131	57		 push	 edi
  00132	e8 00 00 00 00	 call	 ?SetString@?$CSimpleStringT@D$0A@@ATL@@QAEXPBDH@Z ; ATL::CSimpleStringT<char,0>::SetString
  00137	5f		 pop	 edi
  00138	5e		 pop	 esi

; 357  : 	}
; 358  : }

  00139	c3		 ret	 0

; 356  : 		Token = token;

$L152826:
  0013a	8b c7		 mov	 eax, edi
  0013c	8d 70 01	 lea	 esi, DWORD PTR [eax+1]
  0013f	90		 npad	 1
$L152849:
  00140	8a 10		 mov	 dl, BYTE PTR [eax]
  00142	40		 inc	 eax
  00143	84 d2		 test	 dl, dl
  00145	75 f9		 jne	 SHORT $L152849
  00147	2b c6		 sub	 eax, esi
  00149	50		 push	 eax
  0014a	57		 push	 edi
  0014b	e8 00 00 00 00	 call	 ?SetString@?$CSimpleStringT@D$0A@@ATL@@QAEXPBDH@Z ; ATL::CSimpleStringT<char,0>::SetString
  00150	5f		 pop	 edi
  00151	5e		 pop	 esi

; 357  : 	}
; 358  : }

  00152	c3		 ret	 0
?GetLastFull@CScanner@@QAEXXZ ENDP			; CScanner::GetLastFull
_TEXT	ENDS
EXTRN	?IsMultiByte@@YAHPBD@Z:NEAR			; IsMultiByte
;	COMDAT xdata$x
; File c:\program files\microsoft visual studio .net 2003\vc7\atlmfc\include\atlsimpstr.h
xdata$x	SEGMENT
$T152951 DD	0ffffffffH
	DD	FLAT:$L152859
$T152914 DD	019930520H
	DD	01H
	DD	FLAT:$T152951
	DD	2 DUP(00H)
	DD	2 DUP(00H)
; Function compile flags: /Ogty
; File c:\offi src_real\offi src!\monitor\scanner.cpp
xdata$x	ENDS
;	COMDAT ?GetToken@CScanner@@UAEHH@Z
_TEXT	SEGMENT
__$EHRec$ = -12						; size = 12
_string$150875 = 8					; size = 4
_bComma$ = 8						; size = 4
?GetToken@CScanner@@UAEHH@Z PROC NEAR			; CScanner::GetToken, COMDAT
; _this$ = ecx

; 360  : {

  00000	64 a1 00 00 00
	00		 mov	 eax, DWORD PTR fs:__except_list
  00006	6a ff		 push	 -1
  00008	68 00 00 00 00	 push	 __ehhandler$?GetToken@CScanner@@UAEHH@Z
  0000d	50		 push	 eax
  0000e	64 89 25 00 00
	00 00		 mov	 DWORD PTR fs:__except_list, esp
  00015	53		 push	 ebx
  00016	55		 push	 ebp
  00017	56		 push	 esi
  00018	8b f1		 mov	 esi, ecx

; 361  : 	if( m_bWideChar == TRUE )

  0001a	8b 46 14	 mov	 eax, DWORD PTR [esi+20]
  0001d	bb 01 00 00 00	 mov	 ebx, 1
  00022	3b c3		 cmp	 eax, ebx
  00024	57		 push	 edi
  00025	75 1f		 jne	 SHORT $L150792

; 362  : 		return GetToken_Wide( bComma );

  00027	8b 44 24 20	 mov	 eax, DWORD PTR _bComma$[esp+24]
  0002b	50		 push	 eax
  0002c	e8 00 00 00 00	 call	 ?GetToken_Wide@CScanner@@IAEHH@Z ; CScanner::GetToken_Wide

; 575  : }

  00031	8b 4c 24 10	 mov	 ecx, DWORD PTR __$EHRec$[esp+28]
  00035	64 89 0d 00 00
	00 00		 mov	 DWORD PTR fs:__except_list, ecx
  0003c	5f		 pop	 edi
  0003d	5e		 pop	 esi
  0003e	5d		 pop	 ebp
  0003f	5b		 pop	 ebx
  00040	83 c4 0c	 add	 esp, 12			; 0000000cH
  00043	c2 04 00	 ret	 4
$L150792:

; 363  : 
; 364  : 	char* pszTemp = m_mszToken; *pszTemp = '\0';

  00046	33 ed		 xor	 ebp, ebp
  00048	8d be 2c 08 00
	00		 lea	 edi, DWORD PTR [esi+2092]
  0004e	c6 07 00	 mov	 BYTE PTR [edi], 0

; 365  : 	tokenType = TEMP; tok = NONE_;

  00051	89 ae 2c 0c 00
	00		 mov	 DWORD PTR [esi+3116], ebp
  00057	89 ae 30 0c 00
	00		 mov	 DWORD PTR [esi+3120], ebp

; 366  : 	m_nDoubleOps = 0;

  0005d	89 ae 34 0c 00
	00		 mov	 DWORD PTR [esi+3124], ebp
$BACK$150794:

; 367  : BACK:
; 368  : 	// white space를 스킵
; 369  : 	while( iswhite( *m_pProg ) && *m_pProg ) 

  00063	8b 56 1c	 mov	 edx, DWORD PTR [esi+28]
  00066	8a 0a		 mov	 cl, BYTE PTR [edx]
  00068	66 0f be c1	 movsx	 ax, cl
  0006c	66 3b c5	 cmp	 ax, bp
  0006f	76 10		 jbe	 SHORT $L150799
  00071	66 3d 20 00	 cmp	 ax, 32			; 00000020H
  00075	77 0a		 ja	 SHORT $L150799
  00077	84 c9		 test	 cl, cl
  00079	74 06		 je	 SHORT $L150799

; 370  : 		m_pProg++;

  0007b	42		 inc	 edx
  0007c	89 56 1c	 mov	 DWORD PTR [esi+28], edx
  0007f	eb e2		 jmp	 SHORT $BACK$150794
$L150799:

; 371  : 
; 372  : 	while(*m_pProg=='/') // 주석문 처리

  00081	8b 46 1c	 mov	 eax, DWORD PTR [esi+28]
  00084	80 38 2f	 cmp	 BYTE PTR [eax], 47	; 0000002fH
  00087	0f 85 e5 00 00
	00		 jne	 $L150800

; 373  : 	{
; 374  : 		m_pProg++;

  0008d	40		 inc	 eax
  0008e	89 46 1c	 mov	 DWORD PTR [esi+28], eax

; 375  : 		if(*m_pProg=='/') 

  00091	8a 08		 mov	 cl, BYTE PTR [eax]
  00093	80 f9 2f	 cmp	 cl, 47			; 0000002fH
  00096	75 2c		 jne	 SHORT $L150801

; 376  : 		{ 
; 377  : 			m_pProg++;

  00098	40		 inc	 eax
  00099	89 46 1c	 mov	 DWORD PTR [esi+28], eax

; 378  : 			while(*m_pProg!='\r'&&*m_pProg!='\0') m_pProg++;

  0009c	80 38 0d	 cmp	 BYTE PTR [eax], 13	; 0000000dH
  0009f	74 13		 je	 SHORT $L150804
$L150803:
  000a1	8b 46 1c	 mov	 eax, DWORD PTR [esi+28]
  000a4	80 38 00	 cmp	 BYTE PTR [eax], 0
  000a7	74 0b		 je	 SHORT $L150804
  000a9	40		 inc	 eax
  000aa	8b c8		 mov	 ecx, eax
  000ac	89 46 1c	 mov	 DWORD PTR [esi+28], eax
  000af	80 39 0d	 cmp	 BYTE PTR [ecx], 13	; 0000000dH
  000b2	75 ed		 jne	 SHORT $L150803
$L150804:

; 379  : 			if(*m_pProg=='\r') m_pProg+=2;

  000b4	8b 46 1c	 mov	 eax, DWORD PTR [esi+28]
  000b7	80 38 0d	 cmp	 BYTE PTR [eax], 13	; 0000000dH
  000ba	75 a7		 jne	 SHORT $BACK$150794
  000bc	83 c0 02	 add	 eax, 2
  000bf	89 46 1c	 mov	 DWORD PTR [esi+28], eax

; 380  : 		}
; 381  : 		else

  000c2	eb 9f		 jmp	 SHORT $BACK$150794
$L150801:

; 382  : 		if(*m_pProg=='*') 

  000c4	80 f9 2a	 cmp	 cl, 42			; 0000002aH
  000c7	0f 85 a1 00 00
	00		 jne	 $L150807

; 383  : 		{
; 384  : 			m_pProg++;

  000cd	40		 inc	 eax
  000ce	89 46 1c	 mov	 DWORD PTR [esi+28], eax
$L150808:

; 385  : 			do 
; 386  : 			{
; 387  : 				while(*m_pProg!='*'&&*m_pProg!='\0') m_pProg++;

  000d1	8b 56 1c	 mov	 edx, DWORD PTR [esi+28]
  000d4	80 3a 2a	 cmp	 BYTE PTR [edx], 42	; 0000002aH
  000d7	74 18		 je	 SHORT $L150813
  000d9	8d a4 24 00 00
	00 00		 npad	 7
$L150812:
  000e0	8b 46 1c	 mov	 eax, DWORD PTR [esi+28]
  000e3	80 38 00	 cmp	 BYTE PTR [eax], 0
  000e6	74 09		 je	 SHORT $L150813
  000e8	40		 inc	 eax
  000e9	89 46 1c	 mov	 DWORD PTR [esi+28], eax
  000ec	80 38 2a	 cmp	 BYTE PTR [eax], 42	; 0000002aH
  000ef	75 ef		 jne	 SHORT $L150812
$L150813:

; 388  : 				// 파일의 끝이라면?
; 389  : 				if(*m_pProg=='\0') 

  000f1	8b 46 1c	 mov	 eax, DWORD PTR [esi+28]
  000f4	80 38 00	 cmp	 BYTE PTR [eax], 0
  000f7	74 4e		 je	 SHORT $L152928

; 394  : 				}
; 395  : 				m_pProg++;

  000f9	40		 inc	 eax
  000fa	89 46 1c	 mov	 DWORD PTR [esi+28], eax

; 396  : 			} while(*m_pProg!='/');

  000fd	80 38 2f	 cmp	 BYTE PTR [eax], 47	; 0000002fH
  00100	75 cf		 jne	 SHORT $L150808

; 397  : 			m_pProg++;

  00102	40		 inc	 eax
  00103	89 46 1c	 mov	 DWORD PTR [esi+28], eax

; 398  : 			while(iswhite(*m_pProg) && *m_pProg) m_pProg++;

  00106	66 0f be 08	 movsx	 cx, BYTE PTR [eax]
  0010a	51		 push	 ecx
  0010b	8b ce		 mov	 ecx, esi
  0010d	e8 00 00 00 00	 call	 ?iswhite@CScanner@@IAEHG@Z ; CScanner::iswhite
  00112	85 c0		 test	 eax, eax
  00114	0f 84 49 ff ff
	ff		 je	 $BACK$150794
  0011a	8d 9b 00 00 00
	00		 npad	 6
$L150816:
  00120	8b 46 1c	 mov	 eax, DWORD PTR [esi+28]
  00123	80 38 00	 cmp	 BYTE PTR [eax], 0
  00126	0f 84 37 ff ff
	ff		 je	 $BACK$150794
  0012c	40		 inc	 eax
  0012d	8b d0		 mov	 edx, eax
  0012f	89 46 1c	 mov	 DWORD PTR [esi+28], eax
  00132	66 0f be 02	 movsx	 ax, BYTE PTR [edx]
  00136	8b ce		 mov	 ecx, esi
  00138	50		 push	 eax
  00139	e8 00 00 00 00	 call	 ?iswhite@CScanner@@IAEHG@Z ; CScanner::iswhite
  0013e	85 c0		 test	 eax, eax
  00140	75 de		 jne	 SHORT $L150816

; 403  : 			break;
; 404  : 		}
; 405  : 		goto BACK;

  00142	e9 1c ff ff ff	 jmp	 $BACK$150794
$L152928:

; 390  : 				{
; 391  : 					tok = FINISHED;

  00147	c7 86 30 0c 00
	00 15 00 00 00	 mov	 DWORD PTR [esi+3120], 21 ; 00000015H

; 392  : 					tokenType = DELIMITER; 

  00151	89 9e 2c 0c 00
	00		 mov	 DWORD PTR [esi+3116], ebx

; 393  : 					return tokenType;

  00157	8b c3		 mov	 eax, ebx

; 575  : }

  00159	8b 4c 24 10	 mov	 ecx, DWORD PTR __$EHRec$[esp+28]
  0015d	64 89 0d 00 00
	00 00		 mov	 DWORD PTR fs:__except_list, ecx
  00164	5f		 pop	 edi
  00165	5e		 pop	 esi
  00166	5d		 pop	 ebp
  00167	5b		 pop	 ebx
  00168	83 c4 0c	 add	 esp, 12			; 0000000cH
  0016b	c2 04 00	 ret	 4
$L150807:

; 399  : 		}
; 400  : 		else 
; 401  : 		{
; 402  : 			m_pProg--;

  0016e	48		 dec	 eax
  0016f	89 46 1c	 mov	 DWORD PTR [esi+28], eax
$L150800:

; 406  : 	}
; 407  : 	// 화일의 끝
; 408  : 	if(*m_pProg=='\0') 

  00172	8b 4e 1c	 mov	 ecx, DWORD PTR [esi+28]
  00175	8a 01		 mov	 al, BYTE PTR [ecx]
  00177	84 c0		 test	 al, al
  00179	75 15		 jne	 SHORT $L150819

; 409  : 	{
; 410  : 		tok = FINISHED;

  0017b	c7 86 30 0c 00
	00 15 00 00 00	 mov	 DWORD PTR [esi+3120], 21 ; 00000015H

; 411  : 		tokenType = DELIMITER; 

  00185	89 9e 2c 0c 00
	00		 mov	 DWORD PTR [esi+3116], ebx

; 412  : 		goto EXIT;

  0018b	e9 95 04 00 00	 jmp	 $EXIT$150820
$L150819:

; 413  : 	}
; 414  : 	// Comma 형식의 구분자인가?
; 415  : 	if( bComma || m_bComma )

  00190	39 6c 24 20	 cmp	 DWORD PTR _bComma$[esp+24], ebp
  00194	0f 85 d6 03 00
	00		 jne	 $L150823
  0019a	39 6e 04	 cmp	 DWORD PTR [esi+4], ebp
  0019d	0f 85 cd 03 00
	00		 jne	 $L150823

; 444  : 		}
; 445  : 		goto EXIT;
; 446  : 	}
; 447  : 	if(strchr("!<>=",*m_pProg)) 

  001a3	0f be c8	 movsx	 ecx, al
  001a6	51		 push	 ecx
  001a7	68 00 00 00 00	 push	 OFFSET FLAT:??_C@_04DLJMMJGL@?$CB?$DM?$DO?$DN?$AA@
  001ac	e8 00 00 00 00	 call	 _strchr
  001b1	83 c4 08	 add	 esp, 8
  001b4	85 c0		 test	 eax, eax
  001b6	bd 02 00 00 00	 mov	 ebp, 2
  001bb	bb 04 00 00 00	 mov	 ebx, 4
  001c0	0f 84 db 00 00
	00		 je	 $L150858

; 448  : 	{ // is or might be a relation operator
; 449  : 		switch(*m_pProg) 

  001c6	8b 4e 1c	 mov	 ecx, DWORD PTR [esi+28]
  001c9	8a 01		 mov	 al, BYTE PTR [ecx]
  001cb	0f be d0	 movsx	 edx, al
  001ce	83 c2 df	 add	 edx, -33		; ffffffdfH
  001d1	83 fa 1d	 cmp	 edx, 29			; 0000001dH
  001d4	0f 87 bf 00 00
	00		 ja	 $L150857
  001da	0f b6 92 00 00
	00 00		 movzx	 edx, BYTE PTR $L152942[edx]
  001e1	ff 24 95 00 00
	00 00		 jmp	 DWORD PTR $L152950[edx*4]
$L150847:

; 450  : 		{
; 451  : 			case '=':
; 452  : 				if(*(m_pProg+1)=='=') 

  001e8	80 79 01 3d	 cmp	 BYTE PTR [ecx+1], 61	; 0000003dH
  001ec	0f 85 a7 00 00
	00		 jne	 $L150857

; 453  : 				{
; 454  : 					*pszTemp++ = *m_pProg++;

  001f2	88 07		 mov	 BYTE PTR [edi], al
  001f4	8b 56 1c	 mov	 edx, DWORD PTR [esi+28]
  001f7	47		 inc	 edi
  001f8	42		 inc	 edx
  001f9	89 56 1c	 mov	 DWORD PTR [esi+28], edx
  001fc	8b c2		 mov	 eax, edx

; 455  : 					*pszTemp++ = *m_pProg++;

  001fe	8a 00		 mov	 al, BYTE PTR [eax]
  00200	88 07		 mov	 BYTE PTR [edi], al

; 456  : 					m_nDoubleOps = EQ;

  00202	c7 86 34 0c 00
	00 05 00 00 00	 mov	 DWORD PTR [esi+3124], 5

; 457  : 				}
; 458  : 				break;

  0020c	e9 84 00 00 00	 jmp	 $L152945
$L150849:

; 459  : 			case '!':
; 460  : 				if(*(m_pProg+1)=='=') 

  00211	8a 51 01	 mov	 dl, BYTE PTR [ecx+1]

; 461  : 				{
; 462  : 					*pszTemp++ = *m_pProg++;

  00214	88 07		 mov	 BYTE PTR [edi], al
  00216	47		 inc	 edi
  00217	80 fa 3d	 cmp	 dl, 61			; 0000003dH
  0021a	75 19		 jne	 SHORT $L150850
  0021c	8b 56 1c	 mov	 edx, DWORD PTR [esi+28]
  0021f	42		 inc	 edx
  00220	89 56 1c	 mov	 DWORD PTR [esi+28], edx
  00223	8b c2		 mov	 eax, edx

; 463  : 					*pszTemp++ = *m_pProg++;

  00225	8a 08		 mov	 cl, BYTE PTR [eax]
  00227	88 0f		 mov	 BYTE PTR [edi], cl

; 464  : 					m_nDoubleOps = NE;

  00229	c7 86 34 0c 00
	00 06 00 00 00	 mov	 DWORD PTR [esi+3124], 6

; 465  : 				}
; 466  : 				else 

  00233	eb 60		 jmp	 SHORT $L152945
$L150850:

; 467  : 				{
; 468  : 					*pszTemp++ = *m_pProg++;
; 469  : 					m_nDoubleOps = NT;

  00235	c7 86 34 0c 00
	00 07 00 00 00	 mov	 DWORD PTR [esi+3124], 7

; 470  : 				}
; 471  : 				break;

  0023f	eb 55		 jmp	 SHORT $L152946
$L150852:

; 472  : 			case '<':
; 473  : 				if(*(m_pProg+1)=='=') 

  00241	8a 51 01	 mov	 dl, BYTE PTR [ecx+1]

; 474  : 				{
; 475  : 					*pszTemp++ = *m_pProg++;

  00244	88 07		 mov	 BYTE PTR [edi], al
  00246	47		 inc	 edi
  00247	80 fa 3d	 cmp	 dl, 61			; 0000003dH
  0024a	75 15		 jne	 SHORT $L150853
  0024c	8b 56 1c	 mov	 edx, DWORD PTR [esi+28]
  0024f	42		 inc	 edx
  00250	89 56 1c	 mov	 DWORD PTR [esi+28], edx
  00253	8b c2		 mov	 eax, edx

; 476  : 					*pszTemp++ = *m_pProg++;

  00255	8a 10		 mov	 dl, BYTE PTR [eax]
  00257	88 17		 mov	 BYTE PTR [edi], dl

; 477  : 					m_nDoubleOps = LE;

  00259	89 ae 34 0c 00
	00		 mov	 DWORD PTR [esi+3124], ebp

; 478  : 				}
; 479  : 				else 

  0025f	eb 34		 jmp	 SHORT $L152945
$L150853:

; 480  : 				{
; 481  : 					*pszTemp++ = *m_pProg++;
; 482  : 					m_nDoubleOps = LT;

  00261	c7 86 34 0c 00
	00 01 00 00 00	 mov	 DWORD PTR [esi+3124], 1

; 483  : 				}
; 484  : 				break;

  0026b	eb 29		 jmp	 SHORT $L152946
$L150855:

; 485  : 			case '>':
; 486  : 				if(*(m_pProg+1)=='=') 

  0026d	80 79 01 3d	 cmp	 BYTE PTR [ecx+1], 61	; 0000003dH

; 487  : 				{
; 488  : 					*pszTemp++ = *m_pProg++;

  00271	88 07		 mov	 BYTE PTR [edi], al
  00273	75 16		 jne	 SHORT $L150856
  00275	8b 56 1c	 mov	 edx, DWORD PTR [esi+28]
  00278	47		 inc	 edi
  00279	42		 inc	 edx
  0027a	89 56 1c	 mov	 DWORD PTR [esi+28], edx
  0027d	8b c2		 mov	 eax, edx

; 489  : 					*pszTemp++ = *m_pProg++;

  0027f	8a 00		 mov	 al, BYTE PTR [eax]
  00281	88 07		 mov	 BYTE PTR [edi], al

; 490  : 					m_nDoubleOps = GE;

  00283	89 9e 34 0c 00
	00		 mov	 DWORD PTR [esi+3124], ebx

; 491  : 				}
; 492  : 				else 

  00289	eb 0a		 jmp	 SHORT $L152945
$L150856:

; 495  : 					m_nDoubleOps = GT;

  0028b	c7 86 34 0c 00
	00 03 00 00 00	 mov	 DWORD PTR [esi+3124], 3
$L152945:

; 493  : 				{
; 494  : 					*pszTemp++ = *m_pProg++;

  00295	47		 inc	 edi
$L152946:
  00296	ff 46 1c	 inc	 DWORD PTR [esi+28]
$L150857:

; 496  : 				}
; 497  : 				break;
; 498  : 		}
; 499  : 		if(*token) { tokenType = DELIMITER; goto EXIT; }

  00299	8b 4e 28	 mov	 ecx, DWORD PTR [esi+40]
  0029c	80 39 00	 cmp	 BYTE PTR [ecx], 0
  0029f	75 2a		 jne	 SHORT $L152949
$L150858:

; 500  : 	}
; 501  : 	// delimiter
; 502  : 	if(*m_pProg == '&' && *(m_pProg+1) == '&') 

  002a1	8b 46 1c	 mov	 eax, DWORD PTR [esi+28]
  002a4	8a 08		 mov	 cl, BYTE PTR [eax]
  002a6	b2 26		 mov	 dl, 38			; 00000026H
  002a8	3a ca		 cmp	 cl, dl
  002aa	75 05		 jne	 SHORT $L150860
  002ac	38 50 01	 cmp	 BYTE PTR [eax+1], dl

; 503  : 	{
; 504  : 		*pszTemp = *(pszTemp+1) = '&';
; 505  : 		pszTemp+=2; m_pProg+=2; tokenType = DELIMITER; goto EXIT; 

  002af	74 0b		 je	 SHORT $L152948
$L150860:

; 506  : 	}
; 507  : 	if(*m_pProg == '|' && *(m_pProg+1) == '|') 

  002b1	b2 7c		 mov	 dl, 124			; 0000007cH
  002b3	3a ca		 cmp	 cl, dl
  002b5	75 23		 jne	 SHORT $L150862
  002b7	38 50 01	 cmp	 BYTE PTR [eax+1], dl
  002ba	75 1e		 jne	 SHORT $L150862
$L152948:

; 508  : 	{
; 509  : 		*pszTemp = *(pszTemp+1) = '|';

  002bc	88 57 01	 mov	 BYTE PTR [edi+1], dl
  002bf	88 17		 mov	 BYTE PTR [edi], dl

; 510  : 		pszTemp+=2; m_pProg+=2; tokenType = DELIMITER; goto EXIT; 

  002c1	8b 46 1c	 mov	 eax, DWORD PTR [esi+28]
  002c4	03 fd		 add	 edi, ebp
  002c6	03 c5		 add	 eax, ebp
  002c8	89 46 1c	 mov	 DWORD PTR [esi+28], eax
$L152949:
  002cb	c7 86 2c 0c 00
	00 01 00 00 00	 mov	 DWORD PTR [esi+3116], 1
  002d5	e9 4b 03 00 00	 jmp	 $EXIT$150820
$L150862:

; 511  : 	}
; 512  : 	if( strchr( "+-*^/%=;(),':{}.", *m_pProg ) )  

  002da	0f be d1	 movsx	 edx, cl
  002dd	52		 push	 edx
  002de	68 00 00 00 00	 push	 OFFSET FLAT:??_C@_0BB@BKECMLNK@?$CL?9?$CK?$FO?1?$CF?$DN?$DL?$CI?$CJ?0?8?3?$HL?$HN?4?$AA@
  002e3	e8 00 00 00 00	 call	 _strchr
  002e8	83 c4 08	 add	 esp, 8
  002eb	85 c0		 test	 eax, eax
  002ed	74 1a		 je	 SHORT $L150864

; 513  : 	{
; 514  : 		*pszTemp = *m_pProg; m_pProg++;

  002ef	8b 46 1c	 mov	 eax, DWORD PTR [esi+28]
  002f2	8a 08		 mov	 cl, BYTE PTR [eax]
  002f4	88 0f		 mov	 BYTE PTR [edi], cl
  002f6	ff 46 1c	 inc	 DWORD PTR [esi+28]

; 515  : 		pszTemp++;	tokenType = DELIMITER; goto EXIT;

  002f9	47		 inc	 edi
  002fa	c7 86 2c 0c 00
	00 01 00 00 00	 mov	 DWORD PTR [esi+3116], 1
  00304	e9 1c 03 00 00	 jmp	 $EXIT$150820
$L150864:

; 516  : 	}
; 517  : 	// 스트링 
; 518  : 	if(*m_pProg=='"') 

  00309	8b 6e 1c	 mov	 ebp, DWORD PTR [esi+28]
  0030c	8a 45 00	 mov	 al, BYTE PTR [ebp]
  0030f	3c 22		 cmp	 al, 34			; 00000022H
  00311	0f 85 04 01 00
	00		 jne	 $L150867

; 519  : 	{
; 520  : 		m_pProg++;

  00317	8d 45 01	 lea	 eax, DWORD PTR [ebp+1]
  0031a	89 46 1c	 mov	 DWORD PTR [esi+28], eax

; 521  : 		while( *m_pProg!='"' && *m_pProg!='\r' && *m_pProg!='\0' && ( pszTemp - token ) < MAX_TOKENSTR ) 

  0031d	80 38 22	 cmp	 BYTE PTR [eax], 34	; 00000022H
  00320	74 3a		 je	 SHORT $L150870
$L150869:
  00322	8b 46 1c	 mov	 eax, DWORD PTR [esi+28]
  00325	8a 08		 mov	 cl, BYTE PTR [eax]
  00327	80 f9 0d	 cmp	 cl, 13			; 0000000dH
  0032a	74 30		 je	 SHORT $L150870
  0032c	84 c9		 test	 cl, cl
  0032e	74 2c		 je	 SHORT $L150870
  00330	8b 5e 28	 mov	 ebx, DWORD PTR [esi+40]
  00333	8b d7		 mov	 edx, edi
  00335	2b d3		 sub	 edx, ebx
  00337	81 fa 00 04 00
	00		 cmp	 edx, 1024		; 00000400H
  0033d	7d 1d		 jge	 SHORT $L150870

; 522  : 		{
; 523  : 			int count = CopyChar( m_pProg, pszTemp );

  0033f	57		 push	 edi
  00340	50		 push	 eax
  00341	e8 00 00 00 00	 call	 ?CopyChar@@YAHPBDPAD@Z	; CopyChar

; 524  : 			m_pProg += count;

  00346	8b 5e 1c	 mov	 ebx, DWORD PTR [esi+28]
  00349	03 d8		 add	 ebx, eax

; 525  : 			pszTemp += count;

  0034b	03 f8		 add	 edi, eax
  0034d	8b c3		 mov	 eax, ebx
  0034f	89 5e 1c	 mov	 DWORD PTR [esi+28], ebx
  00352	8a 08		 mov	 cl, BYTE PTR [eax]
  00354	83 c4 08	 add	 esp, 8
  00357	80 f9 22	 cmp	 cl, 34			; 00000022H
  0035a	75 c6		 jne	 SHORT $L150869
$L150870:

; 526  : 		}
; 527  : 		m_pProg++; 

  0035c	8b 5e 1c	 mov	 ebx, DWORD PTR [esi+28]
  0035f	43		 inc	 ebx
  00360	8b c3		 mov	 eax, ebx

; 528  : 		tokenType = STRING; 
; 529  : 		if( *(m_pProg-1 ) != '"' )

  00362	8d 48 ff	 lea	 ecx, DWORD PTR [eax-1]
  00365	89 5e 1c	 mov	 DWORD PTR [esi+28], ebx
  00368	c7 86 2c 0c 00
	00 06 00 00 00	 mov	 DWORD PTR [esi+3116], 6
  00372	8a 01		 mov	 al, BYTE PTR [ecx]
  00374	3c 22		 cmp	 al, 34			; 00000022H
  00376	0f 84 a9 02 00
	00		 je	 $EXIT$150820

; 530  : 		{
; 531  : 			if( *(m_pProg-1 ) == '\0' )

  0037c	84 c0		 test	 al, al
  0037e	75 03		 jne	 SHORT $L150873

; 532  : 				m_pProg--; 

  00380	89 4e 1c	 mov	 DWORD PTR [esi+28], ecx
$L150873:

; 533  : 			if( m_bErrorCheck )

  00383	8b 86 40 0c 00
	00		 mov	 eax, DWORD PTR [esi+3136]
  00389	85 c0		 test	 eax, eax
  0038b	0f 84 94 02 00
	00		 je	 $EXIT$150820

; 534  : 			{
; 535  : 				CString string;

  00391	8d 4c 24 20	 lea	 ecx, DWORD PTR _string$150875[esp+24]
  00395	e8 00 00 00 00	 call	 ??0?$CStringT@DV?$StrTraitMFC@DV?$ChTraitsCRT@D@ATL@@@@@ATL@@QAE@XZ ; ATL::CStringT<char,StrTraitMFC<char,ATL::ChTraitsCRT<char> > >::CStringT<char,StrTraitMFC<char,ATL::ChTraitsCRT<char> > >

; 536  : 				if( ( pszTemp - token ) >= MAX_TOKENSTR )

  0039a	8b 46 28	 mov	 eax, DWORD PTR [esi+40]

; 537  : 					string.Format( "line(%d) 파일 %s에서 \"%s\" 스트링 길이가 %d바이트를 초과했음.", GetLineNum(), m_strFileName, token, MAX_TOKENSTR );

  0039d	8b 96 3c 0c 00
	00		 mov	 edx, DWORD PTR [esi+3132]
  003a3	8b cf		 mov	 ecx, edi
  003a5	2b c8		 sub	 ecx, eax
  003a7	81 f9 00 04 00
	00		 cmp	 ecx, 1024		; 00000400H
  003ad	c7 44 24 18 00
	00 00 00	 mov	 DWORD PTR __$EHRec$[esp+36], 0
  003b5	8b ce		 mov	 ecx, esi
  003b7	7c 23		 jl	 SHORT $L150876
  003b9	68 00 04 00 00	 push	 1024			; 00000400H
  003be	50		 push	 eax
  003bf	8b 06		 mov	 eax, DWORD PTR [esi]
  003c1	52		 push	 edx
  003c2	6a 00		 push	 0
  003c4	ff 50 0c	 call	 DWORD PTR [eax+12]
  003c7	50		 push	 eax
  003c8	8d 4c 24 30	 lea	 ecx, DWORD PTR _string$150875[esp+40]
  003cc	68 00 00 00 00	 push	 OFFSET FLAT:??_C@_0DN@LFHNMKPA@line?$CI?$CFd?$CJ?5?F?D?$MA?O?5?$CFs?$LP?$KB?$LM?$KN?5?$CC?$CFs?$CC?5?$LN?$LK?F?$KO?$LI?$LF@
  003d1	51		 push	 ecx
  003d2	e8 00 00 00 00	 call	 ?Format@?$CStringT@DV?$StrTraitMFC@DV?$ChTraitsCRT@D@ATL@@@@@ATL@@QAAXPBDZZ ; ATL::CStringT<char,StrTraitMFC<char,ATL::ChTraitsCRT<char> > >::Format
  003d7	83 c4 18	 add	 esp, 24			; 00000018H

; 538  : 				else

  003da	eb 1c		 jmp	 SHORT $L150878
$L150876:

; 539  : 					string.Format( "line(%d) 파일 %s에서 \"%s\" 스트링이 따옴표로 끝나지 않음.", GetLineNum(), m_strFileName, token );

  003dc	50		 push	 eax
  003dd	8b 06		 mov	 eax, DWORD PTR [esi]
  003df	52		 push	 edx
  003e0	6a 00		 push	 0
  003e2	ff 50 0c	 call	 DWORD PTR [eax+12]
  003e5	50		 push	 eax
  003e6	8d 4c 24 2c	 lea	 ecx, DWORD PTR _string$150875[esp+36]
  003ea	68 00 00 00 00	 push	 OFFSET FLAT:??_C@_0DJ@HNOCKBIP@line?$CI?$CFd?$CJ?5?F?D?$MA?O?5?$CFs?$LP?$KB?$LM?$KN?5?$CC?$CFs?$CC?5?$LN?$LK?F?$KO?$LI?$LF@
  003ef	51		 push	 ecx
  003f0	e8 00 00 00 00	 call	 ?Format@?$CStringT@DV?$StrTraitMFC@DV?$ChTraitsCRT@D@ATL@@@@@ATL@@QAAXPBDZZ ; ATL::CStringT<char,StrTraitMFC<char,ATL::ChTraitsCRT<char> > >::Format
  003f5	83 c4 14	 add	 esp, 20			; 00000014H
$L150878:

; 540  : 				Error( string );

  003f8	8b 54 24 20	 mov	 edx, DWORD PTR _string$150875[esp+24]
  003fc	52		 push	 edx
  003fd	e8 00 00 00 00	 call	 _printf
  00402	83 c4 04	 add	 esp, 4

; 541  : 			}

  00405	8d 4c 24 20	 lea	 ecx, DWORD PTR _string$150875[esp+24]
  00409	c7 44 24 18 ff
	ff ff ff	 mov	 DWORD PTR __$EHRec$[esp+36], -1
  00411	e8 00 00 00 00	 call	 ??1?$CStringT@DV?$StrTraitMFC@DV?$ChTraitsCRT@D@ATL@@@@@ATL@@QAE@XZ ; ATL::CStringT<char,StrTraitMFC<char,ATL::ChTraitsCRT<char> > >::~CStringT<char,StrTraitMFC<char,ATL::ChTraitsCRT<char> > >

; 542  : 		}
; 543  : 		goto EXIT;

  00416	e9 0a 02 00 00	 jmp	 $EXIT$150820
$L150867:

; 544  : 	}
; 545  : 	// hex
; 546  : 	if( *m_pProg=='0' && *(m_pProg + 1 )=='x' ) 

  0041b	3c 30		 cmp	 al, 48			; 00000030H
  0041d	75 4d		 jne	 SHORT $L150881
  0041f	80 7d 01 78	 cmp	 BYTE PTR [ebp+1], 120	; 00000078H
  00423	75 47		 jne	 SHORT $L150881

; 547  : 	{
; 548  : 		m_pProg+=2;

  00425	8d 45 02	 lea	 eax, DWORD PTR [ebp+2]
  00428	89 46 1c	 mov	 DWORD PTR [esi+28], eax

; 549  : 		while(!isdelim(*m_pProg)) *pszTemp++ = *m_pProg++;

  0042b	66 0f be 00	 movsx	 ax, BYTE PTR [eax]
  0042f	8b ce		 mov	 ecx, esi
  00431	50		 push	 eax
  00432	e8 00 00 00 00	 call	 ?isdelim@CScanner@@IAEHG@Z ; CScanner::isdelim
  00437	85 c0		 test	 eax, eax
  00439	75 26		 jne	 SHORT $L150884
  0043b	eb 03 8d 49 00	 npad	 5
$L150883:
  00440	8b 4e 1c	 mov	 ecx, DWORD PTR [esi+28]
  00443	8a 11		 mov	 dl, BYTE PTR [ecx]
  00445	88 17		 mov	 BYTE PTR [edi], dl
  00447	8b 6e 1c	 mov	 ebp, DWORD PTR [esi+28]
  0044a	47		 inc	 edi
  0044b	45		 inc	 ebp
  0044c	8b c5		 mov	 eax, ebp
  0044e	89 6e 1c	 mov	 DWORD PTR [esi+28], ebp
  00451	66 0f be 08	 movsx	 cx, BYTE PTR [eax]
  00455	51		 push	 ecx
  00456	8b ce		 mov	 ecx, esi
  00458	e8 00 00 00 00	 call	 ?isdelim@CScanner@@IAEHG@Z ; CScanner::isdelim
  0045d	85 c0		 test	 eax, eax
  0045f	74 df		 je	 SHORT $L150883
$L150884:

; 550  : 		tokenType = HEX; goto EXIT;

  00461	89 9e 2c 0c 00
	00		 mov	 DWORD PTR [esi+3116], ebx
  00467	e9 b9 01 00 00	 jmp	 $EXIT$150820
$L150881:

; 551  : 	}
; 552  : 	// 숫자
; 553  : 	if( isdigit2( *m_pProg ) && !IsMultiByte( m_pProg ) ) //숫자 검사만으로 끝나는데 왜 한글이 아닐 경우도 체크하지?

  0046c	50		 push	 eax
  0046d	e8 00 00 00 00	 call	 ?isdigit2@@YAHD@Z	; isdigit2
  00472	83 c4 04	 add	 esp, 4
  00475	85 c0		 test	 eax, eax
  00477	74 57		 je	 SHORT $L150886
  00479	55		 push	 ebp
  0047a	e8 00 00 00 00	 call	 ?IsMultiByte@@YAHPBD@Z	; IsMultiByte
  0047f	83 c4 04	 add	 esp, 4
  00482	85 c0		 test	 eax, eax
  00484	75 4a		 jne	 SHORT $L150886

; 554  : 	{
; 555  : 		while( !isdelim( *m_pProg ) ) *pszTemp++ = *m_pProg++;

  00486	8b 56 1c	 mov	 edx, DWORD PTR [esi+28]
  00489	66 0f be 02	 movsx	 ax, BYTE PTR [edx]
  0048d	8b ce		 mov	 ecx, esi
  0048f	50		 push	 eax
  00490	e8 00 00 00 00	 call	 ?isdelim@CScanner@@IAEHG@Z ; CScanner::isdelim
  00495	85 c0		 test	 eax, eax
  00497	75 28		 jne	 SHORT $L150889
  00499	8d a4 24 00 00
	00 00		 npad	 7
$L150888:
  004a0	8b 4e 1c	 mov	 ecx, DWORD PTR [esi+28]
  004a3	8a 11		 mov	 dl, BYTE PTR [ecx]
  004a5	88 17		 mov	 BYTE PTR [edi], dl
  004a7	8b 5e 1c	 mov	 ebx, DWORD PTR [esi+28]
  004aa	47		 inc	 edi
  004ab	43		 inc	 ebx
  004ac	8b c3		 mov	 eax, ebx
  004ae	89 5e 1c	 mov	 DWORD PTR [esi+28], ebx
  004b1	66 0f be 08	 movsx	 cx, BYTE PTR [eax]
  004b5	51		 push	 ecx
  004b6	8b ce		 mov	 ecx, esi
  004b8	e8 00 00 00 00	 call	 ?isdelim@CScanner@@IAEHG@Z ; CScanner::isdelim
  004bd	85 c0		 test	 eax, eax
  004bf	74 df		 je	 SHORT $L150888
$L150889:

; 556  : 		tokenType = NUMBER; goto EXIT;

  004c1	c7 86 2c 0c 00
	00 03 00 00 00	 mov	 DWORD PTR [esi+3116], 3
  004cb	e9 55 01 00 00	 jmp	 $EXIT$150820
$L150886:

; 557  : 	}
; 558  : 	// 변수와 명령
; 559  : 	if( isalpha( *m_pProg ) || IsMultiByte( m_pProg ) || *m_pProg == '#' || *m_pProg == '_' || *m_pProg == '@' || *m_pProg=='$' || *m_pProg == '?' ) 

  004d0	8b 56 1c	 mov	 edx, DWORD PTR [esi+28]
  004d3	0f be 02	 movsx	 eax, BYTE PTR [edx]
  004d6	50		 push	 eax
  004d7	e8 00 00 00 00	 call	 _isalpha
  004dc	83 c4 04	 add	 esp, 4
  004df	85 c0		 test	 eax, eax
  004e1	75 42		 jne	 SHORT $L152924
  004e3	8b 4e 1c	 mov	 ecx, DWORD PTR [esi+28]
  004e6	51		 push	 ecx
  004e7	e8 00 00 00 00	 call	 ?IsMultiByte@@YAHPBD@Z	; IsMultiByte
  004ec	83 c4 04	 add	 esp, 4
  004ef	85 c0		 test	 eax, eax
  004f1	75 32		 jne	 SHORT $L152924
  004f3	8b 56 1c	 mov	 edx, DWORD PTR [esi+28]
  004f6	8a 02		 mov	 al, BYTE PTR [edx]
  004f8	3c 23		 cmp	 al, 35			; 00000023H
  004fa	74 29		 je	 SHORT $L152924
  004fc	3c 5f		 cmp	 al, 95			; 0000005fH
  004fe	74 25		 je	 SHORT $L152924
  00500	3c 40		 cmp	 al, 64			; 00000040H
  00502	74 21		 je	 SHORT $L152924
  00504	3c 24		 cmp	 al, 36			; 00000024H
  00506	74 1d		 je	 SHORT $L152924
  00508	3c 3f		 cmp	 al, 63			; 0000003fH
  0050a	74 19		 je	 SHORT $L152924

; 566  : 		}
; 567  : 	}
; 568  : 	else
; 569  : 		*pszTemp++ = *m_pProg++;

  0050c	88 07		 mov	 BYTE PTR [edi], al
  0050e	8b 46 1c	 mov	 eax, DWORD PTR [esi+28]
  00511	47		 inc	 edi
  00512	40		 inc	 eax
  00513	89 46 1c	 mov	 DWORD PTR [esi+28], eax

; 570  : 	tokenType = TEMP;

  00516	c7 86 2c 0c 00
	00 00 00 00 00	 mov	 DWORD PTR [esi+3116], 0
  00520	e9 00 01 00 00	 jmp	 $EXIT$150820
$L152924:

; 560  : 	{
; 561  : 		while( !isdelim( *m_pProg ) ) 

  00525	8b 46 1c	 mov	 eax, DWORD PTR [esi+28]
  00528	66 0f be 08	 movsx	 cx, BYTE PTR [eax]
  0052c	51		 push	 ecx
  0052d	8b ce		 mov	 ecx, esi
  0052f	e8 00 00 00 00	 call	 ?isdelim@CScanner@@IAEHG@Z ; CScanner::isdelim
  00534	85 c0		 test	 eax, eax
  00536	75 29		 jne	 SHORT $L150895
$L150894:

; 562  : 		{
; 563  : 			int count = CopyChar( m_pProg, pszTemp );

  00538	8b 56 1c	 mov	 edx, DWORD PTR [esi+28]
  0053b	57		 push	 edi
  0053c	52		 push	 edx
  0053d	e8 00 00 00 00	 call	 ?CopyChar@@YAHPBDPAD@Z	; CopyChar

; 564  : 			m_pProg += count;

  00542	8b 6e 1c	 mov	 ebp, DWORD PTR [esi+28]
  00545	03 e8		 add	 ebp, eax

; 565  : 			pszTemp += count;

  00547	03 f8		 add	 edi, eax
  00549	8b c5		 mov	 eax, ebp
  0054b	89 6e 1c	 mov	 DWORD PTR [esi+28], ebp
  0054e	66 0f be 08	 movsx	 cx, BYTE PTR [eax]
  00552	83 c4 08	 add	 esp, 8
  00555	51		 push	 ecx
  00556	8b ce		 mov	 ecx, esi
  00558	e8 00 00 00 00	 call	 ?isdelim@CScanner@@IAEHG@Z ; CScanner::isdelim
  0055d	85 c0		 test	 eax, eax
  0055f	74 d7		 je	 SHORT $L150894
$L150895:

; 570  : 	tokenType = TEMP;

  00561	c7 86 2c 0c 00
	00 00 00 00 00	 mov	 DWORD PTR [esi+3116], 0
  0056b	e9 b5 00 00 00	 jmp	 $EXIT$150820
$L150823:

; 416  : 	{
; 417  : 		// 콤마나 데이타의 끝, 또는 엔터 코드가 나올 때까지 읽는다.
; 418  : 		// 콤마 구분일 경우는 그것은 pszTemp와 NUMBER만을 구분한다.
; 419  : 		if(*m_pProg=='"') 

  00570	3c 22		 cmp	 al, 34			; 00000022H
  00572	75 38		 jne	 SHORT $L152926

; 420  : 		{
; 421  : 			m_pProg++;

  00574	8d 41 01	 lea	 eax, DWORD PTR [ecx+1]
  00577	89 46 1c	 mov	 DWORD PTR [esi+28], eax

; 422  : 			while(*m_pProg!='"' && *m_pProg!='\r' && *m_pProg!='\0') *pszTemp++ = *m_pProg++;

  0057a	80 38 22	 cmp	 BYTE PTR [eax], 34	; 00000022H
  0057d	74 1d		 je	 SHORT $L150827
  0057f	90		 npad	 1
$L150826:
  00580	8a 08		 mov	 cl, BYTE PTR [eax]
  00582	80 f9 0d	 cmp	 cl, 13			; 0000000dH
  00585	74 15		 je	 SHORT $L150827
  00587	84 c9		 test	 cl, cl
  00589	74 11		 je	 SHORT $L150827
  0058b	88 0f		 mov	 BYTE PTR [edi], cl
  0058d	8b 56 1c	 mov	 edx, DWORD PTR [esi+28]
  00590	47		 inc	 edi
  00591	42		 inc	 edx
  00592	89 56 1c	 mov	 DWORD PTR [esi+28], edx
  00595	80 3a 22	 cmp	 BYTE PTR [edx], 34	; 00000022H
  00598	8b c2		 mov	 eax, edx
  0059a	75 e4		 jne	 SHORT $L150826
$L150827:

; 423  : 			m_pProg++; 

  0059c	40		 inc	 eax
  0059d	89 46 1c	 mov	 DWORD PTR [esi+28], eax

; 424  : 			tokenType = STRING; 

  005a0	c7 86 2c 0c 00
	00 06 00 00 00	 mov	 DWORD PTR [esi+3116], 6

; 425  : 		}
; 426  : 		else

  005aa	eb 20		 jmp	 SHORT $L150831
$L152926:

; 427  : 		{
; 428  : 			while(*m_pProg!=',' && *m_pProg!='\r' && *m_pProg!='\0') 

  005ac	3c 2c		 cmp	 al, 44			; 0000002cH
  005ae	74 1c		 je	 SHORT $L150831
$L150830:
  005b0	8b 46 1c	 mov	 eax, DWORD PTR [esi+28]
  005b3	8a 00		 mov	 al, BYTE PTR [eax]
  005b5	3c 0d		 cmp	 al, 13			; 0000000dH
  005b7	74 13		 je	 SHORT $L150831
  005b9	84 c0		 test	 al, al
  005bb	74 0f		 je	 SHORT $L150831

; 429  : 				*pszTemp++ = *m_pProg++;

  005bd	88 07		 mov	 BYTE PTR [edi], al
  005bf	8b 4e 1c	 mov	 ecx, DWORD PTR [esi+28]
  005c2	47		 inc	 edi
  005c3	41		 inc	 ecx
  005c4	89 4e 1c	 mov	 DWORD PTR [esi+28], ecx
  005c7	80 39 2c	 cmp	 BYTE PTR [ecx], 44	; 0000002cH
  005ca	75 e4		 jne	 SHORT $L150830
$L150831:

; 430  : 		}
; 431  : 		if( *m_pProg == ',' || *m_pProg == '\r')

  005cc	8b 4e 1c	 mov	 ecx, DWORD PTR [esi+28]
  005cf	8a 01		 mov	 al, BYTE PTR [ecx]
  005d1	3c 2c		 cmp	 al, 44			; 0000002cH
  005d3	74 04		 je	 SHORT $L150833
  005d5	3c 0d		 cmp	 al, 13			; 0000000dH
  005d7	75 04		 jne	 SHORT $L150832
$L150833:

; 432  : 			m_pProg++; // skim comma

  005d9	41		 inc	 ecx
  005da	89 4e 1c	 mov	 DWORD PTR [esi+28], ecx
$L150832:

; 433  : 		// white space를 스킵
; 434  : 		if( pszTemp != token )

  005dd	8b 56 28	 mov	 edx, DWORD PTR [esi+40]
  005e0	3b fa		 cmp	 edi, edx
  005e2	74 41		 je	 SHORT $EXIT$150820
$L152947:

; 435  : 		{
; 436  : 				pszTemp--;
; 437  : 			while( iswhite( *pszTemp ) && *pszTemp ) 

  005e4	8a 4f ff	 mov	 cl, BYTE PTR [edi-1]
  005e7	4f		 dec	 edi
  005e8	66 0f be c1	 movsx	 ax, cl
  005ec	66 3b c5	 cmp	 ax, bp
  005ef	76 0a		 jbe	 SHORT $L152869
  005f1	66 3d 20 00	 cmp	 ax, 32			; 00000020H
  005f5	77 04		 ja	 SHORT $L152869
  005f7	84 c9		 test	 cl, cl

; 438  : 				pszTemp--;

  005f9	75 e9		 jne	 SHORT $L152947

; 435  : 		{
; 436  : 				pszTemp--;
; 437  : 			while( iswhite( *pszTemp ) && *pszTemp ) 

$L152869:

; 439  : 			pszTemp++;
; 440  : 			if( isdigit2( token[0] ) )

  005fb	8a 02		 mov	 al, BYTE PTR [edx]
  005fd	47		 inc	 edi
  005fe	3c 30		 cmp	 al, 48			; 00000030H
  00600	7c 0e		 jl	 SHORT $L150838
  00602	3c 39		 cmp	 al, 57			; 00000039H
  00604	7f 0a		 jg	 SHORT $L150838

; 441  : 				tokenType = NUMBER;

  00606	c7 86 2c 0c 00
	00 03 00 00 00	 mov	 DWORD PTR [esi+3116], 3
$L150838:

; 442  : 			if(token[0]=='0' && token[1]=='x') 

  00610	80 3a 30	 cmp	 BYTE PTR [edx], 48	; 00000030H
  00613	75 10		 jne	 SHORT $EXIT$150820
  00615	80 7a 01 78	 cmp	 BYTE PTR [edx+1], 120	; 00000078H
  00619	75 0a		 jne	 SHORT $EXIT$150820

; 443  : 				tokenType = HEX;

  0061b	c7 86 2c 0c 00
	00 04 00 00 00	 mov	 DWORD PTR [esi+3116], 4
$EXIT$150820:

; 571  : EXIT:
; 572  : 	*pszTemp = '\0';

  00625	c6 07 00	 mov	 BYTE PTR [edi], 0

; 573  : 	Token = token; 

  00628	8b 7e 28	 mov	 edi, DWORD PTR [esi+40]
  0062b	85 ff		 test	 edi, edi
  0062d	8d 4e 24	 lea	 ecx, DWORD PTR [esi+36]
  00630	75 04		 jne	 SHORT $L152908
  00632	33 c0		 xor	 eax, eax
  00634	eb 13		 jmp	 SHORT $L152907
$L152908:
  00636	8b c7		 mov	 eax, edi
  00638	8d 68 01	 lea	 ebp, DWORD PTR [eax+1]
  0063b	eb 03 8d 49 00	 npad	 5
$L152943:
  00640	8a 10		 mov	 dl, BYTE PTR [eax]
  00642	40		 inc	 eax
  00643	84 d2		 test	 dl, dl
  00645	75 f9		 jne	 SHORT $L152943
  00647	2b c5		 sub	 eax, ebp
$L152907:
  00649	50		 push	 eax
  0064a	57		 push	 edi
  0064b	e8 00 00 00 00	 call	 ?SetString@?$CSimpleStringT@D$0A@@ATL@@QAEXPBDH@Z ; ATL::CSimpleStringT<char,0>::SetString

; 574  : 	return tokenType;

  00650	8b 86 2c 0c 00
	00		 mov	 eax, DWORD PTR [esi+3116]

; 575  : }

  00656	8b 4c 24 10	 mov	 ecx, DWORD PTR __$EHRec$[esp+28]
  0065a	5f		 pop	 edi
  0065b	5e		 pop	 esi
  0065c	5d		 pop	 ebp
  0065d	64 89 0d 00 00
	00 00		 mov	 DWORD PTR fs:__except_list, ecx
  00664	5b		 pop	 ebx
  00665	83 c4 0c	 add	 esp, 12			; 0000000cH
  00668	c2 04 00	 ret	 4
  0066b	90		 npad	 1
$L152950:
  0066c	00 00 00 00	 DD	 $L150849
  00670	00 00 00 00	 DD	 $L150852
  00674	00 00 00 00	 DD	 $L150847
  00678	00 00 00 00	 DD	 $L150855
  0067c	00 00 00 00	 DD	 $L150857
$L152942:
  00680	00		 DB	 0
  00681	04		 DB	 4
  00682	04		 DB	 4
  00683	04		 DB	 4
  00684	04		 DB	 4
  00685	04		 DB	 4
  00686	04		 DB	 4
  00687	04		 DB	 4
  00688	04		 DB	 4
  00689	04		 DB	 4
  0068a	04		 DB	 4
  0068b	04		 DB	 4
  0068c	04		 DB	 4
  0068d	04		 DB	 4
  0068e	04		 DB	 4
  0068f	04		 DB	 4
  00690	04		 DB	 4
  00691	04		 DB	 4
  00692	04		 DB	 4
  00693	04		 DB	 4
  00694	04		 DB	 4
  00695	04		 DB	 4
  00696	04		 DB	 4
  00697	04		 DB	 4
  00698	04		 DB	 4
  00699	04		 DB	 4
  0069a	04		 DB	 4
  0069b	01		 DB	 1
  0069c	02		 DB	 2
  0069d	03		 DB	 3
_TEXT	ENDS
;	COMDAT text$x
text$x	SEGMENT
$L152859:
  00000	8d 4d 04	 lea	 ecx, DWORD PTR _string$150875[ebp-4]
  00003	e9 00 00 00 00	 jmp	 ??1?$CStringT@DV?$StrTraitMFC@DV?$ChTraitsCRT@D@ATL@@@@@ATL@@QAE@XZ ; ATL::CStringT<char,StrTraitMFC<char,ATL::ChTraitsCRT<char> > >::~CStringT<char,StrTraitMFC<char,ATL::ChTraitsCRT<char> > >
__ehhandler$?GetToken@CScanner@@UAEHH@Z:
  00008	b8 00 00 00 00	 mov	 eax, OFFSET FLAT:$T152914
  0000d	e9 00 00 00 00	 jmp	 ___CxxFrameHandler
text$x	ENDS
?GetToken@CScanner@@UAEHH@Z ENDP			; CScanner::GetToken
PUBLIC	??0?$CStringT@DV?$StrTraitMFC@DV?$ChTraitsCRT@D@ATL@@@@@ATL@@QAE@PBD@Z ; ATL::CStringT<char,StrTraitMFC<char,ATL::ChTraitsCRT<char> > >::CStringT<char,StrTraitMFC<char,ATL::ChTraitsCRT<char> > >
;	COMDAT xdata$x
; File c:\program files\microsoft visual studio .net 2003\vc7\atlmfc\include\atlsimpstr.h
xdata$x	SEGMENT
$T153038 DD	0ffffffffH
	DD	FLAT:$L152957
$T153032 DD	019930520H
	DD	01H
	DD	FLAT:$T153038
	DD	2 DUP(00H)
	DD	2 DUP(00H)
; Function compile flags: /Ogty
; File c:\program files\microsoft visual studio .net 2003\vc7\atlmfc\include\cstringt.h
xdata$x	ENDS
;	COMDAT ??0?$CStringT@DV?$StrTraitMFC@DV?$ChTraitsCRT@D@ATL@@@@@ATL@@QAE@PBD@Z
_TEXT	SEGMENT
_this$ = -16						; size = 4
__$EHRec$ = -12						; size = 12
_pszSrc$ = 8						; size = 4
??0?$CStringT@DV?$StrTraitMFC@DV?$ChTraitsCRT@D@ATL@@@@@ATL@@QAE@PBD@Z PROC NEAR ; ATL::CStringT<char,StrTraitMFC<char,ATL::ChTraitsCRT<char> > >::CStringT<char,StrTraitMFC<char,ATL::ChTraitsCRT<char> > >, COMDAT
; _this$ = ecx

; 830  : 	{

  00000	6a ff		 push	 -1
  00002	68 00 00 00 00	 push	 __ehhandler$??0?$CStringT@DV?$StrTraitMFC@DV?$ChTraitsCRT@D@ATL@@@@@ATL@@QAE@PBD@Z
  00007	64 a1 00 00 00
	00		 mov	 eax, DWORD PTR fs:__except_list
  0000d	50		 push	 eax
  0000e	64 89 25 00 00
	00 00		 mov	 DWORD PTR fs:__except_list, esp
  00015	51		 push	 ecx
  00016	56		 push	 esi
  00017	8b f1		 mov	 esi, ecx
  00019	57		 push	 edi
  0001a	89 74 24 08	 mov	 DWORD PTR _this$[esp+24], esi
  0001e	e8 00 00 00 00	 call	 ?AfxGetStringManager@@YGPAUIAtlStringMgr@ATL@@XZ ; AfxGetStringManager
  00023	8b 10		 mov	 edx, DWORD PTR [eax]
  00025	8b c8		 mov	 ecx, eax
  00027	ff 52 0c	 call	 DWORD PTR [edx+12]
  0002a	83 c0 10	 add	 eax, 16			; 00000010H
  0002d	89 06		 mov	 DWORD PTR [esi], eax

; 831  : 		if( !CheckImplicitLoad( pszSrc ) )

  0002f	8b 54 24 1c	 mov	 edx, DWORD PTR _pszSrc$[esp+20]
  00033	85 d2		 test	 edx, edx
  00035	c7 44 24 14 00
	00 00 00	 mov	 DWORD PTR __$EHRec$[esp+32], 0
  0003d	74 33		 je	 SHORT $L153034
  0003f	f7 c2 00 00 ff
	ff		 test	 edx, -65536		; ffff0000H
  00045	75 2f		 jne	 SHORT $L153029
  00047	0f b7 fa	 movzx	 edi, dx
  0004a	57		 push	 edi
  0004b	e8 00 00 00 00	 call	 ?AfxFindStringResourceHandle@@YGPAUHINSTANCE__@@I@Z ; AfxFindStringResourceHandle
  00050	85 c0		 test	 eax, eax
  00052	74 3e		 je	 SHORT $L153036
  00054	57		 push	 edi
  00055	50		 push	 eax
  00056	8b ce		 mov	 ecx, esi
  00058	e8 00 00 00 00	 call	 ?LoadStringA@?$CStringT@DV?$StrTraitMFC@DV?$ChTraitsCRT@D@ATL@@@@@ATL@@QAEHPAUHINSTANCE__@@I@Z ; ATL::CStringT<char,StrTraitMFC<char,ATL::ChTraitsCRT<char> > >::LoadStringA
  0005d	5f		 pop	 edi

; 835  : 		}
; 836  : 	}

  0005e	8b c6		 mov	 eax, esi
  00060	5e		 pop	 esi
  00061	8b 4c 24 04	 mov	 ecx, DWORD PTR __$EHRec$[esp+16]
  00065	64 89 0d 00 00
	00 00		 mov	 DWORD PTR fs:__except_list, ecx
  0006c	83 c4 10	 add	 esp, 16			; 00000010H
  0006f	c2 04 00	 ret	 4
$L153034:

; 832  : 		{
; 833  : 			// nDestLength is in XCHARs
; 834  : 			*this = pszSrc;

  00072	33 c0		 xor	 eax, eax
  00074	eb 13		 jmp	 SHORT $L153028
$L153029:
  00076	8b c2		 mov	 eax, edx
  00078	8d 78 01	 lea	 edi, DWORD PTR [eax+1]
  0007b	eb 03 8d 49 00	 npad	 5
$L153035:
  00080	8a 08		 mov	 cl, BYTE PTR [eax]
  00082	40		 inc	 eax
  00083	84 c9		 test	 cl, cl
  00085	75 f9		 jne	 SHORT $L153035
  00087	2b c7		 sub	 eax, edi
$L153028:
  00089	50		 push	 eax
  0008a	52		 push	 edx
  0008b	8b ce		 mov	 ecx, esi
  0008d	e8 00 00 00 00	 call	 ?SetString@?$CSimpleStringT@D$0A@@ATL@@QAEXPBDH@Z ; ATL::CSimpleStringT<char,0>::SetString
$L153036:

; 835  : 		}
; 836  : 	}

  00092	8b 4c 24 0c	 mov	 ecx, DWORD PTR __$EHRec$[esp+24]
  00096	5f		 pop	 edi
  00097	8b c6		 mov	 eax, esi
  00099	5e		 pop	 esi
  0009a	64 89 0d 00 00
	00 00		 mov	 DWORD PTR fs:__except_list, ecx
  000a1	83 c4 10	 add	 esp, 16			; 00000010H
  000a4	c2 04 00	 ret	 4
_TEXT	ENDS
;	COMDAT text$x
text$x	SEGMENT
$L152957:
  00000	8b 4d f0	 mov	 ecx, DWORD PTR _this$[ebp]
  00003	e9 00 00 00 00	 jmp	 ??1?$CSimpleStringT@D$0A@@ATL@@QAE@XZ ; ATL::CSimpleStringT<char,0>::~CSimpleStringT<char,0>
__ehhandler$??0?$CStringT@DV?$StrTraitMFC@DV?$ChTraitsCRT@D@ATL@@@@@ATL@@QAE@PBD@Z:
  00008	b8 00 00 00 00	 mov	 eax, OFFSET FLAT:$T153032
  0000d	e9 00 00 00 00	 jmp	 ___CxxFrameHandler
text$x	ENDS
??0?$CStringT@DV?$StrTraitMFC@DV?$ChTraitsCRT@D@ATL@@@@@ATL@@QAE@PBD@Z ENDP ; ATL::CStringT<char,StrTraitMFC<char,ATL::ChTraitsCRT<char> > >::CStringT<char,StrTraitMFC<char,ATL::ChTraitsCRT<char> > >
PUBLIC	??_C@_02JDPG@rb?$AA@				; `string'
PUBLIC	?Load@CScanner@@QAEHPBDH@Z			; CScanner::Load
;	COMDAT xdata$x
; File c:\offi src_real\offi src!\_common\file.h
xdata$x	SEGMENT
$T153145 DD	0ffffffffH
	DD	FLAT:$L153046
	DD	00H
	DD	FLAT:$L153047
$T153142 DD	019930520H
	DD	02H
	DD	FLAT:$T153145
	DD	2 DUP(00H)
	DD	2 DUP(00H)
xdata$x	ENDS
;	COMDAT ??_C@_02JDPG@rb?$AA@
CONST	SEGMENT
??_C@_02JDPG@rb?$AA@ DB 'rb', 00H			; `string'
; Function compile flags: /Ogty
; File c:\offi src_real\offi src!\monitor\scanner.cpp
CONST	ENDS
;	COMDAT ?Load@CScanner@@QAEHPBDH@Z
_TEXT	SEGMENT
_file$ = -20						; size = 8
__$EHRec$ = -12						; size = 12
_fileName$ = 8						; size = 4
_lpszFileName$ = 8					; size = 4
_bMultiByte$ = 12					; size = 4
?Load@CScanner@@QAEHPBDH@Z PROC NEAR			; CScanner::Load, COMDAT
; _this$ = ecx

; 249  : {

  00000	6a ff		 push	 -1
  00002	68 00 00 00 00	 push	 __ehhandler$?Load@CScanner@@QAEHPBDH@Z
  00007	64 a1 00 00 00
	00		 mov	 eax, DWORD PTR fs:__except_list
  0000d	50		 push	 eax
  0000e	64 89 25 00 00
	00 00		 mov	 DWORD PTR fs:__except_list, esp
  00015	83 ec 08	 sub	 esp, 8
  00018	53		 push	 ebx
  00019	55		 push	 ebp
  0001a	56		 push	 esi

; 250  : 	CResFile file; 

  0001b	bd 00 00 00 00	 mov	 ebp, OFFSET FLAT:??_7CFileIO@@6B@
  00020	33 db		 xor	 ebx, ebx
  00022	57		 push	 edi
  00023	8b f9		 mov	 edi, ecx
  00025	89 6c 24 10	 mov	 DWORD PTR _file$[esp+36], ebp
  00029	89 5c 24 14	 mov	 DWORD PTR _file$[esp+40], ebx

; 251  : 	CString fileName = lpszFileName;

  0002d	8b 74 24 28	 mov	 esi, DWORD PTR _lpszFileName$[esp+32]
  00031	56		 push	 esi
  00032	8d 4c 24 2c	 lea	 ecx, DWORD PTR _fileName$[esp+36]
  00036	89 5c 24 24	 mov	 DWORD PTR __$EHRec$[esp+48], ebx
  0003a	e8 00 00 00 00	 call	 ??0?$CStringT@DV?$StrTraitMFC@DV?$ChTraitsCRT@D@ATL@@@@@ATL@@QAE@PBD@Z ; ATL::CStringT<char,StrTraitMFC<char,ATL::ChTraitsCRT<char> > >::CStringT<char,StrTraitMFC<char,ATL::ChTraitsCRT<char> > >

; 252  : 	fileName.MakeLower();

  0003f	8d 4c 24 28	 lea	 ecx, DWORD PTR _fileName$[esp+32]
  00043	c6 44 24 20 01	 mov	 BYTE PTR __$EHRec$[esp+44], 1
  00048	e8 00 00 00 00	 call	 ?MakeLower@?$CStringT@DV?$StrTraitMFC@DV?$ChTraitsCRT@D@ATL@@@@@ATL@@QAEAAV12@XZ ; ATL::CStringT<char,StrTraitMFC<char,ATL::ChTraitsCRT<char> > >::MakeLower

; 253  : 	if( !file.Open(lpszFileName, "rb" ) ) 

  0004d	68 00 00 00 00	 push	 OFFSET FLAT:??_C@_02JDPG@rb?$AA@
  00052	56		 push	 esi
  00053	8d 4c 24 18	 lea	 ecx, DWORD PTR _file$[esp+44]
  00057	e8 00 00 00 00	 call	 ?Open@CFileIO@@UAEHPBDPAD@Z ; CFileIO::Open
  0005c	85 c0		 test	 eax, eax
  0005e	75 4e		 jne	 SHORT $L150717

; 254  : 		return 0;

  00060	8b 44 24 28	 mov	 eax, DWORD PTR _fileName$[esp+32]
  00064	83 c0 f0	 add	 eax, -16		; fffffff0H
  00067	88 5c 24 20	 mov	 BYTE PTR __$EHRec$[esp+44], bl
  0006b	8d 48 0c	 lea	 ecx, DWORD PTR [eax+12]
  0006e	83 ca ff	 or	 edx, -1
  00071	f0 0f c1 11	 lock	  xadd	 DWORD PTR [ecx], edx
  00075	4a		 dec	 edx
  00076	85 d2		 test	 edx, edx
  00078	7f 08		 jg	 SHORT $L153074
  0007a	8b 08		 mov	 ecx, DWORD PTR [eax]
  0007c	8b 11		 mov	 edx, DWORD PTR [ecx]
  0007e	50		 push	 eax
  0007f	ff 52 04	 call	 DWORD PTR [edx+4]
$L153074:
  00082	8d 4c 24 10	 lea	 ecx, DWORD PTR _file$[esp+36]
  00086	c7 44 24 20 ff
	ff ff ff	 mov	 DWORD PTR __$EHRec$[esp+44], -1
  0008e	89 6c 24 10	 mov	 DWORD PTR _file$[esp+36], ebp
  00092	e8 00 00 00 00	 call	 ?Close@CFileIO@@UAEHXZ	; CFileIO::Close
  00097	5f		 pop	 edi
  00098	5e		 pop	 esi
  00099	5d		 pop	 ebp
  0009a	33 c0		 xor	 eax, eax
  0009c	5b		 pop	 ebx

; 257  : }

  0009d	8b 4c 24 08	 mov	 ecx, DWORD PTR __$EHRec$[esp+20]
  000a1	64 89 0d 00 00
	00 00		 mov	 DWORD PTR fs:__except_list, ecx
  000a8	83 c4 14	 add	 esp, 20			; 00000014H
  000ab	c2 08 00	 ret	 8
$L150717:

; 255  : 	m_strFileName = lpszFileName;

  000ae	3b f3		 cmp	 esi, ebx
  000b0	8d 8f 3c 0c 00
	00		 lea	 ecx, DWORD PTR [edi+3132]
  000b6	75 04		 jne	 SHORT $L153108
  000b8	33 c0		 xor	 eax, eax
  000ba	eb 13		 jmp	 SHORT $L153107
$L153108:
  000bc	8b c6		 mov	 eax, esi
  000be	8d 68 01	 lea	 ebp, DWORD PTR [eax+1]
$L153143:
  000c1	8a 10		 mov	 dl, BYTE PTR [eax]
  000c3	40		 inc	 eax
  000c4	3a d3		 cmp	 dl, bl
  000c6	75 f9		 jne	 SHORT $L153143
  000c8	2b c5		 sub	 eax, ebp
  000ca	bd 00 00 00 00	 mov	 ebp, OFFSET FLAT:??_7CFileIO@@6B@
$L153107:
  000cf	50		 push	 eax
  000d0	56		 push	 esi
  000d1	e8 00 00 00 00	 call	 ?SetString@?$CSimpleStringT@D$0A@@ATL@@QAEXPBDH@Z ; ATL::CSimpleStringT<char,0>::SetString

; 256  : 	return Read( &file, bMultiByte );

  000d6	8b 44 24 2c	 mov	 eax, DWORD PTR _bMultiByte$[esp+32]
  000da	50		 push	 eax
  000db	8d 4c 24 14	 lea	 ecx, DWORD PTR _file$[esp+40]
  000df	51		 push	 ecx
  000e0	8b cf		 mov	 ecx, edi
  000e2	e8 00 00 00 00	 call	 ?Read@CScanner@@IAEHPAVCFileIO@@H@Z ; CScanner::Read
  000e7	8b f0		 mov	 esi, eax
  000e9	8b 44 24 28	 mov	 eax, DWORD PTR _fileName$[esp+32]
  000ed	83 c0 f0	 add	 eax, -16		; fffffff0H
  000f0	88 5c 24 20	 mov	 BYTE PTR __$EHRec$[esp+44], bl
  000f4	8d 50 0c	 lea	 edx, DWORD PTR [eax+12]
  000f7	83 c9 ff	 or	 ecx, -1
  000fa	f0 0f c1 0a	 lock	  xadd	 DWORD PTR [edx], ecx
  000fe	49		 dec	 ecx
  000ff	85 c9		 test	 ecx, ecx
  00101	7f 08		 jg	 SHORT $L153134
  00103	8b 08		 mov	 ecx, DWORD PTR [eax]
  00105	8b 11		 mov	 edx, DWORD PTR [ecx]
  00107	50		 push	 eax
  00108	ff 52 04	 call	 DWORD PTR [edx+4]
$L153134:
  0010b	8d 4c 24 10	 lea	 ecx, DWORD PTR _file$[esp+36]
  0010f	c7 44 24 20 ff
	ff ff ff	 mov	 DWORD PTR __$EHRec$[esp+44], -1
  00117	89 6c 24 10	 mov	 DWORD PTR _file$[esp+36], ebp
  0011b	e8 00 00 00 00	 call	 ?Close@CFileIO@@UAEHXZ	; CFileIO::Close

; 257  : }

  00120	8b 4c 24 18	 mov	 ecx, DWORD PTR __$EHRec$[esp+36]
  00124	5f		 pop	 edi
  00125	8b c6		 mov	 eax, esi
  00127	5e		 pop	 esi
  00128	5d		 pop	 ebp
  00129	5b		 pop	 ebx
  0012a	64 89 0d 00 00
	00 00		 mov	 DWORD PTR fs:__except_list, ecx
  00131	83 c4 14	 add	 esp, 20			; 00000014H
  00134	c2 08 00	 ret	 8
_TEXT	ENDS
;	COMDAT text$x
text$x	SEGMENT
$L153046:
  00000	8d 4d ec	 lea	 ecx, DWORD PTR _file$[ebp]
  00003	e9 00 00 00 00	 jmp	 ??1CFileIO@@UAE@XZ	; CFileIO::~CFileIO
$L153047:
  00008	8d 4d 04	 lea	 ecx, DWORD PTR _fileName$[ebp-4]
  0000b	e9 00 00 00 00	 jmp	 ??1?$CStringT@DV?$StrTraitMFC@DV?$ChTraitsCRT@D@ATL@@@@@ATL@@QAE@XZ ; ATL::CStringT<char,StrTraitMFC<char,ATL::ChTraitsCRT<char> > >::~CStringT<char,StrTraitMFC<char,ATL::ChTraitsCRT<char> > >
__ehhandler$?Load@CScanner@@QAEHPBDH@Z:
  00010	b8 00 00 00 00	 mov	 eax, OFFSET FLAT:$T153142
  00015	e9 00 00 00 00	 jmp	 ___CxxFrameHandler
text$x	ENDS
?Load@CScanner@@QAEHPBDH@Z ENDP				; CScanner::Load
PUBLIC	?Load_FileIO@CScanner@@QAEHPBDH@Z		; CScanner::Load_FileIO
;	COMDAT xdata$x
; File c:\offi src_real\offi src!\_common\file.h
xdata$x	SEGMENT
$T153252 DD	0ffffffffH
	DD	FLAT:$L153153
	DD	00H
	DD	FLAT:$L153154
$T153249 DD	019930520H
	DD	02H
	DD	FLAT:$T153252
	DD	2 DUP(00H)
	DD	2 DUP(00H)
; Function compile flags: /Ogty
; File c:\offi src_real\offi src!\monitor\scanner.cpp
xdata$x	ENDS
;	COMDAT ?Load_FileIO@CScanner@@QAEHPBDH@Z
_TEXT	SEGMENT
_file$ = -20						; size = 8
__$EHRec$ = -12						; size = 12
_fileName$ = 8						; size = 4
_lpszFileName$ = 8					; size = 4
_bMultiByte$ = 12					; size = 4
?Load_FileIO@CScanner@@QAEHPBDH@Z PROC NEAR		; CScanner::Load_FileIO, COMDAT
; _this$ = ecx

; 261  : {

  00000	6a ff		 push	 -1
  00002	68 00 00 00 00	 push	 __ehhandler$?Load_FileIO@CScanner@@QAEHPBDH@Z
  00007	64 a1 00 00 00
	00		 mov	 eax, DWORD PTR fs:__except_list
  0000d	50		 push	 eax
  0000e	64 89 25 00 00
	00 00		 mov	 DWORD PTR fs:__except_list, esp
  00015	83 ec 08	 sub	 esp, 8
  00018	53		 push	 ebx
  00019	55		 push	 ebp
  0001a	56		 push	 esi

; 262  : 	CFileIO file;

  0001b	bd 00 00 00 00	 mov	 ebp, OFFSET FLAT:??_7CFileIO@@6B@
  00020	33 db		 xor	 ebx, ebx
  00022	57		 push	 edi
  00023	8b f9		 mov	 edi, ecx
  00025	89 6c 24 10	 mov	 DWORD PTR _file$[esp+36], ebp
  00029	89 5c 24 14	 mov	 DWORD PTR _file$[esp+40], ebx

; 263  : 	CString fileName = lpszFileName;

  0002d	8b 74 24 28	 mov	 esi, DWORD PTR _lpszFileName$[esp+32]
  00031	56		 push	 esi
  00032	8d 4c 24 2c	 lea	 ecx, DWORD PTR _fileName$[esp+36]
  00036	89 5c 24 24	 mov	 DWORD PTR __$EHRec$[esp+48], ebx
  0003a	e8 00 00 00 00	 call	 ??0?$CStringT@DV?$StrTraitMFC@DV?$ChTraitsCRT@D@ATL@@@@@ATL@@QAE@PBD@Z ; ATL::CStringT<char,StrTraitMFC<char,ATL::ChTraitsCRT<char> > >::CStringT<char,StrTraitMFC<char,ATL::ChTraitsCRT<char> > >

; 264  : 	fileName.MakeLower();

  0003f	8d 4c 24 28	 lea	 ecx, DWORD PTR _fileName$[esp+32]
  00043	c6 44 24 20 01	 mov	 BYTE PTR __$EHRec$[esp+44], 1
  00048	e8 00 00 00 00	 call	 ?MakeLower@?$CStringT@DV?$StrTraitMFC@DV?$ChTraitsCRT@D@ATL@@@@@ATL@@QAEAAV12@XZ ; ATL::CStringT<char,StrTraitMFC<char,ATL::ChTraitsCRT<char> > >::MakeLower

; 265  : 	if( !file.Open(lpszFileName, "rb" ) ) 

  0004d	68 00 00 00 00	 push	 OFFSET FLAT:??_C@_02JDPG@rb?$AA@
  00052	56		 push	 esi
  00053	8d 4c 24 18	 lea	 ecx, DWORD PTR _file$[esp+44]
  00057	e8 00 00 00 00	 call	 ?Open@CFileIO@@UAEHPBDPAD@Z ; CFileIO::Open
  0005c	85 c0		 test	 eax, eax
  0005e	75 4e		 jne	 SHORT $L150728

; 266  : 		return 0;

  00060	8b 44 24 28	 mov	 eax, DWORD PTR _fileName$[esp+32]
  00064	83 c0 f0	 add	 eax, -16		; fffffff0H
  00067	88 5c 24 20	 mov	 BYTE PTR __$EHRec$[esp+44], bl
  0006b	8d 48 0c	 lea	 ecx, DWORD PTR [eax+12]
  0006e	83 ca ff	 or	 edx, -1
  00071	f0 0f c1 11	 lock	  xadd	 DWORD PTR [ecx], edx
  00075	4a		 dec	 edx
  00076	85 d2		 test	 edx, edx
  00078	7f 08		 jg	 SHORT $L153181
  0007a	8b 08		 mov	 ecx, DWORD PTR [eax]
  0007c	8b 11		 mov	 edx, DWORD PTR [ecx]
  0007e	50		 push	 eax
  0007f	ff 52 04	 call	 DWORD PTR [edx+4]
$L153181:
  00082	8d 4c 24 10	 lea	 ecx, DWORD PTR _file$[esp+36]
  00086	c7 44 24 20 ff
	ff ff ff	 mov	 DWORD PTR __$EHRec$[esp+44], -1
  0008e	89 6c 24 10	 mov	 DWORD PTR _file$[esp+36], ebp
  00092	e8 00 00 00 00	 call	 ?Close@CFileIO@@UAEHXZ	; CFileIO::Close
  00097	5f		 pop	 edi
  00098	5e		 pop	 esi
  00099	5d		 pop	 ebp
  0009a	33 c0		 xor	 eax, eax
  0009c	5b		 pop	 ebx

; 269  : }

  0009d	8b 4c 24 08	 mov	 ecx, DWORD PTR __$EHRec$[esp+20]
  000a1	64 89 0d 00 00
	00 00		 mov	 DWORD PTR fs:__except_list, ecx
  000a8	83 c4 14	 add	 esp, 20			; 00000014H
  000ab	c2 08 00	 ret	 8
$L150728:

; 267  : 	m_strFileName = lpszFileName;

  000ae	3b f3		 cmp	 esi, ebx
  000b0	8d 8f 3c 0c 00
	00		 lea	 ecx, DWORD PTR [edi+3132]
  000b6	75 04		 jne	 SHORT $L153215
  000b8	33 c0		 xor	 eax, eax
  000ba	eb 13		 jmp	 SHORT $L153214
$L153215:
  000bc	8b c6		 mov	 eax, esi
  000be	8d 68 01	 lea	 ebp, DWORD PTR [eax+1]
$L153250:
  000c1	8a 10		 mov	 dl, BYTE PTR [eax]
  000c3	40		 inc	 eax
  000c4	3a d3		 cmp	 dl, bl
  000c6	75 f9		 jne	 SHORT $L153250
  000c8	2b c5		 sub	 eax, ebp
  000ca	bd 00 00 00 00	 mov	 ebp, OFFSET FLAT:??_7CFileIO@@6B@
$L153214:
  000cf	50		 push	 eax
  000d0	56		 push	 esi
  000d1	e8 00 00 00 00	 call	 ?SetString@?$CSimpleStringT@D$0A@@ATL@@QAEXPBDH@Z ; ATL::CSimpleStringT<char,0>::SetString

; 268  : 	return Read( &file, bMultiByte );

  000d6	8b 44 24 2c	 mov	 eax, DWORD PTR _bMultiByte$[esp+32]
  000da	50		 push	 eax
  000db	8d 4c 24 14	 lea	 ecx, DWORD PTR _file$[esp+40]
  000df	51		 push	 ecx
  000e0	8b cf		 mov	 ecx, edi
  000e2	e8 00 00 00 00	 call	 ?Read@CScanner@@IAEHPAVCFileIO@@H@Z ; CScanner::Read
  000e7	8b f0		 mov	 esi, eax
  000e9	8b 44 24 28	 mov	 eax, DWORD PTR _fileName$[esp+32]
  000ed	83 c0 f0	 add	 eax, -16		; fffffff0H
  000f0	88 5c 24 20	 mov	 BYTE PTR __$EHRec$[esp+44], bl
  000f4	8d 50 0c	 lea	 edx, DWORD PTR [eax+12]
  000f7	83 c9 ff	 or	 ecx, -1
  000fa	f0 0f c1 0a	 lock	  xadd	 DWORD PTR [edx], ecx
  000fe	49		 dec	 ecx
  000ff	85 c9		 test	 ecx, ecx
  00101	7f 08		 jg	 SHORT $L153241
  00103	8b 08		 mov	 ecx, DWORD PTR [eax]
  00105	8b 11		 mov	 edx, DWORD PTR [ecx]
  00107	50		 push	 eax
  00108	ff 52 04	 call	 DWORD PTR [edx+4]
$L153241:
  0010b	8d 4c 24 10	 lea	 ecx, DWORD PTR _file$[esp+36]
  0010f	c7 44 24 20 ff
	ff ff ff	 mov	 DWORD PTR __$EHRec$[esp+44], -1
  00117	89 6c 24 10	 mov	 DWORD PTR _file$[esp+36], ebp
  0011b	e8 00 00 00 00	 call	 ?Close@CFileIO@@UAEHXZ	; CFileIO::Close

; 269  : }

  00120	8b 4c 24 18	 mov	 ecx, DWORD PTR __$EHRec$[esp+36]
  00124	5f		 pop	 edi
  00125	8b c6		 mov	 eax, esi
  00127	5e		 pop	 esi
  00128	5d		 pop	 ebp
  00129	5b		 pop	 ebx
  0012a	64 89 0d 00 00
	00 00		 mov	 DWORD PTR fs:__except_list, ecx
  00131	83 c4 14	 add	 esp, 20			; 00000014H
  00134	c2 08 00	 ret	 8
_TEXT	ENDS
;	COMDAT text$x
text$x	SEGMENT
$L153153:
  00000	8d 4d ec	 lea	 ecx, DWORD PTR _file$[ebp]
  00003	e9 00 00 00 00	 jmp	 ??1CFileIO@@UAE@XZ	; CFileIO::~CFileIO
$L153154:
  00008	8d 4d 04	 lea	 ecx, DWORD PTR _fileName$[ebp-4]
  0000b	e9 00 00 00 00	 jmp	 ??1?$CStringT@DV?$StrTraitMFC@DV?$ChTraitsCRT@D@ATL@@@@@ATL@@QAE@XZ ; ATL::CStringT<char,StrTraitMFC<char,ATL::ChTraitsCRT<char> > >::~CStringT<char,StrTraitMFC<char,ATL::ChTraitsCRT<char> > >
__ehhandler$?Load_FileIO@CScanner@@QAEHPBDH@Z:
  00010	b8 00 00 00 00	 mov	 eax, OFFSET FLAT:$T153249
  00015	e9 00 00 00 00	 jmp	 ___CxxFrameHandler
text$x	ENDS
?Load_FileIO@CScanner@@QAEHPBDH@Z ENDP			; CScanner::Load_FileIO
END
