; Listing generated by Microsoft (R) Optimizing Compiler Version 13.10.3077 

	TITLE	\Offi SRC_real\Offi src!\_Network\Net\Src\serversocke.cpp
	.386P
include listing.inc
if @Version gt 510
.model FLAT
else
_TEXT	SEGMENT PARA USE32 PUBLIC 'CODE'
_TEXT	ENDS
_DATA	SEGMENT DWORD USE32 PUBLIC 'DATA'
_DATA	ENDS
CONST	SEGMENT DWORD USE32 PUBLIC 'CONST'
CONST	ENDS
_BSS	SEGMENT DWORD USE32 PUBLIC 'BSS'
_BSS	ENDS
$$SYMBOLS	SEGMENT BYTE USE32 'DEBSYM'
$$SYMBOLS	ENDS
$$TYPES	SEGMENT BYTE USE32 'DEBTYP'
$$TYPES	ENDS
_TLS	SEGMENT DWORD USE32 PUBLIC 'TLS'
_TLS	ENDS
;	COMDAT ??_C@_0M@PCENNPGA@?$CFd?4?$CFd?4?$CFd?4?$CFd?$AA@
CONST	SEGMENT DWORD USE32 PUBLIC 'CONST'
CONST	ENDS
;	COMDAT ??_C@_09PKKCPLIP@bad?5alloc?$AA@
CONST	SEGMENT DWORD USE32 PUBLIC 'CONST'
CONST	ENDS
;	COMDAT ??_C@_0BB@MOGOBHAF@list?$DMT?$DO?5too?5long?$AA@
CONST	SEGMENT DWORD USE32 PUBLIC 'CONST'
CONST	ENDS
;	COMDAT ??_C@_0CB@EHMHDGIK@?4?4?2_network?2misc?2include?2mymap?4h@
CONST	SEGMENT DWORD USE32 PUBLIC 'CONST'
CONST	ENDS
;	COMDAT ??_C@_06OJLEAOEG@?$CFs?0?5?$CFd?$AA@
CONST	SEGMENT DWORD USE32 PUBLIC 'CONST'
CONST	ENDS
;	COMDAT ??_C@_09ICHMLBIJ@mymap?4txt?$AA@
CONST	SEGMENT DWORD USE32 PUBLIC 'CONST'
CONST	ENDS
;	COMDAT ??_C@_0BC@KBDMBKEH@deque?$DMT?$DO?5too?5long?$AA@
CONST	SEGMENT DWORD USE32 PUBLIC 'CONST'
CONST	ENDS
xdata$x	SEGMENT DWORD USE32 PUBLIC 'CONST'
xdata$x	ENDS
;	COMDAT ?GetPeerAddr@CSock@@UAEKK@Z
_TEXT	SEGMENT PARA USE32 PUBLIC 'CODE'
_TEXT	ENDS
;	COMDAT ?GetHandle@CSock@@QAEIXZ
_TEXT	SEGMENT PARA USE32 PUBLIC 'CODE'
_TEXT	ENDS
;	COMDAT ?SetID@CSock@@QAEXK@Z
_TEXT	SEGMENT PARA USE32 PUBLIC 'CODE'
_TEXT	ENDS
;	COMDAT ?SetPeerID@CSock@@QAEXK@Z
_TEXT	SEGMENT PARA USE32 PUBLIC 'CODE'
_TEXT	ENDS
;	COMDAT ?GetPacketSize@CBuffer2@@UAEKPAE@Z
_TEXT	SEGMENT PARA USE32 PUBLIC 'CODE'
_TEXT	ENDS
;	COMDAT ?SetHeader@CBuffer2@@UAEXK@Z
_TEXT	SEGMENT PARA USE32 PUBLIC 'CODE'
_TEXT	ENDS
;	COMDAT ??3CBuffer2@@SAXPAX@Z
_TEXT	SEGMENT PARA USE32 PUBLIC 'CODE'
_TEXT	ENDS
;	COMDAT ??_GCBuffer2@@UAEPAXI@Z
_TEXT	SEGMENT PARA USE32 PUBLIC 'CODE'
_TEXT	ENDS
;	COMDAT ??1CBuffer2@@UAE@XZ
_TEXT	SEGMENT PARA USE32 PUBLIC 'CODE'
_TEXT	ENDS
;	COMDAT ?IsEmpty@CBufferQueue@@QAEHXZ
_TEXT	SEGMENT PARA USE32 PUBLIC 'CODE'
_TEXT	ENDS
;	COMDAT ??2CClientSockE@@SAPAXI@Z
_TEXT	SEGMENT PARA USE32 PUBLIC 'CODE'
_TEXT	ENDS
;	COMDAT ??3CClientSockE@@SAXPAX@Z
_TEXT	SEGMENT PARA USE32 PUBLIC 'CODE'
_TEXT	ENDS
;	COMDAT ?GetListenHandle@CServerSockE@@QAEPAXXZ
_TEXT	SEGMENT PARA USE32 PUBLIC 'CODE'
_TEXT	ENDS
;	COMDAT ?GetCloseHandle@CServerSockE@@QAEPAXXZ
_TEXT	SEGMENT PARA USE32 PUBLIC 'CODE'
_TEXT	ENDS
;	COMDAT ?Get@CServerSockE@@UAEPAVCSock@@I@Z
_TEXT	SEGMENT PARA USE32 PUBLIC 'CODE'
_TEXT	ENDS
;	COMDAT ??0CServerSockE@@QAE@W4BUFFER_TYPE@@@Z
_TEXT	SEGMENT PARA USE32 PUBLIC 'CODE'
_TEXT	ENDS
;	COMDAT ??_GCServerSockE@@UAEPAXI@Z
_TEXT	SEGMENT PARA USE32 PUBLIC 'CODE'
_TEXT	ENDS
;	COMDAT ??1CServerSockE@@UAE@XZ
_TEXT	SEGMENT PARA USE32 PUBLIC 'CODE'
_TEXT	ENDS
;	COMDAT ?Listen@CServerSockE@@QAEHXZ
_TEXT	SEGMENT PARA USE32 PUBLIC 'CODE'
_TEXT	ENDS
;	COMDAT ?StartServer@CServerSockE@@QAEHPAVCDPSock@@@Z
_TEXT	SEGMENT PARA USE32 PUBLIC 'CODE'
_TEXT	ENDS
;	COMDAT ?Close@CServerSockE@@UAEXXZ
_TEXT	SEGMENT PARA USE32 PUBLIC 'CODE'
_TEXT	ENDS
;	COMDAT ?AddChild@CServerSockE@@QAEPAVCClientSockE@@I@Z
_TEXT	SEGMENT PARA USE32 PUBLIC 'CODE'
_TEXT	ENDS
;	COMDAT ?CloseChild@CServerSockE@@QAEHI@Z
_TEXT	SEGMENT PARA USE32 PUBLIC 'CODE'
_TEXT	ENDS
;	COMDAT ?CloseAllChild@CServerSockE@@QAEXXZ
_TEXT	SEGMENT PARA USE32 PUBLIC 'CODE'
_TEXT	ENDS
;	COMDAT ?Send@CServerSockE@@UAEXPADKK@Z
_TEXT	SEGMENT PARA USE32 PUBLIC 'CODE'
_TEXT	ENDS
;	COMDAT ?CloseConnection@CServerSockE@@UAEHI@Z
_TEXT	SEGMENT PARA USE32 PUBLIC 'CODE'
_TEXT	ENDS
;	COMDAT ?Shutdown@CServerSockE@@UAEHI@Z
_TEXT	SEGMENT PARA USE32 PUBLIC 'CODE'
_TEXT	ENDS
;	COMDAT ?GetPeerAddr@CServerSockE@@UAEJKPAXPAK@Z
_TEXT	SEGMENT PARA USE32 PUBLIC 'CODE'
_TEXT	ENDS
;	COMDAT ?ListenThreadE@@YGIPAX@Z
_TEXT	SEGMENT PARA USE32 PUBLIC 'CODE'
_TEXT	ENDS
;	COMDAT ?Alloc@?$MemPooler@VCBuffer@@@@QAEPAVCBuffer@@XZ
_TEXT	SEGMENT PARA USE32 PUBLIC 'CODE'
_TEXT	ENDS
;	COMDAT ?Free@?$MemPooler@VCBuffer@@@@QAEHPAVCBuffer@@@Z
_TEXT	SEGMENT PARA USE32 PUBLIC 'CODE'
_TEXT	ENDS
;	COMDAT ?Alloc@?$MemPooler@VCBuffer2@@@@QAEPAVCBuffer2@@XZ
_TEXT	SEGMENT PARA USE32 PUBLIC 'CODE'
_TEXT	ENDS
;	COMDAT ?Free@?$MemPooler@VCBuffer2@@@@QAEHPAVCBuffer2@@@Z
_TEXT	SEGMENT PARA USE32 PUBLIC 'CODE'
_TEXT	ENDS
;	COMDAT ?Alloc@?$MemPooler@VCClientSock@@@@QAEPAVCClientSock@@XZ
_TEXT	SEGMENT PARA USE32 PUBLIC 'CODE'
_TEXT	ENDS
;	COMDAT ?Free@?$MemPooler@VCClientSock@@@@QAEHPAVCClientSock@@@Z
_TEXT	SEGMENT PARA USE32 PUBLIC 'CODE'
_TEXT	ENDS
;	COMDAT ?Alloc@?$MemPooler@VCClientSockE@@@@QAEPAVCClientSockE@@XZ
_TEXT	SEGMENT PARA USE32 PUBLIC 'CODE'
_TEXT	ENDS
;	COMDAT ?Free@?$MemPooler@VCClientSockE@@@@QAEHPAVCClientSockE@@@Z
_TEXT	SEGMENT PARA USE32 PUBLIC 'CODE'
_TEXT	ENDS
;	COMDAT ?Create@?$MemPooler@VCBuffer@@@@IAEXXZ
_TEXT	SEGMENT PARA USE32 PUBLIC 'CODE'
_TEXT	ENDS
;	COMDAT ?Create@?$MemPooler@VCBuffer2@@@@IAEXXZ
_TEXT	SEGMENT PARA USE32 PUBLIC 'CODE'
_TEXT	ENDS
;	COMDAT ?Create@?$MemPooler@VCClientSock@@@@IAEXXZ
_TEXT	SEGMENT PARA USE32 PUBLIC 'CODE'
_TEXT	ENDS
;	COMDAT ?Create@?$MemPooler@VCClientSockE@@@@IAEXXZ
_TEXT	SEGMENT PARA USE32 PUBLIC 'CODE'
_TEXT	ENDS
;	COMDAT ?push_back@?$list@PAXV?$allocator@PAX@std@@@std@@QAEXABQAX@Z
_TEXT	SEGMENT PARA USE32 PUBLIC 'CODE'
_TEXT	ENDS
;	COMDAT ?end@?$list@PAXV?$allocator@PAX@std@@@std@@QAE?AViterator@12@XZ
_TEXT	SEGMENT PARA USE32 PUBLIC 'CODE'
_TEXT	ENDS
;	COMDAT ?_Insert@?$list@PAXV?$allocator@PAX@std@@@std@@QAEXViterator@12@ABQAX@Z
_TEXT	SEGMENT PARA USE32 PUBLIC 'CODE'
_TEXT	ENDS
;	COMDAT ?_Nextnode@?$list@PAXV?$allocator@PAX@std@@@std@@KAAAPAU_Node@?$_List_nod@PAXV?$allocator@PAX@std@@@2@PAU342@@Z
_TEXT	SEGMENT PARA USE32 PUBLIC 'CODE'
_TEXT	ENDS
;	COMDAT ?_Prevnode@?$list@PAXV?$allocator@PAX@std@@@std@@KAAAPAU_Node@?$_List_nod@PAXV?$allocator@PAX@std@@@2@PAU342@@Z
_TEXT	SEGMENT PARA USE32 PUBLIC 'CODE'
_TEXT	ENDS
;	COMDAT ?_Buynode@?$list@PAXV?$allocator@PAX@std@@@std@@IAEPAU_Node@?$_List_nod@PAXV?$allocator@PAX@std@@@2@PAU342@0ABQAX@Z
_TEXT	SEGMENT PARA USE32 PUBLIC 'CODE'
_TEXT	ENDS
;	COMDAT ?_Incsize@?$list@PAXV?$allocator@PAX@std@@@std@@IAEXI@Z
_TEXT	SEGMENT PARA USE32 PUBLIC 'CODE'
_TEXT	ENDS
;	COMDAT ??0iterator@?$list@PAXV?$allocator@PAX@std@@@std@@QAE@PAU_Node@?$_List_nod@PAXV?$allocator@PAX@std@@@2@@Z
_TEXT	SEGMENT PARA USE32 PUBLIC 'CODE'
_TEXT	ENDS
;	COMDAT ?_Mynode@const_iterator@?$list@PAXV?$allocator@PAX@std@@@std@@QBEPAU_Node@?$_List_nod@PAXV?$allocator@PAX@std@@@3@XZ
_TEXT	SEGMENT PARA USE32 PUBLIC 'CODE'
_TEXT	ENDS
;	COMDAT ??0length_error@std@@QAE@ABV01@@Z
_TEXT	SEGMENT PARA USE32 PUBLIC 'CODE'
_TEXT	ENDS
;	COMDAT ??0logic_error@std@@QAE@ABV01@@Z
_TEXT	SEGMENT PARA USE32 PUBLIC 'CODE'
_TEXT	ENDS
;	COMDAT ??0?$basic_string@DU?$char_traits@D@std@@V?$allocator@D@2@@std@@QAE@PBD@Z
_TEXT	SEGMENT PARA USE32 PUBLIC 'CODE'
_TEXT	ENDS
;	COMDAT ?max_size@?$list@PAXV?$allocator@PAX@std@@@std@@QBEIXZ
_TEXT	SEGMENT PARA USE32 PUBLIC 'CODE'
_TEXT	ENDS
;	COMDAT ?deallocate@?$allocator@U_Node@?$_List_nod@PAXV?$allocator@PAX@std@@@std@@@std@@QAEXPAU_Node@?$_List_nod@PAXV?$allocator@PAX@std@@@2@I@Z
_TEXT	SEGMENT PARA USE32 PUBLIC 'CODE'
_TEXT	ENDS
;	COMDAT ?allocate@?$allocator@U_Node@?$_List_nod@PAXV?$allocator@PAX@std@@@std@@@std@@QAEPAU_Node@?$_List_nod@PAXV?$allocator@PAX@std@@@2@I@Z
_TEXT	SEGMENT PARA USE32 PUBLIC 'CODE'
_TEXT	ENDS
;	COMDAT ??0const_iterator@?$list@PAXV?$allocator@PAX@std@@@std@@QAE@PAU_Node@?$_List_nod@PAXV?$allocator@PAX@std@@@2@@Z
_TEXT	SEGMENT PARA USE32 PUBLIC 'CODE'
_TEXT	ENDS
;	COMDAT ??0_Node@?$_List_nod@PAXV?$allocator@PAX@std@@@std@@QAE@PAU012@0ABQAX@Z
_TEXT	SEGMENT PARA USE32 PUBLIC 'CODE'
_TEXT	ENDS
;	COMDAT ??0?$allocator@D@std@@QAE@XZ
_TEXT	SEGMENT PARA USE32 PUBLIC 'CODE'
_TEXT	ENDS
;	COMDAT ?max_size@?$allocator@PAX@std@@QBEIXZ
_TEXT	SEGMENT PARA USE32 PUBLIC 'CODE'
_TEXT	ENDS
;	COMDAT ??1?$CMyPool@V?$CMyBucket@PAVCClientSock@@@@@@UAE@XZ
_TEXT	SEGMENT PARA USE32 PUBLIC 'CODE'
_TEXT	ENDS
;	COMDAT ??1?$CMyMap@PAVCClientSock@@@@UAE@XZ
_TEXT	SEGMENT PARA USE32 PUBLIC 'CODE'
_TEXT	ENDS
;	COMDAT ?Lookup@?$CMyMap@PAVCClientSock@@@@QAEHKAAPAVCClientSock@@@Z
_TEXT	SEGMENT PARA USE32 PUBLIC 'CODE'
_TEXT	ENDS
;	COMDAT ??1?$CMyPool@V?$CMyBucket@PAVCClientSockE@@@@@@UAE@XZ
_TEXT	SEGMENT PARA USE32 PUBLIC 'CODE'
_TEXT	ENDS
;	COMDAT ??0?$CMyMap@PAVCClientSockE@@@@QAE@XZ
_TEXT	SEGMENT PARA USE32 PUBLIC 'CODE'
_TEXT	ENDS
;	COMDAT ??1?$CMyMap@PAVCClientSockE@@@@UAE@XZ
_TEXT	SEGMENT PARA USE32 PUBLIC 'CODE'
_TEXT	ENDS
;	COMDAT ?SetSize@?$CMyMap@PAVCClientSockE@@@@QAEXIII@Z
_TEXT	SEGMENT PARA USE32 PUBLIC 'CODE'
_TEXT	ENDS
;	COMDAT ?Lookup@?$CMyMap@PAVCClientSockE@@@@QAEHKAAPAVCClientSockE@@@Z
_TEXT	SEGMENT PARA USE32 PUBLIC 'CODE'
_TEXT	ENDS
;	COMDAT ?SetAt@?$CMyMap@PAVCClientSockE@@@@QAEXKABQAVCClientSockE@@@Z
_TEXT	SEGMENT PARA USE32 PUBLIC 'CODE'
_TEXT	ENDS
;	COMDAT ?RemoveAll@?$CMyMap@PAVCClientSockE@@@@QAEXXZ
_TEXT	SEGMENT PARA USE32 PUBLIC 'CODE'
_TEXT	ENDS
;	COMDAT ?RemoveKey@?$CMyMap@PAVCClientSockE@@@@QAEHK@Z
_TEXT	SEGMENT PARA USE32 PUBLIC 'CODE'
_TEXT	ENDS
;	COMDAT ?GetFirstActive@?$CMyMap@PAVCClientSockE@@@@QAEPAV?$CMyBucket@PAVCClientSockE@@@@XZ
_TEXT	SEGMENT PARA USE32 PUBLIC 'CODE'
_TEXT	ENDS
;	COMDAT ?Lock@?$CMyMap@PAVCClientSockE@@@@QAEXXZ
_TEXT	SEGMENT PARA USE32 PUBLIC 'CODE'
_TEXT	ENDS
;	COMDAT ?Unlock@?$CMyMap@PAVCClientSockE@@@@QAEXXZ
_TEXT	SEGMENT PARA USE32 PUBLIC 'CODE'
_TEXT	ENDS
;	COMDAT ??1?$CMyBucket@PAVCClientSockE@@@@UAE@XZ
_TEXT	SEGMENT PARA USE32 PUBLIC 'CODE'
_TEXT	ENDS
;	COMDAT ??$_Allocate@U_Node@?$_List_nod@PAXV?$allocator@PAX@std@@@std@@@std@@YAPAU_Node@?$_List_nod@PAXV?$allocator@PAX@std@@@0@IPAU120@@Z
_TEXT	SEGMENT PARA USE32 PUBLIC 'CODE'
_TEXT	ENDS
;	COMDAT ??_G?$CMyPool@V?$CMyBucket@PAVCClientSock@@@@@@UAEPAXI@Z
_TEXT	SEGMENT PARA USE32 PUBLIC 'CODE'
_TEXT	ENDS
;	COMDAT ??1?$stack@PAV?$CMyBucket@PAVCClientSock@@@@V?$deque@PAV?$CMyBucket@PAVCClientSock@@@@V?$allocator@PAV?$CMyBucket@PAVCClientSock@@@@@std@@@std@@@std@@QAE@XZ
_TEXT	SEGMENT PARA USE32 PUBLIC 'CODE'
_TEXT	ENDS
;	COMDAT ??_G?$CMyMap@PAVCClientSock@@@@UAEPAXI@Z
_TEXT	SEGMENT PARA USE32 PUBLIC 'CODE'
_TEXT	ENDS
;	COMDAT ??_G?$CMyPool@V?$CMyBucket@PAVCClientSockE@@@@@@UAEPAXI@Z
_TEXT	SEGMENT PARA USE32 PUBLIC 'CODE'
_TEXT	ENDS
;	COMDAT ??1?$stack@PAV?$CMyBucket@PAVCClientSockE@@@@V?$deque@PAV?$CMyBucket@PAVCClientSockE@@@@V?$allocator@PAV?$CMyBucket@PAVCClientSockE@@@@@std@@@std@@@std@@QAE@XZ
_TEXT	SEGMENT PARA USE32 PUBLIC 'CODE'
_TEXT	ENDS
;	COMDAT ??_G?$CMyMap@PAVCClientSockE@@@@UAEPAXI@Z
_TEXT	SEGMENT PARA USE32 PUBLIC 'CODE'
_TEXT	ENDS
;	COMDAT ??_E?$CMyBucket@PAVCClientSockE@@@@UAEPAXI@Z
_TEXT	SEGMENT PARA USE32 PUBLIC 'CODE'
_TEXT	ENDS
;	COMDAT ??_G?$CMyBucket@PAVCClientSockE@@@@UAEPAXI@Z
_TEXT	SEGMENT PARA USE32 PUBLIC 'CODE'
_TEXT	ENDS
;	COMDAT ??1?$deque@PAV?$CMyBucket@PAVCClientSock@@@@V?$allocator@PAV?$CMyBucket@PAVCClientSock@@@@@std@@@std@@QAE@XZ
_TEXT	SEGMENT PARA USE32 PUBLIC 'CODE'
_TEXT	ENDS
;	COMDAT ??1?$list@PAV?$CMyBucket@PAVCClientSock@@@@V?$allocator@PAV?$CMyBucket@PAVCClientSock@@@@@std@@@std@@QAE@XZ
_TEXT	SEGMENT PARA USE32 PUBLIC 'CODE'
_TEXT	ENDS
;	COMDAT ??1?$deque@PAV?$CMyBucket@PAVCClientSockE@@@@V?$allocator@PAV?$CMyBucket@PAVCClientSockE@@@@@std@@@std@@QAE@XZ
_TEXT	SEGMENT PARA USE32 PUBLIC 'CODE'
_TEXT	ENDS
;	COMDAT ??1?$list@PAV?$CMyBucket@PAVCClientSockE@@@@V?$allocator@PAV?$CMyBucket@PAVCClientSockE@@@@@std@@@std@@QAE@XZ
_TEXT	SEGMENT PARA USE32 PUBLIC 'CODE'
_TEXT	ENDS
;	COMDAT ?_Tidy@?$deque@PAV?$CMyBucket@PAVCClientSock@@@@V?$allocator@PAV?$CMyBucket@PAVCClientSock@@@@@std@@@std@@IAEXXZ
_TEXT	SEGMENT PARA USE32 PUBLIC 'CODE'
_TEXT	ENDS
;	COMDAT ?_Tidy@?$list@PAV?$CMyBucket@PAVCClientSock@@@@V?$allocator@PAV?$CMyBucket@PAVCClientSock@@@@@std@@@std@@IAEXXZ
_TEXT	SEGMENT PARA USE32 PUBLIC 'CODE'
_TEXT	ENDS
;	COMDAT ?_Tidy@?$deque@PAV?$CMyBucket@PAVCClientSockE@@@@V?$allocator@PAV?$CMyBucket@PAVCClientSockE@@@@@std@@@std@@IAEXXZ
_TEXT	SEGMENT PARA USE32 PUBLIC 'CODE'
_TEXT	ENDS
;	COMDAT ?_Tidy@?$list@PAV?$CMyBucket@PAVCClientSockE@@@@V?$allocator@PAV?$CMyBucket@PAVCClientSockE@@@@@std@@@std@@IAEXXZ
_TEXT	SEGMENT PARA USE32 PUBLIC 'CODE'
_TEXT	ENDS
;	COMDAT ?empty@?$deque@PAV?$CMyBucket@PAVCClientSock@@@@V?$allocator@PAV?$CMyBucket@PAVCClientSock@@@@@std@@@std@@QBE_NXZ
_TEXT	SEGMENT PARA USE32 PUBLIC 'CODE'
_TEXT	ENDS
;	COMDAT ?pop_back@?$deque@PAV?$CMyBucket@PAVCClientSock@@@@V?$allocator@PAV?$CMyBucket@PAVCClientSock@@@@@std@@@std@@QAEXXZ
_TEXT	SEGMENT PARA USE32 PUBLIC 'CODE'
_TEXT	ENDS
;	COMDAT ?deallocate@?$allocator@PAV?$CMyBucket@PAVCClientSock@@@@@std@@QAEXPAPAV?$CMyBucket@PAVCClientSock@@@@I@Z
_TEXT	SEGMENT PARA USE32 PUBLIC 'CODE'
_TEXT	ENDS
;	COMDAT ?deallocate@?$allocator@PAPAV?$CMyBucket@PAVCClientSock@@@@@std@@QAEXPAPAPAV?$CMyBucket@PAVCClientSock@@@@I@Z
_TEXT	SEGMENT PARA USE32 PUBLIC 'CODE'
_TEXT	ENDS
;	COMDAT ?destroy@?$allocator@PAPAV?$CMyBucket@PAVCClientSock@@@@@std@@QAEXPAPAPAV?$CMyBucket@PAVCClientSock@@@@@Z
_TEXT	SEGMENT PARA USE32 PUBLIC 'CODE'
_TEXT	ENDS
;	COMDAT ?_Nextnode@?$list@PAV?$CMyBucket@PAVCClientSock@@@@V?$allocator@PAV?$CMyBucket@PAVCClientSock@@@@@std@@@std@@KAAAPAU_Node@?$_List_nod@PAV?$CMyBucket@PAVCClientSock@@@@V?$allocator@PAV?$CMyBucket@PAVCClientSock@@@@@std@@@2@PAU342@@Z
_TEXT	SEGMENT PARA USE32 PUBLIC 'CODE'
_TEXT	ENDS
;	COMDAT ?_Prevnode@?$list@PAV?$CMyBucket@PAVCClientSock@@@@V?$allocator@PAV?$CMyBucket@PAVCClientSock@@@@@std@@@std@@KAAAPAU_Node@?$_List_nod@PAV?$CMyBucket@PAVCClientSock@@@@V?$allocator@PAV?$CMyBucket@PAVCClientSock@@@@@std@@@2@PAU342@@Z
_TEXT	SEGMENT PARA USE32 PUBLIC 'CODE'
_TEXT	ENDS
;	COMDAT ?clear@?$list@PAV?$CMyBucket@PAVCClientSock@@@@V?$allocator@PAV?$CMyBucket@PAVCClientSock@@@@@std@@@std@@QAEXXZ
_TEXT	SEGMENT PARA USE32 PUBLIC 'CODE'
_TEXT	ENDS
;	COMDAT ?deallocate@?$allocator@U_Node@?$_List_nod@PAV?$CMyBucket@PAVCClientSock@@@@V?$allocator@PAV?$CMyBucket@PAVCClientSock@@@@@std@@@std@@@std@@QAEXPAU_Node@?$_List_nod@PAV?$CMyBucket@PAVCClientSock@@@@V?$allocator@PAV?$CMyBucket@PAVCClientSock@@@@@std@@@2@I@Z
_TEXT	SEGMENT PARA USE32 PUBLIC 'CODE'
_TEXT	ENDS
;	COMDAT ?destroy@?$allocator@PAU_Node@?$_List_nod@PAV?$CMyBucket@PAVCClientSock@@@@V?$allocator@PAV?$CMyBucket@PAVCClientSock@@@@@std@@@std@@@std@@QAEXPAPAU_Node@?$_List_nod@PAV?$CMyBucket@PAVCClientSock@@@@V?$allocator@PAV?$CMyBucket@PAVCClientSock@@@@@std@@@2@@Z
_TEXT	SEGMENT PARA USE32 PUBLIC 'CODE'
_TEXT	ENDS
;	COMDAT ?empty@?$deque@PAV?$CMyBucket@PAVCClientSockE@@@@V?$allocator@PAV?$CMyBucket@PAVCClientSockE@@@@@std@@@std@@QBE_NXZ
_TEXT	SEGMENT PARA USE32 PUBLIC 'CODE'
_TEXT	ENDS
;	COMDAT ?pop_back@?$deque@PAV?$CMyBucket@PAVCClientSockE@@@@V?$allocator@PAV?$CMyBucket@PAVCClientSockE@@@@@std@@@std@@QAEXXZ
_TEXT	SEGMENT PARA USE32 PUBLIC 'CODE'
_TEXT	ENDS
;	COMDAT ?deallocate@?$allocator@PAV?$CMyBucket@PAVCClientSockE@@@@@std@@QAEXPAPAV?$CMyBucket@PAVCClientSockE@@@@I@Z
_TEXT	SEGMENT PARA USE32 PUBLIC 'CODE'
_TEXT	ENDS
;	COMDAT ?deallocate@?$allocator@PAPAV?$CMyBucket@PAVCClientSockE@@@@@std@@QAEXPAPAPAV?$CMyBucket@PAVCClientSockE@@@@I@Z
_TEXT	SEGMENT PARA USE32 PUBLIC 'CODE'
_TEXT	ENDS
;	COMDAT ?destroy@?$allocator@PAPAV?$CMyBucket@PAVCClientSockE@@@@@std@@QAEXPAPAPAV?$CMyBucket@PAVCClientSockE@@@@@Z
_TEXT	SEGMENT PARA USE32 PUBLIC 'CODE'
_TEXT	ENDS
;	COMDAT ?_Nextnode@?$list@PAV?$CMyBucket@PAVCClientSockE@@@@V?$allocator@PAV?$CMyBucket@PAVCClientSockE@@@@@std@@@std@@KAAAPAU_Node@?$_List_nod@PAV?$CMyBucket@PAVCClientSockE@@@@V?$allocator@PAV?$CMyBucket@PAVCClientSockE@@@@@std@@@2@PAU342@@Z
_TEXT	SEGMENT PARA USE32 PUBLIC 'CODE'
_TEXT	ENDS
;	COMDAT ?_Prevnode@?$list@PAV?$CMyBucket@PAVCClientSockE@@@@V?$allocator@PAV?$CMyBucket@PAVCClientSockE@@@@@std@@@std@@KAAAPAU_Node@?$_List_nod@PAV?$CMyBucket@PAVCClientSockE@@@@V?$allocator@PAV?$CMyBucket@PAVCClientSockE@@@@@std@@@2@PAU342@@Z
_TEXT	SEGMENT PARA USE32 PUBLIC 'CODE'
_TEXT	ENDS
;	COMDAT ?clear@?$list@PAV?$CMyBucket@PAVCClientSockE@@@@V?$allocator@PAV?$CMyBucket@PAVCClientSockE@@@@@std@@@std@@QAEXXZ
_TEXT	SEGMENT PARA USE32 PUBLIC 'CODE'
_TEXT	ENDS
;	COMDAT ?deallocate@?$allocator@U_Node@?$_List_nod@PAV?$CMyBucket@PAVCClientSockE@@@@V?$allocator@PAV?$CMyBucket@PAVCClientSockE@@@@@std@@@std@@@std@@QAEXPAU_Node@?$_List_nod@PAV?$CMyBucket@PAVCClientSockE@@@@V?$allocator@PAV?$CMyBucket@PAVCClientSockE@@@@@std@@@2@I@Z
_TEXT	SEGMENT PARA USE32 PUBLIC 'CODE'
_TEXT	ENDS
;	COMDAT ?destroy@?$allocator@PAU_Node@?$_List_nod@PAV?$CMyBucket@PAVCClientSockE@@@@V?$allocator@PAV?$CMyBucket@PAVCClientSockE@@@@@std@@@std@@@std@@QAEXPAPAU_Node@?$_List_nod@PAV?$CMyBucket@PAVCClientSockE@@@@V?$allocator@PAV?$CMyBucket@PAVCClientSockE@@@@@std@@@2@@Z
_TEXT	SEGMENT PARA USE32 PUBLIC 'CODE'
_TEXT	ENDS
;	COMDAT ?destroy@?$allocator@PAV?$CMyBucket@PAVCClientSock@@@@@std@@QAEXPAPAV?$CMyBucket@PAVCClientSock@@@@@Z
_TEXT	SEGMENT PARA USE32 PUBLIC 'CODE'
_TEXT	ENDS
;	COMDAT ?destroy@?$allocator@U_Node@?$_List_nod@PAV?$CMyBucket@PAVCClientSock@@@@V?$allocator@PAV?$CMyBucket@PAVCClientSock@@@@@std@@@std@@@std@@QAEXPAU_Node@?$_List_nod@PAV?$CMyBucket@PAVCClientSock@@@@V?$allocator@PAV?$CMyBucket@PAVCClientSock@@@@@std@@@2@@Z
_TEXT	SEGMENT PARA USE32 PUBLIC 'CODE'
_TEXT	ENDS
;	COMDAT ?destroy@?$allocator@PAV?$CMyBucket@PAVCClientSockE@@@@@std@@QAEXPAPAV?$CMyBucket@PAVCClientSockE@@@@@Z
_TEXT	SEGMENT PARA USE32 PUBLIC 'CODE'
_TEXT	ENDS
;	COMDAT ?destroy@?$allocator@U_Node@?$_List_nod@PAV?$CMyBucket@PAVCClientSockE@@@@V?$allocator@PAV?$CMyBucket@PAVCClientSockE@@@@@std@@@std@@@std@@QAEXPAU_Node@?$_List_nod@PAV?$CMyBucket@PAVCClientSockE@@@@V?$allocator@PAV?$CMyBucket@PAVCClientSockE@@@@@std@@@2@@Z
_TEXT	SEGMENT PARA USE32 PUBLIC 'CODE'
_TEXT	ENDS
;	COMDAT ?Clear@?$CMyPool@V?$CMyBucket@PAVCClientSock@@@@@@QAEXXZ
_TEXT	SEGMENT PARA USE32 PUBLIC 'CODE'
_TEXT	ENDS
;	COMDAT ??1?$CMyBucket@PAVCClientSock@@@@UAE@XZ
_TEXT	SEGMENT PARA USE32 PUBLIC 'CODE'
_TEXT	ENDS
;	COMDAT ?IsEqual@?$CMyBucket@PAVCClientSock@@@@QAEHK@Z
_TEXT	SEGMENT PARA USE32 PUBLIC 'CODE'
_TEXT	ENDS
;	COMDAT ??0?$CMyPool@V?$CMyBucket@PAVCClientSockE@@@@@@QAE@XZ
_TEXT	SEGMENT PARA USE32 PUBLIC 'CODE'
_TEXT	ENDS
;	COMDAT ?Clear@?$CMyPool@V?$CMyBucket@PAVCClientSockE@@@@@@QAEXXZ
_TEXT	SEGMENT PARA USE32 PUBLIC 'CODE'
_TEXT	ENDS
;	COMDAT ?SetSize@?$CMyPool@V?$CMyBucket@PAVCClientSockE@@@@@@QAEXII@Z
_TEXT	SEGMENT PARA USE32 PUBLIC 'CODE'
_TEXT	ENDS
;	COMDAT ?Pop@?$CMyPool@V?$CMyBucket@PAVCClientSockE@@@@@@QAEPAV?$CMyBucket@PAVCClientSockE@@@@XZ
_TEXT	SEGMENT PARA USE32 PUBLIC 'CODE'
_TEXT	ENDS
;	COMDAT ?Push@?$CMyPool@V?$CMyBucket@PAVCClientSockE@@@@@@QAEXPAV?$CMyBucket@PAVCClientSockE@@@@@Z
_TEXT	SEGMENT PARA USE32 PUBLIC 'CODE'
_TEXT	ENDS
;	COMDAT ?AddItToActiveList@?$CMyMap@PAVCClientSockE@@@@QAEXPAV?$CMyBucket@PAVCClientSockE@@@@@Z
_TEXT	SEGMENT PARA USE32 PUBLIC 'CODE'
_TEXT	ENDS
;	COMDAT ?RemoveItFromActiveList@?$CMyMap@PAVCClientSockE@@@@QAEXPAV?$CMyBucket@PAVCClientSockE@@@@@Z
_TEXT	SEGMENT PARA USE32 PUBLIC 'CODE'
_TEXT	ENDS
;	COMDAT ??0?$CMyBucket@PAVCClientSockE@@@@QAE@XZ
_TEXT	SEGMENT PARA USE32 PUBLIC 'CODE'
_TEXT	ENDS
;	COMDAT ?Empty@?$CMyBucket@PAVCClientSockE@@@@QAEXXZ
_TEXT	SEGMENT PARA USE32 PUBLIC 'CODE'
_TEXT	ENDS
;	COMDAT ?IsEqual@?$CMyBucket@PAVCClientSockE@@@@QAEHK@Z
_TEXT	SEGMENT PARA USE32 PUBLIC 'CODE'
_TEXT	ENDS
;	COMDAT ?IsEmpty@?$CMyBucket@PAVCClientSockE@@@@QAEHXZ
_TEXT	SEGMENT PARA USE32 PUBLIC 'CODE'
_TEXT	ENDS
;	COMDAT ??$_Destroy@PAPAV?$CMyBucket@PAVCClientSock@@@@@std@@YAXPAPAPAV?$CMyBucket@PAVCClientSock@@@@@Z
_TEXT	SEGMENT PARA USE32 PUBLIC 'CODE'
_TEXT	ENDS
;	COMDAT ??$_Destroy@PAU_Node@?$_List_nod@PAV?$CMyBucket@PAVCClientSock@@@@V?$allocator@PAV?$CMyBucket@PAVCClientSock@@@@@std@@@std@@@std@@YAXPAPAU_Node@?$_List_nod@PAV?$CMyBucket@PAVCClientSock@@@@V?$allocator@PAV?$CMyBucket@PAVCClientSock@@@@@std@@@0@@Z
_TEXT	SEGMENT PARA USE32 PUBLIC 'CODE'
_TEXT	ENDS
;	COMDAT ??$_Destroy@PAPAV?$CMyBucket@PAVCClientSockE@@@@@std@@YAXPAPAPAV?$CMyBucket@PAVCClientSockE@@@@@Z
_TEXT	SEGMENT PARA USE32 PUBLIC 'CODE'
_TEXT	ENDS
;	COMDAT ??$_Destroy@PAU_Node@?$_List_nod@PAV?$CMyBucket@PAVCClientSockE@@@@V?$allocator@PAV?$CMyBucket@PAVCClientSockE@@@@@std@@@std@@@std@@YAXPAPAU_Node@?$_List_nod@PAV?$CMyBucket@PAVCClientSockE@@@@V?$allocator@PAV?$CMyBucket@PAVCClientSockE@@@@@std@@@0@@Z
_TEXT	SEGMENT PARA USE32 PUBLIC 'CODE'
_TEXT	ENDS
;	COMDAT ??$_Destroy@PAV?$CMyBucket@PAVCClientSock@@@@@std@@YAXPAPAV?$CMyBucket@PAVCClientSock@@@@@Z
_TEXT	SEGMENT PARA USE32 PUBLIC 'CODE'
_TEXT	ENDS
;	COMDAT ??$_Destroy@U_Node@?$_List_nod@PAV?$CMyBucket@PAVCClientSock@@@@V?$allocator@PAV?$CMyBucket@PAVCClientSock@@@@@std@@@std@@@std@@YAXPAU_Node@?$_List_nod@PAV?$CMyBucket@PAVCClientSock@@@@V?$allocator@PAV?$CMyBucket@PAVCClientSock@@@@@std@@@0@@Z
_TEXT	SEGMENT PARA USE32 PUBLIC 'CODE'
_TEXT	ENDS
;	COMDAT ??$_Destroy@PAV?$CMyBucket@PAVCClientSockE@@@@@std@@YAXPAPAV?$CMyBucket@PAVCClientSockE@@@@@Z
_TEXT	SEGMENT PARA USE32 PUBLIC 'CODE'
_TEXT	ENDS
;	COMDAT ??$_Destroy@U_Node@?$_List_nod@PAV?$CMyBucket@PAVCClientSockE@@@@V?$allocator@PAV?$CMyBucket@PAVCClientSockE@@@@@std@@@std@@@std@@YAXPAU_Node@?$_List_nod@PAV?$CMyBucket@PAVCClientSockE@@@@V?$allocator@PAV?$CMyBucket@PAVCClientSockE@@@@@std@@@0@@Z
_TEXT	SEGMENT PARA USE32 PUBLIC 'CODE'
_TEXT	ENDS
;	COMDAT ??_G?$CMyBucket@PAVCClientSock@@@@UAEPAXI@Z
_TEXT	SEGMENT PARA USE32 PUBLIC 'CODE'
_TEXT	ENDS
;	COMDAT ?empty@?$stack@PAV?$CMyBucket@PAVCClientSock@@@@V?$deque@PAV?$CMyBucket@PAVCClientSock@@@@V?$allocator@PAV?$CMyBucket@PAVCClientSock@@@@@std@@@std@@@std@@QBE_NXZ
_TEXT	SEGMENT PARA USE32 PUBLIC 'CODE'
_TEXT	ENDS
;	COMDAT ?pop@?$stack@PAV?$CMyBucket@PAVCClientSock@@@@V?$deque@PAV?$CMyBucket@PAVCClientSock@@@@V?$allocator@PAV?$CMyBucket@PAVCClientSock@@@@@std@@@std@@@std@@QAEXXZ
_TEXT	SEGMENT PARA USE32 PUBLIC 'CODE'
_TEXT	ENDS
;	COMDAT ?begin@?$list@PAV?$CMyBucket@PAVCClientSock@@@@V?$allocator@PAV?$CMyBucket@PAVCClientSock@@@@@std@@@std@@QAE?AViterator@12@XZ
_TEXT	SEGMENT PARA USE32 PUBLIC 'CODE'
_TEXT	ENDS
;	COMDAT ?end@?$list@PAV?$CMyBucket@PAVCClientSock@@@@V?$allocator@PAV?$CMyBucket@PAVCClientSock@@@@@std@@@std@@QAE?AViterator@12@XZ
_TEXT	SEGMENT PARA USE32 PUBLIC 'CODE'
_TEXT	ENDS
;	COMDAT ??0?$stack@PAV?$CMyBucket@PAVCClientSockE@@@@V?$deque@PAV?$CMyBucket@PAVCClientSockE@@@@V?$allocator@PAV?$CMyBucket@PAVCClientSockE@@@@@std@@@std@@@std@@QAE@XZ
_TEXT	SEGMENT PARA USE32 PUBLIC 'CODE'
_TEXT	ENDS
;	COMDAT ?empty@?$stack@PAV?$CMyBucket@PAVCClientSockE@@@@V?$deque@PAV?$CMyBucket@PAVCClientSockE@@@@V?$allocator@PAV?$CMyBucket@PAVCClientSockE@@@@@std@@@std@@@std@@QBE_NXZ
_TEXT	SEGMENT PARA USE32 PUBLIC 'CODE'
_TEXT	ENDS
;	COMDAT ?top@?$stack@PAV?$CMyBucket@PAVCClientSockE@@@@V?$deque@PAV?$CMyBucket@PAVCClientSockE@@@@V?$allocator@PAV?$CMyBucket@PAVCClientSockE@@@@@std@@@std@@@std@@QAEAAPAV?$CMyBucket@PAVCClientSockE@@@@XZ
_TEXT	SEGMENT PARA USE32 PUBLIC 'CODE'
_TEXT	ENDS
;	COMDAT ?push@?$stack@PAV?$CMyBucket@PAVCClientSockE@@@@V?$deque@PAV?$CMyBucket@PAVCClientSockE@@@@V?$allocator@PAV?$CMyBucket@PAVCClientSockE@@@@@std@@@std@@@std@@QAEXABQAV?$CMyBucket@PAVCClientSockE@@@@@Z
_TEXT	SEGMENT PARA USE32 PUBLIC 'CODE'
_TEXT	ENDS
;	COMDAT ?pop@?$stack@PAV?$CMyBucket@PAVCClientSockE@@@@V?$deque@PAV?$CMyBucket@PAVCClientSockE@@@@V?$allocator@PAV?$CMyBucket@PAVCClientSockE@@@@@std@@@std@@@std@@QAEXXZ
_TEXT	SEGMENT PARA USE32 PUBLIC 'CODE'
_TEXT	ENDS
;	COMDAT ??0?$list@PAV?$CMyBucket@PAVCClientSockE@@@@V?$allocator@PAV?$CMyBucket@PAVCClientSockE@@@@@std@@@std@@QAE@XZ
_TEXT	SEGMENT PARA USE32 PUBLIC 'CODE'
_TEXT	ENDS
;	COMDAT ?begin@?$list@PAV?$CMyBucket@PAVCClientSockE@@@@V?$allocator@PAV?$CMyBucket@PAVCClientSockE@@@@@std@@@std@@QAE?AViterator@12@XZ
_TEXT	SEGMENT PARA USE32 PUBLIC 'CODE'
_TEXT	ENDS
;	COMDAT ?end@?$list@PAV?$CMyBucket@PAVCClientSockE@@@@V?$allocator@PAV?$CMyBucket@PAVCClientSockE@@@@@std@@@std@@QAE?AViterator@12@XZ
_TEXT	SEGMENT PARA USE32 PUBLIC 'CODE'
_TEXT	ENDS
;	COMDAT ??Diterator@?$list@PAV?$CMyBucket@PAVCClientSock@@@@V?$allocator@PAV?$CMyBucket@PAVCClientSock@@@@@std@@@std@@QBEAAPAV?$CMyBucket@PAVCClientSock@@@@XZ
_TEXT	SEGMENT PARA USE32 PUBLIC 'CODE'
_TEXT	ENDS
;	COMDAT ??Eiterator@?$list@PAV?$CMyBucket@PAVCClientSock@@@@V?$allocator@PAV?$CMyBucket@PAVCClientSock@@@@@std@@@std@@QAEAAV012@XZ
_TEXT	SEGMENT PARA USE32 PUBLIC 'CODE'
_TEXT	ENDS
;	COMDAT ??9const_iterator@?$list@PAV?$CMyBucket@PAVCClientSock@@@@V?$allocator@PAV?$CMyBucket@PAVCClientSock@@@@@std@@@std@@QBE_NABV012@@Z
_TEXT	SEGMENT PARA USE32 PUBLIC 'CODE'
_TEXT	ENDS
;	COMDAT ??Diterator@?$list@PAV?$CMyBucket@PAVCClientSockE@@@@V?$allocator@PAV?$CMyBucket@PAVCClientSockE@@@@@std@@@std@@QBEAAPAV?$CMyBucket@PAVCClientSockE@@@@XZ
_TEXT	SEGMENT PARA USE32 PUBLIC 'CODE'
_TEXT	ENDS
;	COMDAT ??Eiterator@?$list@PAV?$CMyBucket@PAVCClientSockE@@@@V?$allocator@PAV?$CMyBucket@PAVCClientSockE@@@@@std@@@std@@QAEAAV012@XZ
_TEXT	SEGMENT PARA USE32 PUBLIC 'CODE'
_TEXT	ENDS
;	COMDAT ??9const_iterator@?$list@PAV?$CMyBucket@PAVCClientSockE@@@@V?$allocator@PAV?$CMyBucket@PAVCClientSockE@@@@@std@@@std@@QBE_NABV012@@Z
_TEXT	SEGMENT PARA USE32 PUBLIC 'CODE'
_TEXT	ENDS
;	COMDAT ??0?$deque@PAV?$CMyBucket@PAVCClientSockE@@@@V?$allocator@PAV?$CMyBucket@PAVCClientSockE@@@@@std@@@std@@QAE@XZ
_TEXT	SEGMENT PARA USE32 PUBLIC 'CODE'
_TEXT	ENDS
;	COMDAT ?back@?$deque@PAV?$CMyBucket@PAVCClientSockE@@@@V?$allocator@PAV?$CMyBucket@PAVCClientSockE@@@@@std@@@std@@QAEAAPAV?$CMyBucket@PAVCClientSockE@@@@XZ
_TEXT	SEGMENT PARA USE32 PUBLIC 'CODE'
_TEXT	ENDS
;	COMDAT ?push_back@?$deque@PAV?$CMyBucket@PAVCClientSockE@@@@V?$allocator@PAV?$CMyBucket@PAVCClientSockE@@@@@std@@@std@@QAEXABQAV?$CMyBucket@PAVCClientSockE@@@@@Z
_TEXT	SEGMENT PARA USE32 PUBLIC 'CODE'
_TEXT	ENDS
;	COMDAT ??0?$allocator@PAV?$CMyBucket@PAVCClientSockE@@@@@std@@QAE@XZ
_TEXT	SEGMENT PARA USE32 PUBLIC 'CODE'
_TEXT	ENDS
;	COMDAT ?_Buynode@?$list@PAV?$CMyBucket@PAVCClientSockE@@@@V?$allocator@PAV?$CMyBucket@PAVCClientSockE@@@@@std@@@std@@IAEPAU_Node@?$_List_nod@PAV?$CMyBucket@PAVCClientSockE@@@@V?$allocator@PAV?$CMyBucket@PAVCClientSockE@@@@@std@@@2@XZ
_TEXT	SEGMENT PARA USE32 PUBLIC 'CODE'
_TEXT	ENDS
;	COMDAT ??0?$_List_val@PAV?$CMyBucket@PAVCClientSockE@@@@V?$allocator@PAV?$CMyBucket@PAVCClientSockE@@@@@std@@@std@@IAE@V?$allocator@PAV?$CMyBucket@PAVCClientSockE@@@@@1@@Z
_TEXT	SEGMENT PARA USE32 PUBLIC 'CODE'
_TEXT	ENDS
;	COMDAT ??0iterator@?$list@PAV?$CMyBucket@PAVCClientSock@@@@V?$allocator@PAV?$CMyBucket@PAVCClientSock@@@@@std@@@std@@QAE@PAU_Node@?$_List_nod@PAV?$CMyBucket@PAVCClientSock@@@@V?$allocator@PAV?$CMyBucket@PAVCClientSock@@@@@std@@@2@@Z
_TEXT	SEGMENT PARA USE32 PUBLIC 'CODE'
_TEXT	ENDS
;	COMDAT ??Dconst_iterator@?$list@PAV?$CMyBucket@PAVCClientSock@@@@V?$allocator@PAV?$CMyBucket@PAVCClientSock@@@@@std@@@std@@QBEABQAV?$CMyBucket@PAVCClientSock@@@@XZ
_TEXT	SEGMENT PARA USE32 PUBLIC 'CODE'
_TEXT	ENDS
;	COMDAT ??Econst_iterator@?$list@PAV?$CMyBucket@PAVCClientSock@@@@V?$allocator@PAV?$CMyBucket@PAVCClientSock@@@@@std@@@std@@QAEAAV012@XZ
_TEXT	SEGMENT PARA USE32 PUBLIC 'CODE'
_TEXT	ENDS
;	COMDAT ??8const_iterator@?$list@PAV?$CMyBucket@PAVCClientSock@@@@V?$allocator@PAV?$CMyBucket@PAVCClientSock@@@@@std@@@std@@QBE_NABV012@@Z
_TEXT	SEGMENT PARA USE32 PUBLIC 'CODE'
_TEXT	ENDS
;	COMDAT ??0iterator@?$list@PAV?$CMyBucket@PAVCClientSockE@@@@V?$allocator@PAV?$CMyBucket@PAVCClientSockE@@@@@std@@@std@@QAE@PAU_Node@?$_List_nod@PAV?$CMyBucket@PAVCClientSockE@@@@V?$allocator@PAV?$CMyBucket@PAVCClientSockE@@@@@std@@@2@@Z
_TEXT	SEGMENT PARA USE32 PUBLIC 'CODE'
_TEXT	ENDS
;	COMDAT ??Dconst_iterator@?$list@PAV?$CMyBucket@PAVCClientSockE@@@@V?$allocator@PAV?$CMyBucket@PAVCClientSockE@@@@@std@@@std@@QBEABQAV?$CMyBucket@PAVCClientSockE@@@@XZ
_TEXT	SEGMENT PARA USE32 PUBLIC 'CODE'
_TEXT	ENDS
;	COMDAT ??Econst_iterator@?$list@PAV?$CMyBucket@PAVCClientSockE@@@@V?$allocator@PAV?$CMyBucket@PAVCClientSockE@@@@@std@@@std@@QAEAAV012@XZ
_TEXT	SEGMENT PARA USE32 PUBLIC 'CODE'
_TEXT	ENDS
;	COMDAT ??8const_iterator@?$list@PAV?$CMyBucket@PAVCClientSockE@@@@V?$allocator@PAV?$CMyBucket@PAVCClientSockE@@@@@std@@@std@@QBE_NABV012@@Z
_TEXT	SEGMENT PARA USE32 PUBLIC 'CODE'
_TEXT	ENDS
;	COMDAT ?_Myval@?$list@PAV?$CMyBucket@PAVCClientSock@@@@V?$allocator@PAV?$CMyBucket@PAVCClientSock@@@@@std@@@std@@KAAAPAV?$CMyBucket@PAVCClientSock@@@@PAU_Node@?$_List_nod@PAV?$CMyBucket@PAVCClientSock@@@@V?$allocator@PAV?$CMyBucket@PAVCClientSock@@@@@std@@@2@@Z
_TEXT	SEGMENT PARA USE32 PUBLIC 'CODE'
_TEXT	ENDS
;	COMDAT ?end@?$deque@PAV?$CMyBucket@PAVCClientSockE@@@@V?$allocator@PAV?$CMyBucket@PAVCClientSockE@@@@@std@@@std@@QAE?AViterator@12@XZ
_TEXT	SEGMENT PARA USE32 PUBLIC 'CODE'
_TEXT	ENDS
;	COMDAT ?_Growmap@?$deque@PAV?$CMyBucket@PAVCClientSockE@@@@V?$allocator@PAV?$CMyBucket@PAVCClientSockE@@@@@std@@@std@@IAEXI@Z
_TEXT	SEGMENT PARA USE32 PUBLIC 'CODE'
_TEXT	ENDS
;	COMDAT ??0?$_Deque_val@PAV?$CMyBucket@PAVCClientSockE@@@@V?$allocator@PAV?$CMyBucket@PAVCClientSockE@@@@@std@@@std@@IAE@V?$allocator@PAV?$CMyBucket@PAVCClientSockE@@@@@1@@Z
_TEXT	SEGMENT PARA USE32 PUBLIC 'CODE'
_TEXT	ENDS
;	COMDAT ??0?$allocator@PAV?$CMyBucket@PAVCClientSockE@@@@@std@@QAE@ABV01@@Z
_TEXT	SEGMENT PARA USE32 PUBLIC 'CODE'
_TEXT	ENDS
;	COMDAT ?allocate@?$allocator@PAV?$CMyBucket@PAVCClientSockE@@@@@std@@QAEPAPAV?$CMyBucket@PAVCClientSockE@@@@I@Z
_TEXT	SEGMENT PARA USE32 PUBLIC 'CODE'
_TEXT	ENDS
;	COMDAT ?construct@?$allocator@PAV?$CMyBucket@PAVCClientSockE@@@@@std@@QAEXPAPAV?$CMyBucket@PAVCClientSockE@@@@ABQAV3@@Z
_TEXT	SEGMENT PARA USE32 PUBLIC 'CODE'
_TEXT	ENDS
;	COMDAT ?_Myval@?$list@PAV?$CMyBucket@PAVCClientSockE@@@@V?$allocator@PAV?$CMyBucket@PAVCClientSockE@@@@@std@@@std@@KAAAPAV?$CMyBucket@PAVCClientSockE@@@@PAU_Node@?$_List_nod@PAV?$CMyBucket@PAVCClientSockE@@@@V?$allocator@PAV?$CMyBucket@PAVCClientSockE@@@@@std@@@2@@Z
_TEXT	SEGMENT PARA USE32 PUBLIC 'CODE'
_TEXT	ENDS
;	COMDAT ??0?$_List_ptr@PAV?$CMyBucket@PAVCClientSockE@@@@V?$allocator@PAV?$CMyBucket@PAVCClientSockE@@@@@std@@@std@@IAE@V?$allocator@PAV?$CMyBucket@PAVCClientSockE@@@@@1@@Z
_TEXT	SEGMENT PARA USE32 PUBLIC 'CODE'
_TEXT	ENDS
;	COMDAT ?allocate@?$allocator@U_Node@?$_List_nod@PAV?$CMyBucket@PAVCClientSockE@@@@V?$allocator@PAV?$CMyBucket@PAVCClientSockE@@@@@std@@@std@@@std@@QAEPAU_Node@?$_List_nod@PAV?$CMyBucket@PAVCClientSockE@@@@V?$allocator@PAV?$CMyBucket@PAVCClientSockE@@@@@std@@@2@I@Z
_TEXT	SEGMENT PARA USE32 PUBLIC 'CODE'
_TEXT	ENDS
;	COMDAT ?construct@?$allocator@PAU_Node@?$_List_nod@PAV?$CMyBucket@PAVCClientSockE@@@@V?$allocator@PAV?$CMyBucket@PAVCClientSockE@@@@@std@@@std@@@std@@QAEXPAPAU_Node@?$_List_nod@PAV?$CMyBucket@PAVCClientSockE@@@@V?$allocator@PAV?$CMyBucket@PAVCClientSockE@@@@@std@@@2@ABQAU342@@Z
_TEXT	SEGMENT PARA USE32 PUBLIC 'CODE'
_TEXT	ENDS
;	COMDAT ??0const_iterator@?$list@PAV?$CMyBucket@PAVCClientSock@@@@V?$allocator@PAV?$CMyBucket@PAVCClientSock@@@@@std@@@std@@QAE@PAU_Node@?$_List_nod@PAV?$CMyBucket@PAVCClientSock@@@@V?$allocator@PAV?$CMyBucket@PAVCClientSock@@@@@std@@@2@@Z
_TEXT	SEGMENT PARA USE32 PUBLIC 'CODE'
_TEXT	ENDS
;	COMDAT ??0const_iterator@?$list@PAV?$CMyBucket@PAVCClientSockE@@@@V?$allocator@PAV?$CMyBucket@PAVCClientSockE@@@@@std@@@std@@QAE@PAU_Node@?$_List_nod@PAV?$CMyBucket@PAVCClientSockE@@@@V?$allocator@PAV?$CMyBucket@PAVCClientSockE@@@@@std@@@2@@Z
_TEXT	SEGMENT PARA USE32 PUBLIC 'CODE'
_TEXT	ENDS
;	COMDAT ??Diterator@?$deque@PAV?$CMyBucket@PAVCClientSockE@@@@V?$allocator@PAV?$CMyBucket@PAVCClientSockE@@@@@std@@@std@@QBEAAPAV?$CMyBucket@PAVCClientSockE@@@@XZ
_TEXT	SEGMENT PARA USE32 PUBLIC 'CODE'
_TEXT	ENDS
;	COMDAT ??Giterator@?$deque@PAV?$CMyBucket@PAVCClientSockE@@@@V?$allocator@PAV?$CMyBucket@PAVCClientSockE@@@@@std@@@std@@QBE?AV012@H@Z
_TEXT	SEGMENT PARA USE32 PUBLIC 'CODE'
_TEXT	ENDS
;	COMDAT ?max_size@?$deque@PAV?$CMyBucket@PAVCClientSockE@@@@V?$allocator@PAV?$CMyBucket@PAVCClientSockE@@@@@std@@@std@@QBEIXZ
_TEXT	SEGMENT PARA USE32 PUBLIC 'CODE'
_TEXT	ENDS
;	COMDAT ?_Xlen@?$deque@PAV?$CMyBucket@PAVCClientSockE@@@@V?$allocator@PAV?$CMyBucket@PAVCClientSockE@@@@@std@@@std@@IBEXXZ
_TEXT	SEGMENT PARA USE32 PUBLIC 'CODE'
_TEXT	ENDS
;	COMDAT ??0?$_Deque_map@PAV?$CMyBucket@PAVCClientSockE@@@@V?$allocator@PAV?$CMyBucket@PAVCClientSockE@@@@@std@@@std@@IAE@V?$allocator@PAV?$CMyBucket@PAVCClientSockE@@@@@1@@Z
_TEXT	SEGMENT PARA USE32 PUBLIC 'CODE'
_TEXT	ENDS
;	COMDAT ?allocate@?$allocator@PAPAV?$CMyBucket@PAVCClientSockE@@@@@std@@QAEPAPAPAV?$CMyBucket@PAVCClientSockE@@@@I@Z
_TEXT	SEGMENT PARA USE32 PUBLIC 'CODE'
_TEXT	ENDS
;	COMDAT ??0?$_List_nod@PAV?$CMyBucket@PAVCClientSockE@@@@V?$allocator@PAV?$CMyBucket@PAVCClientSockE@@@@@std@@@std@@IAE@V?$allocator@PAV?$CMyBucket@PAVCClientSockE@@@@@1@@Z
_TEXT	SEGMENT PARA USE32 PUBLIC 'CODE'
_TEXT	ENDS
;	COMDAT ??0iterator@?$deque@PAV?$CMyBucket@PAVCClientSockE@@@@V?$allocator@PAV?$CMyBucket@PAVCClientSockE@@@@@std@@@std@@QAE@IPBV12@@Z
_TEXT	SEGMENT PARA USE32 PUBLIC 'CODE'
_TEXT	ENDS
;	COMDAT ??Ziterator@?$deque@PAV?$CMyBucket@PAVCClientSockE@@@@V?$allocator@PAV?$CMyBucket@PAVCClientSockE@@@@@std@@@std@@QAEAAV012@H@Z
_TEXT	SEGMENT PARA USE32 PUBLIC 'CODE'
_TEXT	ENDS
;	COMDAT ??Dconst_iterator@?$deque@PAV?$CMyBucket@PAVCClientSockE@@@@V?$allocator@PAV?$CMyBucket@PAVCClientSockE@@@@@std@@@std@@QBEABQAV?$CMyBucket@PAVCClientSockE@@@@XZ
_TEXT	SEGMENT PARA USE32 PUBLIC 'CODE'
_TEXT	ENDS
;	COMDAT ?max_size@?$allocator@PAV?$CMyBucket@PAVCClientSockE@@@@@std@@QBEIXZ
_TEXT	SEGMENT PARA USE32 PUBLIC 'CODE'
_TEXT	ENDS
;	COMDAT ??Yiterator@?$deque@PAV?$CMyBucket@PAVCClientSockE@@@@V?$allocator@PAV?$CMyBucket@PAVCClientSockE@@@@@std@@@std@@QAEAAV012@H@Z
_TEXT	SEGMENT PARA USE32 PUBLIC 'CODE'
_TEXT	ENDS
;	COMDAT ??0const_iterator@?$deque@PAV?$CMyBucket@PAVCClientSockE@@@@V?$allocator@PAV?$CMyBucket@PAVCClientSockE@@@@@std@@@std@@QAE@IPBV12@@Z
_TEXT	SEGMENT PARA USE32 PUBLIC 'CODE'
_TEXT	ENDS
;	COMDAT ?Grow@?$CMyPool@V?$CMyBucket@PAVCClientSockE@@@@@@AAEXI@Z
_TEXT	SEGMENT PARA USE32 PUBLIC 'CODE'
_TEXT	ENDS
;	COMDAT ??$_Uninitialized_copy@PAPAPAV?$CMyBucket@PAVCClientSockE@@@@PAPAPAV1@V?$allocator@PAPAV?$CMyBucket@PAVCClientSockE@@@@@std@@@std@@YAPAPAPAV?$CMyBucket@PAVCClientSockE@@@@PAPAPAV1@00AAV?$allocator@PAPAV?$CMyBucket@PAVCClientSockE@@@@@0@@Z
_TEXT	SEGMENT PARA USE32 PUBLIC 'CODE'
_TEXT	ENDS
;	COMDAT ??$_Uninitialized_fill_n@PAPAPAV?$CMyBucket@PAVCClientSockE@@@@IPAPAV1@V?$allocator@PAPAV?$CMyBucket@PAVCClientSockE@@@@@std@@@std@@YAXPAPAPAV?$CMyBucket@PAVCClientSockE@@@@IABQAPAV1@AAV?$allocator@PAPAV?$CMyBucket@PAVCClientSockE@@@@@0@@Z
_TEXT	SEGMENT PARA USE32 PUBLIC 'CODE'
_TEXT	ENDS
;	COMDAT ??$_Destroy_range@PAPAV?$CMyBucket@PAVCClientSockE@@@@V?$allocator@PAPAV?$CMyBucket@PAVCClientSockE@@@@@std@@@std@@YAXPAPAPAV?$CMyBucket@PAVCClientSockE@@@@0AAV?$allocator@PAPAV?$CMyBucket@PAVCClientSockE@@@@@0@@Z
_TEXT	SEGMENT PARA USE32 PUBLIC 'CODE'
_TEXT	ENDS
;	COMDAT ??$_Allocate@PAV?$CMyBucket@PAVCClientSockE@@@@@std@@YAPAPAV?$CMyBucket@PAVCClientSockE@@@@IPAPAV1@@Z
_TEXT	SEGMENT PARA USE32 PUBLIC 'CODE'
_TEXT	ENDS
;	COMDAT ??$_Construct@PAV?$CMyBucket@PAVCClientSockE@@@@PAV1@@std@@YAXPAPAV?$CMyBucket@PAVCClientSockE@@@@ABQAV1@@Z
_TEXT	SEGMENT PARA USE32 PUBLIC 'CODE'
_TEXT	ENDS
;	COMDAT ??$?0PAV?$CMyBucket@PAVCClientSockE@@@@@?$allocator@PAU_Node@?$_List_nod@PAV?$CMyBucket@PAVCClientSockE@@@@V?$allocator@PAV?$CMyBucket@PAVCClientSockE@@@@@std@@@std@@@std@@QAE@ABV?$allocator@PAV?$CMyBucket@PAVCClientSockE@@@@@1@@Z
_TEXT	SEGMENT PARA USE32 PUBLIC 'CODE'
_TEXT	ENDS
;	COMDAT ??$_Allocate@U_Node@?$_List_nod@PAV?$CMyBucket@PAVCClientSockE@@@@V?$allocator@PAV?$CMyBucket@PAVCClientSockE@@@@@std@@@std@@@std@@YAPAU_Node@?$_List_nod@PAV?$CMyBucket@PAVCClientSockE@@@@V?$allocator@PAV?$CMyBucket@PAVCClientSockE@@@@@std@@@0@IPAU120@@Z
_TEXT	SEGMENT PARA USE32 PUBLIC 'CODE'
_TEXT	ENDS
;	COMDAT ??$_Construct@PAU_Node@?$_List_nod@PAV?$CMyBucket@PAVCClientSockE@@@@V?$allocator@PAV?$CMyBucket@PAVCClientSockE@@@@@std@@@std@@PAU123@@std@@YAXPAPAU_Node@?$_List_nod@PAV?$CMyBucket@PAVCClientSockE@@@@V?$allocator@PAV?$CMyBucket@PAVCClientSockE@@@@@std@@@0@ABQAU120@@Z
_TEXT	SEGMENT PARA USE32 PUBLIC 'CODE'
_TEXT	ENDS
;	COMDAT ??$?0PAV?$CMyBucket@PAVCClientSockE@@@@@?$allocator@PAPAV?$CMyBucket@PAVCClientSockE@@@@@std@@QAE@ABV?$allocator@PAV?$CMyBucket@PAVCClientSockE@@@@@1@@Z
_TEXT	SEGMENT PARA USE32 PUBLIC 'CODE'
_TEXT	ENDS
;	COMDAT ??$_Allocate@PAPAV?$CMyBucket@PAVCClientSockE@@@@@std@@YAPAPAPAV?$CMyBucket@PAVCClientSockE@@@@IPAPAPAV1@@Z
_TEXT	SEGMENT PARA USE32 PUBLIC 'CODE'
_TEXT	ENDS
;	COMDAT ??$?0PAV?$CMyBucket@PAVCClientSockE@@@@@?$allocator@U_Node@?$_List_nod@PAV?$CMyBucket@PAVCClientSockE@@@@V?$allocator@PAV?$CMyBucket@PAVCClientSockE@@@@@std@@@std@@@std@@QAE@ABV?$allocator@PAV?$CMyBucket@PAVCClientSockE@@@@@1@@Z
_TEXT	SEGMENT PARA USE32 PUBLIC 'CODE'
_TEXT	ENDS
;	COMDAT ?push_back@?$list@PAV?$CMyBucket@PAVCClientSockE@@@@V?$allocator@PAV?$CMyBucket@PAVCClientSockE@@@@@std@@@std@@QAEXABQAV?$CMyBucket@PAVCClientSockE@@@@@Z
_TEXT	SEGMENT PARA USE32 PUBLIC 'CODE'
_TEXT	ENDS
;	COMDAT ?_Insert@?$list@PAV?$CMyBucket@PAVCClientSockE@@@@V?$allocator@PAV?$CMyBucket@PAVCClientSockE@@@@@std@@@std@@QAEXViterator@12@ABQAV?$CMyBucket@PAVCClientSockE@@@@@Z
_TEXT	SEGMENT PARA USE32 PUBLIC 'CODE'
_TEXT	ENDS
;	COMDAT ?_Buynode@?$list@PAV?$CMyBucket@PAVCClientSockE@@@@V?$allocator@PAV?$CMyBucket@PAVCClientSockE@@@@@std@@@std@@IAEPAU_Node@?$_List_nod@PAV?$CMyBucket@PAVCClientSockE@@@@V?$allocator@PAV?$CMyBucket@PAVCClientSockE@@@@@std@@@2@PAU342@0ABQAV?$CMyBucket@PAVCClientSockE@@@@@Z
_TEXT	SEGMENT PARA USE32 PUBLIC 'CODE'
_TEXT	ENDS
;	COMDAT ?_Incsize@?$list@PAV?$CMyBucket@PAVCClientSockE@@@@V?$allocator@PAV?$CMyBucket@PAVCClientSockE@@@@@std@@@std@@IAEXI@Z
_TEXT	SEGMENT PARA USE32 PUBLIC 'CODE'
_TEXT	ENDS
;	COMDAT ?_Mynode@const_iterator@?$list@PAV?$CMyBucket@PAVCClientSockE@@@@V?$allocator@PAV?$CMyBucket@PAVCClientSockE@@@@@std@@@std@@QBEPAU_Node@?$_List_nod@PAV?$CMyBucket@PAVCClientSockE@@@@V?$allocator@PAV?$CMyBucket@PAVCClientSockE@@@@@std@@@3@XZ
_TEXT	SEGMENT PARA USE32 PUBLIC 'CODE'
_TEXT	ENDS
;	COMDAT ?max_size@?$list@PAV?$CMyBucket@PAVCClientSockE@@@@V?$allocator@PAV?$CMyBucket@PAVCClientSockE@@@@@std@@@std@@QBEIXZ
_TEXT	SEGMENT PARA USE32 PUBLIC 'CODE'
_TEXT	ENDS
;	COMDAT ??0_Node@?$_List_nod@PAV?$CMyBucket@PAVCClientSockE@@@@V?$allocator@PAV?$CMyBucket@PAVCClientSockE@@@@@std@@@std@@QAE@PAU012@0ABQAV?$CMyBucket@PAVCClientSockE@@@@@Z
_TEXT	SEGMENT PARA USE32 PUBLIC 'CODE'
_TEXT	ENDS
;	COMDAT ??$_Ptr_cat@PAV?$CMyBucket@PAVCClientSockE@@@@@std@@YA?AU_Scalar_ptr_iterator_tag@0@PAPAPAV?$CMyBucket@PAVCClientSockE@@@@0@Z
_TEXT	SEGMENT PARA USE32 PUBLIC 'CODE'
_TEXT	ENDS
;	COMDAT ??$_Uninit_copy@PAPAV?$CMyBucket@PAVCClientSockE@@@@PAPAV1@@std@@YAPAPAPAV?$CMyBucket@PAVCClientSockE@@@@PAPAPAV1@00AAV?$allocator@PAPAV?$CMyBucket@PAVCClientSockE@@@@@0@U_Scalar_ptr_iterator_tag@0@@Z
_TEXT	SEGMENT PARA USE32 PUBLIC 'CODE'
_TEXT	ENDS
;	COMDAT ??$_Uninit_fill_n@PAPAV?$CMyBucket@PAVCClientSockE@@@@IPAPAV1@@std@@YAXPAPAPAV?$CMyBucket@PAVCClientSockE@@@@IABQAPAV1@AAV?$allocator@PAPAV?$CMyBucket@PAVCClientSockE@@@@@0@U_Scalar_ptr_iterator_tag@0@@Z
_TEXT	SEGMENT PARA USE32 PUBLIC 'CODE'
_TEXT	ENDS
;	COMDAT ??$_Destroy_range@PAPAV?$CMyBucket@PAVCClientSockE@@@@V?$allocator@PAPAV?$CMyBucket@PAVCClientSockE@@@@@std@@@std@@YAXPAPAPAV?$CMyBucket@PAVCClientSockE@@@@0AAV?$allocator@PAPAV?$CMyBucket@PAVCClientSockE@@@@@0@U_Scalar_ptr_iterator_tag@0@@Z
_TEXT	SEGMENT PARA USE32 PUBLIC 'CODE'
_TEXT	ENDS
;	COMDAT ??$fill_n@PAPAPAV?$CMyBucket@PAVCClientSockE@@@@IPAPAV1@@std@@YAXPAPAPAV?$CMyBucket@PAVCClientSockE@@@@IABQAPAV1@@Z
_TEXT	SEGMENT PARA USE32 PUBLIC 'CODE'
_TEXT	ENDS
;	COMDAT ??_7?$CMyBucket@PAVCClientSock@@@@6B@
CONST	SEGMENT DWORD USE32 PUBLIC 'CONST'
CONST	ENDS
;	COMDAT ??_7?$CMyBucket@PAVCClientSockE@@@@6B@
CONST	SEGMENT DWORD USE32 PUBLIC 'CONST'
CONST	ENDS
;	COMDAT ?Leave@CMclCritSec@@QAEXXZ
_TEXT	SEGMENT PARA USE32 PUBLIC 'CODE'
_TEXT	ENDS
;	COMDAT ?Enter@CMclCritSec@@QAEXXZ
_TEXT	SEGMENT PARA USE32 PUBLIC 'CODE'
_TEXT	ENDS
;	COMDAT ?IsPrime@@YAHK@Z
_TEXT	SEGMENT PARA USE32 PUBLIC 'CODE'
_TEXT	ENDS
;	COMDAT ??0CMclCritSec@@QAE@XZ
_TEXT	SEGMENT PARA USE32 PUBLIC 'CODE'
_TEXT	ENDS
;	COMDAT ??_7CMclCritSec@@6B@
CONST	SEGMENT DWORD USE32 PUBLIC 'CONST'
CONST	ENDS
;	COMDAT ??_GCMclCritSec@@UAEPAXI@Z
_TEXT	SEGMENT PARA USE32 PUBLIC 'CODE'
_TEXT	ENDS
;	COMDAT ??_7?$CMyMap@PAVCClientSockE@@@@6B@
CONST	SEGMENT DWORD USE32 PUBLIC 'CONST'
CONST	ENDS
;	COMDAT ??_7?$CMyPool@V?$CMyBucket@PAVCClientSockE@@@@@@6B@
CONST	SEGMENT DWORD USE32 PUBLIC 'CONST'
CONST	ENDS
;	COMDAT ?IDHash@@YAKKI@Z
_TEXT	SEGMENT PARA USE32 PUBLIC 'CODE'
_TEXT	ENDS
;	COMDAT ??1CMclCritSec@@UAE@XZ
_TEXT	SEGMENT PARA USE32 PUBLIC 'CODE'
_TEXT	ENDS
;	COMDAT ??_7?$CMyMap@PAVCClientSock@@@@6B@
CONST	SEGMENT DWORD USE32 PUBLIC 'CONST'
CONST	ENDS
;	COMDAT ??_7?$CMyPool@V?$CMyBucket@PAVCClientSock@@@@@@6B@
CONST	SEGMENT DWORD USE32 PUBLIC 'CONST'
CONST	ENDS
;	COMDAT ?_Psave@?$_Facetptr@V?$ctype@G@std@@@std@@2PBVfacet@locale@2@B
_DATA	SEGMENT DWORD USE32 PUBLIC 'DATA'
_DATA	ENDS
;	COMDAT ?_Psave@?$_Facetptr@V?$ctype@D@std@@@std@@2PBVfacet@locale@2@B
_DATA	SEGMENT DWORD USE32 PUBLIC 'DATA'
_DATA	ENDS
;	COMDAT ?assign@?$basic_string@DU?$char_traits@D@std@@V?$allocator@D@2@@std@@QAEAAV12@PBD@Z
_TEXT	SEGMENT PARA USE32 PUBLIC 'CODE'
_TEXT	ENDS
;	COMDAT ?assign@?$basic_string@DU?$char_traits@D@std@@V?$allocator@D@2@@std@@QAEAAV12@PBDI@Z
_TEXT	SEGMENT PARA USE32 PUBLIC 'CODE'
_TEXT	ENDS
;	COMDAT ?_Inside@?$basic_string@DU?$char_traits@D@std@@V?$allocator@D@2@@std@@IAE_NPBD@Z
_TEXT	SEGMENT PARA USE32 PUBLIC 'CODE'
_TEXT	ENDS
;	COMDAT ?assign@?$basic_string@DU?$char_traits@D@std@@V?$allocator@D@2@@std@@QAEAAV12@ABV12@II@Z
_TEXT	SEGMENT PARA USE32 PUBLIC 'CODE'
_TEXT	ENDS
;	COMDAT ?size@?$basic_string@DU?$char_traits@D@std@@V?$allocator@D@2@@std@@QBEIXZ
_TEXT	SEGMENT PARA USE32 PUBLIC 'CODE'
_TEXT	ENDS
;	COMDAT ?npos@?$basic_string@DU?$char_traits@D@std@@V?$allocator@D@2@@std@@2IB
CONST	SEGMENT DWORD USE32 PUBLIC 'CONST'
CONST	ENDS
;	COMDAT ?erase@?$basic_string@DU?$char_traits@D@std@@V?$allocator@D@2@@std@@QAEAAV12@II@Z
_TEXT	SEGMENT PARA USE32 PUBLIC 'CODE'
_TEXT	ENDS
;	COMDAT ?move@?$char_traits@D@std@@SAPADPADPBDI@Z
_TEXT	SEGMENT PARA USE32 PUBLIC 'CODE'
_TEXT	ENDS
;	COMDAT ?_Myptr@?$basic_string@DU?$char_traits@D@std@@V?$allocator@D@2@@std@@QBEPBDXZ
_TEXT	SEGMENT PARA USE32 PUBLIC 'CODE'
_TEXT	ENDS
;	COMDAT ?_Grow@?$basic_string@DU?$char_traits@D@std@@V?$allocator@D@2@@std@@IAE_NI_N@Z
_TEXT	SEGMENT PARA USE32 PUBLIC 'CODE'
_TEXT	ENDS
;	COMDAT ?max_size@?$basic_string@DU?$char_traits@D@std@@V?$allocator@D@2@@std@@QBEIXZ
_TEXT	SEGMENT PARA USE32 PUBLIC 'CODE'
_TEXT	ENDS
;	COMDAT ?max_size@?$allocator@D@std@@QBEIXZ
_TEXT	SEGMENT PARA USE32 PUBLIC 'CODE'
_TEXT	ENDS
;	COMDAT ?_Copy@?$basic_string@DU?$char_traits@D@std@@V?$allocator@D@2@@std@@IAEXII@Z
_TEXT	SEGMENT PARA USE32 PUBLIC 'CODE'
_TEXT	ENDS
;	COMDAT ?allocate@?$allocator@D@std@@QAEPADI@Z
_TEXT	SEGMENT PARA USE32 PUBLIC 'CODE'
_TEXT	ENDS
;	COMDAT ??$_Allocate@D@std@@YAPADIPAD@Z
_TEXT	SEGMENT PARA USE32 PUBLIC 'CODE'
_TEXT	ENDS
;	COMDAT ?copy@?$char_traits@D@std@@SAPADPADPBDI@Z
_TEXT	SEGMENT PARA USE32 PUBLIC 'CODE'
_TEXT	ENDS
;	COMDAT ?_Myptr@?$basic_string@DU?$char_traits@D@std@@V?$allocator@D@2@@std@@QAEPADXZ
_TEXT	SEGMENT PARA USE32 PUBLIC 'CODE'
_TEXT	ENDS
;	COMDAT ?_Eos@?$basic_string@DU?$char_traits@D@std@@V?$allocator@D@2@@std@@IAEXI@Z
_TEXT	SEGMENT PARA USE32 PUBLIC 'CODE'
_TEXT	ENDS
;	COMDAT ?assign@?$char_traits@D@std@@SAXAADABD@Z
_TEXT	SEGMENT PARA USE32 PUBLIC 'CODE'
_TEXT	ENDS
;	COMDAT ?length@?$char_traits@D@std@@SAIPBD@Z
_TEXT	SEGMENT PARA USE32 PUBLIC 'CODE'
_TEXT	ENDS
;	COMDAT ?_Tidy@?$basic_string@DU?$char_traits@D@std@@V?$allocator@D@2@@std@@IAEX_NI@Z
_TEXT	SEGMENT PARA USE32 PUBLIC 'CODE'
_TEXT	ENDS
;	COMDAT ?deallocate@?$allocator@D@std@@QAEXPADI@Z
_TEXT	SEGMENT PARA USE32 PUBLIC 'CODE'
_TEXT	ENDS
;	COMDAT ??0?$_String_val@DV?$allocator@D@std@@@std@@IAE@V?$allocator@D@1@@Z
_TEXT	SEGMENT PARA USE32 PUBLIC 'CODE'
_TEXT	ENDS
;	COMDAT ??0?$allocator@D@std@@QAE@ABV01@@Z
_TEXT	SEGMENT PARA USE32 PUBLIC 'CODE'
_TEXT	ENDS
;	COMDAT ??0?$basic_string@DU?$char_traits@D@std@@V?$allocator@D@2@@std@@QAE@ABV01@@Z
_TEXT	SEGMENT PARA USE32 PUBLIC 'CODE'
_TEXT	ENDS
;	COMDAT ??_7logic_error@std@@6B@
CONST	SEGMENT DWORD USE32 PUBLIC 'CONST'
CONST	ENDS
;	COMDAT ??_Glogic_error@std@@UAEPAXI@Z
_TEXT	SEGMENT PARA USE32 PUBLIC 'CODE'
_TEXT	ENDS
;	COMDAT ?what@logic_error@std@@UBEPBDXZ
_TEXT	SEGMENT PARA USE32 PUBLIC 'CODE'
_TEXT	ENDS
;	COMDAT ?c_str@?$basic_string@DU?$char_traits@D@std@@V?$allocator@D@2@@std@@QBEPBDXZ
_TEXT	SEGMENT PARA USE32 PUBLIC 'CODE'
_TEXT	ENDS
;	COMDAT ??_7length_error@std@@6B@
CONST	SEGMENT DWORD USE32 PUBLIC 'CONST'
CONST	ENDS
;	COMDAT ??_Glength_error@std@@UAEPAXI@Z
_TEXT	SEGMENT PARA USE32 PUBLIC 'CODE'
_TEXT	ENDS
;	COMDAT ??1logic_error@std@@UAE@XZ
_TEXT	SEGMENT PARA USE32 PUBLIC 'CODE'
_TEXT	ENDS
;	COMDAT __CTA3?AVlength_error@std@@
xdata$x	SEGMENT DWORD USE32 PUBLIC 'CONST'
xdata$x	ENDS
;	COMDAT ??1length_error@std@@UAE@XZ
_TEXT	SEGMENT PARA USE32 PUBLIC 'CODE'
_TEXT	ENDS
;	COMDAT __CT??_R0?AVexception@@@8??0exception@@QAE@ABV0@@Z12
xdata$x	SEGMENT DWORD USE32 PUBLIC 'CONST'
xdata$x	ENDS
;	COMDAT ??_R0?AVexception@@@8
_DATA	SEGMENT DWORD USE32 PUBLIC 'DATA'
_DATA	ENDS
;	COMDAT __CT??_R0?AVlogic_error@std@@@8??0logic_error@std@@QAE@ABV01@@Z40
xdata$x	SEGMENT DWORD USE32 PUBLIC 'CONST'
xdata$x	ENDS
;	COMDAT __CT??_R0?AVlength_error@std@@@8??0length_error@std@@QAE@ABV01@@Z40
xdata$x	SEGMENT DWORD USE32 PUBLIC 'CONST'
xdata$x	ENDS
;	COMDAT ??_R0?AVlogic_error@std@@@8
_DATA	SEGMENT DWORD USE32 PUBLIC 'DATA'
_DATA	ENDS
;	COMDAT ??_R0?AVlength_error@std@@@8
_DATA	SEGMENT DWORD USE32 PUBLIC 'DATA'
_DATA	ENDS
;	COMDAT __TI3?AVlength_error@std@@
xdata$x	SEGMENT DWORD USE32 PUBLIC 'CONST'
xdata$x	ENDS
;	COMDAT ??1?$basic_string@DU?$char_traits@D@std@@V?$allocator@D@2@@std@@QAE@XZ
_TEXT	SEGMENT PARA USE32 PUBLIC 'CODE'
_TEXT	ENDS
;	COMDAT ??0length_error@std@@QAE@ABV?$basic_string@DU?$char_traits@D@std@@V?$allocator@D@2@@1@@Z
_TEXT	SEGMENT PARA USE32 PUBLIC 'CODE'
_TEXT	ENDS
;	COMDAT ??0logic_error@std@@QAE@ABV?$basic_string@DU?$char_traits@D@std@@V?$allocator@D@2@@1@@Z
_TEXT	SEGMENT PARA USE32 PUBLIC 'CODE'
_TEXT	ENDS
;	COMDAT ??3@YAXPAX0@Z
_TEXT	SEGMENT PARA USE32 PUBLIC 'CODE'
_TEXT	ENDS
;	COMDAT ??2@YAPAXIPAX@Z
_TEXT	SEGMENT PARA USE32 PUBLIC 'CODE'
_TEXT	ENDS
;	COMDAT ??_7CServerSockE@@6B@
CONST	SEGMENT DWORD USE32 PUBLIC 'CONST'
CONST	ENDS
;	COMDAT ??1CMclAutoLock@@QAE@XZ
_TEXT	SEGMENT PARA USE32 PUBLIC 'CODE'
_TEXT	ENDS
;	COMDAT ??0CMclAutoLock@@QAE@AAVCMclCritSec@@@Z
_TEXT	SEGMENT PARA USE32 PUBLIC 'CODE'
_TEXT	ENDS
;	COMDAT ??_7CBuffer2@@6B@
CONST	SEGMENT DWORD USE32 PUBLIC 'CONST'
CONST	ENDS
sxdata	SEGMENT DWORD USE32 'SXDATA'
sxdata	ENDS
FLAT	GROUP _DATA, CONST, _BSS
	ASSUME	CS: FLAT, DS: FLAT, SS: FLAT
endif

INCLUDELIB LIBCMT
INCLUDELIB OLDNAMES

PUBLIC	?GetHandle@CSock@@QAEIXZ			; CSock::GetHandle
; Function compile flags: /Ogty
; File c:\offi src_real\offi src!\_network\net\include\sock.h
;	COMDAT ?GetHandle@CSock@@QAEIXZ
_TEXT	SEGMENT
?GetHandle@CSock@@QAEIXZ PROC NEAR			; CSock::GetHandle, COMDAT
; _this$ = ecx

; 50   : inline SOCKET CSock::GetHandle( void )	{	return m_hSocket;	}

  00000	8b 41 04	 mov	 eax, DWORD PTR [ecx+4]
  00003	c3		 ret	 0
?GetHandle@CSock@@QAEIXZ ENDP				; CSock::GetHandle
_TEXT	ENDS
PUBLIC	?SetID@CSock@@QAEXK@Z				; CSock::SetID
; Function compile flags: /Ogty
;	COMDAT ?SetID@CSock@@QAEXK@Z
_TEXT	SEGMENT
_dpid$ = 8						; size = 4
?SetID@CSock@@QAEXK@Z PROC NEAR				; CSock::SetID, COMDAT
; _this$ = ecx

; 53   : inline void	CSock::SetID( DPID dpid )	{	m_dpid	= dpid;	}

  00000	8b 44 24 04	 mov	 eax, DWORD PTR _dpid$[esp-4]
  00004	89 41 08	 mov	 DWORD PTR [ecx+8], eax
  00007	c2 04 00	 ret	 4
?SetID@CSock@@QAEXK@Z ENDP				; CSock::SetID
_TEXT	ENDS
PUBLIC	?SetPeerID@CSock@@QAEXK@Z			; CSock::SetPeerID
; Function compile flags: /Ogty
;	COMDAT ?SetPeerID@CSock@@QAEXK@Z
_TEXT	SEGMENT
_dpid$ = 8						; size = 4
?SetPeerID@CSock@@QAEXK@Z PROC NEAR			; CSock::SetPeerID, COMDAT
; _this$ = ecx

; 55   : inline void CSock::SetPeerID( DPID dpid )	{	m_dpidpeer	= dpid;	}

  00000	8b 44 24 04	 mov	 eax, DWORD PTR _dpid$[esp-4]
  00004	89 41 0c	 mov	 DWORD PTR [ecx+12], eax
  00007	c2 04 00	 ret	 4
?SetPeerID@CSock@@QAEXK@Z ENDP				; CSock::SetPeerID
_TEXT	ENDS
PUBLIC	??2@YAPAXIPAX@Z					; operator new
; Function compile flags: /Ogty
; File c:\program files\microsoft visual studio .net 2003\vc7\include\new.h
;	COMDAT ??2@YAPAXIPAX@Z
_TEXT	SEGMENT
___formal$ = 8						; size = 4
__P$ = 12						; size = 4
??2@YAPAXIPAX@Z PROC NEAR				; operator new, COMDAT

; 109  :         {return (_P); }

  00000	8b 44 24 08	 mov	 eax, DWORD PTR __P$[esp-4]
  00004	c3		 ret	 0
??2@YAPAXIPAX@Z ENDP					; operator new
_TEXT	ENDS
PUBLIC	??3@YAXPAX0@Z					; operator delete
; Function compile flags: /Ogty
;	COMDAT ??3@YAXPAX0@Z
_TEXT	SEGMENT
___formal$ = 8						; size = 4
___formal$ = 12						; size = 4
??3@YAXPAX0@Z PROC NEAR					; operator delete, COMDAT

; 112  :         {return; }

  00000	c3		 ret	 0
??3@YAXPAX0@Z ENDP					; operator delete
_TEXT	ENDS
PUBLIC	?GetListenHandle@CServerSockE@@QAEPAXXZ		; CServerSockE::GetListenHandle
; Function compile flags: /Ogty
; File c:\offi src_real\offi src!\_network\net\include\serversocke.h
;	COMDAT ?GetListenHandle@CServerSockE@@QAEPAXXZ
_TEXT	SEGMENT
?GetListenHandle@CServerSockE@@QAEPAXXZ PROC NEAR	; CServerSockE::GetListenHandle, COMDAT
; _this$ = ecx

; 65   : inline HANDLE CServerSockE::GetListenHandle( void )	{	return m_hListen; }

  00000	8b 41 18	 mov	 eax, DWORD PTR [ecx+24]
  00003	c3		 ret	 0
?GetListenHandle@CServerSockE@@QAEPAXXZ ENDP		; CServerSockE::GetListenHandle
_TEXT	ENDS
PUBLIC	?GetCloseHandle@CServerSockE@@QAEPAXXZ		; CServerSockE::GetCloseHandle
; Function compile flags: /Ogty
;	COMDAT ?GetCloseHandle@CServerSockE@@QAEPAXXZ
_TEXT	SEGMENT
?GetCloseHandle@CServerSockE@@QAEPAXXZ PROC NEAR	; CServerSockE::GetCloseHandle, COMDAT
; _this$ = ecx

; 66   : inline HANDLE CServerSockE::GetCloseHandle( void )	{	return m_hClose;	}

  00000	8b 41 14	 mov	 eax, DWORD PTR [ecx+20]
  00003	c3		 ret	 0
?GetCloseHandle@CServerSockE@@QAEPAXXZ ENDP		; CServerSockE::GetCloseHandle
_TEXT	ENDS
PUBLIC	?Listen@CServerSockE@@QAEHXZ			; CServerSockE::Listen
EXTRN	__imp__listen@8:NEAR
EXTRN	__imp__WSAEventSelect@12:NEAR
; Function compile flags: /Ogty
; File c:\offi src_real\offi src!\_network\net\src\serversocke.cpp
;	COMDAT ?Listen@CServerSockE@@QAEHXZ
_TEXT	SEGMENT
?Listen@CServerSockE@@QAEHXZ PROC NEAR			; CServerSockE::Listen, COMDAT
; _this$ = ecx

; 35   : {

  00000	56		 push	 esi
  00001	8b f1		 mov	 esi, ecx

; 36   : 	if( m_hSocket == INVALID_SOCKET )

  00003	8b 46 04	 mov	 eax, DWORD PTR [esi+4]
  00006	83 f8 ff	 cmp	 eax, -1
  00009	75 04		 jne	 SHORT $L153251
$L155381:

; 37   : 		return FALSE;

  0000b	33 c0		 xor	 eax, eax
  0000d	5e		 pop	 esi

; 45   : 	{
; 46   : 		TRACE( "Listen failed with error %d\n", WSAGetLastError() );
; 47   : 		return FALSE;
; 48   : 	}
; 49   : 	return TRUE;
; 50   : }

  0000e	c3		 ret	 0
$L153251:

; 38   : 
; 39   : 	if( SOCKET_ERROR == WSAEventSelect( m_hSocket, m_hListen, FD_ACCEPT | FD_CONNECT ) )

  0000f	8b 4e 18	 mov	 ecx, DWORD PTR [esi+24]
  00012	6a 18		 push	 24			; 00000018H
  00014	51		 push	 ecx
  00015	50		 push	 eax
  00016	ff 15 00 00 00
	00		 call	 DWORD PTR __imp__WSAEventSelect@12
  0001c	83 f8 ff	 cmp	 eax, -1

; 40   : 	{
; 41   : 		TRACE( " Can't set event with error %d\n", WSAGetLastError() );
; 42   : 		return FALSE;

  0001f	74 ea		 je	 SHORT $L155381

; 43   : 	}
; 44   : 	if( listen( m_hSocket, 5 ) == SOCKET_ERROR )

  00021	8b 56 04	 mov	 edx, DWORD PTR [esi+4]
  00024	6a 05		 push	 5
  00026	52		 push	 edx
  00027	ff 15 00 00 00
	00		 call	 DWORD PTR __imp__listen@8
  0002d	33 c9		 xor	 ecx, ecx
  0002f	83 f8 ff	 cmp	 eax, -1
  00032	0f 95 c1	 setne	 cl
  00035	5e		 pop	 esi
  00036	8b c1		 mov	 eax, ecx

; 45   : 	{
; 46   : 		TRACE( "Listen failed with error %d\n", WSAGetLastError() );
; 47   : 		return FALSE;
; 48   : 	}
; 49   : 	return TRUE;
; 50   : }

  00038	c3		 ret	 0
?Listen@CServerSockE@@QAEHXZ ENDP			; CServerSockE::Listen
_TEXT	ENDS
PUBLIC	?Shutdown@CServerSockE@@UAEHI@Z			; CServerSockE::Shutdown
; Function compile flags: /Ogty
;	COMDAT ?Shutdown@CServerSockE@@UAEHI@Z
_TEXT	SEGMENT
_hSocket$ = 8						; size = 4
?Shutdown@CServerSockE@@UAEHI@Z PROC NEAR		; CServerSockE::Shutdown, COMDAT
; _this$ = ecx

; 196  : 	return FALSE;

  00000	33 c0		 xor	 eax, eax

; 197  : }

  00002	c2 04 00	 ret	 4
?Shutdown@CServerSockE@@UAEHI@Z ENDP			; CServerSockE::Shutdown
_TEXT	ENDS
PUBLIC	?Free@?$MemPooler@VCClientSockE@@@@QAEHPAVCClientSockE@@@Z ; MemPooler<CClientSockE>::Free
EXTRN	__imp__EnterCriticalSection@4:NEAR
EXTRN	__imp__LeaveCriticalSection@4:NEAR
; Function compile flags: /Ogty
; File c:\offi src_real\offi src!\_network\misc\include\mempooler.h
;	COMDAT ?Free@?$MemPooler@VCClientSockE@@@@QAEHPAVCClientSockE@@@Z
_TEXT	SEGMENT
_lpMem$ = 8						; size = 4
?Free@?$MemPooler@VCClientSockE@@@@QAEHPAVCClientSockE@@@Z PROC NEAR ; MemPooler<CClientSockE>::Free, COMDAT
; _this$ = ecx

; 80   : 		{

  00000	53		 push	 ebx
  00001	56		 push	 esi
  00002	8b f1		 mov	 esi, ecx
  00004	57		 push	 edi

; 81   : #ifdef __VERIFY_MEMPOOL
; 82   : 			::operator delete(lpMem);
; 83   : 			return TRUE;
; 84   : #endif
; 85   : 
; 86   : 			BlockNode* pNode	= NULL;
; 87   : 
; 88   : 			EnterCriticalSection( &m_cs );

  00005	8d 5e 1c	 lea	 ebx, DWORD PTR [esi+28]
  00008	53		 push	 ebx
  00009	ff 15 00 00 00
	00		 call	 DWORD PTR __imp__EnterCriticalSection@4

; 89   : 
; 90   : 			pNode	= ( reinterpret_cast<BlockNode*>( lpMem ) ) - 1;
; 91   : 			if( m_nAllocCount > 0 )

  0000f	8b 4e 18	 mov	 ecx, DWORD PTR [esi+24]
  00012	85 c9		 test	 ecx, ecx
  00014	8b 7c 24 10	 mov	 edi, DWORD PTR _lpMem$[esp+8]
  00018	8d 47 fc	 lea	 eax, DWORD PTR [edi-4]
  0001b	7e 09		 jle	 SHORT $L153494

; 92   : 			{
; 93   : 				pNode->pNext	= m_pFreeList;

  0001d	8b 0e		 mov	 ecx, DWORD PTR [esi]
  0001f	89 08		 mov	 DWORD PTR [eax], ecx

; 94   : 				m_pFreeList		= pNode;

  00021	89 06		 mov	 DWORD PTR [esi], eax

; 95   : 				m_nAllocCount--;

  00023	ff 4e 18	 dec	 DWORD PTR [esi+24]
$L153494:

; 96   : 			}
; 97   : 
; 98   : 			//	mulcom	BEGIN100422	 
; 99   : 			::memset( lpMem, 0, sizeof(T) );

  00026	33 c0		 xor	 eax, eax
  00028	b9 1f 01 00 00	 mov	 ecx, 287		; 0000011fH

; 100  : 			//	mulcom	END100422	 
; 101  : 
; 102  : 			LeaveCriticalSection( &m_cs );

  0002d	53		 push	 ebx
  0002e	f3 ab		 rep stosd
  00030	ff 15 00 00 00
	00		 call	 DWORD PTR __imp__LeaveCriticalSection@4
  00036	5f		 pop	 edi
  00037	5e		 pop	 esi

; 103  : 
; 104  : 			return TRUE;

  00038	b8 01 00 00 00	 mov	 eax, 1
  0003d	5b		 pop	 ebx

; 105  : 		}

  0003e	c2 04 00	 ret	 4
?Free@?$MemPooler@VCClientSockE@@@@QAEHPAVCClientSockE@@@Z ENDP ; MemPooler<CClientSockE>::Free
_TEXT	ENDS
PUBLIC	?_Nextnode@?$list@PAXV?$allocator@PAX@std@@@std@@KAAAPAU_Node@?$_List_nod@PAXV?$allocator@PAX@std@@@2@PAU342@@Z ; std::list<void *,std::allocator<void *> >::_Nextnode
; Function compile flags: /Ogty
; File c:\program files\microsoft visual studio .net 2003\vc7\include\list
;	COMDAT ?_Nextnode@?$list@PAXV?$allocator@PAX@std@@@std@@KAAAPAU_Node@?$_List_nod@PAXV?$allocator@PAX@std@@@2@PAU342@@Z
_TEXT	SEGMENT
__Pnode$ = 8						; size = 4
?_Nextnode@?$list@PAXV?$allocator@PAX@std@@@std@@KAAAPAU_Node@?$_List_nod@PAXV?$allocator@PAX@std@@@2@PAU342@@Z PROC NEAR ; std::list<void *,std::allocator<void *> >::_Nextnode, COMDAT

; 108  : 		return ((_Nodepref)(*_Pnode)._Next);

  00000	8b 44 24 04	 mov	 eax, DWORD PTR __Pnode$[esp-4]

; 109  : 		}

  00004	c3		 ret	 0
?_Nextnode@?$list@PAXV?$allocator@PAX@std@@@std@@KAAAPAU_Node@?$_List_nod@PAXV?$allocator@PAX@std@@@2@PAU342@@Z ENDP ; std::list<void *,std::allocator<void *> >::_Nextnode
_TEXT	ENDS
PUBLIC	?_Prevnode@?$list@PAXV?$allocator@PAX@std@@@std@@KAAAPAU_Node@?$_List_nod@PAXV?$allocator@PAX@std@@@2@PAU342@@Z ; std::list<void *,std::allocator<void *> >::_Prevnode
; Function compile flags: /Ogty
;	COMDAT ?_Prevnode@?$list@PAXV?$allocator@PAX@std@@@std@@KAAAPAU_Node@?$_List_nod@PAXV?$allocator@PAX@std@@@2@PAU342@@Z
_TEXT	SEGMENT
__Pnode$ = 8						; size = 4
?_Prevnode@?$list@PAXV?$allocator@PAX@std@@@std@@KAAAPAU_Node@?$_List_nod@PAXV?$allocator@PAX@std@@@2@PAU342@@Z PROC NEAR ; std::list<void *,std::allocator<void *> >::_Prevnode, COMDAT

; 113  : 		return ((_Nodepref)(*_Pnode)._Prev);

  00000	8b 44 24 04	 mov	 eax, DWORD PTR __Pnode$[esp-4]
  00004	83 c0 04	 add	 eax, 4

; 114  : 		}

  00007	c3		 ret	 0
?_Prevnode@?$list@PAXV?$allocator@PAX@std@@@std@@KAAAPAU_Node@?$_List_nod@PAXV?$allocator@PAX@std@@@2@PAU342@@Z ENDP ; std::list<void *,std::allocator<void *> >::_Prevnode
_TEXT	ENDS
PUBLIC	?_Mynode@const_iterator@?$list@PAXV?$allocator@PAX@std@@@std@@QBEPAU_Node@?$_List_nod@PAXV?$allocator@PAX@std@@@3@XZ ; std::list<void *,std::allocator<void *> >::const_iterator::_Mynode
; Function compile flags: /Ogty
;	COMDAT ?_Mynode@const_iterator@?$list@PAXV?$allocator@PAX@std@@@std@@QBEPAU_Node@?$_List_nod@PAXV?$allocator@PAX@std@@@3@XZ
_TEXT	SEGMENT
?_Mynode@const_iterator@?$list@PAXV?$allocator@PAX@std@@@std@@QBEPAU_Node@?$_List_nod@PAXV?$allocator@PAX@std@@@3@XZ PROC NEAR ; std::list<void *,std::allocator<void *> >::const_iterator::_Mynode, COMDAT
; _this$ = ecx

; 207  : 			return (_Ptr);

  00000	8b 01		 mov	 eax, DWORD PTR [ecx]

; 208  : 			}

  00002	c3		 ret	 0
?_Mynode@const_iterator@?$list@PAXV?$allocator@PAX@std@@@std@@QBEPAU_Node@?$_List_nod@PAXV?$allocator@PAX@std@@@3@XZ ENDP ; std::list<void *,std::allocator<void *> >::const_iterator::_Mynode
_TEXT	ENDS
PUBLIC	?deallocate@?$allocator@U_Node@?$_List_nod@PAXV?$allocator@PAX@std@@@std@@@std@@QAEXPAU_Node@?$_List_nod@PAXV?$allocator@PAX@std@@@2@I@Z ; std::allocator<std::_List_nod<void *,std::allocator<void *> >::_Node>::deallocate
EXTRN	??3@YAXPAX@Z:NEAR				; operator delete
; Function compile flags: /Ogty
; File c:\program files\microsoft visual studio .net 2003\vc7\include\xmemory
;	COMDAT ?deallocate@?$allocator@U_Node@?$_List_nod@PAXV?$allocator@PAX@std@@@std@@@std@@QAEXPAU_Node@?$_List_nod@PAXV?$allocator@PAX@std@@@2@I@Z
_TEXT	SEGMENT
__Ptr$ = 8						; size = 4
___formal$ = 12						; size = 4
?deallocate@?$allocator@U_Node@?$_List_nod@PAXV?$allocator@PAX@std@@@std@@@std@@QAEXPAU_Node@?$_List_nod@PAXV?$allocator@PAX@std@@@2@I@Z PROC NEAR ; std::allocator<std::_List_nod<void *,std::allocator<void *> >::_Node>::deallocate, COMDAT
; _this$ = ecx

; 132  : 		operator delete(_Ptr);

  00000	8b 44 24 04	 mov	 eax, DWORD PTR __Ptr$[esp-4]
  00004	50		 push	 eax
  00005	e8 00 00 00 00	 call	 ??3@YAXPAX@Z		; operator delete
  0000a	59		 pop	 ecx

; 133  : 		}

  0000b	c2 08 00	 ret	 8
?deallocate@?$allocator@U_Node@?$_List_nod@PAXV?$allocator@PAX@std@@@std@@@std@@QAEXPAU_Node@?$_List_nod@PAXV?$allocator@PAX@std@@@2@I@Z ENDP ; std::allocator<std::_List_nod<void *,std::allocator<void *> >::_Node>::deallocate
_TEXT	ENDS
PUBLIC	??0const_iterator@?$list@PAXV?$allocator@PAX@std@@@std@@QAE@PAU_Node@?$_List_nod@PAXV?$allocator@PAX@std@@@2@@Z ; std::list<void *,std::allocator<void *> >::const_iterator::const_iterator
; Function compile flags: /Ogty
; File c:\program files\microsoft visual studio .net 2003\vc7\include\list
;	COMDAT ??0const_iterator@?$list@PAXV?$allocator@PAX@std@@@std@@QAE@PAU_Node@?$_List_nod@PAXV?$allocator@PAX@std@@@2@@Z
_TEXT	SEGMENT
__Pnode$ = 8						; size = 4
??0const_iterator@?$list@PAXV?$allocator@PAX@std@@@std@@QAE@PAU_Node@?$_List_nod@PAXV?$allocator@PAX@std@@@2@@Z PROC NEAR ; std::list<void *,std::allocator<void *> >::const_iterator::const_iterator, COMDAT
; _this$ = ecx

; 156  : 			{	// construct with node pointer _Pnode

  00000	8b c1		 mov	 eax, ecx
  00002	8b 4c 24 04	 mov	 ecx, DWORD PTR __Pnode$[esp-4]
  00006	89 08		 mov	 DWORD PTR [eax], ecx

; 157  : 			}

  00008	c2 04 00	 ret	 4
??0const_iterator@?$list@PAXV?$allocator@PAX@std@@@std@@QAE@PAU_Node@?$_List_nod@PAXV?$allocator@PAX@std@@@2@@Z ENDP ; std::list<void *,std::allocator<void *> >::const_iterator::const_iterator
_TEXT	ENDS
PUBLIC	??0_Node@?$_List_nod@PAXV?$allocator@PAX@std@@@std@@QAE@PAU012@0ABQAX@Z ; std::_List_nod<void *,std::allocator<void *> >::_Node::_Node
; Function compile flags: /Ogty
;	COMDAT ??0_Node@?$_List_nod@PAXV?$allocator@PAX@std@@@std@@QAE@PAU012@0ABQAX@Z
_TEXT	SEGMENT
__Nextarg$ = 8						; size = 4
__Prevarg$ = 12						; size = 4
__Myvalarg$ = 16					; size = 4
??0_Node@?$_List_nod@PAXV?$allocator@PAX@std@@@std@@QAE@PAU012@0ABQAX@Z PROC NEAR ; std::_List_nod<void *,std::allocator<void *> >::_Node::_Node, COMDAT
; _this$ = ecx

; 34   : 			{	// construct a node with value

  00000	8b 54 24 08	 mov	 edx, DWORD PTR __Prevarg$[esp-4]
  00004	8b c1		 mov	 eax, ecx
  00006	8b 4c 24 04	 mov	 ecx, DWORD PTR __Nextarg$[esp-4]
  0000a	89 08		 mov	 DWORD PTR [eax], ecx
  0000c	8b 4c 24 0c	 mov	 ecx, DWORD PTR __Myvalarg$[esp-4]
  00010	89 50 04	 mov	 DWORD PTR [eax+4], edx
  00013	8b 11		 mov	 edx, DWORD PTR [ecx]
  00015	89 50 08	 mov	 DWORD PTR [eax+8], edx

; 35   : 			}

  00018	c2 0c 00	 ret	 12			; 0000000cH
??0_Node@?$_List_nod@PAXV?$allocator@PAX@std@@@std@@QAE@PAU012@0ABQAX@Z ENDP ; std::_List_nod<void *,std::allocator<void *> >::_Node::_Node
_TEXT	ENDS
PUBLIC	??0?$allocator@D@std@@QAE@XZ			; std::allocator<char>::allocator<char>
; Function compile flags: /Ogty
; File c:\program files\microsoft visual studio .net 2003\vc7\include\xmemory
;	COMDAT ??0?$allocator@D@std@@QAE@XZ
_TEXT	SEGMENT
??0?$allocator@D@std@@QAE@XZ PROC NEAR			; std::allocator<char>::allocator<char>, COMDAT
; _this$ = ecx

; 111  : 	allocator()

  00000	8b c1		 mov	 eax, ecx

; 112  : 		{	// construct default allocator (do nothing)
; 113  : 		}

  00002	c3		 ret	 0
??0?$allocator@D@std@@QAE@XZ ENDP			; std::allocator<char>::allocator<char>
_TEXT	ENDS
PUBLIC	?max_size@?$allocator@PAX@std@@QBEIXZ		; std::allocator<void *>::max_size
; Function compile flags: /Ogty
;	COMDAT ?max_size@?$allocator@PAX@std@@QBEIXZ
_TEXT	SEGMENT
?max_size@?$allocator@PAX@std@@QBEIXZ PROC NEAR		; std::allocator<void *>::max_size, COMDAT
; _this$ = ecx

; 157  : 		_SIZT _Count = (_SIZT)(-1) / sizeof (_Ty);
; 158  : 		return (0 < _Count ? _Count : 1);

  00000	b8 ff ff ff 3f	 mov	 eax, 1073741823		; 3fffffffH

; 159  : 		}

  00005	c3		 ret	 0
?max_size@?$allocator@PAX@std@@QBEIXZ ENDP		; std::allocator<void *>::max_size
_TEXT	ENDS
PUBLIC	?GetFirstActive@?$CMyMap@PAVCClientSockE@@@@QAEPAV?$CMyBucket@PAVCClientSockE@@@@XZ ; CMyMap<CClientSockE *>::GetFirstActive
; Function compile flags: /Ogty
; File c:\offi src_real\offi src!\_network\misc\include\mymap.h
;	COMDAT ?GetFirstActive@?$CMyMap@PAVCClientSockE@@@@QAEPAV?$CMyBucket@PAVCClientSockE@@@@XZ
_TEXT	SEGMENT
?GetFirstActive@?$CMyMap@PAVCClientSockE@@@@QAEPAV?$CMyBucket@PAVCClientSockE@@@@XZ PROC NEAR ; CMyMap<CClientSockE *>::GetFirstActive, COMDAT
; _this$ = ecx

; 464  : 	return m_pFirstActive;

  00000	8b 41 34	 mov	 eax, DWORD PTR [ecx+52]

; 465  : }

  00003	c3		 ret	 0
?GetFirstActive@?$CMyMap@PAVCClientSockE@@@@QAEPAV?$CMyBucket@PAVCClientSockE@@@@XZ ENDP ; CMyMap<CClientSockE *>::GetFirstActive
_TEXT	ENDS
PUBLIC	??1?$CMyBucket@PAVCClientSockE@@@@UAE@XZ	; CMyBucket<CClientSockE *>::~CMyBucket<CClientSockE *>
PUBLIC	??_7?$CMyBucket@PAVCClientSockE@@@@6B@		; CMyBucket<CClientSockE *>::`vftable'
PUBLIC	??_E?$CMyBucket@PAVCClientSockE@@@@UAEPAXI@Z	; CMyBucket<CClientSockE *>::`vector deleting destructor'
;	COMDAT ??_7?$CMyBucket@PAVCClientSockE@@@@6B@
CONST	SEGMENT
??_7?$CMyBucket@PAVCClientSockE@@@@6B@ DD FLAT:??_E?$CMyBucket@PAVCClientSockE@@@@UAEPAXI@Z ; CMyBucket<CClientSockE *>::`vftable'
; Function compile flags: /Ogty
CONST	ENDS
;	COMDAT ??1?$CMyBucket@PAVCClientSockE@@@@UAE@XZ
_TEXT	SEGMENT
??1?$CMyBucket@PAVCClientSockE@@@@UAE@XZ PROC NEAR	; CMyBucket<CClientSockE *>::~CMyBucket<CClientSockE *>, COMDAT
; _this$ = ecx

; 59   : {

  00000	c7 01 00 00 00
	00		 mov	 DWORD PTR [ecx], OFFSET FLAT:??_7?$CMyBucket@PAVCClientSockE@@@@6B@

; 60   : 
; 61   : }

  00006	c3		 ret	 0
??1?$CMyBucket@PAVCClientSockE@@@@UAE@XZ ENDP		; CMyBucket<CClientSockE *>::~CMyBucket<CClientSockE *>
_TEXT	ENDS
PUBLIC	??$_Allocate@U_Node@?$_List_nod@PAXV?$allocator@PAX@std@@@std@@@std@@YAPAU_Node@?$_List_nod@PAXV?$allocator@PAX@std@@@0@IPAU120@@Z ; std::_Allocate<std::_List_nod<void *,std::allocator<void *> >::_Node>
EXTRN	??2@YAPAXI@Z:NEAR				; operator new
; Function compile flags: /Ogty
; File c:\program files\microsoft visual studio .net 2003\vc7\include\xmemory
;	COMDAT ??$_Allocate@U_Node@?$_List_nod@PAXV?$allocator@PAX@std@@@std@@@std@@YAPAU_Node@?$_List_nod@PAXV?$allocator@PAX@std@@@0@IPAU120@@Z
_TEXT	SEGMENT
__Count$ = 8						; size = 4
___formal$ = 12						; size = 4
??$_Allocate@U_Node@?$_List_nod@PAXV?$allocator@PAX@std@@@std@@@std@@YAPAU_Node@?$_List_nod@PAXV?$allocator@PAX@std@@@0@IPAU120@@Z PROC NEAR ; std::_Allocate<std::_List_nod<void *,std::allocator<void *> >::_Node>, COMDAT

; 34   : 	return ((_Ty _FARQ *)operator new(_Count * sizeof (_Ty)));

  00000	8b 44 24 04	 mov	 eax, DWORD PTR __Count$[esp-4]
  00004	8d 04 40	 lea	 eax, DWORD PTR [eax+eax*2]
  00007	c1 e0 02	 shl	 eax, 2
  0000a	50		 push	 eax
  0000b	e8 00 00 00 00	 call	 ??2@YAPAXI@Z		; operator new
  00010	83 c4 04	 add	 esp, 4

; 35   : 	}

  00013	c3		 ret	 0
??$_Allocate@U_Node@?$_List_nod@PAXV?$allocator@PAX@std@@@std@@@std@@YAPAU_Node@?$_List_nod@PAXV?$allocator@PAX@std@@@0@IPAU120@@Z ENDP ; std::_Allocate<std::_List_nod<void *,std::allocator<void *> >::_Node>
_TEXT	ENDS
EXTRN	??_M@YGXPAXIHP6EX0@Z@Z:NEAR			; `eh vector destructor iterator'
EXTRN	??_V@YAXPAX@Z:NEAR				; operator delete[]
; Function compile flags: /Ogty
;	COMDAT ??_E?$CMyBucket@PAVCClientSockE@@@@UAEPAXI@Z
_TEXT	SEGMENT
___flags$ = 8						; size = 4
??_E?$CMyBucket@PAVCClientSockE@@@@UAEPAXI@Z PROC NEAR	; CMyBucket<CClientSockE *>::`vector deleting destructor', COMDAT
; _this$ = ecx
  00000	53		 push	 ebx
  00001	8a 5c 24 08	 mov	 bl, BYTE PTR ___flags$[esp]
  00005	f6 c3 02	 test	 bl, 2
  00008	56		 push	 esi
  00009	8b f1		 mov	 esi, ecx
  0000b	74 2b		 je	 SHORT $L153945
  0000d	8b 46 fc	 mov	 eax, DWORD PTR [esi-4]
  00010	57		 push	 edi
  00011	68 00 00 00 00	 push	 OFFSET FLAT:??1?$CMyBucket@PAVCClientSockE@@@@UAE@XZ ; CMyBucket<CClientSockE *>::~CMyBucket<CClientSockE *>
  00016	8d 7e fc	 lea	 edi, DWORD PTR [esi-4]
  00019	50		 push	 eax
  0001a	6a 18		 push	 24			; 00000018H
  0001c	56		 push	 esi
  0001d	e8 00 00 00 00	 call	 ??_M@YGXPAXIHP6EX0@Z@Z
  00022	f6 c3 01	 test	 bl, 1
  00025	74 09		 je	 SHORT $L153946
  00027	57		 push	 edi
  00028	e8 00 00 00 00	 call	 ??_V@YAXPAX@Z		; operator delete[]
  0002d	83 c4 04	 add	 esp, 4
$L153946:
  00030	8b c7		 mov	 eax, edi
  00032	5f		 pop	 edi
  00033	5e		 pop	 esi
  00034	5b		 pop	 ebx
  00035	c2 04 00	 ret	 4
$L153945:
  00038	f6 c3 01	 test	 bl, 1
  0003b	c7 06 00 00 00
	00		 mov	 DWORD PTR [esi], OFFSET FLAT:??_7?$CMyBucket@PAVCClientSockE@@@@6B@
  00041	74 09		 je	 SHORT $L153948
  00043	56		 push	 esi
  00044	e8 00 00 00 00	 call	 ??3@YAXPAX@Z		; operator delete
  00049	83 c4 04	 add	 esp, 4
$L153948:
  0004c	8b c6		 mov	 eax, esi
  0004e	5e		 pop	 esi
  0004f	5b		 pop	 ebx
  00050	c2 04 00	 ret	 4
??_E?$CMyBucket@PAVCClientSockE@@@@UAEPAXI@Z ENDP	; CMyBucket<CClientSockE *>::`vector deleting destructor'
_TEXT	ENDS
PUBLIC	?empty@?$deque@PAV?$CMyBucket@PAVCClientSockE@@@@V?$allocator@PAV?$CMyBucket@PAVCClientSockE@@@@@std@@@std@@QBE_NXZ ; std::deque<CMyBucket<CClientSockE *> *,std::allocator<CMyBucket<CClientSockE *> *> >::empty
; Function compile flags: /Ogty
; File c:\program files\microsoft visual studio .net 2003\vc7\include\deque
;	COMDAT ?empty@?$deque@PAV?$CMyBucket@PAVCClientSockE@@@@V?$allocator@PAV?$CMyBucket@PAVCClientSockE@@@@@std@@@std@@QBE_NXZ
_TEXT	SEGMENT
?empty@?$deque@PAV?$CMyBucket@PAVCClientSockE@@@@V?$allocator@PAV?$CMyBucket@PAVCClientSockE@@@@@std@@@std@@QBE_NXZ PROC NEAR ; std::deque<CMyBucket<CClientSockE *> *,std::allocator<CMyBucket<CClientSockE *> *> >::empty, COMDAT
; _this$ = ecx

; 502  : 		return (_Mysize == 0);

  00000	8b 51 10	 mov	 edx, DWORD PTR [ecx+16]
  00003	33 c0		 xor	 eax, eax
  00005	85 d2		 test	 edx, edx
  00007	0f 94 c0	 sete	 al

; 503  : 		}

  0000a	c3		 ret	 0
?empty@?$deque@PAV?$CMyBucket@PAVCClientSockE@@@@V?$allocator@PAV?$CMyBucket@PAVCClientSockE@@@@@std@@@std@@QBE_NXZ ENDP ; std::deque<CMyBucket<CClientSockE *> *,std::allocator<CMyBucket<CClientSockE *> *> >::empty
_TEXT	ENDS
PUBLIC	?deallocate@?$allocator@PAV?$CMyBucket@PAVCClientSockE@@@@@std@@QAEXPAPAV?$CMyBucket@PAVCClientSockE@@@@I@Z ; std::allocator<CMyBucket<CClientSockE *> *>::deallocate
; Function compile flags: /Ogty
; File c:\program files\microsoft visual studio .net 2003\vc7\include\xmemory
;	COMDAT ?deallocate@?$allocator@PAV?$CMyBucket@PAVCClientSockE@@@@@std@@QAEXPAPAV?$CMyBucket@PAVCClientSockE@@@@I@Z
_TEXT	SEGMENT
__Ptr$ = 8						; size = 4
___formal$ = 12						; size = 4
?deallocate@?$allocator@PAV?$CMyBucket@PAVCClientSockE@@@@@std@@QAEXPAPAV?$CMyBucket@PAVCClientSockE@@@@I@Z PROC NEAR ; std::allocator<CMyBucket<CClientSockE *> *>::deallocate, COMDAT
; _this$ = ecx

; 132  : 		operator delete(_Ptr);

  00000	8b 44 24 04	 mov	 eax, DWORD PTR __Ptr$[esp-4]
  00004	50		 push	 eax
  00005	e8 00 00 00 00	 call	 ??3@YAXPAX@Z		; operator delete
  0000a	59		 pop	 ecx

; 133  : 		}

  0000b	c2 08 00	 ret	 8
?deallocate@?$allocator@PAV?$CMyBucket@PAVCClientSockE@@@@@std@@QAEXPAPAV?$CMyBucket@PAVCClientSockE@@@@I@Z ENDP ; std::allocator<CMyBucket<CClientSockE *> *>::deallocate
_TEXT	ENDS
PUBLIC	?deallocate@?$allocator@PAPAV?$CMyBucket@PAVCClientSockE@@@@@std@@QAEXPAPAPAV?$CMyBucket@PAVCClientSockE@@@@I@Z ; std::allocator<CMyBucket<CClientSockE *> * *>::deallocate
; Function compile flags: /Ogty
;	COMDAT ?deallocate@?$allocator@PAPAV?$CMyBucket@PAVCClientSockE@@@@@std@@QAEXPAPAPAV?$CMyBucket@PAVCClientSockE@@@@I@Z
_TEXT	SEGMENT
__Ptr$ = 8						; size = 4
___formal$ = 12						; size = 4
?deallocate@?$allocator@PAPAV?$CMyBucket@PAVCClientSockE@@@@@std@@QAEXPAPAPAV?$CMyBucket@PAVCClientSockE@@@@I@Z PROC NEAR ; std::allocator<CMyBucket<CClientSockE *> * *>::deallocate, COMDAT
; _this$ = ecx

; 132  : 		operator delete(_Ptr);

  00000	8b 44 24 04	 mov	 eax, DWORD PTR __Ptr$[esp-4]
  00004	50		 push	 eax
  00005	e8 00 00 00 00	 call	 ??3@YAXPAX@Z		; operator delete
  0000a	59		 pop	 ecx

; 133  : 		}

  0000b	c2 08 00	 ret	 8
?deallocate@?$allocator@PAPAV?$CMyBucket@PAVCClientSockE@@@@@std@@QAEXPAPAPAV?$CMyBucket@PAVCClientSockE@@@@I@Z ENDP ; std::allocator<CMyBucket<CClientSockE *> * *>::deallocate
_TEXT	ENDS
PUBLIC	?_Nextnode@?$list@PAV?$CMyBucket@PAVCClientSockE@@@@V?$allocator@PAV?$CMyBucket@PAVCClientSockE@@@@@std@@@std@@KAAAPAU_Node@?$_List_nod@PAV?$CMyBucket@PAVCClientSockE@@@@V?$allocator@PAV?$CMyBucket@PAVCClientSockE@@@@@std@@@2@PAU342@@Z ; std::list<CMyBucket<CClientSockE *> *,std::allocator<CMyBucket<CClientSockE *> *> >::_Nextnode
; Function compile flags: /Ogty
; File c:\program files\microsoft visual studio .net 2003\vc7\include\list
;	COMDAT ?_Nextnode@?$list@PAV?$CMyBucket@PAVCClientSockE@@@@V?$allocator@PAV?$CMyBucket@PAVCClientSockE@@@@@std@@@std@@KAAAPAU_Node@?$_List_nod@PAV?$CMyBucket@PAVCClientSockE@@@@V?$allocator@PAV?$CMyBucket@PAVCClientSockE@@@@@std@@@2@PAU342@@Z
_TEXT	SEGMENT
__Pnode$ = 8						; size = 4
?_Nextnode@?$list@PAV?$CMyBucket@PAVCClientSockE@@@@V?$allocator@PAV?$CMyBucket@PAVCClientSockE@@@@@std@@@std@@KAAAPAU_Node@?$_List_nod@PAV?$CMyBucket@PAVCClientSockE@@@@V?$allocator@PAV?$CMyBucket@PAVCClientSockE@@@@@std@@@2@PAU342@@Z PROC NEAR ; std::list<CMyBucket<CClientSockE *> *,std::allocator<CMyBucket<CClientSockE *> *> >::_Nextnode, COMDAT

; 108  : 		return ((_Nodepref)(*_Pnode)._Next);

  00000	8b 44 24 04	 mov	 eax, DWORD PTR __Pnode$[esp-4]

; 109  : 		}

  00004	c3		 ret	 0
?_Nextnode@?$list@PAV?$CMyBucket@PAVCClientSockE@@@@V?$allocator@PAV?$CMyBucket@PAVCClientSockE@@@@@std@@@std@@KAAAPAU_Node@?$_List_nod@PAV?$CMyBucket@PAVCClientSockE@@@@V?$allocator@PAV?$CMyBucket@PAVCClientSockE@@@@@std@@@2@PAU342@@Z ENDP ; std::list<CMyBucket<CClientSockE *> *,std::allocator<CMyBucket<CClientSockE *> *> >::_Nextnode
_TEXT	ENDS
PUBLIC	?_Prevnode@?$list@PAV?$CMyBucket@PAVCClientSockE@@@@V?$allocator@PAV?$CMyBucket@PAVCClientSockE@@@@@std@@@std@@KAAAPAU_Node@?$_List_nod@PAV?$CMyBucket@PAVCClientSockE@@@@V?$allocator@PAV?$CMyBucket@PAVCClientSockE@@@@@std@@@2@PAU342@@Z ; std::list<CMyBucket<CClientSockE *> *,std::allocator<CMyBucket<CClientSockE *> *> >::_Prevnode
; Function compile flags: /Ogty
;	COMDAT ?_Prevnode@?$list@PAV?$CMyBucket@PAVCClientSockE@@@@V?$allocator@PAV?$CMyBucket@PAVCClientSockE@@@@@std@@@std@@KAAAPAU_Node@?$_List_nod@PAV?$CMyBucket@PAVCClientSockE@@@@V?$allocator@PAV?$CMyBucket@PAVCClientSockE@@@@@std@@@2@PAU342@@Z
_TEXT	SEGMENT
__Pnode$ = 8						; size = 4
?_Prevnode@?$list@PAV?$CMyBucket@PAVCClientSockE@@@@V?$allocator@PAV?$CMyBucket@PAVCClientSockE@@@@@std@@@std@@KAAAPAU_Node@?$_List_nod@PAV?$CMyBucket@PAVCClientSockE@@@@V?$allocator@PAV?$CMyBucket@PAVCClientSockE@@@@@std@@@2@PAU342@@Z PROC NEAR ; std::list<CMyBucket<CClientSockE *> *,std::allocator<CMyBucket<CClientSockE *> *> >::_Prevnode, COMDAT

; 113  : 		return ((_Nodepref)(*_Pnode)._Prev);

  00000	8b 44 24 04	 mov	 eax, DWORD PTR __Pnode$[esp-4]
  00004	83 c0 04	 add	 eax, 4

; 114  : 		}

  00007	c3		 ret	 0
?_Prevnode@?$list@PAV?$CMyBucket@PAVCClientSockE@@@@V?$allocator@PAV?$CMyBucket@PAVCClientSockE@@@@@std@@@std@@KAAAPAU_Node@?$_List_nod@PAV?$CMyBucket@PAVCClientSockE@@@@V?$allocator@PAV?$CMyBucket@PAVCClientSockE@@@@@std@@@2@PAU342@@Z ENDP ; std::list<CMyBucket<CClientSockE *> *,std::allocator<CMyBucket<CClientSockE *> *> >::_Prevnode
_TEXT	ENDS
PUBLIC	?deallocate@?$allocator@U_Node@?$_List_nod@PAV?$CMyBucket@PAVCClientSockE@@@@V?$allocator@PAV?$CMyBucket@PAVCClientSockE@@@@@std@@@std@@@std@@QAEXPAU_Node@?$_List_nod@PAV?$CMyBucket@PAVCClientSockE@@@@V?$allocator@PAV?$CMyBucket@PAVCClientSockE@@@@@std@@@2@I@Z ; std::allocator<std::_List_nod<CMyBucket<CClientSockE *> *,std::allocator<CMyBucket<CClientSockE *> *> >::_Node>::deallocate
; Function compile flags: /Ogty
; File c:\program files\microsoft visual studio .net 2003\vc7\include\xmemory
;	COMDAT ?deallocate@?$allocator@U_Node@?$_List_nod@PAV?$CMyBucket@PAVCClientSockE@@@@V?$allocator@PAV?$CMyBucket@PAVCClientSockE@@@@@std@@@std@@@std@@QAEXPAU_Node@?$_List_nod@PAV?$CMyBucket@PAVCClientSockE@@@@V?$allocator@PAV?$CMyBucket@PAVCClientSockE@@@@@std@@@2@I@Z
_TEXT	SEGMENT
__Ptr$ = 8						; size = 4
___formal$ = 12						; size = 4
?deallocate@?$allocator@U_Node@?$_List_nod@PAV?$CMyBucket@PAVCClientSockE@@@@V?$allocator@PAV?$CMyBucket@PAVCClientSockE@@@@@std@@@std@@@std@@QAEXPAU_Node@?$_List_nod@PAV?$CMyBucket@PAVCClientSockE@@@@V?$allocator@PAV?$CMyBucket@PAVCClientSockE@@@@@std@@@2@I@Z PROC NEAR ; std::allocator<std::_List_nod<CMyBucket<CClientSockE *> *,std::allocator<CMyBucket<CClientSockE *> *> >::_Node>::deallocate, COMDAT
; _this$ = ecx

; 132  : 		operator delete(_Ptr);

  00000	8b 44 24 04	 mov	 eax, DWORD PTR __Ptr$[esp-4]
  00004	50		 push	 eax
  00005	e8 00 00 00 00	 call	 ??3@YAXPAX@Z		; operator delete
  0000a	59		 pop	 ecx

; 133  : 		}

  0000b	c2 08 00	 ret	 8
?deallocate@?$allocator@U_Node@?$_List_nod@PAV?$CMyBucket@PAVCClientSockE@@@@V?$allocator@PAV?$CMyBucket@PAVCClientSockE@@@@@std@@@std@@@std@@QAEXPAU_Node@?$_List_nod@PAV?$CMyBucket@PAVCClientSockE@@@@V?$allocator@PAV?$CMyBucket@PAVCClientSockE@@@@@std@@@2@I@Z ENDP ; std::allocator<std::_List_nod<CMyBucket<CClientSockE *> *,std::allocator<CMyBucket<CClientSockE *> *> >::_Node>::deallocate
_TEXT	ENDS
PUBLIC	?AddItToActiveList@?$CMyMap@PAVCClientSockE@@@@QAEXPAV?$CMyBucket@PAVCClientSockE@@@@@Z ; CMyMap<CClientSockE *>::AddItToActiveList
; Function compile flags: /Ogty
; File c:\offi src_real\offi src!\_network\misc\include\mymap.h
;	COMDAT ?AddItToActiveList@?$CMyMap@PAVCClientSockE@@@@QAEXPAV?$CMyBucket@PAVCClientSockE@@@@@Z
_TEXT	SEGMENT
_pBucket$ = 8						; size = 4
?AddItToActiveList@?$CMyMap@PAVCClientSockE@@@@QAEXPAV?$CMyBucket@PAVCClientSockE@@@@@Z PROC NEAR ; CMyMap<CClientSockE *>::AddItToActiveList, COMDAT
; _this$ = ecx

; 443  : 	// Add it to the active list
; 444  : 	if( m_pFirstActive )

  00000	8b 51 34	 mov	 edx, DWORD PTR [ecx+52]
  00003	85 d2		 test	 edx, edx
  00005	8b 44 24 04	 mov	 eax, DWORD PTR _pBucket$[esp-4]
  00009	74 03		 je	 SHORT $L154350

; 445  : 		m_pFirstActive->pPrevious	= pBucket;

  0000b	89 42 10	 mov	 DWORD PTR [edx+16], eax
$L154350:

; 446  : 	pBucket->pNext	= m_pFirstActive;

  0000e	8b 51 34	 mov	 edx, DWORD PTR [ecx+52]
  00011	89 50 14	 mov	 DWORD PTR [eax+20], edx

; 447  : 	pBucket->pPrevious	= NULL;

  00014	c7 40 10 00 00
	00 00		 mov	 DWORD PTR [eax+16], 0

; 448  : 	m_pFirstActive	= pBucket;

  0001b	89 41 34	 mov	 DWORD PTR [ecx+52], eax

; 449  : }

  0001e	c2 04 00	 ret	 4
?AddItToActiveList@?$CMyMap@PAVCClientSockE@@@@QAEXPAV?$CMyBucket@PAVCClientSockE@@@@@Z ENDP ; CMyMap<CClientSockE *>::AddItToActiveList
_TEXT	ENDS
PUBLIC	?RemoveItFromActiveList@?$CMyMap@PAVCClientSockE@@@@QAEXPAV?$CMyBucket@PAVCClientSockE@@@@@Z ; CMyMap<CClientSockE *>::RemoveItFromActiveList
; Function compile flags: /Ogty
;	COMDAT ?RemoveItFromActiveList@?$CMyMap@PAVCClientSockE@@@@QAEXPAV?$CMyBucket@PAVCClientSockE@@@@@Z
_TEXT	SEGMENT
_pBucket$ = 8						; size = 4
?RemoveItFromActiveList@?$CMyMap@PAVCClientSockE@@@@QAEXPAV?$CMyBucket@PAVCClientSockE@@@@@Z PROC NEAR ; CMyMap<CClientSockE *>::RemoveItFromActiveList, COMDAT
; _this$ = ecx

; 453  : 	// Remove it from active list
; 454  : 	if( pBucket->pPrevious )

  00000	8b 44 24 04	 mov	 eax, DWORD PTR _pBucket$[esp-4]
  00004	8b 50 10	 mov	 edx, DWORD PTR [eax+16]
  00007	85 d2		 test	 edx, edx
  00009	56		 push	 esi
  0000a	74 06		 je	 SHORT $L154356

; 455  : 		pBucket->pPrevious->pNext	= pBucket->pNext;

  0000c	8b 70 14	 mov	 esi, DWORD PTR [eax+20]
  0000f	89 72 14	 mov	 DWORD PTR [edx+20], esi
$L154356:

; 456  : 	if( pBucket->pNext )

  00012	8b 50 14	 mov	 edx, DWORD PTR [eax+20]
  00015	85 d2		 test	 edx, edx
  00017	74 06		 je	 SHORT $L154357

; 457  : 		pBucket->pNext->pPrevious	= pBucket->pPrevious;

  00019	8b 70 10	 mov	 esi, DWORD PTR [eax+16]
  0001c	89 72 10	 mov	 DWORD PTR [edx+16], esi
$L154357:

; 458  : 	if( m_pFirstActive == pBucket )

  0001f	39 41 34	 cmp	 DWORD PTR [ecx+52], eax
  00022	5e		 pop	 esi
  00023	75 06		 jne	 SHORT $L154358

; 459  : 		m_pFirstActive	= pBucket->pNext;

  00025	8b 40 14	 mov	 eax, DWORD PTR [eax+20]
  00028	89 41 34	 mov	 DWORD PTR [ecx+52], eax
$L154358:

; 460  : }

  0002b	c2 04 00	 ret	 4
?RemoveItFromActiveList@?$CMyMap@PAVCClientSockE@@@@QAEXPAV?$CMyBucket@PAVCClientSockE@@@@@Z ENDP ; CMyMap<CClientSockE *>::RemoveItFromActiveList
_TEXT	ENDS
PUBLIC	??0?$CMyBucket@PAVCClientSockE@@@@QAE@XZ	; CMyBucket<CClientSockE *>::CMyBucket<CClientSockE *>
; Function compile flags: /Ogty
;	COMDAT ??0?$CMyBucket@PAVCClientSockE@@@@QAE@XZ
_TEXT	SEGMENT
??0?$CMyBucket@PAVCClientSockE@@@@QAE@XZ PROC NEAR	; CMyBucket<CClientSockE *>::CMyBucket<CClientSockE *>, COMDAT
; _this$ = ecx

; 52   : {

  00000	8b c1		 mov	 eax, ecx

; 53   : 	m_dwKey		= INVALID_KEY;
; 54   : 	m_pNext		= NULL;	// map

  00002	33 c9		 xor	 ecx, ecx
  00004	c7 00 00 00 00
	00		 mov	 DWORD PTR [eax], OFFSET FLAT:??_7?$CMyBucket@PAVCClientSockE@@@@6B@
  0000a	c7 40 04 ff ff
	ff ff		 mov	 DWORD PTR [eax+4], -1
  00011	89 48 0c	 mov	 DWORD PTR [eax+12], ecx

; 55   : 	pPrevious	= pNext		= NULL;	// list

  00014	89 48 14	 mov	 DWORD PTR [eax+20], ecx
  00017	89 48 10	 mov	 DWORD PTR [eax+16], ecx

; 56   : }

  0001a	c3		 ret	 0
??0?$CMyBucket@PAVCClientSockE@@@@QAE@XZ ENDP		; CMyBucket<CClientSockE *>::CMyBucket<CClientSockE *>
_TEXT	ENDS
PUBLIC	?Empty@?$CMyBucket@PAVCClientSockE@@@@QAEXXZ	; CMyBucket<CClientSockE *>::Empty
; Function compile flags: /Ogty
;	COMDAT ?Empty@?$CMyBucket@PAVCClientSockE@@@@QAEXXZ
_TEXT	SEGMENT
?Empty@?$CMyBucket@PAVCClientSockE@@@@QAEXXZ PROC NEAR	; CMyBucket<CClientSockE *>::Empty, COMDAT
; _this$ = ecx

; 65   : 	m_dwKey		= INVALID_KEY;

  00000	c7 41 04 ff ff
	ff ff		 mov	 DWORD PTR [ecx+4], -1

; 66   : }

  00007	c3		 ret	 0
?Empty@?$CMyBucket@PAVCClientSockE@@@@QAEXXZ ENDP	; CMyBucket<CClientSockE *>::Empty
_TEXT	ENDS
PUBLIC	?IsEqual@?$CMyBucket@PAVCClientSockE@@@@QAEHK@Z	; CMyBucket<CClientSockE *>::IsEqual
; Function compile flags: /Ogty
;	COMDAT ?IsEqual@?$CMyBucket@PAVCClientSockE@@@@QAEHK@Z
_TEXT	SEGMENT
_dwKey$ = 8						; size = 4
?IsEqual@?$CMyBucket@PAVCClientSockE@@@@QAEHK@Z PROC NEAR ; CMyBucket<CClientSockE *>::IsEqual, COMDAT
; _this$ = ecx

; 70   : 	return( dwKey == m_dwKey );

  00000	8b 54 24 04	 mov	 edx, DWORD PTR _dwKey$[esp-4]
  00004	56		 push	 esi
  00005	8b 71 04	 mov	 esi, DWORD PTR [ecx+4]
  00008	33 c0		 xor	 eax, eax
  0000a	3b d6		 cmp	 edx, esi
  0000c	0f 94 c0	 sete	 al
  0000f	5e		 pop	 esi

; 71   : }

  00010	c2 04 00	 ret	 4
?IsEqual@?$CMyBucket@PAVCClientSockE@@@@QAEHK@Z ENDP	; CMyBucket<CClientSockE *>::IsEqual
_TEXT	ENDS
PUBLIC	?IsEmpty@?$CMyBucket@PAVCClientSockE@@@@QAEHXZ	; CMyBucket<CClientSockE *>::IsEmpty
; Function compile flags: /Ogty
;	COMDAT ?IsEmpty@?$CMyBucket@PAVCClientSockE@@@@QAEHXZ
_TEXT	SEGMENT
?IsEmpty@?$CMyBucket@PAVCClientSockE@@@@QAEHXZ PROC NEAR ; CMyBucket<CClientSockE *>::IsEmpty, COMDAT
; _this$ = ecx

; 75   : 	return( m_dwKey == INVALID_KEY );

  00000	8b 51 04	 mov	 edx, DWORD PTR [ecx+4]
  00003	33 c0		 xor	 eax, eax
  00005	83 fa ff	 cmp	 edx, -1
  00008	0f 94 c0	 sete	 al

; 76   : }

  0000b	c3		 ret	 0
?IsEmpty@?$CMyBucket@PAVCClientSockE@@@@QAEHXZ ENDP	; CMyBucket<CClientSockE *>::IsEmpty
_TEXT	ENDS
PUBLIC	??$_Destroy@PAPAV?$CMyBucket@PAVCClientSockE@@@@@std@@YAXPAPAPAV?$CMyBucket@PAVCClientSockE@@@@@Z ; std::_Destroy<CMyBucket<CClientSockE *> * *>
; Function compile flags: /Ogty
; File c:\program files\microsoft visual studio .net 2003\vc7\include\xmemory
;	COMDAT ??$_Destroy@PAPAV?$CMyBucket@PAVCClientSockE@@@@@std@@YAXPAPAPAV?$CMyBucket@PAVCClientSockE@@@@@Z
_TEXT	SEGMENT
__Ptr$ = 8						; size = 4
??$_Destroy@PAPAV?$CMyBucket@PAVCClientSockE@@@@@std@@YAXPAPAPAV?$CMyBucket@PAVCClientSockE@@@@@Z PROC NEAR ; std::_Destroy<CMyBucket<CClientSockE *> * *>, COMDAT

; 49   : 	_DESTRUCTOR(_Ty, _Ptr);
; 50   : 	}

  00000	c3		 ret	 0
??$_Destroy@PAPAV?$CMyBucket@PAVCClientSockE@@@@@std@@YAXPAPAPAV?$CMyBucket@PAVCClientSockE@@@@@Z ENDP ; std::_Destroy<CMyBucket<CClientSockE *> * *>
_TEXT	ENDS
PUBLIC	??$_Destroy@PAU_Node@?$_List_nod@PAV?$CMyBucket@PAVCClientSockE@@@@V?$allocator@PAV?$CMyBucket@PAVCClientSockE@@@@@std@@@std@@@std@@YAXPAPAU_Node@?$_List_nod@PAV?$CMyBucket@PAVCClientSockE@@@@V?$allocator@PAV?$CMyBucket@PAVCClientSockE@@@@@std@@@0@@Z ; std::_Destroy<std::_List_nod<CMyBucket<CClientSockE *> *,std::allocator<CMyBucket<CClientSockE *> *> >::_Node *>
; Function compile flags: /Ogty
;	COMDAT ??$_Destroy@PAU_Node@?$_List_nod@PAV?$CMyBucket@PAVCClientSockE@@@@V?$allocator@PAV?$CMyBucket@PAVCClientSockE@@@@@std@@@std@@@std@@YAXPAPAU_Node@?$_List_nod@PAV?$CMyBucket@PAVCClientSockE@@@@V?$allocator@PAV?$CMyBucket@PAVCClientSockE@@@@@std@@@0@@Z
_TEXT	SEGMENT
__Ptr$ = 8						; size = 4
??$_Destroy@PAU_Node@?$_List_nod@PAV?$CMyBucket@PAVCClientSockE@@@@V?$allocator@PAV?$CMyBucket@PAVCClientSockE@@@@@std@@@std@@@std@@YAXPAPAU_Node@?$_List_nod@PAV?$CMyBucket@PAVCClientSockE@@@@V?$allocator@PAV?$CMyBucket@PAVCClientSockE@@@@@std@@@0@@Z PROC NEAR ; std::_Destroy<std::_List_nod<CMyBucket<CClientSockE *> *,std::allocator<CMyBucket<CClientSockE *> *> >::_Node *>, COMDAT

; 49   : 	_DESTRUCTOR(_Ty, _Ptr);
; 50   : 	}

  00000	c3		 ret	 0
??$_Destroy@PAU_Node@?$_List_nod@PAV?$CMyBucket@PAVCClientSockE@@@@V?$allocator@PAV?$CMyBucket@PAVCClientSockE@@@@@std@@@std@@@std@@YAXPAPAU_Node@?$_List_nod@PAV?$CMyBucket@PAVCClientSockE@@@@V?$allocator@PAV?$CMyBucket@PAVCClientSockE@@@@@std@@@0@@Z ENDP ; std::_Destroy<std::_List_nod<CMyBucket<CClientSockE *> *,std::allocator<CMyBucket<CClientSockE *> *> >::_Node *>
_TEXT	ENDS
PUBLIC	??$_Destroy@PAV?$CMyBucket@PAVCClientSockE@@@@@std@@YAXPAPAV?$CMyBucket@PAVCClientSockE@@@@@Z ; std::_Destroy<CMyBucket<CClientSockE *> *>
; Function compile flags: /Ogty
;	COMDAT ??$_Destroy@PAV?$CMyBucket@PAVCClientSockE@@@@@std@@YAXPAPAV?$CMyBucket@PAVCClientSockE@@@@@Z
_TEXT	SEGMENT
__Ptr$ = 8						; size = 4
??$_Destroy@PAV?$CMyBucket@PAVCClientSockE@@@@@std@@YAXPAPAV?$CMyBucket@PAVCClientSockE@@@@@Z PROC NEAR ; std::_Destroy<CMyBucket<CClientSockE *> *>, COMDAT

; 49   : 	_DESTRUCTOR(_Ty, _Ptr);
; 50   : 	}

  00000	c3		 ret	 0
??$_Destroy@PAV?$CMyBucket@PAVCClientSockE@@@@@std@@YAXPAPAV?$CMyBucket@PAVCClientSockE@@@@@Z ENDP ; std::_Destroy<CMyBucket<CClientSockE *> *>
_TEXT	ENDS
PUBLIC	??$_Destroy@U_Node@?$_List_nod@PAV?$CMyBucket@PAVCClientSockE@@@@V?$allocator@PAV?$CMyBucket@PAVCClientSockE@@@@@std@@@std@@@std@@YAXPAU_Node@?$_List_nod@PAV?$CMyBucket@PAVCClientSockE@@@@V?$allocator@PAV?$CMyBucket@PAVCClientSockE@@@@@std@@@0@@Z ; std::_Destroy<std::_List_nod<CMyBucket<CClientSockE *> *,std::allocator<CMyBucket<CClientSockE *> *> >::_Node>
; Function compile flags: /Ogty
;	COMDAT ??$_Destroy@U_Node@?$_List_nod@PAV?$CMyBucket@PAVCClientSockE@@@@V?$allocator@PAV?$CMyBucket@PAVCClientSockE@@@@@std@@@std@@@std@@YAXPAU_Node@?$_List_nod@PAV?$CMyBucket@PAVCClientSockE@@@@V?$allocator@PAV?$CMyBucket@PAVCClientSockE@@@@@std@@@0@@Z
_TEXT	SEGMENT
__Ptr$ = 8						; size = 4
??$_Destroy@U_Node@?$_List_nod@PAV?$CMyBucket@PAVCClientSockE@@@@V?$allocator@PAV?$CMyBucket@PAVCClientSockE@@@@@std@@@std@@@std@@YAXPAU_Node@?$_List_nod@PAV?$CMyBucket@PAVCClientSockE@@@@V?$allocator@PAV?$CMyBucket@PAVCClientSockE@@@@@std@@@0@@Z PROC NEAR ; std::_Destroy<std::_List_nod<CMyBucket<CClientSockE *> *,std::allocator<CMyBucket<CClientSockE *> *> >::_Node>, COMDAT

; 49   : 	_DESTRUCTOR(_Ty, _Ptr);
; 50   : 	}

  00000	c3		 ret	 0
??$_Destroy@U_Node@?$_List_nod@PAV?$CMyBucket@PAVCClientSockE@@@@V?$allocator@PAV?$CMyBucket@PAVCClientSockE@@@@@std@@@std@@@std@@YAXPAU_Node@?$_List_nod@PAV?$CMyBucket@PAVCClientSockE@@@@V?$allocator@PAV?$CMyBucket@PAVCClientSockE@@@@@std@@@0@@Z ENDP ; std::_Destroy<std::_List_nod<CMyBucket<CClientSockE *> *,std::allocator<CMyBucket<CClientSockE *> *> >::_Node>
_TEXT	ENDS
PUBLIC	?empty@?$stack@PAV?$CMyBucket@PAVCClientSockE@@@@V?$deque@PAV?$CMyBucket@PAVCClientSockE@@@@V?$allocator@PAV?$CMyBucket@PAVCClientSockE@@@@@std@@@std@@@std@@QBE_NXZ ; std::stack<CMyBucket<CClientSockE *> *,std::deque<CMyBucket<CClientSockE *> *,std::allocator<CMyBucket<CClientSockE *> *> > >::empty
; Function compile flags: /Ogty
; File c:\program files\microsoft visual studio .net 2003\vc7\include\stack
;	COMDAT ?empty@?$stack@PAV?$CMyBucket@PAVCClientSockE@@@@V?$deque@PAV?$CMyBucket@PAVCClientSockE@@@@V?$allocator@PAV?$CMyBucket@PAVCClientSockE@@@@@std@@@std@@@std@@QBE_NXZ
_TEXT	SEGMENT
?empty@?$stack@PAV?$CMyBucket@PAVCClientSockE@@@@V?$deque@PAV?$CMyBucket@PAVCClientSockE@@@@V?$allocator@PAV?$CMyBucket@PAVCClientSockE@@@@@std@@@std@@@std@@QBE_NXZ PROC NEAR ; std::stack<CMyBucket<CClientSockE *> *,std::deque<CMyBucket<CClientSockE *> *,std::allocator<CMyBucket<CClientSockE *> *> > >::empty, COMDAT
; _this$ = ecx

; 33   : 		return (c.empty());

  00000	8b 51 10	 mov	 edx, DWORD PTR [ecx+16]
  00003	33 c0		 xor	 eax, eax
  00005	85 d2		 test	 edx, edx
  00007	0f 94 c0	 sete	 al

; 34   : 		}

  0000a	c3		 ret	 0
?empty@?$stack@PAV?$CMyBucket@PAVCClientSockE@@@@V?$deque@PAV?$CMyBucket@PAVCClientSockE@@@@V?$allocator@PAV?$CMyBucket@PAVCClientSockE@@@@@std@@@std@@@std@@QBE_NXZ ENDP ; std::stack<CMyBucket<CClientSockE *> *,std::deque<CMyBucket<CClientSockE *> *,std::allocator<CMyBucket<CClientSockE *> *> > >::empty
_TEXT	ENDS
PUBLIC	??0?$allocator@PAV?$CMyBucket@PAVCClientSockE@@@@@std@@QAE@XZ ; std::allocator<CMyBucket<CClientSockE *> *>::allocator<CMyBucket<CClientSockE *> *>
; Function compile flags: /Ogty
; File c:\program files\microsoft visual studio .net 2003\vc7\include\xmemory
;	COMDAT ??0?$allocator@PAV?$CMyBucket@PAVCClientSockE@@@@@std@@QAE@XZ
_TEXT	SEGMENT
??0?$allocator@PAV?$CMyBucket@PAVCClientSockE@@@@@std@@QAE@XZ PROC NEAR ; std::allocator<CMyBucket<CClientSockE *> *>::allocator<CMyBucket<CClientSockE *> *>, COMDAT
; _this$ = ecx

; 111  : 	allocator()

  00000	8b c1		 mov	 eax, ecx

; 112  : 		{	// construct default allocator (do nothing)
; 113  : 		}

  00002	c3		 ret	 0
??0?$allocator@PAV?$CMyBucket@PAVCClientSockE@@@@@std@@QAE@XZ ENDP ; std::allocator<CMyBucket<CClientSockE *> *>::allocator<CMyBucket<CClientSockE *> *>
_TEXT	ENDS
PUBLIC	??Econst_iterator@?$list@PAV?$CMyBucket@PAVCClientSockE@@@@V?$allocator@PAV?$CMyBucket@PAVCClientSockE@@@@@std@@@std@@QAEAAV012@XZ ; std::list<CMyBucket<CClientSockE *> *,std::allocator<CMyBucket<CClientSockE *> *> >::const_iterator::operator++
; Function compile flags: /Ogty
; File c:\program files\microsoft visual studio .net 2003\vc7\include\list
;	COMDAT ??Econst_iterator@?$list@PAV?$CMyBucket@PAVCClientSockE@@@@V?$allocator@PAV?$CMyBucket@PAVCClientSockE@@@@@std@@@std@@QAEAAV012@XZ
_TEXT	SEGMENT
??Econst_iterator@?$list@PAV?$CMyBucket@PAVCClientSockE@@@@V?$allocator@PAV?$CMyBucket@PAVCClientSockE@@@@@std@@@std@@QAEAAV012@XZ PROC NEAR ; std::list<CMyBucket<CClientSockE *> *,std::allocator<CMyBucket<CClientSockE *> *> >::const_iterator::operator++, COMDAT
; _this$ = ecx

; 170  : 			{	// preincrement

  00000	8b c1		 mov	 eax, ecx

; 171  : 			_Ptr = _Nextnode(_Ptr);

  00002	8b 08		 mov	 ecx, DWORD PTR [eax]
  00004	8b 11		 mov	 edx, DWORD PTR [ecx]
  00006	89 10		 mov	 DWORD PTR [eax], edx

; 172  : 			return (*this);
; 173  : 			}

  00008	c3		 ret	 0
??Econst_iterator@?$list@PAV?$CMyBucket@PAVCClientSockE@@@@V?$allocator@PAV?$CMyBucket@PAVCClientSockE@@@@@std@@@std@@QAEAAV012@XZ ENDP ; std::list<CMyBucket<CClientSockE *> *,std::allocator<CMyBucket<CClientSockE *> *> >::const_iterator::operator++
_TEXT	ENDS
PUBLIC	??8const_iterator@?$list@PAV?$CMyBucket@PAVCClientSockE@@@@V?$allocator@PAV?$CMyBucket@PAVCClientSockE@@@@@std@@@std@@QBE_NABV012@@Z ; std::list<CMyBucket<CClientSockE *> *,std::allocator<CMyBucket<CClientSockE *> *> >::const_iterator::operator==
; Function compile flags: /Ogty
;	COMDAT ??8const_iterator@?$list@PAV?$CMyBucket@PAVCClientSockE@@@@V?$allocator@PAV?$CMyBucket@PAVCClientSockE@@@@@std@@@std@@QBE_NABV012@@Z
_TEXT	SEGMENT
__Right$ = 8						; size = 4
??8const_iterator@?$list@PAV?$CMyBucket@PAVCClientSockE@@@@V?$allocator@PAV?$CMyBucket@PAVCClientSockE@@@@@std@@@std@@QBE_NABV012@@Z PROC NEAR ; std::list<CMyBucket<CClientSockE *> *,std::allocator<CMyBucket<CClientSockE *> *> >::const_iterator::operator==, COMDAT
; _this$ = ecx

; 197  : 			return (_Ptr == _Right._Ptr);

  00000	8b 01		 mov	 eax, DWORD PTR [ecx]
  00002	8b 4c 24 04	 mov	 ecx, DWORD PTR __Right$[esp-4]
  00006	2b 01		 sub	 eax, DWORD PTR [ecx]
  00008	f7 d8		 neg	 eax
  0000a	1b c0		 sbb	 eax, eax
  0000c	40		 inc	 eax

; 198  : 			}

  0000d	c2 04 00	 ret	 4
??8const_iterator@?$list@PAV?$CMyBucket@PAVCClientSockE@@@@V?$allocator@PAV?$CMyBucket@PAVCClientSockE@@@@@std@@@std@@QBE_NABV012@@Z ENDP ; std::list<CMyBucket<CClientSockE *> *,std::allocator<CMyBucket<CClientSockE *> *> >::const_iterator::operator==
_TEXT	ENDS
PUBLIC	??0?$allocator@PAV?$CMyBucket@PAVCClientSockE@@@@@std@@QAE@ABV01@@Z ; std::allocator<CMyBucket<CClientSockE *> *>::allocator<CMyBucket<CClientSockE *> *>
; Function compile flags: /Ogty
; File c:\program files\microsoft visual studio .net 2003\vc7\include\xmemory
;	COMDAT ??0?$allocator@PAV?$CMyBucket@PAVCClientSockE@@@@@std@@QAE@ABV01@@Z
_TEXT	SEGMENT
___formal$ = 8						; size = 4
??0?$allocator@PAV?$CMyBucket@PAVCClientSockE@@@@@std@@QAE@ABV01@@Z PROC NEAR ; std::allocator<CMyBucket<CClientSockE *> *>::allocator<CMyBucket<CClientSockE *> *>, COMDAT
; _this$ = ecx

; 115  : 	allocator(const allocator<_Ty>&)

  00000	8b c1		 mov	 eax, ecx

; 116  : 		{	// construct by copying (do nothing)
; 117  : 		}

  00002	c2 04 00	 ret	 4
??0?$allocator@PAV?$CMyBucket@PAVCClientSockE@@@@@std@@QAE@ABV01@@Z ENDP ; std::allocator<CMyBucket<CClientSockE *> *>::allocator<CMyBucket<CClientSockE *> *>
_TEXT	ENDS
PUBLIC	?_Myval@?$list@PAV?$CMyBucket@PAVCClientSockE@@@@V?$allocator@PAV?$CMyBucket@PAVCClientSockE@@@@@std@@@std@@KAAAPAV?$CMyBucket@PAVCClientSockE@@@@PAU_Node@?$_List_nod@PAV?$CMyBucket@PAVCClientSockE@@@@V?$allocator@PAV?$CMyBucket@PAVCClientSockE@@@@@std@@@2@@Z ; std::list<CMyBucket<CClientSockE *> *,std::allocator<CMyBucket<CClientSockE *> *> >::_Myval
; Function compile flags: /Ogty
; File c:\program files\microsoft visual studio .net 2003\vc7\include\list
;	COMDAT ?_Myval@?$list@PAV?$CMyBucket@PAVCClientSockE@@@@V?$allocator@PAV?$CMyBucket@PAVCClientSockE@@@@@std@@@std@@KAAAPAV?$CMyBucket@PAVCClientSockE@@@@PAU_Node@?$_List_nod@PAV?$CMyBucket@PAVCClientSockE@@@@V?$allocator@PAV?$CMyBucket@PAVCClientSockE@@@@@std@@@2@@Z
_TEXT	SEGMENT
__Pnode$ = 8						; size = 4
?_Myval@?$list@PAV?$CMyBucket@PAVCClientSockE@@@@V?$allocator@PAV?$CMyBucket@PAVCClientSockE@@@@@std@@@std@@KAAAPAV?$CMyBucket@PAVCClientSockE@@@@PAU_Node@?$_List_nod@PAV?$CMyBucket@PAVCClientSockE@@@@V?$allocator@PAV?$CMyBucket@PAVCClientSockE@@@@@std@@@2@@Z PROC NEAR ; std::list<CMyBucket<CClientSockE *> *,std::allocator<CMyBucket<CClientSockE *> *> >::_Myval, COMDAT

; 118  : 		return ((_Vref)(*_Pnode)._Myval);

  00000	8b 44 24 04	 mov	 eax, DWORD PTR __Pnode$[esp-4]
  00004	83 c0 08	 add	 eax, 8

; 119  : 		}

  00007	c3		 ret	 0
?_Myval@?$list@PAV?$CMyBucket@PAVCClientSockE@@@@V?$allocator@PAV?$CMyBucket@PAVCClientSockE@@@@@std@@@std@@KAAAPAV?$CMyBucket@PAVCClientSockE@@@@PAU_Node@?$_List_nod@PAV?$CMyBucket@PAVCClientSockE@@@@V?$allocator@PAV?$CMyBucket@PAVCClientSockE@@@@@std@@@2@@Z ENDP ; std::list<CMyBucket<CClientSockE *> *,std::allocator<CMyBucket<CClientSockE *> *> >::_Myval
_TEXT	ENDS
PUBLIC	??0const_iterator@?$list@PAV?$CMyBucket@PAVCClientSockE@@@@V?$allocator@PAV?$CMyBucket@PAVCClientSockE@@@@@std@@@std@@QAE@PAU_Node@?$_List_nod@PAV?$CMyBucket@PAVCClientSockE@@@@V?$allocator@PAV?$CMyBucket@PAVCClientSockE@@@@@std@@@2@@Z ; std::list<CMyBucket<CClientSockE *> *,std::allocator<CMyBucket<CClientSockE *> *> >::const_iterator::const_iterator
; Function compile flags: /Ogty
;	COMDAT ??0const_iterator@?$list@PAV?$CMyBucket@PAVCClientSockE@@@@V?$allocator@PAV?$CMyBucket@PAVCClientSockE@@@@@std@@@std@@QAE@PAU_Node@?$_List_nod@PAV?$CMyBucket@PAVCClientSockE@@@@V?$allocator@PAV?$CMyBucket@PAVCClientSockE@@@@@std@@@2@@Z
_TEXT	SEGMENT
__Pnode$ = 8						; size = 4
??0const_iterator@?$list@PAV?$CMyBucket@PAVCClientSockE@@@@V?$allocator@PAV?$CMyBucket@PAVCClientSockE@@@@@std@@@std@@QAE@PAU_Node@?$_List_nod@PAV?$CMyBucket@PAVCClientSockE@@@@V?$allocator@PAV?$CMyBucket@PAVCClientSockE@@@@@std@@@2@@Z PROC NEAR ; std::list<CMyBucket<CClientSockE *> *,std::allocator<CMyBucket<CClientSockE *> *> >::const_iterator::const_iterator, COMDAT
; _this$ = ecx

; 156  : 			{	// construct with node pointer _Pnode

  00000	8b c1		 mov	 eax, ecx
  00002	8b 4c 24 04	 mov	 ecx, DWORD PTR __Pnode$[esp-4]
  00006	89 08		 mov	 DWORD PTR [eax], ecx

; 157  : 			}

  00008	c2 04 00	 ret	 4
??0const_iterator@?$list@PAV?$CMyBucket@PAVCClientSockE@@@@V?$allocator@PAV?$CMyBucket@PAVCClientSockE@@@@@std@@@std@@QAE@PAU_Node@?$_List_nod@PAV?$CMyBucket@PAVCClientSockE@@@@V?$allocator@PAV?$CMyBucket@PAVCClientSockE@@@@@std@@@2@@Z ENDP ; std::list<CMyBucket<CClientSockE *> *,std::allocator<CMyBucket<CClientSockE *> *> >::const_iterator::const_iterator
_TEXT	ENDS
PUBLIC	??Dconst_iterator@?$deque@PAV?$CMyBucket@PAVCClientSockE@@@@V?$allocator@PAV?$CMyBucket@PAVCClientSockE@@@@@std@@@std@@QBEABQAV?$CMyBucket@PAVCClientSockE@@@@XZ ; std::deque<CMyBucket<CClientSockE *> *,std::allocator<CMyBucket<CClientSockE *> *> >::const_iterator::operator*
; Function compile flags: /Ogty
; File c:\program files\microsoft visual studio .net 2003\vc7\include\deque
;	COMDAT ??Dconst_iterator@?$deque@PAV?$CMyBucket@PAVCClientSockE@@@@V?$allocator@PAV?$CMyBucket@PAVCClientSockE@@@@@std@@@std@@QBEABQAV?$CMyBucket@PAVCClientSockE@@@@XZ
_TEXT	SEGMENT
??Dconst_iterator@?$deque@PAV?$CMyBucket@PAVCClientSockE@@@@V?$allocator@PAV?$CMyBucket@PAVCClientSockE@@@@@std@@@std@@QBEABQAV?$CMyBucket@PAVCClientSockE@@@@XZ PROC NEAR ; std::deque<CMyBucket<CClientSockE *> *,std::allocator<CMyBucket<CClientSockE *> *> >::const_iterator::operator*, COMDAT
; _this$ = ecx

; 109  : 			size_type _Block = _Myoff / _DEQUESIZ;

  00000	8b 51 04	 mov	 edx, DWORD PTR [ecx+4]

; 110  : 			size_type _Off = _Myoff - _Block * _DEQUESIZ;
; 111  : 			if (_Mycont->_Mapsize <= _Block)

  00003	8b 09		 mov	 ecx, DWORD PTR [ecx]
  00005	8b c2		 mov	 eax, edx
  00007	c1 e8 02	 shr	 eax, 2
  0000a	56		 push	 esi
  0000b	8d 34 85 00 00
	00 00		 lea	 esi, DWORD PTR [eax*4]
  00012	2b d6		 sub	 edx, esi
  00014	8b 71 08	 mov	 esi, DWORD PTR [ecx+8]
  00017	3b f0		 cmp	 esi, eax
  00019	77 02		 ja	 SHORT $L154752

; 112  : 				_Block -= _Mycont->_Mapsize;

  0001b	2b c6		 sub	 eax, esi
$L154752:

; 113  : 			return ((_Mycont->_Map)[_Block][_Off]);

  0001d	8b 49 04	 mov	 ecx, DWORD PTR [ecx+4]
  00020	8b 04 81	 mov	 eax, DWORD PTR [ecx+eax*4]
  00023	8d 04 90	 lea	 eax, DWORD PTR [eax+edx*4]
  00026	5e		 pop	 esi

; 114  : 			}

  00027	c3		 ret	 0
??Dconst_iterator@?$deque@PAV?$CMyBucket@PAVCClientSockE@@@@V?$allocator@PAV?$CMyBucket@PAVCClientSockE@@@@@std@@@std@@QBEABQAV?$CMyBucket@PAVCClientSockE@@@@XZ ENDP ; std::deque<CMyBucket<CClientSockE *> *,std::allocator<CMyBucket<CClientSockE *> *> >::const_iterator::operator*
_TEXT	ENDS
PUBLIC	?max_size@?$allocator@PAV?$CMyBucket@PAVCClientSockE@@@@@std@@QBEIXZ ; std::allocator<CMyBucket<CClientSockE *> *>::max_size
; Function compile flags: /Ogty
; File c:\program files\microsoft visual studio .net 2003\vc7\include\xmemory
;	COMDAT ?max_size@?$allocator@PAV?$CMyBucket@PAVCClientSockE@@@@@std@@QBEIXZ
_TEXT	SEGMENT
?max_size@?$allocator@PAV?$CMyBucket@PAVCClientSockE@@@@@std@@QBEIXZ PROC NEAR ; std::allocator<CMyBucket<CClientSockE *> *>::max_size, COMDAT
; _this$ = ecx

; 157  : 		_SIZT _Count = (_SIZT)(-1) / sizeof (_Ty);
; 158  : 		return (0 < _Count ? _Count : 1);

  00000	b8 ff ff ff 3f	 mov	 eax, 1073741823		; 3fffffffH

; 159  : 		}

  00005	c3		 ret	 0
?max_size@?$allocator@PAV?$CMyBucket@PAVCClientSockE@@@@@std@@QBEIXZ ENDP ; std::allocator<CMyBucket<CClientSockE *> *>::max_size
_TEXT	ENDS
PUBLIC	??Yiterator@?$deque@PAV?$CMyBucket@PAVCClientSockE@@@@V?$allocator@PAV?$CMyBucket@PAVCClientSockE@@@@@std@@@std@@QAEAAV012@H@Z ; std::deque<CMyBucket<CClientSockE *> *,std::allocator<CMyBucket<CClientSockE *> *> >::iterator::operator+=
; Function compile flags: /Ogty
; File c:\program files\microsoft visual studio .net 2003\vc7\include\deque
;	COMDAT ??Yiterator@?$deque@PAV?$CMyBucket@PAVCClientSockE@@@@V?$allocator@PAV?$CMyBucket@PAVCClientSockE@@@@@std@@@std@@QAEAAV012@H@Z
_TEXT	SEGMENT
__Off$ = 8						; size = 4
??Yiterator@?$deque@PAV?$CMyBucket@PAVCClientSockE@@@@V?$allocator@PAV?$CMyBucket@PAVCClientSockE@@@@@std@@@std@@QAEAAV012@H@Z PROC NEAR ; std::deque<CMyBucket<CClientSockE *> *,std::allocator<CMyBucket<CClientSockE *> *> >::iterator::operator+=, COMDAT
; _this$ = ecx

; 282  : 			{	// increment by integer

  00000	8b c1		 mov	 eax, ecx

; 283  : 			this->_Myoff += _Off;

  00002	8b 50 04	 mov	 edx, DWORD PTR [eax+4]
  00005	8b 4c 24 04	 mov	 ecx, DWORD PTR __Off$[esp-4]
  00009	03 d1		 add	 edx, ecx
  0000b	89 50 04	 mov	 DWORD PTR [eax+4], edx

; 284  : 			return (*this);
; 285  : 			}

  0000e	c2 04 00	 ret	 4
??Yiterator@?$deque@PAV?$CMyBucket@PAVCClientSockE@@@@V?$allocator@PAV?$CMyBucket@PAVCClientSockE@@@@@std@@@std@@QAEAAV012@H@Z ENDP ; std::deque<CMyBucket<CClientSockE *> *,std::allocator<CMyBucket<CClientSockE *> *> >::iterator::operator+=
_TEXT	ENDS
PUBLIC	??0const_iterator@?$deque@PAV?$CMyBucket@PAVCClientSockE@@@@V?$allocator@PAV?$CMyBucket@PAVCClientSockE@@@@@std@@@std@@QAE@IPBV12@@Z ; std::deque<CMyBucket<CClientSockE *> *,std::allocator<CMyBucket<CClientSockE *> *> >::const_iterator::const_iterator
; Function compile flags: /Ogty
;	COMDAT ??0const_iterator@?$deque@PAV?$CMyBucket@PAVCClientSockE@@@@V?$allocator@PAV?$CMyBucket@PAVCClientSockE@@@@@std@@@std@@QAE@IPBV12@@Z
_TEXT	SEGMENT
__Off$ = 8						; size = 4
__Pdeque$ = 12						; size = 4
??0const_iterator@?$deque@PAV?$CMyBucket@PAVCClientSockE@@@@V?$allocator@PAV?$CMyBucket@PAVCClientSockE@@@@@std@@@std@@QAE@IPBV12@@Z PROC NEAR ; std::deque<CMyBucket<CClientSockE *> *,std::allocator<CMyBucket<CClientSockE *> *> >::const_iterator::const_iterator, COMDAT
; _this$ = ecx

; 102  : 			{	// construct with offset _Off in *_Pdeque
; 103  : 			_Mycont = _Pdeque;
; 104  : 			_Myoff = _Off;

  00000	8b 54 24 04	 mov	 edx, DWORD PTR __Off$[esp-4]
  00004	8b c1		 mov	 eax, ecx
  00006	8b 4c 24 08	 mov	 ecx, DWORD PTR __Pdeque$[esp-4]
  0000a	89 08		 mov	 DWORD PTR [eax], ecx
  0000c	89 50 04	 mov	 DWORD PTR [eax+4], edx

; 105  : 			}

  0000f	c2 08 00	 ret	 8
??0const_iterator@?$deque@PAV?$CMyBucket@PAVCClientSockE@@@@V?$allocator@PAV?$CMyBucket@PAVCClientSockE@@@@@std@@@std@@QAE@IPBV12@@Z ENDP ; std::deque<CMyBucket<CClientSockE *> *,std::allocator<CMyBucket<CClientSockE *> *> >::const_iterator::const_iterator
_TEXT	ENDS
PUBLIC	??$_Allocate@PAV?$CMyBucket@PAVCClientSockE@@@@@std@@YAPAPAV?$CMyBucket@PAVCClientSockE@@@@IPAPAV1@@Z ; std::_Allocate<CMyBucket<CClientSockE *> *>
; Function compile flags: /Ogty
; File c:\program files\microsoft visual studio .net 2003\vc7\include\xmemory
;	COMDAT ??$_Allocate@PAV?$CMyBucket@PAVCClientSockE@@@@@std@@YAPAPAV?$CMyBucket@PAVCClientSockE@@@@IPAPAV1@@Z
_TEXT	SEGMENT
__Count$ = 8						; size = 4
___formal$ = 12						; size = 4
??$_Allocate@PAV?$CMyBucket@PAVCClientSockE@@@@@std@@YAPAPAV?$CMyBucket@PAVCClientSockE@@@@IPAPAV1@@Z PROC NEAR ; std::_Allocate<CMyBucket<CClientSockE *> *>, COMDAT

; 34   : 	return ((_Ty _FARQ *)operator new(_Count * sizeof (_Ty)));

  00000	8b 44 24 04	 mov	 eax, DWORD PTR __Count$[esp-4]
  00004	8d 0c 85 00 00
	00 00		 lea	 ecx, DWORD PTR [eax*4]
  0000b	51		 push	 ecx
  0000c	e8 00 00 00 00	 call	 ??2@YAPAXI@Z		; operator new
  00011	83 c4 04	 add	 esp, 4

; 35   : 	}

  00014	c3		 ret	 0
??$_Allocate@PAV?$CMyBucket@PAVCClientSockE@@@@@std@@YAPAPAV?$CMyBucket@PAVCClientSockE@@@@IPAPAV1@@Z ENDP ; std::_Allocate<CMyBucket<CClientSockE *> *>
_TEXT	ENDS
PUBLIC	??$_Construct@PAV?$CMyBucket@PAVCClientSockE@@@@PAV1@@std@@YAXPAPAV?$CMyBucket@PAVCClientSockE@@@@ABQAV1@@Z ; std::_Construct<CMyBucket<CClientSockE *> *,CMyBucket<CClientSockE *> *>
; Function compile flags: /Ogty
;	COMDAT ??$_Construct@PAV?$CMyBucket@PAVCClientSockE@@@@PAV1@@std@@YAXPAPAV?$CMyBucket@PAVCClientSockE@@@@ABQAV1@@Z
_TEXT	SEGMENT
__Ptr$ = 8						; size = 4
__Val$ = 12						; size = 4
??$_Construct@PAV?$CMyBucket@PAVCClientSockE@@@@PAV1@@std@@YAXPAPAV?$CMyBucket@PAVCClientSockE@@@@ABQAV1@@Z PROC NEAR ; std::_Construct<CMyBucket<CClientSockE *> *,CMyBucket<CClientSockE *> *>, COMDAT

; 42   : 	new ((void _FARQ *)_Ptr) _T1(_Val);

  00000	8b 44 24 04	 mov	 eax, DWORD PTR __Ptr$[esp-4]
  00004	85 c0		 test	 eax, eax
  00006	74 08		 je	 SHORT $L155526
  00008	8b 4c 24 08	 mov	 ecx, DWORD PTR __Val$[esp-4]
  0000c	8b 11		 mov	 edx, DWORD PTR [ecx]
  0000e	89 10		 mov	 DWORD PTR [eax], edx
$L155526:

; 43   : 	}

  00010	c3		 ret	 0
??$_Construct@PAV?$CMyBucket@PAVCClientSockE@@@@PAV1@@std@@YAXPAPAV?$CMyBucket@PAVCClientSockE@@@@ABQAV1@@Z ENDP ; std::_Construct<CMyBucket<CClientSockE *> *,CMyBucket<CClientSockE *> *>
_TEXT	ENDS
PUBLIC	??$?0PAV?$CMyBucket@PAVCClientSockE@@@@@?$allocator@PAU_Node@?$_List_nod@PAV?$CMyBucket@PAVCClientSockE@@@@V?$allocator@PAV?$CMyBucket@PAVCClientSockE@@@@@std@@@std@@@std@@QAE@ABV?$allocator@PAV?$CMyBucket@PAVCClientSockE@@@@@1@@Z ; std::allocator<std::_List_nod<CMyBucket<CClientSockE *> *,std::allocator<CMyBucket<CClientSockE *> *> >::_Node *>::allocator<std::_List_nod<CMyBucket<CClientSockE *> *,std::allocator<CMyBucket<CClientSockE *> *> >::_Node *><CMyBucket<CClientSockE *> *>
; Function compile flags: /Ogty
;	COMDAT ??$?0PAV?$CMyBucket@PAVCClientSockE@@@@@?$allocator@PAU_Node@?$_List_nod@PAV?$CMyBucket@PAVCClientSockE@@@@V?$allocator@PAV?$CMyBucket@PAVCClientSockE@@@@@std@@@std@@@std@@QAE@ABV?$allocator@PAV?$CMyBucket@PAVCClientSockE@@@@@1@@Z
_TEXT	SEGMENT
___formal$ = 8						; size = 4
??$?0PAV?$CMyBucket@PAVCClientSockE@@@@@?$allocator@PAU_Node@?$_List_nod@PAV?$CMyBucket@PAVCClientSockE@@@@V?$allocator@PAV?$CMyBucket@PAVCClientSockE@@@@@std@@@std@@@std@@QAE@ABV?$allocator@PAV?$CMyBucket@PAVCClientSockE@@@@@1@@Z PROC NEAR ; std::allocator<std::_List_nod<CMyBucket<CClientSockE *> *,std::allocator<CMyBucket<CClientSockE *> *> >::_Node *>::allocator<std::_List_nod<CMyBucket<CClientSockE *> *,std::allocator<CMyBucket<CClientSockE *> *> >::_Node *><CMyBucket<CClientSockE *> *>, COMDAT
; _this$ = ecx

; 120  : 		allocator(const allocator<_Other>&)

  00000	8b c1		 mov	 eax, ecx

; 121  : 		{	// construct from a related allocator (do nothing)
; 122  : 		}

  00002	c2 04 00	 ret	 4
??$?0PAV?$CMyBucket@PAVCClientSockE@@@@@?$allocator@PAU_Node@?$_List_nod@PAV?$CMyBucket@PAVCClientSockE@@@@V?$allocator@PAV?$CMyBucket@PAVCClientSockE@@@@@std@@@std@@@std@@QAE@ABV?$allocator@PAV?$CMyBucket@PAVCClientSockE@@@@@1@@Z ENDP ; std::allocator<std::_List_nod<CMyBucket<CClientSockE *> *,std::allocator<CMyBucket<CClientSockE *> *> >::_Node *>::allocator<std::_List_nod<CMyBucket<CClientSockE *> *,std::allocator<CMyBucket<CClientSockE *> *> >::_Node *><CMyBucket<CClientSockE *> *>
_TEXT	ENDS
PUBLIC	??$_Allocate@U_Node@?$_List_nod@PAV?$CMyBucket@PAVCClientSockE@@@@V?$allocator@PAV?$CMyBucket@PAVCClientSockE@@@@@std@@@std@@@std@@YAPAU_Node@?$_List_nod@PAV?$CMyBucket@PAVCClientSockE@@@@V?$allocator@PAV?$CMyBucket@PAVCClientSockE@@@@@std@@@0@IPAU120@@Z ; std::_Allocate<std::_List_nod<CMyBucket<CClientSockE *> *,std::allocator<CMyBucket<CClientSockE *> *> >::_Node>
; Function compile flags: /Ogty
;	COMDAT ??$_Allocate@U_Node@?$_List_nod@PAV?$CMyBucket@PAVCClientSockE@@@@V?$allocator@PAV?$CMyBucket@PAVCClientSockE@@@@@std@@@std@@@std@@YAPAU_Node@?$_List_nod@PAV?$CMyBucket@PAVCClientSockE@@@@V?$allocator@PAV?$CMyBucket@PAVCClientSockE@@@@@std@@@0@IPAU120@@Z
_TEXT	SEGMENT
__Count$ = 8						; size = 4
___formal$ = 12						; size = 4
??$_Allocate@U_Node@?$_List_nod@PAV?$CMyBucket@PAVCClientSockE@@@@V?$allocator@PAV?$CMyBucket@PAVCClientSockE@@@@@std@@@std@@@std@@YAPAU_Node@?$_List_nod@PAV?$CMyBucket@PAVCClientSockE@@@@V?$allocator@PAV?$CMyBucket@PAVCClientSockE@@@@@std@@@0@IPAU120@@Z PROC NEAR ; std::_Allocate<std::_List_nod<CMyBucket<CClientSockE *> *,std::allocator<CMyBucket<CClientSockE *> *> >::_Node>, COMDAT

; 34   : 	return ((_Ty _FARQ *)operator new(_Count * sizeof (_Ty)));

  00000	8b 44 24 04	 mov	 eax, DWORD PTR __Count$[esp-4]
  00004	8d 04 40	 lea	 eax, DWORD PTR [eax+eax*2]
  00007	c1 e0 02	 shl	 eax, 2
  0000a	50		 push	 eax
  0000b	e8 00 00 00 00	 call	 ??2@YAPAXI@Z		; operator new
  00010	83 c4 04	 add	 esp, 4

; 35   : 	}

  00013	c3		 ret	 0
??$_Allocate@U_Node@?$_List_nod@PAV?$CMyBucket@PAVCClientSockE@@@@V?$allocator@PAV?$CMyBucket@PAVCClientSockE@@@@@std@@@std@@@std@@YAPAU_Node@?$_List_nod@PAV?$CMyBucket@PAVCClientSockE@@@@V?$allocator@PAV?$CMyBucket@PAVCClientSockE@@@@@std@@@0@IPAU120@@Z ENDP ; std::_Allocate<std::_List_nod<CMyBucket<CClientSockE *> *,std::allocator<CMyBucket<CClientSockE *> *> >::_Node>
_TEXT	ENDS
PUBLIC	??$_Construct@PAU_Node@?$_List_nod@PAV?$CMyBucket@PAVCClientSockE@@@@V?$allocator@PAV?$CMyBucket@PAVCClientSockE@@@@@std@@@std@@PAU123@@std@@YAXPAPAU_Node@?$_List_nod@PAV?$CMyBucket@PAVCClientSockE@@@@V?$allocator@PAV?$CMyBucket@PAVCClientSockE@@@@@std@@@0@ABQAU120@@Z ; std::_Construct<std::_List_nod<CMyBucket<CClientSockE *> *,std::allocator<CMyBucket<CClientSockE *> *> >::_Node *,std::_List_nod<CMyBucket<CClientSockE *> *,std::allocator<CMyBucket<CClientSockE *> *> >::_Node *>
; Function compile flags: /Ogty
;	COMDAT ??$_Construct@PAU_Node@?$_List_nod@PAV?$CMyBucket@PAVCClientSockE@@@@V?$allocator@PAV?$CMyBucket@PAVCClientSockE@@@@@std@@@std@@PAU123@@std@@YAXPAPAU_Node@?$_List_nod@PAV?$CMyBucket@PAVCClientSockE@@@@V?$allocator@PAV?$CMyBucket@PAVCClientSockE@@@@@std@@@0@ABQAU120@@Z
_TEXT	SEGMENT
__Ptr$ = 8						; size = 4
__Val$ = 12						; size = 4
??$_Construct@PAU_Node@?$_List_nod@PAV?$CMyBucket@PAVCClientSockE@@@@V?$allocator@PAV?$CMyBucket@PAVCClientSockE@@@@@std@@@std@@PAU123@@std@@YAXPAPAU_Node@?$_List_nod@PAV?$CMyBucket@PAVCClientSockE@@@@V?$allocator@PAV?$CMyBucket@PAVCClientSockE@@@@@std@@@0@ABQAU120@@Z PROC NEAR ; std::_Construct<std::_List_nod<CMyBucket<CClientSockE *> *,std::allocator<CMyBucket<CClientSockE *> *> >::_Node *,std::_List_nod<CMyBucket<CClientSockE *> *,std::allocator<CMyBucket<CClientSockE *> *> >::_Node *>, COMDAT

; 42   : 	new ((void _FARQ *)_Ptr) _T1(_Val);

  00000	8b 44 24 04	 mov	 eax, DWORD PTR __Ptr$[esp-4]
  00004	85 c0		 test	 eax, eax
  00006	74 08		 je	 SHORT $L155541
  00008	8b 4c 24 08	 mov	 ecx, DWORD PTR __Val$[esp-4]
  0000c	8b 11		 mov	 edx, DWORD PTR [ecx]
  0000e	89 10		 mov	 DWORD PTR [eax], edx
$L155541:

; 43   : 	}

  00010	c3		 ret	 0
??$_Construct@PAU_Node@?$_List_nod@PAV?$CMyBucket@PAVCClientSockE@@@@V?$allocator@PAV?$CMyBucket@PAVCClientSockE@@@@@std@@@std@@PAU123@@std@@YAXPAPAU_Node@?$_List_nod@PAV?$CMyBucket@PAVCClientSockE@@@@V?$allocator@PAV?$CMyBucket@PAVCClientSockE@@@@@std@@@0@ABQAU120@@Z ENDP ; std::_Construct<std::_List_nod<CMyBucket<CClientSockE *> *,std::allocator<CMyBucket<CClientSockE *> *> >::_Node *,std::_List_nod<CMyBucket<CClientSockE *> *,std::allocator<CMyBucket<CClientSockE *> *> >::_Node *>
_TEXT	ENDS
PUBLIC	??$?0PAV?$CMyBucket@PAVCClientSockE@@@@@?$allocator@PAPAV?$CMyBucket@PAVCClientSockE@@@@@std@@QAE@ABV?$allocator@PAV?$CMyBucket@PAVCClientSockE@@@@@1@@Z ; std::allocator<CMyBucket<CClientSockE *> * *>::allocator<CMyBucket<CClientSockE *> * *><CMyBucket<CClientSockE *> *>
; Function compile flags: /Ogty
;	COMDAT ??$?0PAV?$CMyBucket@PAVCClientSockE@@@@@?$allocator@PAPAV?$CMyBucket@PAVCClientSockE@@@@@std@@QAE@ABV?$allocator@PAV?$CMyBucket@PAVCClientSockE@@@@@1@@Z
_TEXT	SEGMENT
___formal$ = 8						; size = 4
??$?0PAV?$CMyBucket@PAVCClientSockE@@@@@?$allocator@PAPAV?$CMyBucket@PAVCClientSockE@@@@@std@@QAE@ABV?$allocator@PAV?$CMyBucket@PAVCClientSockE@@@@@1@@Z PROC NEAR ; std::allocator<CMyBucket<CClientSockE *> * *>::allocator<CMyBucket<CClientSockE *> * *><CMyBucket<CClientSockE *> *>, COMDAT
; _this$ = ecx

; 120  : 		allocator(const allocator<_Other>&)

  00000	8b c1		 mov	 eax, ecx

; 121  : 		{	// construct from a related allocator (do nothing)
; 122  : 		}

  00002	c2 04 00	 ret	 4
??$?0PAV?$CMyBucket@PAVCClientSockE@@@@@?$allocator@PAPAV?$CMyBucket@PAVCClientSockE@@@@@std@@QAE@ABV?$allocator@PAV?$CMyBucket@PAVCClientSockE@@@@@1@@Z ENDP ; std::allocator<CMyBucket<CClientSockE *> * *>::allocator<CMyBucket<CClientSockE *> * *><CMyBucket<CClientSockE *> *>
_TEXT	ENDS
PUBLIC	??$_Allocate@PAPAV?$CMyBucket@PAVCClientSockE@@@@@std@@YAPAPAPAV?$CMyBucket@PAVCClientSockE@@@@IPAPAPAV1@@Z ; std::_Allocate<CMyBucket<CClientSockE *> * *>
; Function compile flags: /Ogty
;	COMDAT ??$_Allocate@PAPAV?$CMyBucket@PAVCClientSockE@@@@@std@@YAPAPAPAV?$CMyBucket@PAVCClientSockE@@@@IPAPAPAV1@@Z
_TEXT	SEGMENT
__Count$ = 8						; size = 4
___formal$ = 12						; size = 4
??$_Allocate@PAPAV?$CMyBucket@PAVCClientSockE@@@@@std@@YAPAPAPAV?$CMyBucket@PAVCClientSockE@@@@IPAPAPAV1@@Z PROC NEAR ; std::_Allocate<CMyBucket<CClientSockE *> * *>, COMDAT

; 34   : 	return ((_Ty _FARQ *)operator new(_Count * sizeof (_Ty)));

  00000	8b 44 24 04	 mov	 eax, DWORD PTR __Count$[esp-4]
  00004	8d 0c 85 00 00
	00 00		 lea	 ecx, DWORD PTR [eax*4]
  0000b	51		 push	 ecx
  0000c	e8 00 00 00 00	 call	 ??2@YAPAXI@Z		; operator new
  00011	83 c4 04	 add	 esp, 4

; 35   : 	}

  00014	c3		 ret	 0
??$_Allocate@PAPAV?$CMyBucket@PAVCClientSockE@@@@@std@@YAPAPAPAV?$CMyBucket@PAVCClientSockE@@@@IPAPAPAV1@@Z ENDP ; std::_Allocate<CMyBucket<CClientSockE *> * *>
_TEXT	ENDS
PUBLIC	??$?0PAV?$CMyBucket@PAVCClientSockE@@@@@?$allocator@U_Node@?$_List_nod@PAV?$CMyBucket@PAVCClientSockE@@@@V?$allocator@PAV?$CMyBucket@PAVCClientSockE@@@@@std@@@std@@@std@@QAE@ABV?$allocator@PAV?$CMyBucket@PAVCClientSockE@@@@@1@@Z ; std::allocator<std::_List_nod<CMyBucket<CClientSockE *> *,std::allocator<CMyBucket<CClientSockE *> *> >::_Node>::allocator<std::_List_nod<CMyBucket<CClientSockE *> *,std::allocator<CMyBucket<CClientSockE *> *> >::_Node><CMyBucket<CClientSockE *> *>
; Function compile flags: /Ogty
;	COMDAT ??$?0PAV?$CMyBucket@PAVCClientSockE@@@@@?$allocator@U_Node@?$_List_nod@PAV?$CMyBucket@PAVCClientSockE@@@@V?$allocator@PAV?$CMyBucket@PAVCClientSockE@@@@@std@@@std@@@std@@QAE@ABV?$allocator@PAV?$CMyBucket@PAVCClientSockE@@@@@1@@Z
_TEXT	SEGMENT
___formal$ = 8						; size = 4
??$?0PAV?$CMyBucket@PAVCClientSockE@@@@@?$allocator@U_Node@?$_List_nod@PAV?$CMyBucket@PAVCClientSockE@@@@V?$allocator@PAV?$CMyBucket@PAVCClientSockE@@@@@std@@@std@@@std@@QAE@ABV?$allocator@PAV?$CMyBucket@PAVCClientSockE@@@@@1@@Z PROC NEAR ; std::allocator<std::_List_nod<CMyBucket<CClientSockE *> *,std::allocator<CMyBucket<CClientSockE *> *> >::_Node>::allocator<std::_List_nod<CMyBucket<CClientSockE *> *,std::allocator<CMyBucket<CClientSockE *> *> >::_Node><CMyBucket<CClientSockE *> *>, COMDAT
; _this$ = ecx

; 120  : 		allocator(const allocator<_Other>&)

  00000	8b c1		 mov	 eax, ecx

; 121  : 		{	// construct from a related allocator (do nothing)
; 122  : 		}

  00002	c2 04 00	 ret	 4
??$?0PAV?$CMyBucket@PAVCClientSockE@@@@@?$allocator@U_Node@?$_List_nod@PAV?$CMyBucket@PAVCClientSockE@@@@V?$allocator@PAV?$CMyBucket@PAVCClientSockE@@@@@std@@@std@@@std@@QAE@ABV?$allocator@PAV?$CMyBucket@PAVCClientSockE@@@@@1@@Z ENDP ; std::allocator<std::_List_nod<CMyBucket<CClientSockE *> *,std::allocator<CMyBucket<CClientSockE *> *> >::_Node>::allocator<std::_List_nod<CMyBucket<CClientSockE *> *,std::allocator<CMyBucket<CClientSockE *> *> >::_Node><CMyBucket<CClientSockE *> *>
_TEXT	ENDS
PUBLIC	?_Mynode@const_iterator@?$list@PAV?$CMyBucket@PAVCClientSockE@@@@V?$allocator@PAV?$CMyBucket@PAVCClientSockE@@@@@std@@@std@@QBEPAU_Node@?$_List_nod@PAV?$CMyBucket@PAVCClientSockE@@@@V?$allocator@PAV?$CMyBucket@PAVCClientSockE@@@@@std@@@3@XZ ; std::list<CMyBucket<CClientSockE *> *,std::allocator<CMyBucket<CClientSockE *> *> >::const_iterator::_Mynode
; Function compile flags: /Ogty
; File c:\program files\microsoft visual studio .net 2003\vc7\include\list
;	COMDAT ?_Mynode@const_iterator@?$list@PAV?$CMyBucket@PAVCClientSockE@@@@V?$allocator@PAV?$CMyBucket@PAVCClientSockE@@@@@std@@@std@@QBEPAU_Node@?$_List_nod@PAV?$CMyBucket@PAVCClientSockE@@@@V?$allocator@PAV?$CMyBucket@PAVCClientSockE@@@@@std@@@3@XZ
_TEXT	SEGMENT
?_Mynode@const_iterator@?$list@PAV?$CMyBucket@PAVCClientSockE@@@@V?$allocator@PAV?$CMyBucket@PAVCClientSockE@@@@@std@@@std@@QBEPAU_Node@?$_List_nod@PAV?$CMyBucket@PAVCClientSockE@@@@V?$allocator@PAV?$CMyBucket@PAVCClientSockE@@@@@std@@@3@XZ PROC NEAR ; std::list<CMyBucket<CClientSockE *> *,std::allocator<CMyBucket<CClientSockE *> *> >::const_iterator::_Mynode, COMDAT
; _this$ = ecx

; 207  : 			return (_Ptr);

  00000	8b 01		 mov	 eax, DWORD PTR [ecx]

; 208  : 			}

  00002	c3		 ret	 0
?_Mynode@const_iterator@?$list@PAV?$CMyBucket@PAVCClientSockE@@@@V?$allocator@PAV?$CMyBucket@PAVCClientSockE@@@@@std@@@std@@QBEPAU_Node@?$_List_nod@PAV?$CMyBucket@PAVCClientSockE@@@@V?$allocator@PAV?$CMyBucket@PAVCClientSockE@@@@@std@@@3@XZ ENDP ; std::list<CMyBucket<CClientSockE *> *,std::allocator<CMyBucket<CClientSockE *> *> >::const_iterator::_Mynode
_TEXT	ENDS
PUBLIC	?max_size@?$list@PAV?$CMyBucket@PAVCClientSockE@@@@V?$allocator@PAV?$CMyBucket@PAVCClientSockE@@@@@std@@@std@@QBEIXZ ; std::list<CMyBucket<CClientSockE *> *,std::allocator<CMyBucket<CClientSockE *> *> >::max_size
; Function compile flags: /Ogty
;	COMDAT ?max_size@?$list@PAV?$CMyBucket@PAVCClientSockE@@@@V?$allocator@PAV?$CMyBucket@PAVCClientSockE@@@@@std@@@std@@QBEIXZ
_TEXT	SEGMENT
?max_size@?$list@PAV?$CMyBucket@PAVCClientSockE@@@@V?$allocator@PAV?$CMyBucket@PAVCClientSockE@@@@@std@@@std@@QBEIXZ PROC NEAR ; std::list<CMyBucket<CClientSockE *> *,std::allocator<CMyBucket<CClientSockE *> *> >::max_size, COMDAT
; _this$ = ecx

; 436  : 		return (this->_Alval.max_size());

  00000	b8 ff ff ff 3f	 mov	 eax, 1073741823		; 3fffffffH

; 437  : 		}

  00005	c3		 ret	 0
?max_size@?$list@PAV?$CMyBucket@PAVCClientSockE@@@@V?$allocator@PAV?$CMyBucket@PAVCClientSockE@@@@@std@@@std@@QBEIXZ ENDP ; std::list<CMyBucket<CClientSockE *> *,std::allocator<CMyBucket<CClientSockE *> *> >::max_size
_TEXT	ENDS
PUBLIC	??0_Node@?$_List_nod@PAV?$CMyBucket@PAVCClientSockE@@@@V?$allocator@PAV?$CMyBucket@PAVCClientSockE@@@@@std@@@std@@QAE@PAU012@0ABQAV?$CMyBucket@PAVCClientSockE@@@@@Z ; std::_List_nod<CMyBucket<CClientSockE *> *,std::allocator<CMyBucket<CClientSockE *> *> >::_Node::_Node
; Function compile flags: /Ogty
;	COMDAT ??0_Node@?$_List_nod@PAV?$CMyBucket@PAVCClientSockE@@@@V?$allocator@PAV?$CMyBucket@PAVCClientSockE@@@@@std@@@std@@QAE@PAU012@0ABQAV?$CMyBucket@PAVCClientSockE@@@@@Z
_TEXT	SEGMENT
__Nextarg$ = 8						; size = 4
__Prevarg$ = 12						; size = 4
__Myvalarg$ = 16					; size = 4
??0_Node@?$_List_nod@PAV?$CMyBucket@PAVCClientSockE@@@@V?$allocator@PAV?$CMyBucket@PAVCClientSockE@@@@@std@@@std@@QAE@PAU012@0ABQAV?$CMyBucket@PAVCClientSockE@@@@@Z PROC NEAR ; std::_List_nod<CMyBucket<CClientSockE *> *,std::allocator<CMyBucket<CClientSockE *> *> >::_Node::_Node, COMDAT
; _this$ = ecx

; 34   : 			{	// construct a node with value

  00000	8b 54 24 08	 mov	 edx, DWORD PTR __Prevarg$[esp-4]
  00004	8b c1		 mov	 eax, ecx
  00006	8b 4c 24 04	 mov	 ecx, DWORD PTR __Nextarg$[esp-4]
  0000a	89 08		 mov	 DWORD PTR [eax], ecx
  0000c	8b 4c 24 0c	 mov	 ecx, DWORD PTR __Myvalarg$[esp-4]
  00010	89 50 04	 mov	 DWORD PTR [eax+4], edx
  00013	8b 11		 mov	 edx, DWORD PTR [ecx]
  00015	89 50 08	 mov	 DWORD PTR [eax+8], edx

; 35   : 			}

  00018	c2 0c 00	 ret	 12			; 0000000cH
??0_Node@?$_List_nod@PAV?$CMyBucket@PAVCClientSockE@@@@V?$allocator@PAV?$CMyBucket@PAVCClientSockE@@@@@std@@@std@@QAE@PAU012@0ABQAV?$CMyBucket@PAVCClientSockE@@@@@Z ENDP ; std::_List_nod<CMyBucket<CClientSockE *> *,std::allocator<CMyBucket<CClientSockE *> *> >::_Node::_Node
_TEXT	ENDS
PUBLIC	??$_Ptr_cat@PAV?$CMyBucket@PAVCClientSockE@@@@@std@@YA?AU_Scalar_ptr_iterator_tag@0@PAPAPAV?$CMyBucket@PAVCClientSockE@@@@0@Z ; std::_Ptr_cat<CMyBucket<CClientSockE *> *>
; Function compile flags: /Ogty
; File c:\program files\microsoft visual studio .net 2003\vc7\include\xutility
;	COMDAT ??$_Ptr_cat@PAV?$CMyBucket@PAVCClientSockE@@@@@std@@YA?AU_Scalar_ptr_iterator_tag@0@PAPAPAV?$CMyBucket@PAVCClientSockE@@@@0@Z
_TEXT	SEGMENT
__Cat$ = -1						; size = 1
___formal$ = 8						; size = 4
___formal$ = 12						; size = 4
??$_Ptr_cat@PAV?$CMyBucket@PAVCClientSockE@@@@@std@@YA?AU_Scalar_ptr_iterator_tag@0@PAPAPAV?$CMyBucket@PAVCClientSockE@@@@0@Z PROC NEAR ; std::_Ptr_cat<CMyBucket<CClientSockE *> *>, COMDAT

; 218  : 	{	// return pointer category from pointer to pointer arguments

  00000	51		 push	 ecx

; 219  : 	_Scalar_ptr_iterator_tag _Cat;
; 220  : 	return (_Cat);

  00001	8a 44 24 03	 mov	 al, BYTE PTR __Cat$[esp+4]

; 221  : 	}

  00005	59		 pop	 ecx
  00006	c3		 ret	 0
??$_Ptr_cat@PAV?$CMyBucket@PAVCClientSockE@@@@@std@@YA?AU_Scalar_ptr_iterator_tag@0@PAPAPAV?$CMyBucket@PAVCClientSockE@@@@0@Z ENDP ; std::_Ptr_cat<CMyBucket<CClientSockE *> *>
_TEXT	ENDS
PUBLIC	??$_Uninit_copy@PAPAV?$CMyBucket@PAVCClientSockE@@@@PAPAV1@@std@@YAPAPAPAV?$CMyBucket@PAVCClientSockE@@@@PAPAPAV1@00AAV?$allocator@PAPAV?$CMyBucket@PAVCClientSockE@@@@@0@U_Scalar_ptr_iterator_tag@0@@Z ; std::_Uninit_copy<CMyBucket<CClientSockE *> * *,CMyBucket<CClientSockE *> * *>
EXTRN	_memmove:NEAR
; Function compile flags: /Ogty
; File c:\program files\microsoft visual studio .net 2003\vc7\include\memory
;	COMDAT ??$_Uninit_copy@PAPAV?$CMyBucket@PAVCClientSockE@@@@PAPAV1@@std@@YAPAPAPAV?$CMyBucket@PAVCClientSockE@@@@PAPAPAV1@00AAV?$allocator@PAPAV?$CMyBucket@PAVCClientSockE@@@@@0@U_Scalar_ptr_iterator_tag@0@@Z
_TEXT	SEGMENT
__First$ = 8						; size = 4
__Last$ = 12						; size = 4
__Dest$ = 16						; size = 4
___formal$ = 20						; size = 4
___formal$ = 24						; size = 1
??$_Uninit_copy@PAPAV?$CMyBucket@PAVCClientSockE@@@@PAPAV1@@std@@YAPAPAPAV?$CMyBucket@PAVCClientSockE@@@@PAPAPAV1@00AAV?$allocator@PAPAV?$CMyBucket@PAVCClientSockE@@@@@0@U_Scalar_ptr_iterator_tag@0@@Z PROC NEAR ; std::_Uninit_copy<CMyBucket<CClientSockE *> * *,CMyBucket<CClientSockE *> * *>, COMDAT

; 106  : 	size_t _Count = (size_t)(_Last - _First);

  00000	8b 4c 24 04	 mov	 ecx, DWORD PTR __First$[esp-4]
  00004	8b 44 24 08	 mov	 eax, DWORD PTR __Last$[esp-4]
  00008	2b c1		 sub	 eax, ecx
  0000a	56		 push	 esi
  0000b	c1 f8 02	 sar	 eax, 2

; 107  : 	return ((_Ty2 *)memmove(&*_Dest, &*_First,
; 108  : 		_Count * sizeof (*_First)) + _Count);	// NB: non-overlapping move

  0000e	8d 34 85 00 00
	00 00		 lea	 esi, DWORD PTR [eax*4]
  00015	8b 44 24 10	 mov	 eax, DWORD PTR __Dest$[esp]
  00019	56		 push	 esi
  0001a	51		 push	 ecx
  0001b	50		 push	 eax
  0001c	e8 00 00 00 00	 call	 _memmove
  00021	83 c4 0c	 add	 esp, 12			; 0000000cH
  00024	03 c6		 add	 eax, esi
  00026	5e		 pop	 esi

; 109  : 	}

  00027	c3		 ret	 0
??$_Uninit_copy@PAPAV?$CMyBucket@PAVCClientSockE@@@@PAPAV1@@std@@YAPAPAPAV?$CMyBucket@PAVCClientSockE@@@@PAPAPAV1@00AAV?$allocator@PAPAV?$CMyBucket@PAVCClientSockE@@@@@0@U_Scalar_ptr_iterator_tag@0@@Z ENDP ; std::_Uninit_copy<CMyBucket<CClientSockE *> * *,CMyBucket<CClientSockE *> * *>
_TEXT	ENDS
PUBLIC	??$_Destroy_range@PAPAV?$CMyBucket@PAVCClientSockE@@@@V?$allocator@PAPAV?$CMyBucket@PAVCClientSockE@@@@@std@@@std@@YAXPAPAPAV?$CMyBucket@PAVCClientSockE@@@@0AAV?$allocator@PAPAV?$CMyBucket@PAVCClientSockE@@@@@0@U_Scalar_ptr_iterator_tag@0@@Z ; std::_Destroy_range<CMyBucket<CClientSockE *> * *,std::allocator<CMyBucket<CClientSockE *> * *> >
; Function compile flags: /Ogty
; File c:\program files\microsoft visual studio .net 2003\vc7\include\xmemory
;	COMDAT ??$_Destroy_range@PAPAV?$CMyBucket@PAVCClientSockE@@@@V?$allocator@PAPAV?$CMyBucket@PAVCClientSockE@@@@@std@@@std@@YAXPAPAPAV?$CMyBucket@PAVCClientSockE@@@@0AAV?$allocator@PAPAV?$CMyBucket@PAVCClientSockE@@@@@0@U_Scalar_ptr_iterator_tag@0@@Z
_TEXT	SEGMENT
__First$ = 8						; size = 4
__Last$ = 12						; size = 4
__Al$ = 16						; size = 4
___formal$ = 20						; size = 1
??$_Destroy_range@PAPAV?$CMyBucket@PAVCClientSockE@@@@V?$allocator@PAPAV?$CMyBucket@PAVCClientSockE@@@@@std@@@std@@YAXPAPAPAV?$CMyBucket@PAVCClientSockE@@@@0AAV?$allocator@PAPAV?$CMyBucket@PAVCClientSockE@@@@@0@U_Scalar_ptr_iterator_tag@0@@Z PROC NEAR ; std::_Destroy_range<CMyBucket<CClientSockE *> * *,std::allocator<CMyBucket<CClientSockE *> * *> >, COMDAT

; 234  : 	}

  00000	c3		 ret	 0
??$_Destroy_range@PAPAV?$CMyBucket@PAVCClientSockE@@@@V?$allocator@PAPAV?$CMyBucket@PAVCClientSockE@@@@@std@@@std@@YAXPAPAPAV?$CMyBucket@PAVCClientSockE@@@@0AAV?$allocator@PAPAV?$CMyBucket@PAVCClientSockE@@@@@0@U_Scalar_ptr_iterator_tag@0@@Z ENDP ; std::_Destroy_range<CMyBucket<CClientSockE *> * *,std::allocator<CMyBucket<CClientSockE *> * *> >
_TEXT	ENDS
PUBLIC	??$fill_n@PAPAPAV?$CMyBucket@PAVCClientSockE@@@@IPAPAV1@@std@@YAXPAPAPAV?$CMyBucket@PAVCClientSockE@@@@IABQAPAV1@@Z ; std::fill_n<CMyBucket<CClientSockE *> * * *,unsigned int,CMyBucket<CClientSockE *> * *>
; Function compile flags: /Ogty
; File c:\program files\microsoft visual studio .net 2003\vc7\include\xutility
;	COMDAT ??$fill_n@PAPAPAV?$CMyBucket@PAVCClientSockE@@@@IPAPAV1@@std@@YAXPAPAPAV?$CMyBucket@PAVCClientSockE@@@@IABQAPAV1@@Z
_TEXT	SEGMENT
__First$ = 8						; size = 4
__Count$ = 12						; size = 4
__Val$ = 16						; size = 4
??$fill_n@PAPAPAV?$CMyBucket@PAVCClientSockE@@@@IPAPAV1@@std@@YAXPAPAPAV?$CMyBucket@PAVCClientSockE@@@@IABQAPAV1@@Z PROC NEAR ; std::fill_n<CMyBucket<CClientSockE *> * * *,unsigned int,CMyBucket<CClientSockE *> * *>, COMDAT

; 1160 : 	for (; 0 < _Count; --_Count, ++_First)

  00000	8b 4c 24 08	 mov	 ecx, DWORD PTR __Count$[esp-4]
  00004	85 c9		 test	 ecx, ecx
  00006	76 14		 jbe	 SHORT $L155035
  00008	8b 54 24 0c	 mov	 edx, DWORD PTR __Val$[esp-4]
  0000c	8b 44 24 04	 mov	 eax, DWORD PTR __First$[esp-4]
  00010	56		 push	 esi
$L155033:

; 1161 : 		*_First = _Val;

  00011	8b 32		 mov	 esi, DWORD PTR [edx]
  00013	89 30		 mov	 DWORD PTR [eax], esi
  00015	83 c0 04	 add	 eax, 4
  00018	49		 dec	 ecx
  00019	75 f6		 jne	 SHORT $L155033
  0001b	5e		 pop	 esi
$L155035:

; 1162 : 	}

  0001c	c3		 ret	 0
??$fill_n@PAPAPAV?$CMyBucket@PAVCClientSockE@@@@IPAPAV1@@std@@YAXPAPAPAV?$CMyBucket@PAVCClientSockE@@@@IABQAPAV1@@Z ENDP ; std::fill_n<CMyBucket<CClientSockE *> * * *,unsigned int,CMyBucket<CClientSockE *> * *>
_TEXT	ENDS
PUBLIC	?assign@?$char_traits@D@std@@SAXAADABD@Z	; std::char_traits<char>::assign
; Function compile flags: /Ogty
; File c:\program files\microsoft visual studio .net 2003\vc7\include\iosfwd
;	COMDAT ?assign@?$char_traits@D@std@@SAXAADABD@Z
_TEXT	SEGMENT
__Left$ = 8						; size = 4
__Right$ = 12						; size = 4
?assign@?$char_traits@D@std@@SAXAADABD@Z PROC NEAR	; std::char_traits<char>::assign, COMDAT

; 331  : 		_Left = _Right;

  00000	8b 44 24 08	 mov	 eax, DWORD PTR __Right$[esp-4]
  00004	8a 08		 mov	 cl, BYTE PTR [eax]
  00006	8b 54 24 04	 mov	 edx, DWORD PTR __Left$[esp-4]
  0000a	88 0a		 mov	 BYTE PTR [edx], cl

; 332  : 		}

  0000c	c3		 ret	 0
?assign@?$char_traits@D@std@@SAXAADABD@Z ENDP		; std::char_traits<char>::assign
_TEXT	ENDS
PUBLIC	?length@?$char_traits@D@std@@SAIPBD@Z		; std::char_traits<char>::length
; Function compile flags: /Ogty
;	COMDAT ?length@?$char_traits@D@std@@SAIPBD@Z
_TEXT	SEGMENT
__First$ = 8						; size = 4
?length@?$char_traits@D@std@@SAIPBD@Z PROC NEAR		; std::char_traits<char>::length, COMDAT

; 352  : 		return (::strlen(_First));

  00000	8b 44 24 04	 mov	 eax, DWORD PTR __First$[esp-4]
  00004	8d 50 01	 lea	 edx, DWORD PTR [eax+1]
$L155592:
  00007	8a 08		 mov	 cl, BYTE PTR [eax]
  00009	40		 inc	 eax
  0000a	84 c9		 test	 cl, cl
  0000c	75 f9		 jne	 SHORT $L155592
  0000e	2b c2		 sub	 eax, edx

; 353  : 		}

  00010	c3		 ret	 0
?length@?$char_traits@D@std@@SAIPBD@Z ENDP		; std::char_traits<char>::length
_TEXT	ENDS
PUBLIC	?copy@?$char_traits@D@std@@SAPADPADPBDI@Z	; std::char_traits<char>::copy
; Function compile flags: /Ogty
;	COMDAT ?copy@?$char_traits@D@std@@SAPADPADPBDI@Z
_TEXT	SEGMENT
__First1$ = 8						; size = 4
__First2$ = 12						; size = 4
__Count$ = 16						; size = 4
?copy@?$char_traits@D@std@@SAPADPADPBDI@Z PROC NEAR	; std::char_traits<char>::copy, COMDAT

; 358  : 		return ((_Elem *)::memcpy(_First1, _First2, _Count));

  00000	8b 4c 24 0c	 mov	 ecx, DWORD PTR __Count$[esp-4]
  00004	56		 push	 esi
  00005	8b 74 24 0c	 mov	 esi, DWORD PTR __First2$[esp]
  00009	57		 push	 edi
  0000a	8b 7c 24 0c	 mov	 edi, DWORD PTR __First1$[esp+4]
  0000e	8b c1		 mov	 eax, ecx
  00010	8b d7		 mov	 edx, edi
  00012	c1 e9 02	 shr	 ecx, 2
  00015	f3 a5		 rep movsd
  00017	8b c8		 mov	 ecx, eax
  00019	83 e1 03	 and	 ecx, 3
  0001c	f3 a4		 rep movsb
  0001e	5f		 pop	 edi
  0001f	8b c2		 mov	 eax, edx
  00021	5e		 pop	 esi

; 359  : 		}

  00022	c3		 ret	 0
?copy@?$char_traits@D@std@@SAPADPADPBDI@Z ENDP		; std::char_traits<char>::copy
_TEXT	ENDS
PUBLIC	?move@?$char_traits@D@std@@SAPADPADPBDI@Z	; std::char_traits<char>::move
; Function compile flags: /Ogty
;	COMDAT ?move@?$char_traits@D@std@@SAPADPADPBDI@Z
_TEXT	SEGMENT
__First1$ = 8						; size = 4
__First2$ = 12						; size = 4
__Count$ = 16						; size = 4
?move@?$char_traits@D@std@@SAPADPADPBDI@Z PROC NEAR	; std::char_traits<char>::move, COMDAT

; 370  : 		return ((_Elem *)::memmove(_First1, _First2, _Count));

  00000	e9 00 00 00 00	 jmp	 _memmove
?move@?$char_traits@D@std@@SAPADPADPBDI@Z ENDP		; std::char_traits<char>::move
_TEXT	ENDS
PUBLIC	??0CMclCritSec@@QAE@XZ				; CMclCritSec::CMclCritSec
PUBLIC	??_7CMclCritSec@@6B@				; CMclCritSec::`vftable'
PUBLIC	??_GCMclCritSec@@UAEPAXI@Z			; CMclCritSec::`scalar deleting destructor'
EXTRN	??_ECMclCritSec@@UAEPAXI@Z:NEAR			; CMclCritSec::`vector deleting destructor'
EXTRN	__imp__InitializeCriticalSection@4:NEAR
;	COMDAT ??_7CMclCritSec@@6B@
; File c:\offi src_real\offi src!\_network\mcl\include\cmclcritsec.h
CONST	SEGMENT
??_7CMclCritSec@@6B@ DD FLAT:??_ECMclCritSec@@UAEPAXI@Z	; CMclCritSec::`vftable'
; Function compile flags: /Ogty
CONST	ENDS
;	COMDAT ??0CMclCritSec@@QAE@XZ
_TEXT	SEGMENT
??0CMclCritSec@@QAE@XZ PROC NEAR			; CMclCritSec::CMclCritSec, COMDAT
; _this$ = ecx

; 19   :     CMclCritSec(void)

  00000	56		 push	 esi
  00001	8b f1		 mov	 esi, ecx

; 20   :     {
; 21   : 		::InitializeCriticalSection( &m_CritSec );

  00003	8d 46 04	 lea	 eax, DWORD PTR [esi+4]
  00006	50		 push	 eax
  00007	c7 06 00 00 00
	00		 mov	 DWORD PTR [esi], OFFSET FLAT:??_7CMclCritSec@@6B@
  0000d	ff 15 00 00 00
	00		 call	 DWORD PTR __imp__InitializeCriticalSection@4

; 22   : 	}

  00013	8b c6		 mov	 eax, esi
  00015	5e		 pop	 esi
  00016	c3		 ret	 0
??0CMclCritSec@@QAE@XZ ENDP				; CMclCritSec::CMclCritSec
_TEXT	ENDS
PUBLIC	??1CMclCritSec@@UAE@XZ				; CMclCritSec::~CMclCritSec
EXTRN	__imp__DeleteCriticalSection@4:NEAR
; Function compile flags: /Ogty
;	COMDAT ??1CMclCritSec@@UAE@XZ
_TEXT	SEGMENT
??1CMclCritSec@@UAE@XZ PROC NEAR			; CMclCritSec::~CMclCritSec, COMDAT
; _this$ = ecx

; 26   : 	{

  00000	c7 01 00 00 00
	00		 mov	 DWORD PTR [ecx], OFFSET FLAT:??_7CMclCritSec@@6B@

; 27   : 		::DeleteCriticalSection( &m_CritSec );

  00006	83 c1 04	 add	 ecx, 4
  00009	51		 push	 ecx
  0000a	ff 15 00 00 00
	00		 call	 DWORD PTR __imp__DeleteCriticalSection@4

; 28   : 	}

  00010	c3		 ret	 0
??1CMclCritSec@@UAE@XZ ENDP				; CMclCritSec::~CMclCritSec
_TEXT	ENDS
PUBLIC	?Enter@CMclCritSec@@QAEXXZ			; CMclCritSec::Enter
; Function compile flags: /Ogty
;	COMDAT ?Enter@CMclCritSec@@QAEXXZ
_TEXT	SEGMENT
?Enter@CMclCritSec@@QAEXXZ PROC NEAR			; CMclCritSec::Enter, COMDAT
; _this$ = ecx

; 33   : 		::EnterCriticalSection( &m_CritSec );

  00000	83 c1 04	 add	 ecx, 4
  00003	51		 push	 ecx
  00004	ff 15 00 00 00
	00		 call	 DWORD PTR __imp__EnterCriticalSection@4

; 34   : 	}

  0000a	c3		 ret	 0
?Enter@CMclCritSec@@QAEXXZ ENDP				; CMclCritSec::Enter
_TEXT	ENDS
PUBLIC	?Leave@CMclCritSec@@QAEXXZ			; CMclCritSec::Leave
; Function compile flags: /Ogty
;	COMDAT ?Leave@CMclCritSec@@QAEXXZ
_TEXT	SEGMENT
?Leave@CMclCritSec@@QAEXXZ PROC NEAR			; CMclCritSec::Leave, COMDAT
; _this$ = ecx

; 39   : 		::LeaveCriticalSection( &m_CritSec );

  00000	83 c1 04	 add	 ecx, 4
  00003	51		 push	 ecx
  00004	ff 15 00 00 00
	00		 call	 DWORD PTR __imp__LeaveCriticalSection@4

; 40   : 	}

  0000a	c3		 ret	 0
?Leave@CMclCritSec@@QAEXXZ ENDP				; CMclCritSec::Leave
; Function compile flags: /Ogty
_TEXT	ENDS
;	COMDAT ??_GCMclCritSec@@UAEPAXI@Z
_TEXT	SEGMENT
___flags$ = 8						; size = 4
??_GCMclCritSec@@UAEPAXI@Z PROC NEAR			; CMclCritSec::`scalar deleting destructor', COMDAT
; _this$ = ecx
  00000	56		 push	 esi
  00001	8b f1		 mov	 esi, ecx
  00003	8d 46 04	 lea	 eax, DWORD PTR [esi+4]
  00006	50		 push	 eax
  00007	c7 06 00 00 00
	00		 mov	 DWORD PTR [esi], OFFSET FLAT:??_7CMclCritSec@@6B@
  0000d	ff 15 00 00 00
	00		 call	 DWORD PTR __imp__DeleteCriticalSection@4
  00013	f6 44 24 08 01	 test	 BYTE PTR ___flags$[esp], 1
  00018	74 09		 je	 SHORT $L155618
  0001a	56		 push	 esi
  0001b	e8 00 00 00 00	 call	 ??3@YAXPAX@Z		; operator delete
  00020	83 c4 04	 add	 esp, 4
$L155618:
  00023	8b c6		 mov	 eax, esi
  00025	5e		 pop	 esi
  00026	c2 04 00	 ret	 4
??_GCMclCritSec@@UAEPAXI@Z ENDP				; CMclCritSec::`scalar deleting destructor'
_TEXT	ENDS
PUBLIC	??0CMclAutoLock@@QAE@AAVCMclCritSec@@@Z		; CMclAutoLock::CMclAutoLock
; Function compile flags: /Ogty
; File c:\offi src_real\offi src!\_network\mcl\include\cmclautolock.h
;	COMDAT ??0CMclAutoLock@@QAE@AAVCMclCritSec@@@Z
_TEXT	SEGMENT
_rCMclCritSec$ = 8					; size = 4
??0CMclAutoLock@@QAE@AAVCMclCritSec@@@Z PROC NEAR	; CMclAutoLock::CMclAutoLock, COMDAT
; _this$ = ecx

; 20   : 	{
; 21   : 		m_pcCritSec = &rCMclCritSec;

  00000	8b 44 24 04	 mov	 eax, DWORD PTR _rCMclCritSec$[esp-4]
  00004	56		 push	 esi
  00005	8b f1		 mov	 esi, ecx
  00007	89 06		 mov	 DWORD PTR [esi], eax

; 22   : 		m_pcCritSec->Enter();

  00009	83 c0 04	 add	 eax, 4
  0000c	50		 push	 eax
  0000d	ff 15 00 00 00
	00		 call	 DWORD PTR __imp__EnterCriticalSection@4

; 23   : 	}

  00013	8b c6		 mov	 eax, esi
  00015	5e		 pop	 esi
  00016	c2 04 00	 ret	 4
??0CMclAutoLock@@QAE@AAVCMclCritSec@@@Z ENDP		; CMclAutoLock::CMclAutoLock
_TEXT	ENDS
PUBLIC	??1CMclAutoLock@@QAE@XZ				; CMclAutoLock::~CMclAutoLock
; Function compile flags: /Ogty
;	COMDAT ??1CMclAutoLock@@QAE@XZ
_TEXT	SEGMENT
??1CMclAutoLock@@QAE@XZ PROC NEAR			; CMclAutoLock::~CMclAutoLock, COMDAT
; _this$ = ecx

; 28   : 		m_pcCritSec->Leave();

  00000	8b 01		 mov	 eax, DWORD PTR [ecx]
  00002	83 c0 04	 add	 eax, 4
  00005	50		 push	 eax
  00006	ff 15 00 00 00
	00		 call	 DWORD PTR __imp__LeaveCriticalSection@4

; 29   : 	}

  0000c	c3		 ret	 0
??1CMclAutoLock@@QAE@XZ ENDP				; CMclAutoLock::~CMclAutoLock
_TEXT	ENDS
PUBLIC	?IDHash@@YAKKI@Z				; IDHash
; Function compile flags: /Ogty
; File c:\offi src_real\offi src!\_network\cmnhdr.h
;	COMDAT ?IDHash@@YAKKI@Z
_TEXT	SEGMENT
_id$ = 8						; size = 4
_HashSize$ = 12						; size = 4
?IDHash@@YAKKI@Z PROC NEAR				; IDHash, COMDAT

; 48   : 	return (((id) + (id>>8) + (id>>16) + (id>>24)) & (HashSize-1));

  00000	8b 44 24 04	 mov	 eax, DWORD PTR _id$[esp-4]
  00004	8b d0		 mov	 edx, eax
  00006	8b c8		 mov	 ecx, eax
  00008	c1 ea 10	 shr	 edx, 16			; 00000010H
  0000b	03 d0		 add	 edx, eax
  0000d	c1 e9 18	 shr	 ecx, 24			; 00000018H
  00010	c1 e8 08	 shr	 eax, 8
  00013	03 d1		 add	 edx, ecx
  00015	8b 4c 24 08	 mov	 ecx, DWORD PTR _HashSize$[esp-4]
  00019	03 c2		 add	 eax, edx
  0001b	49		 dec	 ecx
  0001c	23 c1		 and	 eax, ecx

; 49   : }

  0001e	c3		 ret	 0
?IDHash@@YAKKI@Z ENDP					; IDHash
_TEXT	ENDS
PUBLIC	?IsPrime@@YAHK@Z				; IsPrime
; Function compile flags: /Ogty
;	COMDAT ?IsPrime@@YAHK@Z
_TEXT	SEGMENT
_n$ = 8							; size = 4
?IsPrime@@YAHK@Z PROC NEAR				; IsPrime, COMDAT

; 78   : {

  00000	56		 push	 esi

; 79   : 	u_long i = 2, j = n;
; 80   : 	while( i < j ) {

  00001	8b 74 24 08	 mov	 esi, DWORD PTR _n$[esp]
  00005	b9 02 00 00 00	 mov	 ecx, 2
  0000a	3b f1		 cmp	 esi, ecx
  0000c	76 11		 jbe	 SHORT $L130212
  0000e	8b ff		 npad	 2
$L130211:

; 81   : 		if( n % i == 0 )

  00010	33 d2		 xor	 edx, edx
  00012	8b c6		 mov	 eax, esi
  00014	f7 f1		 div	 ecx
  00016	85 d2		 test	 edx, edx
  00018	74 0c		 je	 SHORT $L155640

; 83   : 		j = n / i++;

  0001a	41		 inc	 ecx
  0001b	3b c8		 cmp	 ecx, eax
  0001d	72 f1		 jb	 SHORT $L130211
$L130212:

; 84   : 	}
; 85   : 	return TRUE;

  0001f	b8 01 00 00 00	 mov	 eax, 1
  00024	5e		 pop	 esi

; 86   : }

  00025	c3		 ret	 0
$L155640:

; 82   : 			return FALSE;

  00026	33 c0		 xor	 eax, eax
  00028	5e		 pop	 esi

; 86   : }

  00029	c3		 ret	 0
?IsPrime@@YAHK@Z ENDP					; IsPrime
_TEXT	ENDS
PUBLIC	?size@?$basic_string@DU?$char_traits@D@std@@V?$allocator@D@2@@std@@QBEIXZ ; std::basic_string<char,std::char_traits<char>,std::allocator<char> >::size
; Function compile flags: /Ogty
; File c:\program files\microsoft visual studio .net 2003\vc7\include\xstring
;	COMDAT ?size@?$basic_string@DU?$char_traits@D@std@@V?$allocator@D@2@@std@@QBEIXZ
_TEXT	SEGMENT
?size@?$basic_string@DU?$char_traits@D@std@@V?$allocator@D@2@@std@@QBEIXZ PROC NEAR ; std::basic_string<char,std::char_traits<char>,std::allocator<char> >::size, COMDAT
; _this$ = ecx

; 1109 : 		return (_Mysize);

  00000	8b 41 14	 mov	 eax, DWORD PTR [ecx+20]

; 1110 : 		}

  00003	c3		 ret	 0
?size@?$basic_string@DU?$char_traits@D@std@@V?$allocator@D@2@@std@@QBEIXZ ENDP ; std::basic_string<char,std::char_traits<char>,std::allocator<char> >::size
_TEXT	ENDS
PUBLIC	?_Myptr@?$basic_string@DU?$char_traits@D@std@@V?$allocator@D@2@@std@@QBEPBDXZ ; std::basic_string<char,std::char_traits<char>,std::allocator<char> >::_Myptr
; Function compile flags: /Ogty
;	COMDAT ?_Myptr@?$basic_string@DU?$char_traits@D@std@@V?$allocator@D@2@@std@@QBEPBDXZ
_TEXT	SEGMENT
?_Myptr@?$basic_string@DU?$char_traits@D@std@@V?$allocator@D@2@@std@@QBEPBDXZ PROC NEAR ; std::basic_string<char,std::char_traits<char>,std::allocator<char> >::_Myptr, COMDAT
; _this$ = ecx

; 1537 : 		return (_BUF_SIZE <= _Myres ? _Bx._Ptr : _Bx._Buf);

  00000	83 79 18 10	 cmp	 DWORD PTR [ecx+24], 16	; 00000010H
  00004	72 04		 jb	 SHORT $L155648
  00006	8b 41 04	 mov	 eax, DWORD PTR [ecx+4]

; 1538 : 		}

  00009	c3		 ret	 0
$L155648:

; 1537 : 		return (_BUF_SIZE <= _Myres ? _Bx._Ptr : _Bx._Buf);

  0000a	8d 41 04	 lea	 eax, DWORD PTR [ecx+4]

; 1538 : 		}

  0000d	c3		 ret	 0
?_Myptr@?$basic_string@DU?$char_traits@D@std@@V?$allocator@D@2@@std@@QBEPBDXZ ENDP ; std::basic_string<char,std::char_traits<char>,std::allocator<char> >::_Myptr
_TEXT	ENDS
PUBLIC	??0?$allocator@D@std@@QAE@ABV01@@Z		; std::allocator<char>::allocator<char>
; Function compile flags: /Ogty
; File c:\program files\microsoft visual studio .net 2003\vc7\include\xmemory
;	COMDAT ??0?$allocator@D@std@@QAE@ABV01@@Z
_TEXT	SEGMENT
___formal$ = 8						; size = 4
??0?$allocator@D@std@@QAE@ABV01@@Z PROC NEAR		; std::allocator<char>::allocator<char>, COMDAT
; _this$ = ecx

; 115  : 	allocator(const allocator<_Ty>&)

  00000	8b c1		 mov	 eax, ecx

; 116  : 		{	// construct by copying (do nothing)
; 117  : 		}

  00002	c2 04 00	 ret	 4
??0?$allocator@D@std@@QAE@ABV01@@Z ENDP			; std::allocator<char>::allocator<char>
_TEXT	ENDS
PUBLIC	?_Myptr@?$basic_string@DU?$char_traits@D@std@@V?$allocator@D@2@@std@@QAEPADXZ ; std::basic_string<char,std::char_traits<char>,std::allocator<char> >::_Myptr
; Function compile flags: /Ogty
; File c:\program files\microsoft visual studio .net 2003\vc7\include\xstring
;	COMDAT ?_Myptr@?$basic_string@DU?$char_traits@D@std@@V?$allocator@D@2@@std@@QAEPADXZ
_TEXT	SEGMENT
?_Myptr@?$basic_string@DU?$char_traits@D@std@@V?$allocator@D@2@@std@@QAEPADXZ PROC NEAR ; std::basic_string<char,std::char_traits<char>,std::allocator<char> >::_Myptr, COMDAT
; _this$ = ecx

; 1532 : 		return (_BUF_SIZE <= _Myres ? _Bx._Ptr : _Bx._Buf);

  00000	83 79 18 10	 cmp	 DWORD PTR [ecx+24], 16	; 00000010H
  00004	72 04		 jb	 SHORT $L155656
  00006	8b 41 04	 mov	 eax, DWORD PTR [ecx+4]

; 1533 : 		}

  00009	c3		 ret	 0
$L155656:

; 1532 : 		return (_BUF_SIZE <= _Myres ? _Bx._Ptr : _Bx._Buf);

  0000a	8d 41 04	 lea	 eax, DWORD PTR [ecx+4]

; 1533 : 		}

  0000d	c3		 ret	 0
?_Myptr@?$basic_string@DU?$char_traits@D@std@@V?$allocator@D@2@@std@@QAEPADXZ ENDP ; std::basic_string<char,std::char_traits<char>,std::allocator<char> >::_Myptr
_TEXT	ENDS
PUBLIC	?deallocate@?$allocator@D@std@@QAEXPADI@Z	; std::allocator<char>::deallocate
; Function compile flags: /Ogty
; File c:\program files\microsoft visual studio .net 2003\vc7\include\xmemory
;	COMDAT ?deallocate@?$allocator@D@std@@QAEXPADI@Z
_TEXT	SEGMENT
__Ptr$ = 8						; size = 4
___formal$ = 12						; size = 4
?deallocate@?$allocator@D@std@@QAEXPADI@Z PROC NEAR	; std::allocator<char>::deallocate, COMDAT
; _this$ = ecx

; 132  : 		operator delete(_Ptr);

  00000	8b 44 24 04	 mov	 eax, DWORD PTR __Ptr$[esp-4]
  00004	50		 push	 eax
  00005	e8 00 00 00 00	 call	 ??3@YAXPAX@Z		; operator delete
  0000a	59		 pop	 ecx

; 133  : 		}

  0000b	c2 08 00	 ret	 8
?deallocate@?$allocator@D@std@@QAEXPADI@Z ENDP		; std::allocator<char>::deallocate
_TEXT	ENDS
PUBLIC	?_Inside@?$basic_string@DU?$char_traits@D@std@@V?$allocator@D@2@@std@@IAE_NPBD@Z ; std::basic_string<char,std::char_traits<char>,std::allocator<char> >::_Inside
; Function compile flags: /Ogty
; File c:\program files\microsoft visual studio .net 2003\vc7\include\xstring
;	COMDAT ?_Inside@?$basic_string@DU?$char_traits@D@std@@V?$allocator@D@2@@std@@IAE_NPBD@Z
_TEXT	SEGMENT
__Ptr$ = 8						; size = 4
?_Inside@?$basic_string@DU?$char_traits@D@std@@V?$allocator@D@2@@std@@IAE_NPBD@Z PROC NEAR ; std::basic_string<char,std::char_traits<char>,std::allocator<char> >::_Inside, COMDAT
; _this$ = ecx

; 1494 : 		{	// test if _Ptr points inside string

  00000	56		 push	 esi

; 1495 : 		if (_Ptr < _Myptr() || _Myptr() + _Mysize <= _Ptr)

  00001	8b 71 18	 mov	 esi, DWORD PTR [ecx+24]
  00004	83 fe 10	 cmp	 esi, 16			; 00000010H
  00007	57		 push	 edi
  00008	8d 41 04	 lea	 eax, DWORD PTR [ecx+4]
  0000b	72 04		 jb	 SHORT $L155668
  0000d	8b 10		 mov	 edx, DWORD PTR [eax]
  0000f	eb 02		 jmp	 SHORT $L155669
$L155668:
  00011	8b d0		 mov	 edx, eax
$L155669:
  00013	8b 7c 24 0c	 mov	 edi, DWORD PTR __Ptr$[esp+4]
  00017	3b fa		 cmp	 edi, edx
  00019	72 17		 jb	 SHORT $L147799
  0001b	83 fe 10	 cmp	 esi, 16			; 00000010H
  0001e	72 02		 jb	 SHORT $L155676
  00020	8b 00		 mov	 eax, DWORD PTR [eax]
$L155676:
  00022	8b 49 14	 mov	 ecx, DWORD PTR [ecx+20]
  00025	03 c8		 add	 ecx, eax
  00027	3b cf		 cmp	 ecx, edi
  00029	76 07		 jbe	 SHORT $L147799
  0002b	5f		 pop	 edi

; 1497 : 		else
; 1498 : 			return (true);

  0002c	b0 01		 mov	 al, 1
  0002e	5e		 pop	 esi

; 1499 : 		}

  0002f	c2 04 00	 ret	 4
$L147799:
  00032	5f		 pop	 edi

; 1496 : 			return (false);	// don't ask

  00033	32 c0		 xor	 al, al
  00035	5e		 pop	 esi

; 1499 : 		}

  00036	c2 04 00	 ret	 4
?_Inside@?$basic_string@DU?$char_traits@D@std@@V?$allocator@D@2@@std@@IAE_NPBD@Z ENDP ; std::basic_string<char,std::char_traits<char>,std::allocator<char> >::_Inside
_TEXT	ENDS
PUBLIC	?max_size@?$allocator@D@std@@QBEIXZ		; std::allocator<char>::max_size
; Function compile flags: /Ogty
; File c:\program files\microsoft visual studio .net 2003\vc7\include\xmemory
;	COMDAT ?max_size@?$allocator@D@std@@QBEIXZ
_TEXT	SEGMENT
?max_size@?$allocator@D@std@@QBEIXZ PROC NEAR		; std::allocator<char>::max_size, COMDAT
; _this$ = ecx

; 157  : 		_SIZT _Count = (_SIZT)(-1) / sizeof (_Ty);
; 158  : 		return (0 < _Count ? _Count : 1);

  00000	83 c8 ff	 or	 eax, -1

; 159  : 		}

  00003	c3		 ret	 0
?max_size@?$allocator@D@std@@QBEIXZ ENDP		; std::allocator<char>::max_size
_TEXT	ENDS
PUBLIC	??$_Allocate@D@std@@YAPADIPAD@Z			; std::_Allocate<char>
; Function compile flags: /Ogty
;	COMDAT ??$_Allocate@D@std@@YAPADIPAD@Z
_TEXT	SEGMENT
__Count$ = 8						; size = 4
___formal$ = 12						; size = 4
??$_Allocate@D@std@@YAPADIPAD@Z PROC NEAR		; std::_Allocate<char>, COMDAT

; 34   : 	return ((_Ty _FARQ *)operator new(_Count * sizeof (_Ty)));

  00000	8b 44 24 04	 mov	 eax, DWORD PTR __Count$[esp-4]
  00004	50		 push	 eax
  00005	e8 00 00 00 00	 call	 ??2@YAPAXI@Z		; operator new
  0000a	83 c4 04	 add	 esp, 4

; 35   : 	}

  0000d	c3		 ret	 0
??$_Allocate@D@std@@YAPADIPAD@Z ENDP			; std::_Allocate<char>
_TEXT	ENDS
PUBLIC	??3CClientSockE@@SAXPAX@Z			; CClientSockE::operator delete
EXTRN	?m_pPool@CClientSockE@@2PAV?$MemPooler@VCClientSockE@@@@A:DWORD ; CClientSockE::m_pPool
; Function compile flags: /Ogty
; File c:\offi src_real\offi src!\_network\net\include\clientsocke.h
;	COMDAT ??3CClientSockE@@SAXPAX@Z
_TEXT	SEGMENT
_lpMem$ = 8						; size = 4
??3CClientSockE@@SAXPAX@Z PROC NEAR			; CClientSockE::operator delete, COMDAT

; 84   : 	void	operator delete( void* lpMem )	{	CClientSockE::m_pPool->Free( (CClientSockE*)lpMem );	}

  00000	53		 push	 ebx
  00001	56		 push	 esi
  00002	8b 35 00 00 00
	00		 mov	 esi, DWORD PTR ?m_pPool@CClientSockE@@2PAV?$MemPooler@VCClientSockE@@@@A ; CClientSockE::m_pPool
  00008	57		 push	 edi
  00009	8d 5e 1c	 lea	 ebx, DWORD PTR [esi+28]
  0000c	53		 push	 ebx
  0000d	ff 15 00 00 00
	00		 call	 DWORD PTR __imp__EnterCriticalSection@4
  00013	8b 4e 18	 mov	 ecx, DWORD PTR [esi+24]
  00016	85 c9		 test	 ecx, ecx
  00018	8b 7c 24 10	 mov	 edi, DWORD PTR _lpMem$[esp+8]
  0001c	8d 47 fc	 lea	 eax, DWORD PTR [edi-4]
  0001f	7e 09		 jle	 SHORT $L155693
  00021	8b 0e		 mov	 ecx, DWORD PTR [esi]
  00023	89 08		 mov	 DWORD PTR [eax], ecx
  00025	89 06		 mov	 DWORD PTR [esi], eax
  00027	ff 4e 18	 dec	 DWORD PTR [esi+24]
$L155693:
  0002a	33 c0		 xor	 eax, eax
  0002c	b9 1f 01 00 00	 mov	 ecx, 287		; 0000011fH
  00031	53		 push	 ebx
  00032	f3 ab		 rep stosd
  00034	ff 15 00 00 00
	00		 call	 DWORD PTR __imp__LeaveCriticalSection@4
  0003a	5f		 pop	 edi
  0003b	5e		 pop	 esi
  0003c	5b		 pop	 ebx
  0003d	c3		 ret	 0
??3CClientSockE@@SAXPAX@Z ENDP				; CClientSockE::operator delete
_TEXT	ENDS
PUBLIC	??0iterator@?$list@PAXV?$allocator@PAX@std@@@std@@QAE@PAU_Node@?$_List_nod@PAXV?$allocator@PAX@std@@@2@@Z ; std::list<void *,std::allocator<void *> >::iterator::iterator
; Function compile flags: /Ogty
; File c:\program files\microsoft visual studio .net 2003\vc7\include\list
;	COMDAT ??0iterator@?$list@PAXV?$allocator@PAX@std@@@std@@QAE@PAU_Node@?$_List_nod@PAXV?$allocator@PAX@std@@@2@@Z
_TEXT	SEGMENT
__Pnode$ = 8						; size = 4
??0iterator@?$list@PAXV?$allocator@PAX@std@@@std@@QAE@PAU_Node@?$_List_nod@PAXV?$allocator@PAX@std@@@2@@Z PROC NEAR ; std::list<void *,std::allocator<void *> >::iterator::iterator, COMDAT
; _this$ = ecx

; 235  : 			{	// construct with node pointer _Pnode

  00000	8b c1		 mov	 eax, ecx
  00002	8b 4c 24 04	 mov	 ecx, DWORD PTR __Pnode$[esp-4]
  00006	89 08		 mov	 DWORD PTR [eax], ecx

; 236  : 			}

  00008	c2 04 00	 ret	 4
??0iterator@?$list@PAXV?$allocator@PAX@std@@@std@@QAE@PAU_Node@?$_List_nod@PAXV?$allocator@PAX@std@@@2@@Z ENDP ; std::list<void *,std::allocator<void *> >::iterator::iterator
_TEXT	ENDS
PUBLIC	?max_size@?$list@PAXV?$allocator@PAX@std@@@std@@QBEIXZ ; std::list<void *,std::allocator<void *> >::max_size
; Function compile flags: /Ogty
;	COMDAT ?max_size@?$list@PAXV?$allocator@PAX@std@@@std@@QBEIXZ
_TEXT	SEGMENT
?max_size@?$list@PAXV?$allocator@PAX@std@@@std@@QBEIXZ PROC NEAR ; std::list<void *,std::allocator<void *> >::max_size, COMDAT
; _this$ = ecx

; 436  : 		return (this->_Alval.max_size());

  00000	b8 ff ff ff 3f	 mov	 eax, 1073741823		; 3fffffffH

; 437  : 		}

  00005	c3		 ret	 0
?max_size@?$list@PAXV?$allocator@PAX@std@@@std@@QBEIXZ ENDP ; std::list<void *,std::allocator<void *> >::max_size
_TEXT	ENDS
PUBLIC	?allocate@?$allocator@U_Node@?$_List_nod@PAXV?$allocator@PAX@std@@@std@@@std@@QAEPAU_Node@?$_List_nod@PAXV?$allocator@PAX@std@@@2@I@Z ; std::allocator<std::_List_nod<void *,std::allocator<void *> >::_Node>::allocate
; Function compile flags: /Ogty
; File c:\program files\microsoft visual studio .net 2003\vc7\include\xmemory
;	COMDAT ?allocate@?$allocator@U_Node@?$_List_nod@PAXV?$allocator@PAX@std@@@std@@@std@@QAEPAU_Node@?$_List_nod@PAXV?$allocator@PAX@std@@@2@I@Z
_TEXT	SEGMENT
__Count$ = 8						; size = 4
?allocate@?$allocator@U_Node@?$_List_nod@PAXV?$allocator@PAX@std@@@std@@@std@@QAEPAU_Node@?$_List_nod@PAXV?$allocator@PAX@std@@@2@I@Z PROC NEAR ; std::allocator<std::_List_nod<void *,std::allocator<void *> >::_Node>::allocate, COMDAT
; _this$ = ecx

; 137  : 		return (_Allocate(_Count, (pointer)0));

  00000	8b 44 24 04	 mov	 eax, DWORD PTR __Count$[esp-4]
  00004	8d 04 40	 lea	 eax, DWORD PTR [eax+eax*2]
  00007	c1 e0 02	 shl	 eax, 2
  0000a	50		 push	 eax
  0000b	e8 00 00 00 00	 call	 ??2@YAPAXI@Z		; operator new
  00010	83 c4 04	 add	 esp, 4

; 138  : 		}

  00013	c2 04 00	 ret	 4
?allocate@?$allocator@U_Node@?$_List_nod@PAXV?$allocator@PAX@std@@@std@@@std@@QAEPAU_Node@?$_List_nod@PAXV?$allocator@PAX@std@@@2@I@Z ENDP ; std::allocator<std::_List_nod<void *,std::allocator<void *> >::_Node>::allocate
_TEXT	ENDS
PUBLIC	?Lookup@?$CMyMap@PAVCClientSockE@@@@QAEHKAAPAVCClientSockE@@@Z ; CMyMap<CClientSockE *>::Lookup
; Function compile flags: /Ogty
; File c:\offi src_real\offi src!\_network\misc\include\mymap.h
;	COMDAT ?Lookup@?$CMyMap@PAVCClientSockE@@@@QAEHKAAPAVCClientSockE@@@Z
_TEXT	SEGMENT
_dwKey$ = 8						; size = 4
_value$ = 12						; size = 4
?Lookup@?$CMyMap@PAVCClientSockE@@@@QAEHKAAPAVCClientSockE@@@Z PROC NEAR ; CMyMap<CClientSockE *>::Lookup, COMDAT
; _this$ = ecx

; 325  : 	ASSERT( m_nHashSize > 0 );
; 326  : 
; 327  : 	if( dwKey == INVALID_KEY )

  00000	8b 54 24 04	 mov	 edx, DWORD PTR _dwKey$[esp-4]
  00004	83 fa ff	 cmp	 edx, -1

; 328  : 		return FALSE;

  00007	74 38		 je	 SHORT $L153840
  00009	56		 push	 esi
  0000a	57		 push	 edi

; 329  : 	
; 330  : 	INIT_LOOP(1000);
; 331  : 	CMyBucket<T>* pBucket	= &m_pBuckets[IDHash( dwKey, m_nHashSize )];

  0000b	8b fa		 mov	 edi, edx
  0000d	c1 ef 10	 shr	 edi, 16			; 00000010H
  00010	03 fa		 add	 edi, edx
  00012	8b f2		 mov	 esi, edx
  00014	c1 ee 18	 shr	 esi, 24			; 00000018H
  00017	03 fe		 add	 edi, esi
  00019	8b 71 38	 mov	 esi, DWORD PTR [ecx+56]
  0001c	8b 49 04	 mov	 ecx, DWORD PTR [ecx+4]
  0001f	8b c2		 mov	 eax, edx
  00021	c1 e8 08	 shr	 eax, 8
  00024	03 c7		 add	 eax, edi
  00026	4e		 dec	 esi
  00027	23 c6		 and	 eax, esi
  00029	8d 04 40	 lea	 eax, DWORD PTR [eax+eax*2]
  0002c	8d 04 c1	 lea	 eax, DWORD PTR [ecx+eax*8]

; 332  : 	while( pBucket )

  0002f	85 c0		 test	 eax, eax
  00031	5f		 pop	 edi
  00032	5e		 pop	 esi
  00033	74 0c		 je	 SHORT $L153840
$L153839:

; 333  : 	{
; 334  : 		VERIFY_LOOP( __FILE__, __LINE__ );
; 335  : 		if( pBucket->IsEqual( dwKey ) )

  00035	3b 50 04	 cmp	 edx, DWORD PTR [eax+4]
  00038	74 0c		 je	 SHORT $L155728

; 339  : 		}
; 340  : 		pBucket		= pBucket->m_pNext;

  0003a	8b 40 0c	 mov	 eax, DWORD PTR [eax+12]
  0003d	85 c0		 test	 eax, eax
  0003f	75 f4		 jne	 SHORT $L153839
$L153840:

; 341  : 	}
; 342  : 	return FALSE;

  00041	33 c0		 xor	 eax, eax

; 343  : }

  00043	c2 08 00	 ret	 8
$L155728:

; 336  : 		{
; 337  : 			value	= pBucket->m_value;

  00046	8b 50 08	 mov	 edx, DWORD PTR [eax+8]
  00049	8b 44 24 08	 mov	 eax, DWORD PTR _value$[esp-4]
  0004d	89 10		 mov	 DWORD PTR [eax], edx

; 338  : 			return TRUE;

  0004f	b8 01 00 00 00	 mov	 eax, 1

; 343  : }

  00054	c2 08 00	 ret	 8
?Lookup@?$CMyMap@PAVCClientSockE@@@@QAEHKAAPAVCClientSockE@@@Z ENDP ; CMyMap<CClientSockE *>::Lookup
_TEXT	ENDS
PUBLIC	?Lock@?$CMyMap@PAVCClientSockE@@@@QAEXXZ	; CMyMap<CClientSockE *>::Lock
; Function compile flags: /Ogty
;	COMDAT ?Lock@?$CMyMap@PAVCClientSockE@@@@QAEXXZ
_TEXT	SEGMENT
?Lock@?$CMyMap@PAVCClientSockE@@@@QAEXXZ PROC NEAR	; CMyMap<CClientSockE *>::Lock, COMDAT
; _this$ = ecx

; 474  : 	m_AddRemoveLock.Enter();

  00000	83 c1 44	 add	 ecx, 68			; 00000044H
  00003	51		 push	 ecx
  00004	ff 15 00 00 00
	00		 call	 DWORD PTR __imp__EnterCriticalSection@4

; 475  : }

  0000a	c3		 ret	 0
?Lock@?$CMyMap@PAVCClientSockE@@@@QAEXXZ ENDP		; CMyMap<CClientSockE *>::Lock
_TEXT	ENDS
PUBLIC	?Unlock@?$CMyMap@PAVCClientSockE@@@@QAEXXZ	; CMyMap<CClientSockE *>::Unlock
; Function compile flags: /Ogty
;	COMDAT ?Unlock@?$CMyMap@PAVCClientSockE@@@@QAEXXZ
_TEXT	SEGMENT
?Unlock@?$CMyMap@PAVCClientSockE@@@@QAEXXZ PROC NEAR	; CMyMap<CClientSockE *>::Unlock, COMDAT
; _this$ = ecx

; 479  : 	m_AddRemoveLock.Leave();

  00000	83 c1 44	 add	 ecx, 68			; 00000044H
  00003	51		 push	 ecx
  00004	ff 15 00 00 00
	00		 call	 DWORD PTR __imp__LeaveCriticalSection@4

; 480  : }

  0000a	c3		 ret	 0
?Unlock@?$CMyMap@PAVCClientSockE@@@@QAEXXZ ENDP		; CMyMap<CClientSockE *>::Unlock
_TEXT	ENDS
PUBLIC	?destroy@?$allocator@PAPAV?$CMyBucket@PAVCClientSockE@@@@@std@@QAEXPAPAPAV?$CMyBucket@PAVCClientSockE@@@@@Z ; std::allocator<CMyBucket<CClientSockE *> * *>::destroy
; Function compile flags: /Ogty
; File c:\program files\microsoft visual studio .net 2003\vc7\include\xmemory
;	COMDAT ?destroy@?$allocator@PAPAV?$CMyBucket@PAVCClientSockE@@@@@std@@QAEXPAPAPAV?$CMyBucket@PAVCClientSockE@@@@@Z
_TEXT	SEGMENT
__Ptr$ = 8						; size = 4
?destroy@?$allocator@PAPAV?$CMyBucket@PAVCClientSockE@@@@@std@@QAEXPAPAPAV?$CMyBucket@PAVCClientSockE@@@@@Z PROC NEAR ; std::allocator<CMyBucket<CClientSockE *> * *>::destroy, COMDAT
; _this$ = ecx

; 152  : 		_Destroy(_Ptr);
; 153  : 		}

  00000	c2 04 00	 ret	 4
?destroy@?$allocator@PAPAV?$CMyBucket@PAVCClientSockE@@@@@std@@QAEXPAPAPAV?$CMyBucket@PAVCClientSockE@@@@@Z ENDP ; std::allocator<CMyBucket<CClientSockE *> * *>::destroy
_TEXT	ENDS
PUBLIC	?destroy@?$allocator@PAU_Node@?$_List_nod@PAV?$CMyBucket@PAVCClientSockE@@@@V?$allocator@PAV?$CMyBucket@PAVCClientSockE@@@@@std@@@std@@@std@@QAEXPAPAU_Node@?$_List_nod@PAV?$CMyBucket@PAVCClientSockE@@@@V?$allocator@PAV?$CMyBucket@PAVCClientSockE@@@@@std@@@2@@Z ; std::allocator<std::_List_nod<CMyBucket<CClientSockE *> *,std::allocator<CMyBucket<CClientSockE *> *> >::_Node *>::destroy
; Function compile flags: /Ogty
;	COMDAT ?destroy@?$allocator@PAU_Node@?$_List_nod@PAV?$CMyBucket@PAVCClientSockE@@@@V?$allocator@PAV?$CMyBucket@PAVCClientSockE@@@@@std@@@std@@@std@@QAEXPAPAU_Node@?$_List_nod@PAV?$CMyBucket@PAVCClientSockE@@@@V?$allocator@PAV?$CMyBucket@PAVCClientSockE@@@@@std@@@2@@Z
_TEXT	SEGMENT
__Ptr$ = 8						; size = 4
?destroy@?$allocator@PAU_Node@?$_List_nod@PAV?$CMyBucket@PAVCClientSockE@@@@V?$allocator@PAV?$CMyBucket@PAVCClientSockE@@@@@std@@@std@@@std@@QAEXPAPAU_Node@?$_List_nod@PAV?$CMyBucket@PAVCClientSockE@@@@V?$allocator@PAV?$CMyBucket@PAVCClientSockE@@@@@std@@@2@@Z PROC NEAR ; std::allocator<std::_List_nod<CMyBucket<CClientSockE *> *,std::allocator<CMyBucket<CClientSockE *> *> >::_Node *>::destroy, COMDAT
; _this$ = ecx

; 152  : 		_Destroy(_Ptr);
; 153  : 		}

  00000	c2 04 00	 ret	 4
?destroy@?$allocator@PAU_Node@?$_List_nod@PAV?$CMyBucket@PAVCClientSockE@@@@V?$allocator@PAV?$CMyBucket@PAVCClientSockE@@@@@std@@@std@@@std@@QAEXPAPAU_Node@?$_List_nod@PAV?$CMyBucket@PAVCClientSockE@@@@V?$allocator@PAV?$CMyBucket@PAVCClientSockE@@@@@std@@@2@@Z ENDP ; std::allocator<std::_List_nod<CMyBucket<CClientSockE *> *,std::allocator<CMyBucket<CClientSockE *> *> >::_Node *>::destroy
_TEXT	ENDS
PUBLIC	?destroy@?$allocator@PAV?$CMyBucket@PAVCClientSockE@@@@@std@@QAEXPAPAV?$CMyBucket@PAVCClientSockE@@@@@Z ; std::allocator<CMyBucket<CClientSockE *> *>::destroy
; Function compile flags: /Ogty
;	COMDAT ?destroy@?$allocator@PAV?$CMyBucket@PAVCClientSockE@@@@@std@@QAEXPAPAV?$CMyBucket@PAVCClientSockE@@@@@Z
_TEXT	SEGMENT
__Ptr$ = 8						; size = 4
?destroy@?$allocator@PAV?$CMyBucket@PAVCClientSockE@@@@@std@@QAEXPAPAV?$CMyBucket@PAVCClientSockE@@@@@Z PROC NEAR ; std::allocator<CMyBucket<CClientSockE *> *>::destroy, COMDAT
; _this$ = ecx

; 152  : 		_Destroy(_Ptr);
; 153  : 		}

  00000	c2 04 00	 ret	 4
?destroy@?$allocator@PAV?$CMyBucket@PAVCClientSockE@@@@@std@@QAEXPAPAV?$CMyBucket@PAVCClientSockE@@@@@Z ENDP ; std::allocator<CMyBucket<CClientSockE *> *>::destroy
_TEXT	ENDS
PUBLIC	?destroy@?$allocator@U_Node@?$_List_nod@PAV?$CMyBucket@PAVCClientSockE@@@@V?$allocator@PAV?$CMyBucket@PAVCClientSockE@@@@@std@@@std@@@std@@QAEXPAU_Node@?$_List_nod@PAV?$CMyBucket@PAVCClientSockE@@@@V?$allocator@PAV?$CMyBucket@PAVCClientSockE@@@@@std@@@2@@Z ; std::allocator<std::_List_nod<CMyBucket<CClientSockE *> *,std::allocator<CMyBucket<CClientSockE *> *> >::_Node>::destroy
; Function compile flags: /Ogty
;	COMDAT ?destroy@?$allocator@U_Node@?$_List_nod@PAV?$CMyBucket@PAVCClientSockE@@@@V?$allocator@PAV?$CMyBucket@PAVCClientSockE@@@@@std@@@std@@@std@@QAEXPAU_Node@?$_List_nod@PAV?$CMyBucket@PAVCClientSockE@@@@V?$allocator@PAV?$CMyBucket@PAVCClientSockE@@@@@std@@@2@@Z
_TEXT	SEGMENT
__Ptr$ = 8						; size = 4
?destroy@?$allocator@U_Node@?$_List_nod@PAV?$CMyBucket@PAVCClientSockE@@@@V?$allocator@PAV?$CMyBucket@PAVCClientSockE@@@@@std@@@std@@@std@@QAEXPAU_Node@?$_List_nod@PAV?$CMyBucket@PAVCClientSockE@@@@V?$allocator@PAV?$CMyBucket@PAVCClientSockE@@@@@std@@@2@@Z PROC NEAR ; std::allocator<std::_List_nod<CMyBucket<CClientSockE *> *,std::allocator<CMyBucket<CClientSockE *> *> >::_Node>::destroy, COMDAT
; _this$ = ecx

; 152  : 		_Destroy(_Ptr);
; 153  : 		}

  00000	c2 04 00	 ret	 4
?destroy@?$allocator@U_Node@?$_List_nod@PAV?$CMyBucket@PAVCClientSockE@@@@V?$allocator@PAV?$CMyBucket@PAVCClientSockE@@@@@std@@@std@@@std@@QAEXPAU_Node@?$_List_nod@PAV?$CMyBucket@PAVCClientSockE@@@@V?$allocator@PAV?$CMyBucket@PAVCClientSockE@@@@@std@@@2@@Z ENDP ; std::allocator<std::_List_nod<CMyBucket<CClientSockE *> *,std::allocator<CMyBucket<CClientSockE *> *> >::_Node>::destroy
_TEXT	ENDS
PUBLIC	??Eiterator@?$list@PAV?$CMyBucket@PAVCClientSockE@@@@V?$allocator@PAV?$CMyBucket@PAVCClientSockE@@@@@std@@@std@@QAEAAV012@XZ ; std::list<CMyBucket<CClientSockE *> *,std::allocator<CMyBucket<CClientSockE *> *> >::iterator::operator++
; Function compile flags: /Ogty
; File c:\program files\microsoft visual studio .net 2003\vc7\include\list
;	COMDAT ??Eiterator@?$list@PAV?$CMyBucket@PAVCClientSockE@@@@V?$allocator@PAV?$CMyBucket@PAVCClientSockE@@@@@std@@@std@@QAEAAV012@XZ
_TEXT	SEGMENT
??Eiterator@?$list@PAV?$CMyBucket@PAVCClientSockE@@@@V?$allocator@PAV?$CMyBucket@PAVCClientSockE@@@@@std@@@std@@QAEAAV012@XZ PROC NEAR ; std::list<CMyBucket<CClientSockE *> *,std::allocator<CMyBucket<CClientSockE *> *> >::iterator::operator++, COMDAT
; _this$ = ecx

; 249  : 			{	// preincrement

  00000	8b c1		 mov	 eax, ecx

; 250  : 			++(*(const_iterator *)this);

  00002	8b 08		 mov	 ecx, DWORD PTR [eax]
  00004	8b 11		 mov	 edx, DWORD PTR [ecx]
  00006	89 10		 mov	 DWORD PTR [eax], edx

; 251  : 			return (*this);
; 252  : 			}

  00008	c3		 ret	 0
??Eiterator@?$list@PAV?$CMyBucket@PAVCClientSockE@@@@V?$allocator@PAV?$CMyBucket@PAVCClientSockE@@@@@std@@@std@@QAEAAV012@XZ ENDP ; std::list<CMyBucket<CClientSockE *> *,std::allocator<CMyBucket<CClientSockE *> *> >::iterator::operator++
_TEXT	ENDS
PUBLIC	??9const_iterator@?$list@PAV?$CMyBucket@PAVCClientSockE@@@@V?$allocator@PAV?$CMyBucket@PAVCClientSockE@@@@@std@@@std@@QBE_NABV012@@Z ; std::list<CMyBucket<CClientSockE *> *,std::allocator<CMyBucket<CClientSockE *> *> >::const_iterator::operator!=
; Function compile flags: /Ogty
;	COMDAT ??9const_iterator@?$list@PAV?$CMyBucket@PAVCClientSockE@@@@V?$allocator@PAV?$CMyBucket@PAVCClientSockE@@@@@std@@@std@@QBE_NABV012@@Z
_TEXT	SEGMENT
__Right$ = 8						; size = 4
??9const_iterator@?$list@PAV?$CMyBucket@PAVCClientSockE@@@@V?$allocator@PAV?$CMyBucket@PAVCClientSockE@@@@@std@@@std@@QBE_NABV012@@Z PROC NEAR ; std::list<CMyBucket<CClientSockE *> *,std::allocator<CMyBucket<CClientSockE *> *> >::const_iterator::operator!=, COMDAT
; _this$ = ecx

; 202  : 			return (!(*this == _Right));

  00000	8b 01		 mov	 eax, DWORD PTR [ecx]
  00002	8b 54 24 04	 mov	 edx, DWORD PTR __Right$[esp-4]
  00006	56		 push	 esi
  00007	8b 32		 mov	 esi, DWORD PTR [edx]
  00009	33 c9		 xor	 ecx, ecx
  0000b	3b c6		 cmp	 eax, esi
  0000d	0f 95 c1	 setne	 cl
  00010	8a c1		 mov	 al, cl
  00012	5e		 pop	 esi

; 203  : 			}

  00013	c2 04 00	 ret	 4
??9const_iterator@?$list@PAV?$CMyBucket@PAVCClientSockE@@@@V?$allocator@PAV?$CMyBucket@PAVCClientSockE@@@@@std@@@std@@QBE_NABV012@@Z ENDP ; std::list<CMyBucket<CClientSockE *> *,std::allocator<CMyBucket<CClientSockE *> *> >::const_iterator::operator!=
_TEXT	ENDS
PUBLIC	??0iterator@?$list@PAV?$CMyBucket@PAVCClientSockE@@@@V?$allocator@PAV?$CMyBucket@PAVCClientSockE@@@@@std@@@std@@QAE@PAU_Node@?$_List_nod@PAV?$CMyBucket@PAVCClientSockE@@@@V?$allocator@PAV?$CMyBucket@PAVCClientSockE@@@@@std@@@2@@Z ; std::list<CMyBucket<CClientSockE *> *,std::allocator<CMyBucket<CClientSockE *> *> >::iterator::iterator
; Function compile flags: /Ogty
;	COMDAT ??0iterator@?$list@PAV?$CMyBucket@PAVCClientSockE@@@@V?$allocator@PAV?$CMyBucket@PAVCClientSockE@@@@@std@@@std@@QAE@PAU_Node@?$_List_nod@PAV?$CMyBucket@PAVCClientSockE@@@@V?$allocator@PAV?$CMyBucket@PAVCClientSockE@@@@@std@@@2@@Z
_TEXT	SEGMENT
__Pnode$ = 8						; size = 4
??0iterator@?$list@PAV?$CMyBucket@PAVCClientSockE@@@@V?$allocator@PAV?$CMyBucket@PAVCClientSockE@@@@@std@@@std@@QAE@PAU_Node@?$_List_nod@PAV?$CMyBucket@PAVCClientSockE@@@@V?$allocator@PAV?$CMyBucket@PAVCClientSockE@@@@@std@@@2@@Z PROC NEAR ; std::list<CMyBucket<CClientSockE *> *,std::allocator<CMyBucket<CClientSockE *> *> >::iterator::iterator, COMDAT
; _this$ = ecx

; 235  : 			{	// construct with node pointer _Pnode

  00000	8b c1		 mov	 eax, ecx
  00002	8b 4c 24 04	 mov	 ecx, DWORD PTR __Pnode$[esp-4]
  00006	89 08		 mov	 DWORD PTR [eax], ecx

; 236  : 			}

  00008	c2 04 00	 ret	 4
??0iterator@?$list@PAV?$CMyBucket@PAVCClientSockE@@@@V?$allocator@PAV?$CMyBucket@PAVCClientSockE@@@@@std@@@std@@QAE@PAU_Node@?$_List_nod@PAV?$CMyBucket@PAVCClientSockE@@@@V?$allocator@PAV?$CMyBucket@PAVCClientSockE@@@@@std@@@2@@Z ENDP ; std::list<CMyBucket<CClientSockE *> *,std::allocator<CMyBucket<CClientSockE *> *> >::iterator::iterator
_TEXT	ENDS
PUBLIC	??Dconst_iterator@?$list@PAV?$CMyBucket@PAVCClientSockE@@@@V?$allocator@PAV?$CMyBucket@PAVCClientSockE@@@@@std@@@std@@QBEABQAV?$CMyBucket@PAVCClientSockE@@@@XZ ; std::list<CMyBucket<CClientSockE *> *,std::allocator<CMyBucket<CClientSockE *> *> >::const_iterator::operator*
; Function compile flags: /Ogty
;	COMDAT ??Dconst_iterator@?$list@PAV?$CMyBucket@PAVCClientSockE@@@@V?$allocator@PAV?$CMyBucket@PAVCClientSockE@@@@@std@@@std@@QBEABQAV?$CMyBucket@PAVCClientSockE@@@@XZ
_TEXT	SEGMENT
??Dconst_iterator@?$list@PAV?$CMyBucket@PAVCClientSockE@@@@V?$allocator@PAV?$CMyBucket@PAVCClientSockE@@@@@std@@@std@@QBEABQAV?$CMyBucket@PAVCClientSockE@@@@XZ PROC NEAR ; std::list<CMyBucket<CClientSockE *> *,std::allocator<CMyBucket<CClientSockE *> *> >::const_iterator::operator*, COMDAT
; _this$ = ecx

; 161  : 			return (_Myval(_Ptr));

  00000	8b 01		 mov	 eax, DWORD PTR [ecx]
  00002	83 c0 08	 add	 eax, 8

; 162  : 			}

  00005	c3		 ret	 0
??Dconst_iterator@?$list@PAV?$CMyBucket@PAVCClientSockE@@@@V?$allocator@PAV?$CMyBucket@PAVCClientSockE@@@@@std@@@std@@QBEABQAV?$CMyBucket@PAVCClientSockE@@@@XZ ENDP ; std::list<CMyBucket<CClientSockE *> *,std::allocator<CMyBucket<CClientSockE *> *> >::const_iterator::operator*
_TEXT	ENDS
PUBLIC	?allocate@?$allocator@PAV?$CMyBucket@PAVCClientSockE@@@@@std@@QAEPAPAV?$CMyBucket@PAVCClientSockE@@@@I@Z ; std::allocator<CMyBucket<CClientSockE *> *>::allocate
; Function compile flags: /Ogty
; File c:\program files\microsoft visual studio .net 2003\vc7\include\xmemory
;	COMDAT ?allocate@?$allocator@PAV?$CMyBucket@PAVCClientSockE@@@@@std@@QAEPAPAV?$CMyBucket@PAVCClientSockE@@@@I@Z
_TEXT	SEGMENT
__Count$ = 8						; size = 4
?allocate@?$allocator@PAV?$CMyBucket@PAVCClientSockE@@@@@std@@QAEPAPAV?$CMyBucket@PAVCClientSockE@@@@I@Z PROC NEAR ; std::allocator<CMyBucket<CClientSockE *> *>::allocate, COMDAT
; _this$ = ecx

; 137  : 		return (_Allocate(_Count, (pointer)0));

  00000	8b 44 24 04	 mov	 eax, DWORD PTR __Count$[esp-4]
  00004	8d 0c 85 00 00
	00 00		 lea	 ecx, DWORD PTR [eax*4]
  0000b	51		 push	 ecx
  0000c	e8 00 00 00 00	 call	 ??2@YAPAXI@Z		; operator new
  00011	83 c4 04	 add	 esp, 4

; 138  : 		}

  00014	c2 04 00	 ret	 4
?allocate@?$allocator@PAV?$CMyBucket@PAVCClientSockE@@@@@std@@QAEPAPAV?$CMyBucket@PAVCClientSockE@@@@I@Z ENDP ; std::allocator<CMyBucket<CClientSockE *> *>::allocate
_TEXT	ENDS
PUBLIC	?construct@?$allocator@PAV?$CMyBucket@PAVCClientSockE@@@@@std@@QAEXPAPAV?$CMyBucket@PAVCClientSockE@@@@ABQAV3@@Z ; std::allocator<CMyBucket<CClientSockE *> *>::construct
; Function compile flags: /Ogty
;	COMDAT ?construct@?$allocator@PAV?$CMyBucket@PAVCClientSockE@@@@@std@@QAEXPAPAV?$CMyBucket@PAVCClientSockE@@@@ABQAV3@@Z
_TEXT	SEGMENT
__Ptr$ = 8						; size = 4
__Val$ = 12						; size = 4
?construct@?$allocator@PAV?$CMyBucket@PAVCClientSockE@@@@@std@@QAEXPAPAV?$CMyBucket@PAVCClientSockE@@@@ABQAV3@@Z PROC NEAR ; std::allocator<CMyBucket<CClientSockE *> *>::construct, COMDAT
; _this$ = ecx

; 147  : 		_Construct(_Ptr, _Val);

  00000	8b 44 24 04	 mov	 eax, DWORD PTR __Ptr$[esp-4]
  00004	85 c0		 test	 eax, eax
  00006	74 08		 je	 SHORT $L155814
  00008	8b 4c 24 08	 mov	 ecx, DWORD PTR __Val$[esp-4]
  0000c	8b 11		 mov	 edx, DWORD PTR [ecx]
  0000e	89 10		 mov	 DWORD PTR [eax], edx
$L155814:

; 148  : 		}

  00010	c2 08 00	 ret	 8
?construct@?$allocator@PAV?$CMyBucket@PAVCClientSockE@@@@@std@@QAEXPAPAV?$CMyBucket@PAVCClientSockE@@@@ABQAV3@@Z ENDP ; std::allocator<CMyBucket<CClientSockE *> *>::construct
_TEXT	ENDS
PUBLIC	?allocate@?$allocator@U_Node@?$_List_nod@PAV?$CMyBucket@PAVCClientSockE@@@@V?$allocator@PAV?$CMyBucket@PAVCClientSockE@@@@@std@@@std@@@std@@QAEPAU_Node@?$_List_nod@PAV?$CMyBucket@PAVCClientSockE@@@@V?$allocator@PAV?$CMyBucket@PAVCClientSockE@@@@@std@@@2@I@Z ; std::allocator<std::_List_nod<CMyBucket<CClientSockE *> *,std::allocator<CMyBucket<CClientSockE *> *> >::_Node>::allocate
; Function compile flags: /Ogty
;	COMDAT ?allocate@?$allocator@U_Node@?$_List_nod@PAV?$CMyBucket@PAVCClientSockE@@@@V?$allocator@PAV?$CMyBucket@PAVCClientSockE@@@@@std@@@std@@@std@@QAEPAU_Node@?$_List_nod@PAV?$CMyBucket@PAVCClientSockE@@@@V?$allocator@PAV?$CMyBucket@PAVCClientSockE@@@@@std@@@2@I@Z
_TEXT	SEGMENT
__Count$ = 8						; size = 4
?allocate@?$allocator@U_Node@?$_List_nod@PAV?$CMyBucket@PAVCClientSockE@@@@V?$allocator@PAV?$CMyBucket@PAVCClientSockE@@@@@std@@@std@@@std@@QAEPAU_Node@?$_List_nod@PAV?$CMyBucket@PAVCClientSockE@@@@V?$allocator@PAV?$CMyBucket@PAVCClientSockE@@@@@std@@@2@I@Z PROC NEAR ; std::allocator<std::_List_nod<CMyBucket<CClientSockE *> *,std::allocator<CMyBucket<CClientSockE *> *> >::_Node>::allocate, COMDAT
; _this$ = ecx

; 137  : 		return (_Allocate(_Count, (pointer)0));

  00000	8b 44 24 04	 mov	 eax, DWORD PTR __Count$[esp-4]
  00004	8d 04 40	 lea	 eax, DWORD PTR [eax+eax*2]
  00007	c1 e0 02	 shl	 eax, 2
  0000a	50		 push	 eax
  0000b	e8 00 00 00 00	 call	 ??2@YAPAXI@Z		; operator new
  00010	83 c4 04	 add	 esp, 4

; 138  : 		}

  00013	c2 04 00	 ret	 4
?allocate@?$allocator@U_Node@?$_List_nod@PAV?$CMyBucket@PAVCClientSockE@@@@V?$allocator@PAV?$CMyBucket@PAVCClientSockE@@@@@std@@@std@@@std@@QAEPAU_Node@?$_List_nod@PAV?$CMyBucket@PAVCClientSockE@@@@V?$allocator@PAV?$CMyBucket@PAVCClientSockE@@@@@std@@@2@I@Z ENDP ; std::allocator<std::_List_nod<CMyBucket<CClientSockE *> *,std::allocator<CMyBucket<CClientSockE *> *> >::_Node>::allocate
_TEXT	ENDS
PUBLIC	?construct@?$allocator@PAU_Node@?$_List_nod@PAV?$CMyBucket@PAVCClientSockE@@@@V?$allocator@PAV?$CMyBucket@PAVCClientSockE@@@@@std@@@std@@@std@@QAEXPAPAU_Node@?$_List_nod@PAV?$CMyBucket@PAVCClientSockE@@@@V?$allocator@PAV?$CMyBucket@PAVCClientSockE@@@@@std@@@2@ABQAU342@@Z ; std::allocator<std::_List_nod<CMyBucket<CClientSockE *> *,std::allocator<CMyBucket<CClientSockE *> *> >::_Node *>::construct
; Function compile flags: /Ogty
;	COMDAT ?construct@?$allocator@PAU_Node@?$_List_nod@PAV?$CMyBucket@PAVCClientSockE@@@@V?$allocator@PAV?$CMyBucket@PAVCClientSockE@@@@@std@@@std@@@std@@QAEXPAPAU_Node@?$_List_nod@PAV?$CMyBucket@PAVCClientSockE@@@@V?$allocator@PAV?$CMyBucket@PAVCClientSockE@@@@@std@@@2@ABQAU342@@Z
_TEXT	SEGMENT
__Ptr$ = 8						; size = 4
__Val$ = 12						; size = 4
?construct@?$allocator@PAU_Node@?$_List_nod@PAV?$CMyBucket@PAVCClientSockE@@@@V?$allocator@PAV?$CMyBucket@PAVCClientSockE@@@@@std@@@std@@@std@@QAEXPAPAU_Node@?$_List_nod@PAV?$CMyBucket@PAVCClientSockE@@@@V?$allocator@PAV?$CMyBucket@PAVCClientSockE@@@@@std@@@2@ABQAU342@@Z PROC NEAR ; std::allocator<std::_List_nod<CMyBucket<CClientSockE *> *,std::allocator<CMyBucket<CClientSockE *> *> >::_Node *>::construct, COMDAT
; _this$ = ecx

; 147  : 		_Construct(_Ptr, _Val);

  00000	8b 44 24 04	 mov	 eax, DWORD PTR __Ptr$[esp-4]
  00004	85 c0		 test	 eax, eax
  00006	74 08		 je	 SHORT $L155837
  00008	8b 4c 24 08	 mov	 ecx, DWORD PTR __Val$[esp-4]
  0000c	8b 11		 mov	 edx, DWORD PTR [ecx]
  0000e	89 10		 mov	 DWORD PTR [eax], edx
$L155837:

; 148  : 		}

  00010	c2 08 00	 ret	 8
?construct@?$allocator@PAU_Node@?$_List_nod@PAV?$CMyBucket@PAVCClientSockE@@@@V?$allocator@PAV?$CMyBucket@PAVCClientSockE@@@@@std@@@std@@@std@@QAEXPAPAU_Node@?$_List_nod@PAV?$CMyBucket@PAVCClientSockE@@@@V?$allocator@PAV?$CMyBucket@PAVCClientSockE@@@@@std@@@2@ABQAU342@@Z ENDP ; std::allocator<std::_List_nod<CMyBucket<CClientSockE *> *,std::allocator<CMyBucket<CClientSockE *> *> >::_Node *>::construct
_TEXT	ENDS
PUBLIC	??Diterator@?$deque@PAV?$CMyBucket@PAVCClientSockE@@@@V?$allocator@PAV?$CMyBucket@PAVCClientSockE@@@@@std@@@std@@QBEAAPAV?$CMyBucket@PAVCClientSockE@@@@XZ ; std::deque<CMyBucket<CClientSockE *> *,std::allocator<CMyBucket<CClientSockE *> *> >::iterator::operator*
; Function compile flags: /Ogty
; File c:\program files\microsoft visual studio .net 2003\vc7\include\deque
;	COMDAT ??Diterator@?$deque@PAV?$CMyBucket@PAVCClientSockE@@@@V?$allocator@PAV?$CMyBucket@PAVCClientSockE@@@@@std@@@std@@QBEAAPAV?$CMyBucket@PAVCClientSockE@@@@XZ
_TEXT	SEGMENT
??Diterator@?$deque@PAV?$CMyBucket@PAVCClientSockE@@@@V?$allocator@PAV?$CMyBucket@PAVCClientSockE@@@@@std@@@std@@QBEAAPAV?$CMyBucket@PAVCClientSockE@@@@XZ PROC NEAR ; std::deque<CMyBucket<CClientSockE *> *,std::allocator<CMyBucket<CClientSockE *> *> >::iterator::operator*, COMDAT
; _this$ = ecx

; 247  : 			return ((reference)**(const_iterator *)this);

  00000	8b 51 04	 mov	 edx, DWORD PTR [ecx+4]
  00003	8b 09		 mov	 ecx, DWORD PTR [ecx]
  00005	8b c2		 mov	 eax, edx
  00007	c1 e8 02	 shr	 eax, 2
  0000a	56		 push	 esi
  0000b	8d 34 85 00 00
	00 00		 lea	 esi, DWORD PTR [eax*4]
  00012	2b d6		 sub	 edx, esi
  00014	8b 71 08	 mov	 esi, DWORD PTR [ecx+8]
  00017	3b f0		 cmp	 esi, eax
  00019	77 02		 ja	 SHORT $L155849
  0001b	2b c6		 sub	 eax, esi
$L155849:
  0001d	8b 49 04	 mov	 ecx, DWORD PTR [ecx+4]
  00020	8b 04 81	 mov	 eax, DWORD PTR [ecx+eax*4]
  00023	8d 04 90	 lea	 eax, DWORD PTR [eax+edx*4]
  00026	5e		 pop	 esi

; 248  : 			}

  00027	c3		 ret	 0
??Diterator@?$deque@PAV?$CMyBucket@PAVCClientSockE@@@@V?$allocator@PAV?$CMyBucket@PAVCClientSockE@@@@@std@@@std@@QBEAAPAV?$CMyBucket@PAVCClientSockE@@@@XZ ENDP ; std::deque<CMyBucket<CClientSockE *> *,std::allocator<CMyBucket<CClientSockE *> *> >::iterator::operator*
_TEXT	ENDS
PUBLIC	?max_size@?$deque@PAV?$CMyBucket@PAVCClientSockE@@@@V?$allocator@PAV?$CMyBucket@PAVCClientSockE@@@@@std@@@std@@QBEIXZ ; std::deque<CMyBucket<CClientSockE *> *,std::allocator<CMyBucket<CClientSockE *> *> >::max_size
; Function compile flags: /Ogty
;	COMDAT ?max_size@?$deque@PAV?$CMyBucket@PAVCClientSockE@@@@V?$allocator@PAV?$CMyBucket@PAVCClientSockE@@@@@std@@@std@@QBEIXZ
_TEXT	SEGMENT
?max_size@?$deque@PAV?$CMyBucket@PAVCClientSockE@@@@V?$allocator@PAV?$CMyBucket@PAVCClientSockE@@@@@std@@@std@@QBEIXZ PROC NEAR ; std::deque<CMyBucket<CClientSockE *> *,std::allocator<CMyBucket<CClientSockE *> *> >::max_size, COMDAT
; _this$ = ecx

; 497  : 		return (this->_Alval.max_size());

  00000	b8 ff ff ff 3f	 mov	 eax, 1073741823		; 3fffffffH

; 498  : 		}

  00005	c3		 ret	 0
?max_size@?$deque@PAV?$CMyBucket@PAVCClientSockE@@@@V?$allocator@PAV?$CMyBucket@PAVCClientSockE@@@@@std@@@std@@QBEIXZ ENDP ; std::deque<CMyBucket<CClientSockE *> *,std::allocator<CMyBucket<CClientSockE *> *> >::max_size
_TEXT	ENDS
PUBLIC	??0?$_Deque_map@PAV?$CMyBucket@PAVCClientSockE@@@@V?$allocator@PAV?$CMyBucket@PAVCClientSockE@@@@@std@@@std@@IAE@V?$allocator@PAV?$CMyBucket@PAVCClientSockE@@@@@1@@Z ; std::_Deque_map<CMyBucket<CClientSockE *> *,std::allocator<CMyBucket<CClientSockE *> *> >::_Deque_map<CMyBucket<CClientSockE *> *,std::allocator<CMyBucket<CClientSockE *> *> >
; Function compile flags: /Ogty
;	COMDAT ??0?$_Deque_map@PAV?$CMyBucket@PAVCClientSockE@@@@V?$allocator@PAV?$CMyBucket@PAVCClientSockE@@@@@std@@@std@@IAE@V?$allocator@PAV?$CMyBucket@PAVCClientSockE@@@@@1@@Z
_TEXT	SEGMENT
__Al$ = 8						; size = 1
??0?$_Deque_map@PAV?$CMyBucket@PAVCClientSockE@@@@V?$allocator@PAV?$CMyBucket@PAVCClientSockE@@@@@std@@@std@@IAE@V?$allocator@PAV?$CMyBucket@PAVCClientSockE@@@@@1@@Z PROC NEAR ; std::_Deque_map<CMyBucket<CClientSockE *> *,std::allocator<CMyBucket<CClientSockE *> *> >::_Deque_map<CMyBucket<CClientSockE *> *,std::allocator<CMyBucket<CClientSockE *> *> >, COMDAT
; _this$ = ecx

; 21   : 		{	// construct allocator from _Al

  00000	8b c1		 mov	 eax, ecx

; 22   : 		}

  00002	c2 04 00	 ret	 4
??0?$_Deque_map@PAV?$CMyBucket@PAVCClientSockE@@@@V?$allocator@PAV?$CMyBucket@PAVCClientSockE@@@@@std@@@std@@IAE@V?$allocator@PAV?$CMyBucket@PAVCClientSockE@@@@@1@@Z ENDP ; std::_Deque_map<CMyBucket<CClientSockE *> *,std::allocator<CMyBucket<CClientSockE *> *> >::_Deque_map<CMyBucket<CClientSockE *> *,std::allocator<CMyBucket<CClientSockE *> *> >
_TEXT	ENDS
PUBLIC	?allocate@?$allocator@PAPAV?$CMyBucket@PAVCClientSockE@@@@@std@@QAEPAPAPAV?$CMyBucket@PAVCClientSockE@@@@I@Z ; std::allocator<CMyBucket<CClientSockE *> * *>::allocate
; Function compile flags: /Ogty
; File c:\program files\microsoft visual studio .net 2003\vc7\include\xmemory
;	COMDAT ?allocate@?$allocator@PAPAV?$CMyBucket@PAVCClientSockE@@@@@std@@QAEPAPAPAV?$CMyBucket@PAVCClientSockE@@@@I@Z
_TEXT	SEGMENT
__Count$ = 8						; size = 4
?allocate@?$allocator@PAPAV?$CMyBucket@PAVCClientSockE@@@@@std@@QAEPAPAPAV?$CMyBucket@PAVCClientSockE@@@@I@Z PROC NEAR ; std::allocator<CMyBucket<CClientSockE *> * *>::allocate, COMDAT
; _this$ = ecx

; 137  : 		return (_Allocate(_Count, (pointer)0));

  00000	8b 44 24 04	 mov	 eax, DWORD PTR __Count$[esp-4]
  00004	8d 0c 85 00 00
	00 00		 lea	 ecx, DWORD PTR [eax*4]
  0000b	51		 push	 ecx
  0000c	e8 00 00 00 00	 call	 ??2@YAPAXI@Z		; operator new
  00011	83 c4 04	 add	 esp, 4

; 138  : 		}

  00014	c2 04 00	 ret	 4
?allocate@?$allocator@PAPAV?$CMyBucket@PAVCClientSockE@@@@@std@@QAEPAPAPAV?$CMyBucket@PAVCClientSockE@@@@I@Z ENDP ; std::allocator<CMyBucket<CClientSockE *> * *>::allocate
_TEXT	ENDS
PUBLIC	??0?$_List_nod@PAV?$CMyBucket@PAVCClientSockE@@@@V?$allocator@PAV?$CMyBucket@PAVCClientSockE@@@@@std@@@std@@IAE@V?$allocator@PAV?$CMyBucket@PAVCClientSockE@@@@@1@@Z ; std::_List_nod<CMyBucket<CClientSockE *> *,std::allocator<CMyBucket<CClientSockE *> *> >::_List_nod<CMyBucket<CClientSockE *> *,std::allocator<CMyBucket<CClientSockE *> *> >
; Function compile flags: /Ogty
; File c:\program files\microsoft visual studio .net 2003\vc7\include\list
;	COMDAT ??0?$_List_nod@PAV?$CMyBucket@PAVCClientSockE@@@@V?$allocator@PAV?$CMyBucket@PAVCClientSockE@@@@@std@@@std@@IAE@V?$allocator@PAV?$CMyBucket@PAVCClientSockE@@@@@1@@Z
_TEXT	SEGMENT
__Al$ = 8						; size = 1
??0?$_List_nod@PAV?$CMyBucket@PAVCClientSockE@@@@V?$allocator@PAV?$CMyBucket@PAVCClientSockE@@@@@std@@@std@@IAE@V?$allocator@PAV?$CMyBucket@PAVCClientSockE@@@@@1@@Z PROC NEAR ; std::_List_nod<CMyBucket<CClientSockE *> *,std::allocator<CMyBucket<CClientSockE *> *> >::_List_nod<CMyBucket<CClientSockE *> *,std::allocator<CMyBucket<CClientSockE *> *> >, COMDAT
; _this$ = ecx

; 44   : 		{	// construct allocator from _Al

  00000	8b c1		 mov	 eax, ecx

; 45   : 		}

  00002	c2 04 00	 ret	 4
??0?$_List_nod@PAV?$CMyBucket@PAVCClientSockE@@@@V?$allocator@PAV?$CMyBucket@PAVCClientSockE@@@@@std@@@std@@IAE@V?$allocator@PAV?$CMyBucket@PAVCClientSockE@@@@@1@@Z ENDP ; std::_List_nod<CMyBucket<CClientSockE *> *,std::allocator<CMyBucket<CClientSockE *> *> >::_List_nod<CMyBucket<CClientSockE *> *,std::allocator<CMyBucket<CClientSockE *> *> >
_TEXT	ENDS
PUBLIC	??0iterator@?$deque@PAV?$CMyBucket@PAVCClientSockE@@@@V?$allocator@PAV?$CMyBucket@PAVCClientSockE@@@@@std@@@std@@QAE@IPBV12@@Z ; std::deque<CMyBucket<CClientSockE *> *,std::allocator<CMyBucket<CClientSockE *> *> >::iterator::iterator
; Function compile flags: /Ogty
; File c:\program files\microsoft visual studio .net 2003\vc7\include\deque
;	COMDAT ??0iterator@?$deque@PAV?$CMyBucket@PAVCClientSockE@@@@V?$allocator@PAV?$CMyBucket@PAVCClientSockE@@@@@std@@@std@@QAE@IPBV12@@Z
_TEXT	SEGMENT
__Off$ = 8						; size = 4
__Pdeque$ = 12						; size = 4
??0iterator@?$deque@PAV?$CMyBucket@PAVCClientSockE@@@@V?$allocator@PAV?$CMyBucket@PAVCClientSockE@@@@@std@@@std@@QAE@IPBV12@@Z PROC NEAR ; std::deque<CMyBucket<CClientSockE *> *,std::allocator<CMyBucket<CClientSockE *> *> >::iterator::iterator, COMDAT
; _this$ = ecx

; 242  : 			{	// construct with offset _Off in *_Pdeque

  00000	8b 54 24 04	 mov	 edx, DWORD PTR __Off$[esp-4]
  00004	8b c1		 mov	 eax, ecx
  00006	8b 4c 24 08	 mov	 ecx, DWORD PTR __Pdeque$[esp-4]
  0000a	89 08		 mov	 DWORD PTR [eax], ecx
  0000c	89 50 04	 mov	 DWORD PTR [eax+4], edx

; 243  : 			}

  0000f	c2 08 00	 ret	 8
??0iterator@?$deque@PAV?$CMyBucket@PAVCClientSockE@@@@V?$allocator@PAV?$CMyBucket@PAVCClientSockE@@@@@std@@@std@@QAE@IPBV12@@Z ENDP ; std::deque<CMyBucket<CClientSockE *> *,std::allocator<CMyBucket<CClientSockE *> *> >::iterator::iterator
_TEXT	ENDS
PUBLIC	??Ziterator@?$deque@PAV?$CMyBucket@PAVCClientSockE@@@@V?$allocator@PAV?$CMyBucket@PAVCClientSockE@@@@@std@@@std@@QAEAAV012@H@Z ; std::deque<CMyBucket<CClientSockE *> *,std::allocator<CMyBucket<CClientSockE *> *> >::iterator::operator-=
; Function compile flags: /Ogty
;	COMDAT ??Ziterator@?$deque@PAV?$CMyBucket@PAVCClientSockE@@@@V?$allocator@PAV?$CMyBucket@PAVCClientSockE@@@@@std@@@std@@QAEAAV012@H@Z
_TEXT	SEGMENT
__Off$ = 8						; size = 4
??Ziterator@?$deque@PAV?$CMyBucket@PAVCClientSockE@@@@V?$allocator@PAV?$CMyBucket@PAVCClientSockE@@@@@std@@@std@@QAEAAV012@H@Z PROC NEAR ; std::deque<CMyBucket<CClientSockE *> *,std::allocator<CMyBucket<CClientSockE *> *> >::iterator::operator-=, COMDAT
; _this$ = ecx

; 294  : 			{	// decrement by integer

  00000	8b c1		 mov	 eax, ecx

; 295  : 			return (*this += -_Off);

  00002	8b 50 04	 mov	 edx, DWORD PTR [eax+4]
  00005	8b 4c 24 04	 mov	 ecx, DWORD PTR __Off$[esp-4]
  00009	2b d1		 sub	 edx, ecx
  0000b	89 50 04	 mov	 DWORD PTR [eax+4], edx

; 296  : 			}

  0000e	c2 04 00	 ret	 4
??Ziterator@?$deque@PAV?$CMyBucket@PAVCClientSockE@@@@V?$allocator@PAV?$CMyBucket@PAVCClientSockE@@@@@std@@@std@@QAEAAV012@H@Z ENDP ; std::deque<CMyBucket<CClientSockE *> *,std::allocator<CMyBucket<CClientSockE *> *> >::iterator::operator-=
_TEXT	ENDS
PUBLIC	??$_Uninitialized_copy@PAPAPAV?$CMyBucket@PAVCClientSockE@@@@PAPAPAV1@V?$allocator@PAPAV?$CMyBucket@PAVCClientSockE@@@@@std@@@std@@YAPAPAPAV?$CMyBucket@PAVCClientSockE@@@@PAPAPAV1@00AAV?$allocator@PAPAV?$CMyBucket@PAVCClientSockE@@@@@0@@Z ; std::_Uninitialized_copy<CMyBucket<CClientSockE *> * * *,CMyBucket<CClientSockE *> * * *,std::allocator<CMyBucket<CClientSockE *> * *> >
; Function compile flags: /Ogty
; File c:\program files\microsoft visual studio .net 2003\vc7\include\memory
;	COMDAT ??$_Uninitialized_copy@PAPAPAV?$CMyBucket@PAVCClientSockE@@@@PAPAPAV1@V?$allocator@PAPAV?$CMyBucket@PAVCClientSockE@@@@@std@@@std@@YAPAPAPAV?$CMyBucket@PAVCClientSockE@@@@PAPAPAV1@00AAV?$allocator@PAPAV?$CMyBucket@PAVCClientSockE@@@@@0@@Z
_TEXT	SEGMENT
__First$ = 8						; size = 4
__Last$ = 12						; size = 4
__Dest$ = 16						; size = 4
__Al$ = 20						; size = 4
??$_Uninitialized_copy@PAPAPAV?$CMyBucket@PAVCClientSockE@@@@PAPAPAV1@V?$allocator@PAPAV?$CMyBucket@PAVCClientSockE@@@@@std@@@std@@YAPAPAPAV?$CMyBucket@PAVCClientSockE@@@@PAPAPAV1@00AAV?$allocator@PAPAV?$CMyBucket@PAVCClientSockE@@@@@0@@Z PROC NEAR ; std::_Uninitialized_copy<CMyBucket<CClientSockE *> * * *,CMyBucket<CClientSockE *> * * *,std::allocator<CMyBucket<CClientSockE *> * *> >, COMDAT

; 127  : 	return (_Uninit_copy(_First, _Last, _Dest, _Al,
; 128  : 		_Ptr_cat(_First, _Dest)));

  00000	8b 4c 24 04	 mov	 ecx, DWORD PTR __First$[esp-4]
  00004	8b 44 24 08	 mov	 eax, DWORD PTR __Last$[esp-4]
  00008	2b c1		 sub	 eax, ecx
  0000a	56		 push	 esi
  0000b	c1 f8 02	 sar	 eax, 2
  0000e	8d 34 85 00 00
	00 00		 lea	 esi, DWORD PTR [eax*4]
  00015	8b 44 24 10	 mov	 eax, DWORD PTR __Dest$[esp]
  00019	56		 push	 esi
  0001a	51		 push	 ecx
  0001b	50		 push	 eax
  0001c	e8 00 00 00 00	 call	 _memmove
  00021	83 c4 0c	 add	 esp, 12			; 0000000cH
  00024	03 c6		 add	 eax, esi
  00026	5e		 pop	 esi

; 129  : 	}

  00027	c3		 ret	 0
??$_Uninitialized_copy@PAPAPAV?$CMyBucket@PAVCClientSockE@@@@PAPAPAV1@V?$allocator@PAPAV?$CMyBucket@PAVCClientSockE@@@@@std@@@std@@YAPAPAPAV?$CMyBucket@PAVCClientSockE@@@@PAPAPAV1@00AAV?$allocator@PAPAV?$CMyBucket@PAVCClientSockE@@@@@0@@Z ENDP ; std::_Uninitialized_copy<CMyBucket<CClientSockE *> * * *,CMyBucket<CClientSockE *> * * *,std::allocator<CMyBucket<CClientSockE *> * *> >
_TEXT	ENDS
PUBLIC	??$_Destroy_range@PAPAV?$CMyBucket@PAVCClientSockE@@@@V?$allocator@PAPAV?$CMyBucket@PAVCClientSockE@@@@@std@@@std@@YAXPAPAPAV?$CMyBucket@PAVCClientSockE@@@@0AAV?$allocator@PAPAV?$CMyBucket@PAVCClientSockE@@@@@0@@Z ; std::_Destroy_range<CMyBucket<CClientSockE *> * *,std::allocator<CMyBucket<CClientSockE *> * *> >
; Function compile flags: /Ogty
; File c:\program files\microsoft visual studio .net 2003\vc7\include\xmemory
;	COMDAT ??$_Destroy_range@PAPAV?$CMyBucket@PAVCClientSockE@@@@V?$allocator@PAPAV?$CMyBucket@PAVCClientSockE@@@@@std@@@std@@YAXPAPAPAV?$CMyBucket@PAVCClientSockE@@@@0AAV?$allocator@PAPAV?$CMyBucket@PAVCClientSockE@@@@@0@@Z
_TEXT	SEGMENT
__First$ = 8						; size = 4
__Last$ = 12						; size = 4
__Al$ = 16						; size = 4
??$_Destroy_range@PAPAV?$CMyBucket@PAVCClientSockE@@@@V?$allocator@PAPAV?$CMyBucket@PAVCClientSockE@@@@@std@@@std@@YAXPAPAPAV?$CMyBucket@PAVCClientSockE@@@@0AAV?$allocator@PAPAV?$CMyBucket@PAVCClientSockE@@@@@0@@Z PROC NEAR ; std::_Destroy_range<CMyBucket<CClientSockE *> * *,std::allocator<CMyBucket<CClientSockE *> * *> >, COMDAT

; 217  : 	_Destroy_range(_First, _Last, _Al, _Ptr_cat(_First, _Last));
; 218  : 	}

  00000	c3		 ret	 0
??$_Destroy_range@PAPAV?$CMyBucket@PAVCClientSockE@@@@V?$allocator@PAPAV?$CMyBucket@PAVCClientSockE@@@@@std@@@std@@YAXPAPAPAV?$CMyBucket@PAVCClientSockE@@@@0AAV?$allocator@PAPAV?$CMyBucket@PAVCClientSockE@@@@@0@@Z ENDP ; std::_Destroy_range<CMyBucket<CClientSockE *> * *,std::allocator<CMyBucket<CClientSockE *> * *> >
_TEXT	ENDS
PUBLIC	?_Buynode@?$list@PAV?$CMyBucket@PAVCClientSockE@@@@V?$allocator@PAV?$CMyBucket@PAVCClientSockE@@@@@std@@@std@@IAEPAU_Node@?$_List_nod@PAV?$CMyBucket@PAVCClientSockE@@@@V?$allocator@PAV?$CMyBucket@PAVCClientSockE@@@@@std@@@2@PAU342@0ABQAV?$CMyBucket@PAVCClientSockE@@@@@Z ; std::list<CMyBucket<CClientSockE *> *,std::allocator<CMyBucket<CClientSockE *> *> >::_Buynode
EXTRN	__CxxThrowException@8:NEAR
; Function compile flags: /Ogty
; File c:\program files\microsoft visual studio .net 2003\vc7\include\list
;	COMDAT ?_Buynode@?$list@PAV?$CMyBucket@PAVCClientSockE@@@@V?$allocator@PAV?$CMyBucket@PAVCClientSockE@@@@@std@@@std@@IAEPAU_Node@?$_List_nod@PAV?$CMyBucket@PAVCClientSockE@@@@V?$allocator@PAV?$CMyBucket@PAVCClientSockE@@@@@std@@@2@PAU342@0ABQAV?$CMyBucket@PAVCClientSockE@@@@@Z
_TEXT	SEGMENT
__Next$ = 8						; size = 4
__Prev$ = 12						; size = 4
__Val$ = 16						; size = 4
?_Buynode@?$list@PAV?$CMyBucket@PAVCClientSockE@@@@V?$allocator@PAV?$CMyBucket@PAVCClientSockE@@@@@std@@@std@@IAEPAU_Node@?$_List_nod@PAV?$CMyBucket@PAVCClientSockE@@@@V?$allocator@PAV?$CMyBucket@PAVCClientSockE@@@@@std@@@2@PAU342@0ABQAV?$CMyBucket@PAVCClientSockE@@@@@Z PROC NEAR ; std::list<CMyBucket<CClientSockE *> *,std::allocator<CMyBucket<CClientSockE *> *> >::_Buynode, COMDAT
; _this$ = ecx

; 918  : 		_Nodeptr _Pnode = this->_Alnod.allocate(1);

  00000	6a 0c		 push	 12			; 0000000cH
  00002	e8 00 00 00 00	 call	 ??2@YAPAXI@Z		; operator new
  00007	83 c4 04	 add	 esp, 4

; 919  : 		_TRY_BEGIN
; 920  : 		new ((void *)_Pnode) _Node(_Next, _Prev, _Val);

  0000a	85 c0		 test	 eax, eax
  0000c	74 16		 je	 SHORT $L155920
  0000e	8b 4c 24 04	 mov	 ecx, DWORD PTR __Next$[esp-4]
  00012	8b 54 24 08	 mov	 edx, DWORD PTR __Prev$[esp-4]
  00016	89 08		 mov	 DWORD PTR [eax], ecx
  00018	8b 4c 24 0c	 mov	 ecx, DWORD PTR __Val$[esp-4]
  0001c	89 50 04	 mov	 DWORD PTR [eax+4], edx
  0001f	8b 11		 mov	 edx, DWORD PTR [ecx]
  00021	89 50 08	 mov	 DWORD PTR [eax+8], edx
$L155920:

; 921  : 		_CATCH_ALL
; 922  : 		this->_Alnod.deallocate(_Pnode, 1);
; 923  : 		_RERAISE;
; 924  : 		_CATCH_END
; 925  : 		return (_Pnode);
; 926  : 		}

  00024	c2 0c 00	 ret	 12			; 0000000cH
?_Buynode@?$list@PAV?$CMyBucket@PAVCClientSockE@@@@V?$allocator@PAV?$CMyBucket@PAVCClientSockE@@@@@std@@@std@@IAEPAU_Node@?$_List_nod@PAV?$CMyBucket@PAVCClientSockE@@@@V?$allocator@PAV?$CMyBucket@PAVCClientSockE@@@@@std@@@2@PAU342@0ABQAV?$CMyBucket@PAVCClientSockE@@@@@Z ENDP ; std::list<CMyBucket<CClientSockE *> *,std::allocator<CMyBucket<CClientSockE *> *> >::_Buynode
_TEXT	ENDS
PUBLIC	??$_Uninit_fill_n@PAPAV?$CMyBucket@PAVCClientSockE@@@@IPAPAV1@@std@@YAXPAPAPAV?$CMyBucket@PAVCClientSockE@@@@IABQAPAV1@AAV?$allocator@PAPAV?$CMyBucket@PAVCClientSockE@@@@@0@U_Scalar_ptr_iterator_tag@0@@Z ; std::_Uninit_fill_n<CMyBucket<CClientSockE *> * *,unsigned int,CMyBucket<CClientSockE *> * *>
; Function compile flags: /Ogty
; File c:\program files\microsoft visual studio .net 2003\vc7\include\memory
;	COMDAT ??$_Uninit_fill_n@PAPAV?$CMyBucket@PAVCClientSockE@@@@IPAPAV1@@std@@YAXPAPAPAV?$CMyBucket@PAVCClientSockE@@@@IABQAPAV1@AAV?$allocator@PAPAV?$CMyBucket@PAVCClientSockE@@@@@0@U_Scalar_ptr_iterator_tag@0@@Z
_TEXT	SEGMENT
__First$ = 8						; size = 4
__Count$ = 12						; size = 4
__Val$ = 16						; size = 4
___formal$ = 20						; size = 4
___formal$ = 24						; size = 1
??$_Uninit_fill_n@PAPAV?$CMyBucket@PAVCClientSockE@@@@IPAPAV1@@std@@YAXPAPAPAV?$CMyBucket@PAVCClientSockE@@@@IABQAPAV1@AAV?$allocator@PAPAV?$CMyBucket@PAVCClientSockE@@@@@0@U_Scalar_ptr_iterator_tag@0@@Z PROC NEAR ; std::_Uninit_fill_n<CMyBucket<CClientSockE *> * *,unsigned int,CMyBucket<CClientSockE *> * *>, COMDAT

; 237  : 	fill_n(_First, _Count, _Val);

  00000	8b 4c 24 08	 mov	 ecx, DWORD PTR __Count$[esp-4]
  00004	85 c9		 test	 ecx, ecx
  00006	8b 44 24 04	 mov	 eax, DWORD PTR __First$[esp-4]
  0000a	76 10		 jbe	 SHORT $L155956
  0000c	8b 54 24 0c	 mov	 edx, DWORD PTR __Val$[esp-4]
  00010	56		 push	 esi
$L155954:
  00011	8b 32		 mov	 esi, DWORD PTR [edx]
  00013	89 30		 mov	 DWORD PTR [eax], esi
  00015	83 c0 04	 add	 eax, 4
  00018	49		 dec	 ecx
  00019	75 f6		 jne	 SHORT $L155954
  0001b	5e		 pop	 esi
$L155956:

; 238  : 	}

  0001c	c3		 ret	 0
??$_Uninit_fill_n@PAPAV?$CMyBucket@PAVCClientSockE@@@@IPAPAV1@@std@@YAXPAPAPAV?$CMyBucket@PAVCClientSockE@@@@IABQAPAV1@AAV?$allocator@PAPAV?$CMyBucket@PAVCClientSockE@@@@@0@U_Scalar_ptr_iterator_tag@0@@Z ENDP ; std::_Uninit_fill_n<CMyBucket<CClientSockE *> * *,unsigned int,CMyBucket<CClientSockE *> * *>
_TEXT	ENDS
PUBLIC	??0?$_String_val@DV?$allocator@D@std@@@std@@IAE@V?$allocator@D@1@@Z ; std::_String_val<char,std::allocator<char> >::_String_val<char,std::allocator<char> >
; Function compile flags: /Ogty
; File c:\program files\microsoft visual studio .net 2003\vc7\include\xstring
;	COMDAT ??0?$_String_val@DV?$allocator@D@std@@@std@@IAE@V?$allocator@D@1@@Z
_TEXT	SEGMENT
__Al$ = 8						; size = 1
??0?$_String_val@DV?$allocator@D@std@@@std@@IAE@V?$allocator@D@1@@Z PROC NEAR ; std::_String_val<char,std::allocator<char> >::_String_val<char,std::allocator<char> >, COMDAT
; _this$ = ecx

; 34   : 		{	// construct allocator from _Al

  00000	8b c1		 mov	 eax, ecx

; 35   : 		}

  00002	c2 04 00	 ret	 4
??0?$_String_val@DV?$allocator@D@std@@@std@@IAE@V?$allocator@D@1@@Z ENDP ; std::_String_val<char,std::allocator<char> >::_String_val<char,std::allocator<char> >
_TEXT	ENDS
PUBLIC	?_Eos@?$basic_string@DU?$char_traits@D@std@@V?$allocator@D@2@@std@@IAEXI@Z ; std::basic_string<char,std::char_traits<char>,std::allocator<char> >::_Eos
; Function compile flags: /Ogty
;	COMDAT ?_Eos@?$basic_string@DU?$char_traits@D@std@@V?$allocator@D@2@@std@@IAEXI@Z
_TEXT	SEGMENT
__Newsize$ = 8						; size = 4
?_Eos@?$basic_string@DU?$char_traits@D@std@@V?$allocator@D@2@@std@@IAEXI@Z PROC NEAR ; std::basic_string<char,std::char_traits<char>,std::allocator<char> >::_Eos, COMDAT
; _this$ = ecx

; 1475 : 		_Traits::assign(_Myptr()[_Mysize = _Newsize], _Elem());

  00000	83 79 18 10	 cmp	 DWORD PTR [ecx+24], 16	; 00000010H
  00004	8b 44 24 04	 mov	 eax, DWORD PTR __Newsize$[esp-4]
  00008	89 41 14	 mov	 DWORD PTR [ecx+20], eax
  0000b	72 0a		 jb	 SHORT $L155976
  0000d	8b 49 04	 mov	 ecx, DWORD PTR [ecx+4]
  00010	c6 04 01 00	 mov	 BYTE PTR [ecx+eax], 0

; 1476 : 		}

  00014	c2 04 00	 ret	 4

; 1475 : 		_Traits::assign(_Myptr()[_Mysize = _Newsize], _Elem());

$L155976:
  00017	c6 44 01 04 00	 mov	 BYTE PTR [ecx+eax+4], 0

; 1476 : 		}

  0001c	c2 04 00	 ret	 4
?_Eos@?$basic_string@DU?$char_traits@D@std@@V?$allocator@D@2@@std@@IAEXI@Z ENDP ; std::basic_string<char,std::char_traits<char>,std::allocator<char> >::_Eos
_TEXT	ENDS
PUBLIC	?max_size@?$basic_string@DU?$char_traits@D@std@@V?$allocator@D@2@@std@@QBEIXZ ; std::basic_string<char,std::char_traits<char>,std::allocator<char> >::max_size
; Function compile flags: /Ogty
;	COMDAT ?max_size@?$basic_string@DU?$char_traits@D@std@@V?$allocator@D@2@@std@@QBEIXZ
_TEXT	SEGMENT
?max_size@?$basic_string@DU?$char_traits@D@std@@V?$allocator@D@2@@std@@QBEIXZ PROC NEAR ; std::basic_string<char,std::char_traits<char>,std::allocator<char> >::max_size, COMDAT
; _this$ = ecx

; 1114 : 		size_type _Num = _Mybase::_Alval.max_size();
; 1115 : 		return (_Num <= 1 ? 1 : _Num - 1);

  00000	b8 fe ff ff ff	 mov	 eax, -2			; fffffffeH

; 1116 : 		}

  00005	c3		 ret	 0
?max_size@?$basic_string@DU?$char_traits@D@std@@V?$allocator@D@2@@std@@QBEIXZ ENDP ; std::basic_string<char,std::char_traits<char>,std::allocator<char> >::max_size
_TEXT	ENDS
PUBLIC	?allocate@?$allocator@D@std@@QAEPADI@Z		; std::allocator<char>::allocate
; Function compile flags: /Ogty
; File c:\program files\microsoft visual studio .net 2003\vc7\include\xmemory
;	COMDAT ?allocate@?$allocator@D@std@@QAEPADI@Z
_TEXT	SEGMENT
__Count$ = 8						; size = 4
?allocate@?$allocator@D@std@@QAEPADI@Z PROC NEAR	; std::allocator<char>::allocate, COMDAT
; _this$ = ecx

; 137  : 		return (_Allocate(_Count, (pointer)0));

  00000	8b 44 24 04	 mov	 eax, DWORD PTR __Count$[esp-4]
  00004	50		 push	 eax
  00005	e8 00 00 00 00	 call	 ??2@YAPAXI@Z		; operator new
  0000a	83 c4 04	 add	 esp, 4

; 138  : 		}

  0000d	c2 04 00	 ret	 4
?allocate@?$allocator@D@std@@QAEPADI@Z ENDP		; std::allocator<char>::allocate
_TEXT	ENDS
PUBLIC	?Send@CServerSockE@@UAEXPADKK@Z			; CServerSockE::Send
EXTRN	__except_list:DWORD
EXTRN	___CxxFrameHandler:NEAR
;	COMDAT xdata$x
; File c:\offi src_real\offi src!\_network\mcl\include\cmclcritsec.h
xdata$x	SEGMENT
$T156054 DD	0ffffffffH
	DD	FLAT:$L156003
	DD	0ffffffffH
	DD	FLAT:$L156004
$T156049 DD	019930520H
	DD	02H
	DD	FLAT:$T156054
	DD	2 DUP(00H)
	DD	2 DUP(00H)
; Function compile flags: /Ogty
; File c:\offi src_real\offi src!\_network\net\src\serversocke.cpp
xdata$x	ENDS
;	COMDAT ?Send@CServerSockE@@UAEXPADKK@Z
_TEXT	SEGMENT
_Lock$153355 = -16					; size = 4
__$EHRec$ = -12						; size = 12
_lpData$ = 8						; size = 4
_dwDataSize$ = 12					; size = 4
_pChild$153356 = 16					; size = 4
_Lock$153348 = 16					; size = 4
_dpidTo$ = 16						; size = 4
?Send@CServerSockE@@UAEXPADKK@Z PROC NEAR		; CServerSockE::Send, COMDAT
; _this$ = ecx

; 150  : {

  00000	6a ff		 push	 -1
  00002	68 00 00 00 00	 push	 __ehhandler$?Send@CServerSockE@@UAEXPADKK@Z
  00007	64 a1 00 00 00
	00		 mov	 eax, DWORD PTR fs:__except_list
  0000d	50		 push	 eax
  0000e	64 89 25 00 00
	00 00		 mov	 DWORD PTR fs:__except_list, esp
  00015	51		 push	 ecx
  00016	53		 push	 ebx
  00017	56		 push	 esi
  00018	57		 push	 edi

; 151  : 	if( dpidTo == DPID_ALLPLAYERS )

  00019	8b 7c 24 28	 mov	 edi, DWORD PTR _dpidTo$[esp+24]
  0001d	85 ff		 test	 edi, edi
  0001f	8b f1		 mov	 esi, ecx

; 152  : 	{
; 153  : 		CMclAutoLock	Lock( m_mapChild.m_AddRemoveLock );

  00021	8d 46 5c	 lea	 eax, DWORD PTR [esi+92]
  00024	75 53		 jne	 SHORT $L153347
  00026	55		 push	 ebp
  00027	8d 68 04	 lea	 ebp, DWORD PTR [eax+4]
  0002a	55		 push	 ebp
  0002b	89 44 24 30	 mov	 DWORD PTR _Lock$153348[esp+32], eax
  0002f	ff 15 00 00 00
	00		 call	 DWORD PTR __imp__EnterCriticalSection@4

; 154  : 
; 155  : #ifdef __STL_0402
; 156  : 		for( CMapChildE::iterator i = m_mapChild.begin(); i != m_mapChild.end(); ++i )
; 157  : 		{
; 158  : 			CClientSockE* pChild	= i->second;
; 159  : 			pChild->Send( lpData, dwDataSize, pChild->GetHandle() );
; 160  : 		}
; 161  : #else	// __STL_0402
; 162  : 		CClientSockE* pChild;
; 163  : 		CMyBucket<CClientSockE*>* pBucket	= m_mapChild.GetFirstActive();

  00035	8b 76 50	 mov	 esi, DWORD PTR [esi+80]

; 164  : 		while( pBucket )

  00038	85 f6		 test	 esi, esi
  0003a	89 7c 24 1c	 mov	 DWORD PTR __$EHRec$[esp+40], edi
  0003e	74 1d		 je	 SHORT $L153353
  00040	8b 7c 24 28	 mov	 edi, DWORD PTR _dwDataSize$[esp+28]
  00044	8b 5c 24 24	 mov	 ebx, DWORD PTR _lpData$[esp+28]
$L153352:

; 165  : 		{
; 166  : 			pChild	= pBucket->m_value;

  00048	8b 4e 08	 mov	 ecx, DWORD PTR [esi+8]

; 167  : 			pChild->Send( lpData, dwDataSize, pChild->GetHandle() );

  0004b	8b 51 04	 mov	 edx, DWORD PTR [ecx+4]
  0004e	8b 01		 mov	 eax, DWORD PTR [ecx]
  00050	52		 push	 edx
  00051	57		 push	 edi
  00052	53		 push	 ebx
  00053	ff 50 28	 call	 DWORD PTR [eax+40]

; 168  : 			pBucket	= pBucket->pNext;

  00056	8b 76 14	 mov	 esi, DWORD PTR [esi+20]
  00059	85 f6		 test	 esi, esi
  0005b	75 eb		 jne	 SHORT $L153352
$L153353:

; 169  : 		}
; 170  : #endif	// __STL_0402
; 171  : 	}

  0005d	55		 push	 ebp
  0005e	ff 15 00 00 00
	00		 call	 DWORD PTR __imp__LeaveCriticalSection@4
  00064	5d		 pop	 ebp
  00065	5f		 pop	 edi
  00066	5e		 pop	 esi
  00067	5b		 pop	 ebx

; 186  : 	
; 187  : }

  00068	8b 4c 24 04	 mov	 ecx, DWORD PTR __$EHRec$[esp+16]
  0006c	64 89 0d 00 00
	00 00		 mov	 DWORD PTR fs:__except_list, ecx
  00073	83 c4 10	 add	 esp, 16			; 00000010H
  00076	c2 0c 00	 ret	 12			; 0000000cH
$L153347:

; 172  : 	else
; 173  : 	{
; 174  : 		CMclAutoLock	Lock( m_mapChild.m_AddRemoveLock );

  00079	8d 58 04	 lea	 ebx, DWORD PTR [eax+4]
  0007c	53		 push	 ebx
  0007d	89 44 24 10	 mov	 DWORD PTR _Lock$153355[esp+32], eax
  00081	ff 15 00 00 00
	00		 call	 DWORD PTR __imp__EnterCriticalSection@4

; 175  : 
; 176  : #ifdef __STL_0402
; 177  : 		CClientSockE* pChild	= (CClientSockE*)Get( dpidTo );
; 178  : 		if( pChild )
; 179  : 			pChild->Send( lpData, dwDataSize, dpidTo );
; 180  : #else	// __STL_0402
; 181  : 		CClientSockE* pChild;
; 182  : 		if( m_mapChild.Lookup( dpidTo, pChild ) )

  00087	8d 44 24 28	 lea	 eax, DWORD PTR _pChild$153356[esp+24]
  0008b	50		 push	 eax
  0008c	57		 push	 edi
  0008d	8d 4e 1c	 lea	 ecx, DWORD PTR [esi+28]
  00090	c7 44 24 20 01
	00 00 00	 mov	 DWORD PTR __$EHRec$[esp+44], 1
  00098	e8 00 00 00 00	 call	 ?Lookup@?$CMyMap@PAVCClientSockE@@@@QAEHKAAPAVCClientSockE@@@Z ; CMyMap<CClientSockE *>::Lookup
  0009d	85 c0		 test	 eax, eax
  0009f	74 14		 je	 SHORT $L153357

; 183  : 			pChild->Send( lpData, dwDataSize, dpidTo );

  000a1	8b 44 24 24	 mov	 eax, DWORD PTR _dwDataSize$[esp+24]
  000a5	8b 4c 24 28	 mov	 ecx, DWORD PTR _pChild$153356[esp+24]
  000a9	8b 11		 mov	 edx, DWORD PTR [ecx]
  000ab	57		 push	 edi
  000ac	50		 push	 eax
  000ad	8b 44 24 28	 mov	 eax, DWORD PTR _lpData$[esp+32]
  000b1	50		 push	 eax
  000b2	ff 52 28	 call	 DWORD PTR [edx+40]
$L153357:

; 184  : #endif	// __STL_0402
; 185  : 	}

  000b5	53		 push	 ebx
  000b6	ff 15 00 00 00
	00		 call	 DWORD PTR __imp__LeaveCriticalSection@4

; 186  : 	
; 187  : }

  000bc	8b 4c 24 10	 mov	 ecx, DWORD PTR __$EHRec$[esp+28]
  000c0	5f		 pop	 edi
  000c1	5e		 pop	 esi
  000c2	5b		 pop	 ebx
  000c3	64 89 0d 00 00
	00 00		 mov	 DWORD PTR fs:__except_list, ecx
  000ca	83 c4 10	 add	 esp, 16			; 00000010H
  000cd	c2 0c 00	 ret	 12			; 0000000cH
_TEXT	ENDS
;	COMDAT text$x
text$x	SEGMENT
$L156003:
  00000	8d 4d 0c	 lea	 ecx, DWORD PTR _Lock$153348[ebp-4]
  00003	e9 00 00 00 00	 jmp	 ??1CMclAutoLock@@QAE@XZ	; CMclAutoLock::~CMclAutoLock
$L156004:
  00008	8d 4d f0	 lea	 ecx, DWORD PTR _Lock$153355[ebp]
  0000b	e9 00 00 00 00	 jmp	 ??1CMclAutoLock@@QAE@XZ	; CMclAutoLock::~CMclAutoLock
__ehhandler$?Send@CServerSockE@@UAEXPADKK@Z:
  00010	b8 00 00 00 00	 mov	 eax, OFFSET FLAT:$T156049
  00015	e9 00 00 00 00	 jmp	 ___CxxFrameHandler
text$x	ENDS
?Send@CServerSockE@@UAEXPADKK@Z ENDP			; CServerSockE::Send
PUBLIC	?GetPeerAddr@CServerSockE@@UAEJKPAXPAK@Z	; CServerSockE::GetPeerAddr
PUBLIC	??_C@_0M@PCENNPGA@?$CFd?4?$CFd?4?$CFd?4?$CFd?$AA@ ; `string'
EXTRN	___security_cookie:DWORD
EXTRN	@__security_check_cookie@4:NEAR
EXTRN	__imp__getpeername@12:NEAR
EXTRN	_sprintf:NEAR
;	COMDAT ??_C@_0M@PCENNPGA@?$CFd?4?$CFd?4?$CFd?4?$CFd?$AA@
CONST	SEGMENT
??_C@_0M@PCENNPGA@?$CFd?4?$CFd?4?$CFd?4?$CFd?$AA@ DB '%d.%d.%d.%d', 00H ; `string'
; Function compile flags: /Ogty
CONST	ENDS
;	COMDAT ?GetPeerAddr@CServerSockE@@UAEJKPAXPAK@Z
_TEXT	SEGMENT
_pSock$ = -24						; size = 4
_sin$ = -20						; size = 16
__$ArrayPad$ = -4					; size = 4
__$ReturnAddr$ = 4					; size = 4
_namelen$ = 8						; size = 4
_dpid$ = 8						; size = 4
_lpAddr$ = 12						; size = 4
_lpdwSize$ = 16						; size = 4
?GetPeerAddr@CServerSockE@@UAEJKPAXPAK@Z PROC NEAR	; CServerSockE::GetPeerAddr, COMDAT
; _this$ = ecx

; 200  : {

  00000	83 ec 18	 sub	 esp, 24			; 00000018H
  00003	a1 00 00 00 00	 mov	 eax, DWORD PTR ___security_cookie
  00008	89 44 24 14	 mov	 DWORD PTR __$ArrayPad$[esp+24], eax

; 201  : 	ASSERT( lpAddr );
; 202  : 
; 203  : 	CClientSockE* pSock;
; 204  : 	SOCKET hSocket	= (SOCKET)dpid;
; 205  : 	SOCKADDR_IN sin;
; 206  : 
; 207  : 	ZeroMemory( &sin, sizeof(SOCKADDR_IN) );

  0000c	33 c0		 xor	 eax, eax
  0000e	56		 push	 esi

; 208  : 
; 209  : #ifdef __STL_0402
; 210  : 	pSock	= (CClientSockE*)Get( hSocket );
; 211  : #else	// __STL_0402
; 212  : 	m_mapChild.Lookup( hSocket, pSock );

  0000f	8b 74 24 20	 mov	 esi, DWORD PTR _dpid$[esp+24]
  00013	89 44 24 08	 mov	 DWORD PTR _sin$[esp+28], eax
  00017	8d 54 24 04	 lea	 edx, DWORD PTR _pSock$[esp+28]
  0001b	89 44 24 0c	 mov	 DWORD PTR _sin$[esp+32], eax
  0001f	52		 push	 edx
  00020	89 44 24 14	 mov	 DWORD PTR _sin$[esp+40], eax
  00024	56		 push	 esi
  00025	83 c1 1c	 add	 ecx, 28			; 0000001cH
  00028	89 44 24 1c	 mov	 DWORD PTR _sin$[esp+48], eax
  0002c	e8 00 00 00 00	 call	 ?Lookup@?$CMyMap@PAVCClientSockE@@@@QAEHKAAPAVCClientSockE@@@Z ; CMyMap<CClientSockE *>::Lookup

; 213  : #endif	// __STL_0402
; 214  : 	if( !pSock )

  00031	8b 44 24 04	 mov	 eax, DWORD PTR _pSock$[esp+28]
  00035	85 c0		 test	 eax, eax
  00037	75 15		 jne	 SHORT $L153378

; 215  : 		return DPERR_INVALIDPARAM;

  00039	b8 57 00 07 80	 mov	 eax, -2147024809	; 80070057H
  0003e	5e		 pop	 esi

; 225  : 	return DP_OK;
; 226  : }

  0003f	8b 4c 24 14	 mov	 ecx, DWORD PTR __$ArrayPad$[esp+24]
  00043	e8 00 00 00 00	 call	 @__security_check_cookie@4
  00048	83 c4 18	 add	 esp, 24			; 00000018H
  0004b	c2 0c 00	 ret	 12			; 0000000cH
$L153378:

; 216  : 
; 217  : 	int namelen	= sizeof(sin);
; 218  : 	if( getpeername( hSocket, (SOCKADDR *)&sin, &namelen ) == SOCKET_ERROR )

  0004e	8d 44 24 20	 lea	 eax, DWORD PTR _namelen$[esp+24]
  00052	50		 push	 eax
  00053	8d 4c 24 0c	 lea	 ecx, DWORD PTR _sin$[esp+32]
  00057	51		 push	 ecx
  00058	56		 push	 esi
  00059	c7 44 24 2c 10
	00 00 00	 mov	 DWORD PTR _namelen$[esp+36], 16 ; 00000010H
  00061	ff 15 00 00 00
	00		 call	 DWORD PTR __imp__getpeername@12
  00067	83 f8 ff	 cmp	 eax, -1
  0006a	75 15		 jne	 SHORT $L153382

; 219  : 		return DPERR_GENERIC;

  0006c	b8 05 40 00 80	 mov	 eax, -2147467259	; 80004005H
  00071	5e		 pop	 esi

; 225  : 	return DP_OK;
; 226  : }

  00072	8b 4c 24 14	 mov	 ecx, DWORD PTR __$ArrayPad$[esp+24]
  00076	e8 00 00 00 00	 call	 @__security_check_cookie@4
  0007b	83 c4 18	 add	 esp, 24			; 00000018H
  0007e	c2 0c 00	 ret	 12			; 0000000cH
$L153382:

; 220  : 
; 221  : 	sprintf( (char *)lpAddr, "%d.%d.%d.%d", sin.sin_addr.s_net
; 222  : 																	, sin.sin_addr.s_host
; 223  : 																	, sin.sin_addr.s_lh
; 224  : 																	, sin.sin_addr.s_impno );

  00081	0f b6 54 24 0f	 movzx	 edx, BYTE PTR _sin$[esp+35]
  00086	0f b6 44 24 0e	 movzx	 eax, BYTE PTR _sin$[esp+34]
  0008b	52		 push	 edx
  0008c	50		 push	 eax
  0008d	8b 44 24 14	 mov	 eax, DWORD PTR _sin$[esp+40]
  00091	0f b6 cc	 movzx	 ecx, ah
  00094	0f b6 d0	 movzx	 edx, al
  00097	8b 44 24 2c	 mov	 eax, DWORD PTR _lpAddr$[esp+32]
  0009b	51		 push	 ecx
  0009c	52		 push	 edx
  0009d	68 00 00 00 00	 push	 OFFSET FLAT:??_C@_0M@PCENNPGA@?$CFd?4?$CFd?4?$CFd?4?$CFd?$AA@
  000a2	50		 push	 eax
  000a3	e8 00 00 00 00	 call	 _sprintf

; 225  : 	return DP_OK;
; 226  : }

  000a8	8b 4c 24 30	 mov	 ecx, DWORD PTR __$ArrayPad$[esp+52]
  000ac	83 c4 18	 add	 esp, 24			; 00000018H
  000af	33 c0		 xor	 eax, eax
  000b1	5e		 pop	 esi
  000b2	e8 00 00 00 00	 call	 @__security_check_cookie@4
  000b7	83 c4 18	 add	 esp, 24			; 00000018H
  000ba	c2 0c 00	 ret	 12			; 0000000cH
?GetPeerAddr@CServerSockE@@UAEJKPAXPAK@Z ENDP		; CServerSockE::GetPeerAddr
_TEXT	ENDS
PUBLIC	?end@?$list@PAXV?$allocator@PAX@std@@@std@@QAE?AViterator@12@XZ ; std::list<void *,std::allocator<void *> >::end
; Function compile flags: /Ogty
; File c:\program files\microsoft visual studio .net 2003\vc7\include\list
;	COMDAT ?end@?$list@PAXV?$allocator@PAX@std@@@std@@QAE?AViterator@12@XZ
_TEXT	SEGMENT
___$ReturnUdt$ = 8					; size = 4
?end@?$list@PAXV?$allocator@PAX@std@@@std@@QAE?AViterator@12@XZ PROC NEAR ; std::list<void *,std::allocator<void *> >::end, COMDAT
; _this$ = ecx

; 387  : 		return (iterator(_Myhead));

  00000	8b 49 04	 mov	 ecx, DWORD PTR [ecx+4]
  00003	8b 44 24 04	 mov	 eax, DWORD PTR ___$ReturnUdt$[esp-4]
  00007	89 08		 mov	 DWORD PTR [eax], ecx

; 388  : 		}

  00009	c2 04 00	 ret	 4
?end@?$list@PAXV?$allocator@PAX@std@@@std@@QAE?AViterator@12@XZ ENDP ; std::list<void *,std::allocator<void *> >::end
_TEXT	ENDS
PUBLIC	?_Buynode@?$list@PAXV?$allocator@PAX@std@@@std@@IAEPAU_Node@?$_List_nod@PAXV?$allocator@PAX@std@@@2@PAU342@0ABQAX@Z ; std::list<void *,std::allocator<void *> >::_Buynode
; Function compile flags: /Ogty
;	COMDAT ?_Buynode@?$list@PAXV?$allocator@PAX@std@@@std@@IAEPAU_Node@?$_List_nod@PAXV?$allocator@PAX@std@@@2@PAU342@0ABQAX@Z
_TEXT	SEGMENT
__Next$ = 8						; size = 4
__Prev$ = 12						; size = 4
__Val$ = 16						; size = 4
?_Buynode@?$list@PAXV?$allocator@PAX@std@@@std@@IAEPAU_Node@?$_List_nod@PAXV?$allocator@PAX@std@@@2@PAU342@0ABQAX@Z PROC NEAR ; std::list<void *,std::allocator<void *> >::_Buynode, COMDAT
; _this$ = ecx

; 918  : 		_Nodeptr _Pnode = this->_Alnod.allocate(1);

  00000	6a 0c		 push	 12			; 0000000cH
  00002	e8 00 00 00 00	 call	 ??2@YAPAXI@Z		; operator new
  00007	83 c4 04	 add	 esp, 4

; 919  : 		_TRY_BEGIN
; 920  : 		new ((void *)_Pnode) _Node(_Next, _Prev, _Val);

  0000a	85 c0		 test	 eax, eax
  0000c	74 16		 je	 SHORT $L156082
  0000e	8b 4c 24 04	 mov	 ecx, DWORD PTR __Next$[esp-4]
  00012	8b 54 24 08	 mov	 edx, DWORD PTR __Prev$[esp-4]
  00016	89 08		 mov	 DWORD PTR [eax], ecx
  00018	8b 4c 24 0c	 mov	 ecx, DWORD PTR __Val$[esp-4]
  0001c	89 50 04	 mov	 DWORD PTR [eax+4], edx
  0001f	8b 11		 mov	 edx, DWORD PTR [ecx]
  00021	89 50 08	 mov	 DWORD PTR [eax+8], edx
$L156082:

; 921  : 		_CATCH_ALL
; 922  : 		this->_Alnod.deallocate(_Pnode, 1);
; 923  : 		_RERAISE;
; 924  : 		_CATCH_END
; 925  : 		return (_Pnode);
; 926  : 		}

  00024	c2 0c 00	 ret	 12			; 0000000cH
?_Buynode@?$list@PAXV?$allocator@PAX@std@@@std@@IAEPAU_Node@?$_List_nod@PAXV?$allocator@PAX@std@@@2@PAU342@0ABQAX@Z ENDP ; std::list<void *,std::allocator<void *> >::_Buynode
_TEXT	ENDS
PUBLIC	?pop_back@?$deque@PAV?$CMyBucket@PAVCClientSockE@@@@V?$allocator@PAV?$CMyBucket@PAVCClientSockE@@@@@std@@@std@@QAEXXZ ; std::deque<CMyBucket<CClientSockE *> *,std::allocator<CMyBucket<CClientSockE *> *> >::pop_back
; Function compile flags: /Ogty
; File c:\program files\microsoft visual studio .net 2003\vc7\include\deque
;	COMDAT ?pop_back@?$deque@PAV?$CMyBucket@PAVCClientSockE@@@@V?$allocator@PAV?$CMyBucket@PAVCClientSockE@@@@@std@@@std@@QAEXXZ
_TEXT	SEGMENT
?pop_back@?$deque@PAV?$CMyBucket@PAVCClientSockE@@@@V?$allocator@PAV?$CMyBucket@PAVCClientSockE@@@@@std@@@std@@QAEXXZ PROC NEAR ; std::deque<CMyBucket<CClientSockE *> *,std::allocator<CMyBucket<CClientSockE *> *> >::pop_back, COMDAT
; _this$ = ecx

; 599  : 		if (!empty())

  00000	8b 41 10	 mov	 eax, DWORD PTR [ecx+16]
  00003	85 c0		 test	 eax, eax
  00005	74 0d		 je	 SHORT $L154044

; 600  : 			{	// something to erase, do it
; 601  : 			size_type _Newoff = _Mysize + _Myoff - 1;
; 602  : 			size_type _Block = _Newoff / _DEQUESIZ;
; 603  : 			if (_Mapsize <= _Block)
; 604  : 				_Block -= _Mapsize;
; 605  : 			this->_Alval.destroy(_Map[_Block] + _Newoff % _DEQUESIZ);
; 606  : 			if (--_Mysize == 0)

  00007	48		 dec	 eax
  00008	89 41 10	 mov	 DWORD PTR [ecx+16], eax
  0000b	75 07		 jne	 SHORT $L154044

; 607  : 				_Myoff = 0;

  0000d	c7 41 0c 00 00
	00 00		 mov	 DWORD PTR [ecx+12], 0
$L154044:

; 608  : 			}
; 609  : 		}

  00014	c3		 ret	 0
?pop_back@?$deque@PAV?$CMyBucket@PAVCClientSockE@@@@V?$allocator@PAV?$CMyBucket@PAVCClientSockE@@@@@std@@@std@@QAEXXZ ENDP ; std::deque<CMyBucket<CClientSockE *> *,std::allocator<CMyBucket<CClientSockE *> *> >::pop_back
_TEXT	ENDS
PUBLIC	?clear@?$list@PAV?$CMyBucket@PAVCClientSockE@@@@V?$allocator@PAV?$CMyBucket@PAVCClientSockE@@@@@std@@@std@@QAEXXZ ; std::list<CMyBucket<CClientSockE *> *,std::allocator<CMyBucket<CClientSockE *> *> >::clear
; Function compile flags: /Ogty
; File c:\program files\microsoft visual studio .net 2003\vc7\include\list
;	COMDAT ?clear@?$list@PAV?$CMyBucket@PAVCClientSockE@@@@V?$allocator@PAV?$CMyBucket@PAVCClientSockE@@@@@std@@@std@@QAEXXZ
_TEXT	SEGMENT
?clear@?$list@PAV?$CMyBucket@PAVCClientSockE@@@@V?$allocator@PAV?$CMyBucket@PAVCClientSockE@@@@@std@@@std@@QAEXXZ PROC NEAR ; std::list<CMyBucket<CClientSockE *> *,std::allocator<CMyBucket<CClientSockE *> *> >::clear, COMDAT
; _this$ = ecx

; 610  : 		{	// erase all

  00000	56		 push	 esi
  00001	8b f1		 mov	 esi, ecx

; 611  : 		_Nodeptr _Pnext;
; 612  : 		_Nodeptr _Pnode = _Nextnode(_Myhead);

  00003	8b 4e 04	 mov	 ecx, DWORD PTR [esi+4]
  00006	8b 01		 mov	 eax, DWORD PTR [ecx]

; 613  : 		_Nextnode(_Myhead) = _Myhead;

  00008	89 09		 mov	 DWORD PTR [ecx], ecx

; 614  : 		_Prevnode(_Myhead) = _Myhead;

  0000a	8b 4e 04	 mov	 ecx, DWORD PTR [esi+4]
  0000d	89 49 04	 mov	 DWORD PTR [ecx+4], ecx

; 615  : 		_Mysize = 0;
; 616  : 
; 617  : 		for (; _Pnode != _Myhead; _Pnode = _Pnext)

  00010	3b 46 04	 cmp	 eax, DWORD PTR [esi+4]
  00013	c7 46 08 00 00
	00 00		 mov	 DWORD PTR [esi+8], 0
  0001a	74 19		 je	 SHORT $L154077
  0001c	57		 push	 edi
  0001d	8d 49 00	 npad	 3
$L154075:

; 618  : 			{	// delete an element
; 619  : 			_Pnext = _Nextnode(_Pnode);

  00020	8b 38		 mov	 edi, DWORD PTR [eax]

; 620  : 			this->_Alnod.destroy(_Pnode);
; 621  : 			this->_Alnod.deallocate(_Pnode, 1);

  00022	50		 push	 eax
  00023	e8 00 00 00 00	 call	 ??3@YAXPAX@Z		; operator delete
  00028	8b 4e 04	 mov	 ecx, DWORD PTR [esi+4]
  0002b	83 c4 04	 add	 esp, 4
  0002e	3b f9		 cmp	 edi, ecx
  00030	8b c7		 mov	 eax, edi
  00032	75 ec		 jne	 SHORT $L154075
  00034	5f		 pop	 edi
$L154077:
  00035	5e		 pop	 esi

; 622  : 			}
; 623  : 		}

  00036	c3		 ret	 0
?clear@?$list@PAV?$CMyBucket@PAVCClientSockE@@@@V?$allocator@PAV?$CMyBucket@PAVCClientSockE@@@@@std@@@std@@QAEXXZ ENDP ; std::list<CMyBucket<CClientSockE *> *,std::allocator<CMyBucket<CClientSockE *> *> >::clear
_TEXT	ENDS
PUBLIC	?pop@?$stack@PAV?$CMyBucket@PAVCClientSockE@@@@V?$deque@PAV?$CMyBucket@PAVCClientSockE@@@@V?$allocator@PAV?$CMyBucket@PAVCClientSockE@@@@@std@@@std@@@std@@QAEXXZ ; std::stack<CMyBucket<CClientSockE *> *,std::deque<CMyBucket<CClientSockE *> *,std::allocator<CMyBucket<CClientSockE *> *> > >::pop
; Function compile flags: /Ogty
; File c:\program files\microsoft visual studio .net 2003\vc7\include\stack
;	COMDAT ?pop@?$stack@PAV?$CMyBucket@PAVCClientSockE@@@@V?$deque@PAV?$CMyBucket@PAVCClientSockE@@@@V?$allocator@PAV?$CMyBucket@PAVCClientSockE@@@@@std@@@std@@@std@@QAEXXZ
_TEXT	SEGMENT
?pop@?$stack@PAV?$CMyBucket@PAVCClientSockE@@@@V?$deque@PAV?$CMyBucket@PAVCClientSockE@@@@V?$allocator@PAV?$CMyBucket@PAVCClientSockE@@@@@std@@@std@@@std@@QAEXXZ PROC NEAR ; std::stack<CMyBucket<CClientSockE *> *,std::deque<CMyBucket<CClientSockE *> *,std::allocator<CMyBucket<CClientSockE *> *> > >::pop, COMDAT
; _this$ = ecx

; 58   : 		c.pop_back();

  00000	8b 41 10	 mov	 eax, DWORD PTR [ecx+16]
  00003	85 c0		 test	 eax, eax
  00005	74 0d		 je	 SHORT $L156147
  00007	48		 dec	 eax
  00008	89 41 10	 mov	 DWORD PTR [ecx+16], eax
  0000b	75 07		 jne	 SHORT $L156147
  0000d	c7 41 0c 00 00
	00 00		 mov	 DWORD PTR [ecx+12], 0
$L156147:

; 59   : 		}

  00014	c3		 ret	 0
?pop@?$stack@PAV?$CMyBucket@PAVCClientSockE@@@@V?$deque@PAV?$CMyBucket@PAVCClientSockE@@@@V?$allocator@PAV?$CMyBucket@PAVCClientSockE@@@@@std@@@std@@@std@@QAEXXZ ENDP ; std::stack<CMyBucket<CClientSockE *> *,std::deque<CMyBucket<CClientSockE *> *,std::allocator<CMyBucket<CClientSockE *> *> > >::pop
_TEXT	ENDS
PUBLIC	?begin@?$list@PAV?$CMyBucket@PAVCClientSockE@@@@V?$allocator@PAV?$CMyBucket@PAVCClientSockE@@@@@std@@@std@@QAE?AViterator@12@XZ ; std::list<CMyBucket<CClientSockE *> *,std::allocator<CMyBucket<CClientSockE *> *> >::begin
; Function compile flags: /Ogty
; File c:\program files\microsoft visual studio .net 2003\vc7\include\list
;	COMDAT ?begin@?$list@PAV?$CMyBucket@PAVCClientSockE@@@@V?$allocator@PAV?$CMyBucket@PAVCClientSockE@@@@@std@@@std@@QAE?AViterator@12@XZ
_TEXT	SEGMENT
___$ReturnUdt$ = 8					; size = 4
?begin@?$list@PAV?$CMyBucket@PAVCClientSockE@@@@V?$allocator@PAV?$CMyBucket@PAVCClientSockE@@@@@std@@@std@@QAE?AViterator@12@XZ PROC NEAR ; std::list<CMyBucket<CClientSockE *> *,std::allocator<CMyBucket<CClientSockE *> *> >::begin, COMDAT
; _this$ = ecx

; 377  : 		return (iterator(_Nextnode(_Myhead)));

  00000	8b 41 04	 mov	 eax, DWORD PTR [ecx+4]
  00003	8b 08		 mov	 ecx, DWORD PTR [eax]
  00005	8b 44 24 04	 mov	 eax, DWORD PTR ___$ReturnUdt$[esp-4]
  00009	89 08		 mov	 DWORD PTR [eax], ecx

; 378  : 		}

  0000b	c2 04 00	 ret	 4
?begin@?$list@PAV?$CMyBucket@PAVCClientSockE@@@@V?$allocator@PAV?$CMyBucket@PAVCClientSockE@@@@@std@@@std@@QAE?AViterator@12@XZ ENDP ; std::list<CMyBucket<CClientSockE *> *,std::allocator<CMyBucket<CClientSockE *> *> >::begin
_TEXT	ENDS
PUBLIC	?end@?$list@PAV?$CMyBucket@PAVCClientSockE@@@@V?$allocator@PAV?$CMyBucket@PAVCClientSockE@@@@@std@@@std@@QAE?AViterator@12@XZ ; std::list<CMyBucket<CClientSockE *> *,std::allocator<CMyBucket<CClientSockE *> *> >::end
; Function compile flags: /Ogty
;	COMDAT ?end@?$list@PAV?$CMyBucket@PAVCClientSockE@@@@V?$allocator@PAV?$CMyBucket@PAVCClientSockE@@@@@std@@@std@@QAE?AViterator@12@XZ
_TEXT	SEGMENT
___$ReturnUdt$ = 8					; size = 4
?end@?$list@PAV?$CMyBucket@PAVCClientSockE@@@@V?$allocator@PAV?$CMyBucket@PAVCClientSockE@@@@@std@@@std@@QAE?AViterator@12@XZ PROC NEAR ; std::list<CMyBucket<CClientSockE *> *,std::allocator<CMyBucket<CClientSockE *> *> >::end, COMDAT
; _this$ = ecx

; 387  : 		return (iterator(_Myhead));

  00000	8b 49 04	 mov	 ecx, DWORD PTR [ecx+4]
  00003	8b 44 24 04	 mov	 eax, DWORD PTR ___$ReturnUdt$[esp-4]
  00007	89 08		 mov	 DWORD PTR [eax], ecx

; 388  : 		}

  00009	c2 04 00	 ret	 4
?end@?$list@PAV?$CMyBucket@PAVCClientSockE@@@@V?$allocator@PAV?$CMyBucket@PAVCClientSockE@@@@@std@@@std@@QAE?AViterator@12@XZ ENDP ; std::list<CMyBucket<CClientSockE *> *,std::allocator<CMyBucket<CClientSockE *> *> >::end
_TEXT	ENDS
PUBLIC	??Diterator@?$list@PAV?$CMyBucket@PAVCClientSockE@@@@V?$allocator@PAV?$CMyBucket@PAVCClientSockE@@@@@std@@@std@@QBEAAPAV?$CMyBucket@PAVCClientSockE@@@@XZ ; std::list<CMyBucket<CClientSockE *> *,std::allocator<CMyBucket<CClientSockE *> *> >::iterator::operator*
; Function compile flags: /Ogty
;	COMDAT ??Diterator@?$list@PAV?$CMyBucket@PAVCClientSockE@@@@V?$allocator@PAV?$CMyBucket@PAVCClientSockE@@@@@std@@@std@@QBEAAPAV?$CMyBucket@PAVCClientSockE@@@@XZ
_TEXT	SEGMENT
??Diterator@?$list@PAV?$CMyBucket@PAVCClientSockE@@@@V?$allocator@PAV?$CMyBucket@PAVCClientSockE@@@@@std@@@std@@QBEAAPAV?$CMyBucket@PAVCClientSockE@@@@XZ PROC NEAR ; std::list<CMyBucket<CClientSockE *> *,std::allocator<CMyBucket<CClientSockE *> *> >::iterator::operator*, COMDAT
; _this$ = ecx

; 240  : 			return ((reference)**(const_iterator *)this);

  00000	8b 01		 mov	 eax, DWORD PTR [ecx]
  00002	83 c0 08	 add	 eax, 8

; 241  : 			}

  00005	c3		 ret	 0
??Diterator@?$list@PAV?$CMyBucket@PAVCClientSockE@@@@V?$allocator@PAV?$CMyBucket@PAVCClientSockE@@@@@std@@@std@@QBEAAPAV?$CMyBucket@PAVCClientSockE@@@@XZ ENDP ; std::list<CMyBucket<CClientSockE *> *,std::allocator<CMyBucket<CClientSockE *> *> >::iterator::operator*
_TEXT	ENDS
PUBLIC	?_Buynode@?$list@PAV?$CMyBucket@PAVCClientSockE@@@@V?$allocator@PAV?$CMyBucket@PAVCClientSockE@@@@@std@@@std@@IAEPAU_Node@?$_List_nod@PAV?$CMyBucket@PAVCClientSockE@@@@V?$allocator@PAV?$CMyBucket@PAVCClientSockE@@@@@std@@@2@XZ ; std::list<CMyBucket<CClientSockE *> *,std::allocator<CMyBucket<CClientSockE *> *> >::_Buynode
; Function compile flags: /Ogty
;	COMDAT ?_Buynode@?$list@PAV?$CMyBucket@PAVCClientSockE@@@@V?$allocator@PAV?$CMyBucket@PAVCClientSockE@@@@@std@@@std@@IAEPAU_Node@?$_List_nod@PAV?$CMyBucket@PAVCClientSockE@@@@V?$allocator@PAV?$CMyBucket@PAVCClientSockE@@@@@std@@@2@XZ
_TEXT	SEGMENT
?_Buynode@?$list@PAV?$CMyBucket@PAVCClientSockE@@@@V?$allocator@PAV?$CMyBucket@PAVCClientSockE@@@@@std@@@std@@IAEPAU_Node@?$_List_nod@PAV?$CMyBucket@PAVCClientSockE@@@@V?$allocator@PAV?$CMyBucket@PAVCClientSockE@@@@@std@@@2@XZ PROC NEAR ; std::list<CMyBucket<CClientSockE *> *,std::allocator<CMyBucket<CClientSockE *> *> >::_Buynode, COMDAT
; _this$ = ecx

; 899  : 		_Nodeptr _Pnode = this->_Alnod.allocate(1);

  00000	6a 0c		 push	 12			; 0000000cH
  00002	e8 00 00 00 00	 call	 ??2@YAPAXI@Z		; operator new
  00007	83 c4 04	 add	 esp, 4

; 900  : 		int _Linkcnt = 0;
; 901  : 
; 902  : 		_TRY_BEGIN
; 903  : 		this->_Alptr.construct(&_Nextnode(_Pnode), _Pnode);

  0000a	85 c0		 test	 eax, eax
  0000c	74 02		 je	 SHORT $L156226
  0000e	89 00		 mov	 DWORD PTR [eax], eax
$L156226:

; 904  : 		++_Linkcnt;
; 905  : 		this->_Alptr.construct(&_Prevnode(_Pnode), _Pnode);

  00010	8d 48 04	 lea	 ecx, DWORD PTR [eax+4]
  00013	85 c9		 test	 ecx, ecx
  00015	74 02		 je	 SHORT $L156254
  00017	89 01		 mov	 DWORD PTR [ecx], eax
$L156254:

; 906  : 		_CATCH_ALL
; 907  : 		if (0 < _Linkcnt)
; 908  : 			this->_Alptr.destroy(&_Nextnode(_Pnode));
; 909  : 		this->_Alnod.deallocate(_Pnode, 1);
; 910  : 		_RERAISE;
; 911  : 		_CATCH_END
; 912  : 		return (_Pnode);
; 913  : 		}

  00019	c3		 ret	 0
?_Buynode@?$list@PAV?$CMyBucket@PAVCClientSockE@@@@V?$allocator@PAV?$CMyBucket@PAVCClientSockE@@@@@std@@@std@@IAEPAU_Node@?$_List_nod@PAV?$CMyBucket@PAVCClientSockE@@@@V?$allocator@PAV?$CMyBucket@PAVCClientSockE@@@@@std@@@2@XZ ENDP ; std::list<CMyBucket<CClientSockE *> *,std::allocator<CMyBucket<CClientSockE *> *> >::_Buynode
_TEXT	ENDS
PUBLIC	?end@?$deque@PAV?$CMyBucket@PAVCClientSockE@@@@V?$allocator@PAV?$CMyBucket@PAVCClientSockE@@@@@std@@@std@@QAE?AViterator@12@XZ ; std::deque<CMyBucket<CClientSockE *> *,std::allocator<CMyBucket<CClientSockE *> *> >::end
; Function compile flags: /Ogty
; File c:\program files\microsoft visual studio .net 2003\vc7\include\deque
;	COMDAT ?end@?$deque@PAV?$CMyBucket@PAVCClientSockE@@@@V?$allocator@PAV?$CMyBucket@PAVCClientSockE@@@@@std@@@std@@QAE?AViterator@12@XZ
_TEXT	SEGMENT
___$ReturnUdt$ = 8					; size = 4
?end@?$deque@PAV?$CMyBucket@PAVCClientSockE@@@@V?$allocator@PAV?$CMyBucket@PAVCClientSockE@@@@@std@@@std@@QAE?AViterator@12@XZ PROC NEAR ; std::deque<CMyBucket<CClientSockE *> *,std::allocator<CMyBucket<CClientSockE *> *> >::end, COMDAT
; _this$ = ecx

; 449  : 		return (iterator(_Myoff + _Mysize, this));

  00000	8b 41 0c	 mov	 eax, DWORD PTR [ecx+12]
  00003	8b 51 10	 mov	 edx, DWORD PTR [ecx+16]
  00006	03 d0		 add	 edx, eax
  00008	8b 44 24 04	 mov	 eax, DWORD PTR ___$ReturnUdt$[esp-4]
  0000c	89 08		 mov	 DWORD PTR [eax], ecx
  0000e	89 50 04	 mov	 DWORD PTR [eax+4], edx

; 450  : 		}

  00011	c2 04 00	 ret	 4
?end@?$deque@PAV?$CMyBucket@PAVCClientSockE@@@@V?$allocator@PAV?$CMyBucket@PAVCClientSockE@@@@@std@@@std@@QAE?AViterator@12@XZ ENDP ; std::deque<CMyBucket<CClientSockE *> *,std::allocator<CMyBucket<CClientSockE *> *> >::end
_TEXT	ENDS
PUBLIC	??0?$_Deque_val@PAV?$CMyBucket@PAVCClientSockE@@@@V?$allocator@PAV?$CMyBucket@PAVCClientSockE@@@@@std@@@std@@IAE@V?$allocator@PAV?$CMyBucket@PAVCClientSockE@@@@@1@@Z ; std::_Deque_val<CMyBucket<CClientSockE *> *,std::allocator<CMyBucket<CClientSockE *> *> >::_Deque_val<CMyBucket<CClientSockE *> *,std::allocator<CMyBucket<CClientSockE *> *> >
; Function compile flags: /Ogty
;	COMDAT ??0?$_Deque_val@PAV?$CMyBucket@PAVCClientSockE@@@@V?$allocator@PAV?$CMyBucket@PAVCClientSockE@@@@@std@@@std@@IAE@V?$allocator@PAV?$CMyBucket@PAVCClientSockE@@@@@1@@Z
_TEXT	SEGMENT
__Al$ = 8						; size = 1
??0?$_Deque_val@PAV?$CMyBucket@PAVCClientSockE@@@@V?$allocator@PAV?$CMyBucket@PAVCClientSockE@@@@@std@@@std@@IAE@V?$allocator@PAV?$CMyBucket@PAVCClientSockE@@@@@1@@Z PROC NEAR ; std::_Deque_val<CMyBucket<CClientSockE *> *,std::allocator<CMyBucket<CClientSockE *> *> >::_Deque_val<CMyBucket<CClientSockE *> *,std::allocator<CMyBucket<CClientSockE *> *> >, COMDAT
; _this$ = ecx

; 40   : 		{	// construct allocator and base from _Al

  00000	8b c1		 mov	 eax, ecx

; 41   : 		}

  00002	c2 04 00	 ret	 4
??0?$_Deque_val@PAV?$CMyBucket@PAVCClientSockE@@@@V?$allocator@PAV?$CMyBucket@PAVCClientSockE@@@@@std@@@std@@IAE@V?$allocator@PAV?$CMyBucket@PAVCClientSockE@@@@@1@@Z ENDP ; std::_Deque_val<CMyBucket<CClientSockE *> *,std::allocator<CMyBucket<CClientSockE *> *> >::_Deque_val<CMyBucket<CClientSockE *> *,std::allocator<CMyBucket<CClientSockE *> *> >
_TEXT	ENDS
PUBLIC	??0?$_List_ptr@PAV?$CMyBucket@PAVCClientSockE@@@@V?$allocator@PAV?$CMyBucket@PAVCClientSockE@@@@@std@@@std@@IAE@V?$allocator@PAV?$CMyBucket@PAVCClientSockE@@@@@1@@Z ; std::_List_ptr<CMyBucket<CClientSockE *> *,std::allocator<CMyBucket<CClientSockE *> *> >::_List_ptr<CMyBucket<CClientSockE *> *,std::allocator<CMyBucket<CClientSockE *> *> >
; Function compile flags: /Ogty
; File c:\program files\microsoft visual studio .net 2003\vc7\include\list
;	COMDAT ??0?$_List_ptr@PAV?$CMyBucket@PAVCClientSockE@@@@V?$allocator@PAV?$CMyBucket@PAVCClientSockE@@@@@std@@@std@@IAE@V?$allocator@PAV?$CMyBucket@PAVCClientSockE@@@@@1@@Z
_TEXT	SEGMENT
__Al$ = 8						; size = 1
??0?$_List_ptr@PAV?$CMyBucket@PAVCClientSockE@@@@V?$allocator@PAV?$CMyBucket@PAVCClientSockE@@@@@std@@@std@@IAE@V?$allocator@PAV?$CMyBucket@PAVCClientSockE@@@@@1@@Z PROC NEAR ; std::_List_ptr<CMyBucket<CClientSockE *> *,std::allocator<CMyBucket<CClientSockE *> *> >::_List_ptr<CMyBucket<CClientSockE *> *,std::allocator<CMyBucket<CClientSockE *> *> >, COMDAT
; _this$ = ecx

; 64   : 		{	// construct base, and allocator from _Al

  00000	8b c1		 mov	 eax, ecx

; 65   : 		}

  00002	c2 04 00	 ret	 4
??0?$_List_ptr@PAV?$CMyBucket@PAVCClientSockE@@@@V?$allocator@PAV?$CMyBucket@PAVCClientSockE@@@@@std@@@std@@IAE@V?$allocator@PAV?$CMyBucket@PAVCClientSockE@@@@@1@@Z ENDP ; std::_List_ptr<CMyBucket<CClientSockE *> *,std::allocator<CMyBucket<CClientSockE *> *> >::_List_ptr<CMyBucket<CClientSockE *> *,std::allocator<CMyBucket<CClientSockE *> *> >
_TEXT	ENDS
PUBLIC	??Giterator@?$deque@PAV?$CMyBucket@PAVCClientSockE@@@@V?$allocator@PAV?$CMyBucket@PAVCClientSockE@@@@@std@@@std@@QBE?AV012@H@Z ; std::deque<CMyBucket<CClientSockE *> *,std::allocator<CMyBucket<CClientSockE *> *> >::iterator::operator-
; Function compile flags: /Ogty
; File c:\program files\microsoft visual studio .net 2003\vc7\include\deque
;	COMDAT ??Giterator@?$deque@PAV?$CMyBucket@PAVCClientSockE@@@@V?$allocator@PAV?$CMyBucket@PAVCClientSockE@@@@@std@@@std@@QBE?AV012@H@Z
_TEXT	SEGMENT
___$ReturnUdt$ = 8					; size = 4
__Off$ = 12						; size = 4
??Giterator@?$deque@PAV?$CMyBucket@PAVCClientSockE@@@@V?$allocator@PAV?$CMyBucket@PAVCClientSockE@@@@@std@@@std@@QBE?AV012@H@Z PROC NEAR ; std::deque<CMyBucket<CClientSockE *> *,std::allocator<CMyBucket<CClientSockE *> *> >::iterator::operator-, COMDAT
; _this$ = ecx

; 300  : 			iterator _Tmp = *this;

  00000	8b 11		 mov	 edx, DWORD PTR [ecx]
  00002	8b 49 04	 mov	 ecx, DWORD PTR [ecx+4]

; 301  : 			return (_Tmp -= _Off);

  00005	2b 4c 24 08	 sub	 ecx, DWORD PTR __Off$[esp-4]
  00009	8b 44 24 04	 mov	 eax, DWORD PTR ___$ReturnUdt$[esp-4]
  0000d	89 10		 mov	 DWORD PTR [eax], edx
  0000f	89 48 04	 mov	 DWORD PTR [eax+4], ecx

; 302  : 			}

  00012	c2 08 00	 ret	 8
??Giterator@?$deque@PAV?$CMyBucket@PAVCClientSockE@@@@V?$allocator@PAV?$CMyBucket@PAVCClientSockE@@@@@std@@@std@@QBE?AV012@H@Z ENDP ; std::deque<CMyBucket<CClientSockE *> *,std::allocator<CMyBucket<CClientSockE *> *> >::iterator::operator-
_TEXT	ENDS
PUBLIC	??$_Uninitialized_fill_n@PAPAPAV?$CMyBucket@PAVCClientSockE@@@@IPAPAV1@V?$allocator@PAPAV?$CMyBucket@PAVCClientSockE@@@@@std@@@std@@YAXPAPAPAV?$CMyBucket@PAVCClientSockE@@@@IABQAPAV1@AAV?$allocator@PAPAV?$CMyBucket@PAVCClientSockE@@@@@0@@Z ; std::_Uninitialized_fill_n<CMyBucket<CClientSockE *> * * *,unsigned int,CMyBucket<CClientSockE *> * *,std::allocator<CMyBucket<CClientSockE *> * *> >
; Function compile flags: /Ogty
; File c:\program files\microsoft visual studio .net 2003\vc7\include\memory
;	COMDAT ??$_Uninitialized_fill_n@PAPAPAV?$CMyBucket@PAVCClientSockE@@@@IPAPAV1@V?$allocator@PAPAV?$CMyBucket@PAVCClientSockE@@@@@std@@@std@@YAXPAPAPAV?$CMyBucket@PAVCClientSockE@@@@IABQAPAV1@AAV?$allocator@PAPAV?$CMyBucket@PAVCClientSockE@@@@@0@@Z
_TEXT	SEGMENT
__First$ = 8						; size = 4
__Count$ = 12						; size = 4
__Val$ = 16						; size = 4
__Al$ = 20						; size = 4
??$_Uninitialized_fill_n@PAPAPAV?$CMyBucket@PAVCClientSockE@@@@IPAPAV1@V?$allocator@PAPAV?$CMyBucket@PAVCClientSockE@@@@@std@@@std@@YAXPAPAPAV?$CMyBucket@PAVCClientSockE@@@@IABQAPAV1@AAV?$allocator@PAPAV?$CMyBucket@PAVCClientSockE@@@@@0@@Z PROC NEAR ; std::_Uninitialized_fill_n<CMyBucket<CClientSockE *> * * *,unsigned int,CMyBucket<CClientSockE *> * *,std::allocator<CMyBucket<CClientSockE *> * *> >, COMDAT

; 256  : 	_Uninit_fill_n(_First, _Count, _Val, _Al,
; 257  : 		_Ptr_cat(_First, _First));

  00000	8b 4c 24 08	 mov	 ecx, DWORD PTR __Count$[esp-4]
  00004	85 c9		 test	 ecx, ecx
  00006	8b 44 24 04	 mov	 eax, DWORD PTR __First$[esp-4]
  0000a	76 10		 jbe	 SHORT $L156352
  0000c	8b 54 24 0c	 mov	 edx, DWORD PTR __Val$[esp-4]
  00010	56		 push	 esi
$L156350:
  00011	8b 32		 mov	 esi, DWORD PTR [edx]
  00013	89 30		 mov	 DWORD PTR [eax], esi
  00015	83 c0 04	 add	 eax, 4
  00018	49		 dec	 ecx
  00019	75 f6		 jne	 SHORT $L156350
  0001b	5e		 pop	 esi
$L156352:

; 258  : 	}

  0001c	c3		 ret	 0
??$_Uninitialized_fill_n@PAPAPAV?$CMyBucket@PAVCClientSockE@@@@IPAPAV1@V?$allocator@PAPAV?$CMyBucket@PAVCClientSockE@@@@@std@@@std@@YAXPAPAPAV?$CMyBucket@PAVCClientSockE@@@@IABQAPAV1@AAV?$allocator@PAPAV?$CMyBucket@PAVCClientSockE@@@@@0@@Z ENDP ; std::_Uninitialized_fill_n<CMyBucket<CClientSockE *> * * *,unsigned int,CMyBucket<CClientSockE *> * *,std::allocator<CMyBucket<CClientSockE *> * *> >
_TEXT	ENDS
PUBLIC	?_Tidy@?$basic_string@DU?$char_traits@D@std@@V?$allocator@D@2@@std@@IAEX_NI@Z ; std::basic_string<char,std::char_traits<char>,std::allocator<char> >::_Tidy
; Function compile flags: /Ogty
; File c:\program files\microsoft visual studio .net 2003\vc7\include\xstring
;	COMDAT ?_Tidy@?$basic_string@DU?$char_traits@D@std@@V?$allocator@D@2@@std@@IAEX_NI@Z
_TEXT	SEGMENT
__Built$ = 8						; size = 1
__Newsize$ = 12						; size = 4
?_Tidy@?$basic_string@DU?$char_traits@D@std@@V?$allocator@D@2@@std@@IAEX_NI@Z PROC NEAR ; std::basic_string<char,std::char_traits<char>,std::allocator<char> >::_Tidy, COMDAT
; _this$ = ecx

; 1510 : 		if (!_Built)

  00000	8a 44 24 04	 mov	 al, BYTE PTR __Built$[esp-4]
  00004	84 c0		 test	 al, al
  00006	53		 push	 ebx
  00007	55		 push	 ebp
  00008	8b 6c 24 10	 mov	 ebp, DWORD PTR __Newsize$[esp+4]
  0000c	8b d9		 mov	 ebx, ecx
  0000e	74 2f		 je	 SHORT $L156363

; 1511 : 			;
; 1512 : 		else if (_BUF_SIZE <= _Myres)

  00010	83 7b 18 10	 cmp	 DWORD PTR [ebx+24], 16	; 00000010H
  00014	72 29		 jb	 SHORT $L156363

; 1513 : 			{	// copy any leftovers to small buffer and deallocate
; 1514 : 			_Elem *_Ptr = _Bx._Ptr;
; 1515 : 			if (0 < _Newsize)

  00016	85 ed		 test	 ebp, ebp
  00018	8b 43 04	 mov	 eax, DWORD PTR [ebx+4]
  0001b	57		 push	 edi
  0001c	8d 7b 04	 lea	 edi, DWORD PTR [ebx+4]
  0001f	76 14		 jbe	 SHORT $L156360
  00021	56		 push	 esi

; 1516 : 				_Traits::copy(_Bx._Buf, _Ptr, _Newsize);

  00022	8b cd		 mov	 ecx, ebp
  00024	8b d1		 mov	 edx, ecx
  00026	c1 e9 02	 shr	 ecx, 2
  00029	8b f0		 mov	 esi, eax
  0002b	f3 a5		 rep movsd
  0002d	8b ca		 mov	 ecx, edx
  0002f	83 e1 03	 and	 ecx, 3
  00032	f3 a4		 rep movsb
  00034	5e		 pop	 esi
$L156360:

; 1517 : 			_Mybase::_Alval.deallocate(_Ptr, _Myres + 1);

  00035	50		 push	 eax
  00036	e8 00 00 00 00	 call	 ??3@YAXPAX@Z		; operator delete
  0003b	83 c4 04	 add	 esp, 4
  0003e	5f		 pop	 edi
$L156363:

; 1518 : 			}
; 1519 : 		_Myres = _BUF_SIZE - 1;
; 1520 : 		_Eos(_Newsize);

  0003f	89 6b 14	 mov	 DWORD PTR [ebx+20], ebp
  00042	c7 43 18 0f 00
	00 00		 mov	 DWORD PTR [ebx+24], 15	; 0000000fH
  00049	c6 44 2b 04 00	 mov	 BYTE PTR [ebx+ebp+4], 0
  0004e	5d		 pop	 ebp
  0004f	5b		 pop	 ebx

; 1521 : 		}

  00050	c2 08 00	 ret	 8
?_Tidy@?$basic_string@DU?$char_traits@D@std@@V?$allocator@D@2@@std@@IAEX_NI@Z ENDP ; std::basic_string<char,std::char_traits<char>,std::allocator<char> >::_Tidy
_TEXT	ENDS
PUBLIC	?erase@?$basic_string@DU?$char_traits@D@std@@V?$allocator@D@2@@std@@QAEAAV12@II@Z ; std::basic_string<char,std::char_traits<char>,std::allocator<char> >::erase
EXTRN	?_Xran@_String_base@std@@QBEXXZ:NEAR		; std::_String_base::_Xran
; Function compile flags: /Ogty
;	COMDAT ?erase@?$basic_string@DU?$char_traits@D@std@@V?$allocator@D@2@@std@@QAEAAV12@II@Z
_TEXT	SEGMENT
__Off$ = 8						; size = 4
__Count$ = 12						; size = 4
?erase@?$basic_string@DU?$char_traits@D@std@@V?$allocator@D@2@@std@@QAEAAV12@II@Z PROC NEAR ; std::basic_string<char,std::char_traits<char>,std::allocator<char> >::erase, COMDAT
; _this$ = ecx

; 792  : 		{	// erase elements [_Off, _Off + _Count)

  00000	55		 push	 ebp

; 793  : 		if (_Mysize < _Off)

  00001	8b 6c 24 08	 mov	 ebp, DWORD PTR __Off$[esp]
  00005	56		 push	 esi
  00006	8b f1		 mov	 esi, ecx
  00008	39 6e 14	 cmp	 DWORD PTR [esi+20], ebp
  0000b	57		 push	 edi
  0000c	73 05		 jae	 SHORT $L147725

; 794  : 			_String_base::_Xran();	// _Off off end

  0000e	e8 00 00 00 00	 call	 ?_Xran@_String_base@std@@QBEXXZ ; std::_String_base::_Xran
$L147725:

; 795  : 		if (_Mysize - _Off < _Count)

  00013	8b 46 14	 mov	 eax, DWORD PTR [esi+20]
  00016	8b 7c 24 14	 mov	 edi, DWORD PTR __Count$[esp+8]
  0001a	2b c5		 sub	 eax, ebp
  0001c	3b c7		 cmp	 eax, edi
  0001e	73 02		 jae	 SHORT $L147726

; 796  : 			_Count = _Mysize - _Off;	// trim _Count

  00020	8b f8		 mov	 edi, eax
$L147726:

; 797  : 		if (0 < _Count)

  00022	85 ff		 test	 edi, edi
  00024	76 47		 jbe	 SHORT $L156429

; 798  : 			{	// move elements down
; 799  : 			_Traits::move(_Myptr() + _Off, _Myptr() + _Off + _Count,
; 800  : 				_Mysize - _Off - _Count);

  00026	8b 4e 18	 mov	 ecx, DWORD PTR [esi+24]
  00029	83 f9 10	 cmp	 ecx, 16			; 00000010H
  0002c	53		 push	 ebx
  0002d	8d 5e 04	 lea	 ebx, DWORD PTR [esi+4]
  00030	72 04		 jb	 SHORT $L156395
  00032	8b 13		 mov	 edx, DWORD PTR [ebx]
  00034	eb 02		 jmp	 SHORT $L156396
$L156395:
  00036	8b d3		 mov	 edx, ebx
$L156396:
  00038	83 f9 10	 cmp	 ecx, 16			; 00000010H
  0003b	72 04		 jb	 SHORT $L156402
  0003d	8b 0b		 mov	 ecx, DWORD PTR [ebx]
  0003f	eb 02		 jmp	 SHORT $L156403
$L156402:
  00041	8b cb		 mov	 ecx, ebx
$L156403:
  00043	2b c7		 sub	 eax, edi

; 803  : 			}
; 804  : 		return (*this);

  00045	03 d5		 add	 edx, ebp
  00047	50		 push	 eax
  00048	03 d7		 add	 edx, edi
  0004a	52		 push	 edx
  0004b	03 cd		 add	 ecx, ebp
  0004d	51		 push	 ecx
  0004e	e8 00 00 00 00	 call	 _memmove
  00053	8b 46 14	 mov	 eax, DWORD PTR [esi+20]
  00056	8b 4e 18	 mov	 ecx, DWORD PTR [esi+24]
  00059	2b c7		 sub	 eax, edi
  0005b	83 c4 0c	 add	 esp, 12			; 0000000cH
  0005e	83 f9 10	 cmp	 ecx, 16			; 00000010H
  00061	89 46 14	 mov	 DWORD PTR [esi+20], eax
  00064	72 02		 jb	 SHORT $L156426

; 801  : 			size_type _Newsize = _Mysize - _Count;
; 802  : 			_Eos(_Newsize);

  00066	8b 1b		 mov	 ebx, DWORD PTR [ebx]
$L156426:
  00068	c6 04 03 00	 mov	 BYTE PTR [ebx+eax], 0
  0006c	5b		 pop	 ebx
$L156429:
  0006d	5f		 pop	 edi

; 803  : 			}
; 804  : 		return (*this);

  0006e	8b c6		 mov	 eax, esi
  00070	5e		 pop	 esi
  00071	5d		 pop	 ebp

; 805  : 		}

  00072	c2 08 00	 ret	 8
?erase@?$basic_string@DU?$char_traits@D@std@@V?$allocator@D@2@@std@@QAEAAV12@II@Z ENDP ; std::basic_string<char,std::char_traits<char>,std::allocator<char> >::erase
_TEXT	ENDS
PUBLIC	?_Copy@?$basic_string@DU?$char_traits@D@std@@V?$allocator@D@2@@std@@IAEXII@Z ; std::basic_string<char,std::char_traits<char>,std::allocator<char> >::_Copy
;	COMDAT xdata$x
; File c:\program files\microsoft visual studio .net 2003\vc7\include\iosfwd
xdata$x	SEGMENT
$T156633 DD	0ffffffffH
	DD	00H
	DD	0ffffffffH
	DD	00H
	DD	01H
	DD	00H
	DD	01H
	DD	00H
$T156635 DD	00H
	DD	00H
	DD	00H
	DD	FLAT:$L156436
$T156636 DD	00H
	DD	00H
	DD	00H
	DD	FLAT:$L156434
$T156634 DD	02H
	DD	02H
	DD	03H
	DD	01H
	DD	FLAT:$T156635
	DD	00H
	DD	00H
	DD	03H
	DD	01H
	DD	FLAT:$T156636
$T156628 DD	019930520H
	DD	04H
	DD	FLAT:$T156633
	DD	02H
	DD	FLAT:$T156634
	DD	2 DUP(00H)
; Function compile flags: /Ogty
; File c:\program files\microsoft visual studio .net 2003\vc7\include\xstring
xdata$x	ENDS
;	COMDAT ?_Copy@?$basic_string@DU?$char_traits@D@std@@V?$allocator@D@2@@std@@IAEXII@Z
_TEXT	SEGMENT
__Newres$ = -24						; size = 4
_this$ = -20						; size = 4
__$EHRec$ = -16						; size = 16
__Ptr$ = 8						; size = 4
__Newsize$ = 8						; size = 4
__Oldlen$ = 12						; size = 4
?_Copy@?$basic_string@DU?$char_traits@D@std@@V?$allocator@D@2@@std@@IAEXII@Z PROC NEAR ; std::basic_string<char,std::char_traits<char>,std::allocator<char> >::_Copy, COMDAT
; _this$ = ecx

; 1444 : 		{	// copy _Oldlen elements to newly allocated buffer

  00000	55		 push	 ebp
  00001	8b ec		 mov	 ebp, esp
  00003	6a ff		 push	 -1
  00005	68 00 00 00 00	 push	 __ehhandler$?_Copy@?$basic_string@DU?$char_traits@D@std@@V?$allocator@D@2@@std@@IAEXII@Z
  0000a	64 a1 00 00 00
	00		 mov	 eax, DWORD PTR fs:__except_list
  00010	50		 push	 eax
  00011	64 89 25 00 00
	00 00		 mov	 DWORD PTR fs:__except_list, esp
  00018	83 ec 0c	 sub	 esp, 12			; 0000000cH

; 1445 : 		size_type _Newres = _Newsize | _ALLOC_MASK;

  0001b	8b 45 08	 mov	 eax, DWORD PTR __Newsize$[ebp]
  0001e	53		 push	 ebx
  0001f	56		 push	 esi
  00020	8b d8		 mov	 ebx, eax
  00022	83 cb 0f	 or	 ebx, 15			; 0000000fH

; 1446 : 		if (max_size() < _Newres)

  00025	83 fb fe	 cmp	 ebx, -2			; fffffffeH
  00028	57		 push	 edi
  00029	8b f1		 mov	 esi, ecx
  0002b	89 65 f0	 mov	 DWORD PTR __$EHRec$[ebp], esp
  0002e	89 75 ec	 mov	 DWORD PTR _this$[ebp], esi
  00031	76 04		 jbe	 SHORT $L147789

; 1447 : 			_Newres = _Newsize;	// undo roundup if too big

  00033	8b d8		 mov	 ebx, eax

; 1448 : 		else if (_Newres / 3 < _Myres / 2

  00035	eb 22		 jmp	 SHORT $L147791
$L147789:

; 1449 : 			&& _Myres <= max_size() - _Myres / 2)

  00037	8b 7e 18	 mov	 edi, DWORD PTR [esi+24]
  0003a	b8 ab aa aa aa	 mov	 eax, -1431655765	; aaaaaaabH
  0003f	f7 e3		 mul	 ebx
  00041	8b cf		 mov	 ecx, edi
  00043	d1 e9		 shr	 ecx, 1
  00045	d1 ea		 shr	 edx, 1
  00047	3b d1		 cmp	 edx, ecx
  00049	73 0e		 jae	 SHORT $L147791
  0004b	b8 fe ff ff ff	 mov	 eax, -2			; fffffffeH
  00050	2b c1		 sub	 eax, ecx
  00052	3b f8		 cmp	 edi, eax
  00054	77 03		 ja	 SHORT $L147791

; 1450 : 			_Newres = _Myres + _Myres / 2;	// grow exponentially if possible

  00056	8d 1c 39	 lea	 ebx, DWORD PTR [ecx+edi]
$L147791:

; 1451 : 		_Elem *_Ptr;
; 1452 : 
; 1453 : 		_TRY_BEGIN
; 1454 : 			_Ptr = _Mybase::_Alval.allocate(_Newres + 1);

  00059	8d 4b 01	 lea	 ecx, DWORD PTR [ebx+1]
  0005c	51		 push	 ecx
  0005d	c7 45 fc 00 00
	00 00		 mov	 DWORD PTR __$EHRec$[ebp+12], 0
  00064	e8 00 00 00 00	 call	 ??2@YAPAXI@Z		; operator new
  00069	8b d0		 mov	 edx, eax
  0006b	83 c4 04	 add	 esp, 4
  0006e	89 55 08	 mov	 DWORD PTR __Ptr$[ebp], edx
  00071	eb 29		 jmp	 SHORT $L147793
$L156434:

; 1455 : 		_CATCH_ALL
; 1456 : 			_Newres = _Newsize;	// allocation failed, undo roundup and retry

  00073	8b 45 08	 mov	 eax, DWORD PTR __Newsize$[ebp]
  00076	89 45 e8	 mov	 DWORD PTR __Newres$[ebp], eax

; 1457 : 			_TRY_BEGIN
; 1458 : 				_Ptr = _Mybase::_Alval.allocate(_Newres + 1);

  00079	40		 inc	 eax
  0007a	89 65 f0	 mov	 DWORD PTR __$EHRec$[ebp], esp
  0007d	50		 push	 eax
  0007e	c6 45 fc 02	 mov	 BYTE PTR __$EHRec$[ebp+12], 2
  00082	e8 00 00 00 00	 call	 ??2@YAPAXI@Z		; operator new
  00087	89 45 08	 mov	 DWORD PTR __Ptr$[ebp], eax
  0008a	83 c4 04	 add	 esp, 4

; 1462 : 			_CATCH_END
; 1463 : 		_CATCH_END

  0008d	b8 00 00 00 00	 mov	 eax, $L156629
  00092	c3		 ret	 0
$L156629:
  00093	8b 5d e8	 mov	 ebx, DWORD PTR __Newres$[ebp]
  00096	8b 75 ec	 mov	 esi, DWORD PTR _this$[ebp]
  00099	8b 55 08	 mov	 edx, DWORD PTR __Ptr$[ebp]
$L147793:

; 1464 : 
; 1465 : 		if (0 < _Oldlen)

  0009c	8b 4d 0c	 mov	 ecx, DWORD PTR __Oldlen$[ebp]
  0009f	85 c9		 test	 ecx, ecx
  000a1	76 24		 jbe	 SHORT $L156553

; 1466 : 			_Traits::copy(_Ptr, _Myptr(), _Oldlen);	// copy existing elements

  000a3	83 7e 18 10	 cmp	 DWORD PTR [esi+24], 16	; 00000010H
  000a7	72 05		 jb	 SHORT $L156550
  000a9	8b 76 04	 mov	 esi, DWORD PTR [esi+4]
  000ac	eb 03		 jmp	 SHORT $L156551
$L156550:
  000ae	83 c6 04	 add	 esi, 4
$L156551:
  000b1	8b c1		 mov	 eax, ecx
  000b3	c1 e9 02	 shr	 ecx, 2
  000b6	8b fa		 mov	 edi, edx
  000b8	f3 a5		 rep movsd
  000ba	8b c8		 mov	 ecx, eax
  000bc	83 e1 03	 and	 ecx, 3
  000bf	f3 a4		 rep movsb
  000c1	8b 75 ec	 mov	 esi, DWORD PTR _this$[ebp]
  000c4	8b 4d 0c	 mov	 ecx, DWORD PTR __Oldlen$[ebp]
$L156553:

; 1467 : 		_Tidy(true);

  000c7	83 7e 18 10	 cmp	 DWORD PTR [esi+24], 16	; 00000010H
  000cb	72 12		 jb	 SHORT $L156595
  000cd	8b 4e 04	 mov	 ecx, DWORD PTR [esi+4]
  000d0	51		 push	 ecx
  000d1	e8 00 00 00 00	 call	 ??3@YAXPAX@Z		; operator delete
  000d6	8b 55 08	 mov	 edx, DWORD PTR __Ptr$[ebp]
  000d9	8b 4d 0c	 mov	 ecx, DWORD PTR __Oldlen$[ebp]
  000dc	83 c4 04	 add	 esp, 4
$L156595:

; 1468 : 		_Bx._Ptr = _Ptr;
; 1469 : 		_Myres = _Newres;
; 1470 : 		_Eos(_Oldlen);

  000df	83 fb 10	 cmp	 ebx, 16			; 00000010H
  000e2	8d 46 04	 lea	 eax, DWORD PTR [esi+4]
  000e5	c6 00 00	 mov	 BYTE PTR [eax], 0
  000e8	89 10		 mov	 DWORD PTR [eax], edx
  000ea	89 5e 18	 mov	 DWORD PTR [esi+24], ebx
  000ed	89 4e 14	 mov	 DWORD PTR [esi+20], ecx
  000f0	72 02		 jb	 SHORT $L156624
  000f2	8b c2		 mov	 eax, edx
$L156624:

; 1471 : 		}

  000f4	5f		 pop	 edi
  000f5	c6 04 08 00	 mov	 BYTE PTR [eax+ecx], 0
  000f9	8b 4d f4	 mov	 ecx, DWORD PTR __$EHRec$[ebp+4]
  000fc	5e		 pop	 esi
  000fd	64 89 0d 00 00
	00 00		 mov	 DWORD PTR fs:__except_list, ecx
  00104	5b		 pop	 ebx
  00105	8b e5		 mov	 esp, ebp
  00107	5d		 pop	 ebp
  00108	c2 08 00	 ret	 8
$L156436:

; 1459 : 			_CATCH_ALL
; 1460 : 			_Tidy(true);	// failed again, discard storage and reraise

  0010b	8b 75 ec	 mov	 esi, DWORD PTR _this$[ebp]
  0010e	83 7e 18 10	 cmp	 DWORD PTR [esi+24], 16	; 00000010H
  00112	72 0c		 jb	 SHORT $L156534
  00114	8b 56 04	 mov	 edx, DWORD PTR [esi+4]
  00117	52		 push	 edx
  00118	e8 00 00 00 00	 call	 ??3@YAXPAX@Z		; operator delete
  0011d	83 c4 04	 add	 esp, 4
$L156534:

; 1461 : 			_RERAISE;

  00120	6a 00		 push	 0
  00122	c7 46 18 0f 00
	00 00		 mov	 DWORD PTR [esi+24], 15	; 0000000fH
  00129	c7 46 14 00 00
	00 00		 mov	 DWORD PTR [esi+20], 0
  00130	6a 00		 push	 0
  00132	c6 46 04 00	 mov	 BYTE PTR [esi+4], 0
  00136	e8 00 00 00 00	 call	 __CxxThrowException@8
$L156637:
$L156632:
  0013b	cc		 int	 3
_TEXT	ENDS
;	COMDAT text$x
text$x	SEGMENT
__ehhandler$?_Copy@?$basic_string@DU?$char_traits@D@std@@V?$allocator@D@2@@std@@IAEXII@Z:
  00000	b8 00 00 00 00	 mov	 eax, OFFSET FLAT:$T156628
  00005	e9 00 00 00 00	 jmp	 ___CxxFrameHandler
text$x	ENDS
?_Copy@?$basic_string@DU?$char_traits@D@std@@V?$allocator@D@2@@std@@IAEXII@Z ENDP ; std::basic_string<char,std::char_traits<char>,std::allocator<char> >::_Copy
PUBLIC	?_Tidy@?$deque@PAV?$CMyBucket@PAVCClientSockE@@@@V?$allocator@PAV?$CMyBucket@PAVCClientSockE@@@@@std@@@std@@IAEXXZ ; std::deque<CMyBucket<CClientSockE *> *,std::allocator<CMyBucket<CClientSockE *> *> >::_Tidy
; Function compile flags: /Ogty
; File c:\program files\microsoft visual studio .net 2003\vc7\include\deque
;	COMDAT ?_Tidy@?$deque@PAV?$CMyBucket@PAVCClientSockE@@@@V?$allocator@PAV?$CMyBucket@PAVCClientSockE@@@@@std@@@std@@IAEXXZ
_TEXT	SEGMENT
?_Tidy@?$deque@PAV?$CMyBucket@PAVCClientSockE@@@@V?$allocator@PAV?$CMyBucket@PAVCClientSockE@@@@@std@@@std@@IAEXXZ PROC NEAR ; std::deque<CMyBucket<CClientSockE *> *,std::allocator<CMyBucket<CClientSockE *> *> >::_Tidy, COMDAT
; _this$ = ecx

; 950  : 		{	// free all storage

  00000	53		 push	 ebx
  00001	56		 push	 esi
  00002	8b f1		 mov	 esi, ecx

; 951  : 		while (!empty())

  00004	8b 46 10	 mov	 eax, DWORD PTR [esi+16]
  00007	33 db		 xor	 ebx, ebx
  00009	3b c3		 cmp	 eax, ebx
  0000b	74 1a		 je	 SHORT $L153977
  0000d	8d 49 00	 npad	 3
$L153976:

; 952  : 			pop_back();

  00010	8b 46 10	 mov	 eax, DWORD PTR [esi+16]
  00013	3b c3		 cmp	 eax, ebx
  00015	74 0b		 je	 SHORT $L156654
  00017	48		 dec	 eax
  00018	3b c3		 cmp	 eax, ebx
  0001a	89 46 10	 mov	 DWORD PTR [esi+16], eax
  0001d	75 03		 jne	 SHORT $L156654
  0001f	89 5e 0c	 mov	 DWORD PTR [esi+12], ebx
$L156654:
  00022	39 5e 10	 cmp	 DWORD PTR [esi+16], ebx
  00025	75 e9		 jne	 SHORT $L153976
$L153977:
  00027	57		 push	 edi

; 953  : 		for (size_type _Count = _Mapsize; 0 < _Count; )

  00028	8b 7e 08	 mov	 edi, DWORD PTR [esi+8]
  0002b	3b fb		 cmp	 edi, ebx
  0002d	76 1a		 jbe	 SHORT $L153981
  0002f	90		 npad	 1
$L153980:

; 954  : 			{	// free storage for a block and destroy pointer
; 955  : 			if (*(_Map + --_Count) != 0)

  00030	8b 46 04	 mov	 eax, DWORD PTR [esi+4]
  00033	8b 44 b8 fc	 mov	 eax, DWORD PTR [eax+edi*4-4]
  00037	4f		 dec	 edi
  00038	3b c3		 cmp	 eax, ebx
  0003a	74 09		 je	 SHORT $L156659

; 956  : 				this->_Alval.deallocate(*(_Map + _Count), _DEQUESIZ);

  0003c	50		 push	 eax
  0003d	e8 00 00 00 00	 call	 ??3@YAXPAX@Z		; operator delete
  00042	83 c4 04	 add	 esp, 4
$L156659:

; 953  : 		for (size_type _Count = _Mapsize; 0 < _Count; )

  00045	3b fb		 cmp	 edi, ebx
  00047	77 e7		 ja	 SHORT $L153980
$L153981:

; 957  : 			this->_Almap.destroy(_Map + _Count);
; 958  : 			}
; 959  : 
; 960  : 		if (_Map)

  00049	8b 46 04	 mov	 eax, DWORD PTR [esi+4]
  0004c	3b c3		 cmp	 eax, ebx
  0004e	5f		 pop	 edi
  0004f	74 09		 je	 SHORT $L156670

; 961  : 			this->_Almap.deallocate(_Map, _Mapsize);	// free storage for map

  00051	50		 push	 eax
  00052	e8 00 00 00 00	 call	 ??3@YAXPAX@Z		; operator delete
  00057	83 c4 04	 add	 esp, 4
$L156670:

; 962  : 		_Mapsize = 0;

  0005a	89 5e 08	 mov	 DWORD PTR [esi+8], ebx

; 963  : 		_Map = 0;

  0005d	89 5e 04	 mov	 DWORD PTR [esi+4], ebx
  00060	5e		 pop	 esi
  00061	5b		 pop	 ebx

; 964  : 		}

  00062	c3		 ret	 0
?_Tidy@?$deque@PAV?$CMyBucket@PAVCClientSockE@@@@V?$allocator@PAV?$CMyBucket@PAVCClientSockE@@@@@std@@@std@@IAEXXZ ENDP ; std::deque<CMyBucket<CClientSockE *> *,std::allocator<CMyBucket<CClientSockE *> *> >::_Tidy
_TEXT	ENDS
PUBLIC	?_Tidy@?$list@PAV?$CMyBucket@PAVCClientSockE@@@@V?$allocator@PAV?$CMyBucket@PAVCClientSockE@@@@@std@@@std@@IAEXXZ ; std::list<CMyBucket<CClientSockE *> *,std::allocator<CMyBucket<CClientSockE *> *> >::_Tidy
; Function compile flags: /Ogty
; File c:\program files\microsoft visual studio .net 2003\vc7\include\list
;	COMDAT ?_Tidy@?$list@PAV?$CMyBucket@PAVCClientSockE@@@@V?$allocator@PAV?$CMyBucket@PAVCClientSockE@@@@@std@@@std@@IAEXXZ
_TEXT	SEGMENT
?_Tidy@?$list@PAV?$CMyBucket@PAVCClientSockE@@@@V?$allocator@PAV?$CMyBucket@PAVCClientSockE@@@@@std@@@std@@IAEXXZ PROC NEAR ; std::list<CMyBucket<CClientSockE *> *,std::allocator<CMyBucket<CClientSockE *> *> >::_Tidy, COMDAT
; _this$ = ecx

; 929  : 		{	// free all storage

  00000	56		 push	 esi
  00001	8b f1		 mov	 esi, ecx

; 930  : 		clear();

  00003	e8 00 00 00 00	 call	 ?clear@?$list@PAV?$CMyBucket@PAVCClientSockE@@@@V?$allocator@PAV?$CMyBucket@PAVCClientSockE@@@@@std@@@std@@QAEXXZ ; std::list<CMyBucket<CClientSockE *> *,std::allocator<CMyBucket<CClientSockE *> *> >::clear

; 931  : 		this->_Alptr.destroy(&_Nextnode(_Myhead));
; 932  : 		this->_Alptr.destroy(&_Prevnode(_Myhead));
; 933  : 		this->_Alnod.deallocate(_Myhead, 1);

  00008	8b 46 04	 mov	 eax, DWORD PTR [esi+4]
  0000b	50		 push	 eax
  0000c	e8 00 00 00 00	 call	 ??3@YAXPAX@Z		; operator delete
  00011	83 c4 04	 add	 esp, 4

; 934  : 		_Myhead = 0;

  00014	c7 46 04 00 00
	00 00		 mov	 DWORD PTR [esi+4], 0
  0001b	5e		 pop	 esi

; 935  : 		}

  0001c	c3		 ret	 0
?_Tidy@?$list@PAV?$CMyBucket@PAVCClientSockE@@@@V?$allocator@PAV?$CMyBucket@PAVCClientSockE@@@@@std@@@std@@IAEXXZ ENDP ; std::list<CMyBucket<CClientSockE *> *,std::allocator<CMyBucket<CClientSockE *> *> >::_Tidy
_TEXT	ENDS
PUBLIC	?Clear@?$CMyPool@V?$CMyBucket@PAVCClientSockE@@@@@@QAEXXZ ; CMyPool<CMyBucket<CClientSockE *> >::Clear
; Function compile flags: /Ogty
; File c:\offi src_real\offi src!\_network\misc\include\mymap.h
;	COMDAT ?Clear@?$CMyPool@V?$CMyBucket@PAVCClientSockE@@@@@@QAEXXZ
_TEXT	SEGMENT
?Clear@?$CMyPool@V?$CMyBucket@PAVCClientSockE@@@@@@QAEXXZ PROC NEAR ; CMyPool<CMyBucket<CClientSockE *> >::Clear, COMDAT
; _this$ = ecx

; 171  : {

  00000	53		 push	 ebx
  00001	56		 push	 esi
  00002	8b f1		 mov	 esi, ecx

; 172  : 	INIT_LOOP(1000);
; 173  : 	for( list<T*>::iterator i = m_listBlock.begin(); i != m_listBlock.end(); ++i )

  00004	8b 46 1c	 mov	 eax, DWORD PTR [esi+28]
  00007	57		 push	 edi
  00008	8b 38		 mov	 edi, DWORD PTR [eax]
  0000a	33 db		 xor	 ebx, ebx
  0000c	3b f8		 cmp	 edi, eax
  0000e	74 29		 je	 SHORT $L154312
$L156732:

; 174  : 	{
; 175  : 		VERIFY_LOOP( __FILE__, __LINE__ );
; 176  : 		safe_delete_array( *i );

  00010	8b 4f 08	 mov	 ecx, DWORD PTR [edi+8]
  00013	3b cb		 cmp	 ecx, ebx
  00015	74 1b		 je	 SHORT $L154311
  00017	8b 51 fc	 mov	 edx, DWORD PTR [ecx-4]
  0001a	3b d3		 cmp	 edx, ebx
  0001c	8d 41 fc	 lea	 eax, DWORD PTR [ecx-4]
  0001f	74 08		 je	 SHORT $L156692
  00021	8b 01		 mov	 eax, DWORD PTR [ecx]
  00023	6a 03		 push	 3
  00025	ff 10		 call	 DWORD PTR [eax]
  00027	eb 09		 jmp	 SHORT $L154311
$L156692:
  00029	50		 push	 eax
  0002a	e8 00 00 00 00	 call	 ??_V@YAXPAX@Z		; operator delete[]
  0002f	83 c4 04	 add	 esp, 4
$L154311:
  00032	8b 3f		 mov	 edi, DWORD PTR [edi]
  00034	3b 7e 1c	 cmp	 edi, DWORD PTR [esi+28]
  00037	75 d7		 jne	 SHORT $L156732
$L154312:

; 177  : 	}
; 178  : 
; 179  : 	m_listBlock.clear();

  00039	8b 4e 1c	 mov	 ecx, DWORD PTR [esi+28]
  0003c	8b 01		 mov	 eax, DWORD PTR [ecx]
  0003e	89 09		 mov	 DWORD PTR [ecx], ecx
  00040	8b 4e 1c	 mov	 ecx, DWORD PTR [esi+28]
  00043	89 49 04	 mov	 DWORD PTR [ecx+4], ecx
  00046	3b 46 1c	 cmp	 eax, DWORD PTR [esi+28]
  00049	89 5e 20	 mov	 DWORD PTR [esi+32], ebx
  0004c	74 16		 je	 SHORT $L156806
  0004e	8b ff		 npad	 2
$L156804:
  00050	8b 38		 mov	 edi, DWORD PTR [eax]
  00052	50		 push	 eax
  00053	e8 00 00 00 00	 call	 ??3@YAXPAX@Z		; operator delete
  00058	8b 4e 1c	 mov	 ecx, DWORD PTR [esi+28]
  0005b	83 c4 04	 add	 esp, 4
  0005e	3b f9		 cmp	 edi, ecx
  00060	8b c7		 mov	 eax, edi
  00062	75 ec		 jne	 SHORT $L156804
$L156806:

; 180  : 
; 181  : 	{
; 182  : 		INIT_LOOP(1000);
; 183  : 		while( !m_stackData.empty() )

  00064	39 5e 14	 cmp	 DWORD PTR [esi+20], ebx
  00067	74 1e		 je	 SHORT $L156846
  00069	8d a4 24 00 00
	00 00		 npad	 7
$L154320:

; 184  : 		{
; 185  : 			VERIFY_LOOP( __FILE__, __LINE__ );
; 186  : 			m_stackData.pop();

  00070	8b 46 14	 mov	 eax, DWORD PTR [esi+20]
  00073	3b c3		 cmp	 eax, ebx
  00075	74 0b		 je	 SHORT $L156839
  00077	48		 dec	 eax
  00078	3b c3		 cmp	 eax, ebx
  0007a	89 46 14	 mov	 DWORD PTR [esi+20], eax
  0007d	75 03		 jne	 SHORT $L156839
  0007f	89 5e 10	 mov	 DWORD PTR [esi+16], ebx
$L156839:
  00082	39 5e 14	 cmp	 DWORD PTR [esi+20], ebx
  00085	75 e9		 jne	 SHORT $L154320
$L156846:
  00087	5f		 pop	 edi

; 187  : 		}
; 188  : 	}
; 189  : 
; 190  : 	m_nInitialSize	= m_nGrowSize	= 0;

  00088	89 5e 24	 mov	 DWORD PTR [esi+36], ebx
  0008b	89 5e 28	 mov	 DWORD PTR [esi+40], ebx
  0008e	5e		 pop	 esi
  0008f	5b		 pop	 ebx

; 191  : }

  00090	c3		 ret	 0
?Clear@?$CMyPool@V?$CMyBucket@PAVCClientSockE@@@@@@QAEXXZ ENDP ; CMyPool<CMyBucket<CClientSockE *> >::Clear
_TEXT	ENDS
PUBLIC	??0?$deque@PAV?$CMyBucket@PAVCClientSockE@@@@V?$allocator@PAV?$CMyBucket@PAVCClientSockE@@@@@std@@@std@@QAE@XZ ; std::deque<CMyBucket<CClientSockE *> *,std::allocator<CMyBucket<CClientSockE *> *> >::deque<CMyBucket<CClientSockE *> *,std::allocator<CMyBucket<CClientSockE *> *> >
; Function compile flags: /Ogty
; File c:\program files\microsoft visual studio .net 2003\vc7\include\deque
;	COMDAT ??0?$deque@PAV?$CMyBucket@PAVCClientSockE@@@@V?$allocator@PAV?$CMyBucket@PAVCClientSockE@@@@@std@@@std@@QAE@XZ
_TEXT	SEGMENT
??0?$deque@PAV?$CMyBucket@PAVCClientSockE@@@@V?$allocator@PAV?$CMyBucket@PAVCClientSockE@@@@@std@@@std@@QAE@XZ PROC NEAR ; std::deque<CMyBucket<CClientSockE *> *,std::allocator<CMyBucket<CClientSockE *> *> >::deque<CMyBucket<CClientSockE *> *,std::allocator<CMyBucket<CClientSockE *> *> >, COMDAT
; _this$ = ecx

; 327  : 		{	// construct empty deque

  00000	8b c1		 mov	 eax, ecx
  00002	33 c9		 xor	 ecx, ecx
  00004	89 48 04	 mov	 DWORD PTR [eax+4], ecx
  00007	89 48 08	 mov	 DWORD PTR [eax+8], ecx
  0000a	89 48 0c	 mov	 DWORD PTR [eax+12], ecx
  0000d	89 48 10	 mov	 DWORD PTR [eax+16], ecx

; 328  : 		}

  00010	c3		 ret	 0
??0?$deque@PAV?$CMyBucket@PAVCClientSockE@@@@V?$allocator@PAV?$CMyBucket@PAVCClientSockE@@@@@std@@@std@@QAE@XZ ENDP ; std::deque<CMyBucket<CClientSockE *> *,std::allocator<CMyBucket<CClientSockE *> *> >::deque<CMyBucket<CClientSockE *> *,std::allocator<CMyBucket<CClientSockE *> *> >
_TEXT	ENDS
PUBLIC	?back@?$deque@PAV?$CMyBucket@PAVCClientSockE@@@@V?$allocator@PAV?$CMyBucket@PAVCClientSockE@@@@@std@@@std@@QAEAAPAV?$CMyBucket@PAVCClientSockE@@@@XZ ; std::deque<CMyBucket<CClientSockE *> *,std::allocator<CMyBucket<CClientSockE *> *> >::back
; Function compile flags: /Ogty
;	COMDAT ?back@?$deque@PAV?$CMyBucket@PAVCClientSockE@@@@V?$allocator@PAV?$CMyBucket@PAVCClientSockE@@@@@std@@@std@@QAEAAPAV?$CMyBucket@PAVCClientSockE@@@@XZ
_TEXT	SEGMENT
?back@?$deque@PAV?$CMyBucket@PAVCClientSockE@@@@V?$allocator@PAV?$CMyBucket@PAVCClientSockE@@@@@std@@@std@@QAEAAPAV?$CMyBucket@PAVCClientSockE@@@@XZ PROC NEAR ; std::deque<CMyBucket<CClientSockE *> *,std::allocator<CMyBucket<CClientSockE *> *> >::back, COMDAT
; _this$ = ecx

; 546  : 		return (*(end() - 1));

  00000	8b 41 10	 mov	 eax, DWORD PTR [ecx+16]
  00003	56		 push	 esi
  00004	03 41 0c	 add	 eax, DWORD PTR [ecx+12]
  00007	48		 dec	 eax
  00008	8b d1		 mov	 edx, ecx
  0000a	8b c8		 mov	 ecx, eax
  0000c	c1 e8 02	 shr	 eax, 2
  0000f	8d 34 85 00 00
	00 00		 lea	 esi, DWORD PTR [eax*4]
  00016	2b ce		 sub	 ecx, esi
  00018	8b 72 08	 mov	 esi, DWORD PTR [edx+8]
  0001b	3b f0		 cmp	 esi, eax
  0001d	77 02		 ja	 SHORT $L156932
  0001f	2b c6		 sub	 eax, esi
$L156932:
  00021	8b 52 04	 mov	 edx, DWORD PTR [edx+4]
  00024	8b 04 82	 mov	 eax, DWORD PTR [edx+eax*4]
  00027	8d 04 88	 lea	 eax, DWORD PTR [eax+ecx*4]
  0002a	5e		 pop	 esi

; 547  : 		}

  0002b	c3		 ret	 0
?back@?$deque@PAV?$CMyBucket@PAVCClientSockE@@@@V?$allocator@PAV?$CMyBucket@PAVCClientSockE@@@@@std@@@std@@QAEAAPAV?$CMyBucket@PAVCClientSockE@@@@XZ ENDP ; std::deque<CMyBucket<CClientSockE *> *,std::allocator<CMyBucket<CClientSockE *> *> >::back
_TEXT	ENDS
PUBLIC	??0?$_List_val@PAV?$CMyBucket@PAVCClientSockE@@@@V?$allocator@PAV?$CMyBucket@PAVCClientSockE@@@@@std@@@std@@IAE@V?$allocator@PAV?$CMyBucket@PAVCClientSockE@@@@@1@@Z ; std::_List_val<CMyBucket<CClientSockE *> *,std::allocator<CMyBucket<CClientSockE *> *> >::_List_val<CMyBucket<CClientSockE *> *,std::allocator<CMyBucket<CClientSockE *> *> >
; Function compile flags: /Ogty
; File c:\program files\microsoft visual studio .net 2003\vc7\include\list
;	COMDAT ??0?$_List_val@PAV?$CMyBucket@PAVCClientSockE@@@@V?$allocator@PAV?$CMyBucket@PAVCClientSockE@@@@@std@@@std@@IAE@V?$allocator@PAV?$CMyBucket@PAVCClientSockE@@@@@1@@Z
_TEXT	SEGMENT
__Al$ = 8						; size = 1
??0?$_List_val@PAV?$CMyBucket@PAVCClientSockE@@@@V?$allocator@PAV?$CMyBucket@PAVCClientSockE@@@@@std@@@std@@IAE@V?$allocator@PAV?$CMyBucket@PAVCClientSockE@@@@@1@@Z PROC NEAR ; std::_List_val<CMyBucket<CClientSockE *> *,std::allocator<CMyBucket<CClientSockE *> *> >::_List_val<CMyBucket<CClientSockE *> *,std::allocator<CMyBucket<CClientSockE *> *> >, COMDAT
; _this$ = ecx

; 82   : 		{	// construct base, and allocator from _Al

  00000	8b c1		 mov	 eax, ecx

; 83   : 		}

  00002	c2 04 00	 ret	 4
??0?$_List_val@PAV?$CMyBucket@PAVCClientSockE@@@@V?$allocator@PAV?$CMyBucket@PAVCClientSockE@@@@@std@@@std@@IAE@V?$allocator@PAV?$CMyBucket@PAVCClientSockE@@@@@1@@Z ENDP ; std::_List_val<CMyBucket<CClientSockE *> *,std::allocator<CMyBucket<CClientSockE *> *> >::_List_val<CMyBucket<CClientSockE *> *,std::allocator<CMyBucket<CClientSockE *> *> >
_TEXT	ENDS
PUBLIC	??1?$basic_string@DU?$char_traits@D@std@@V?$allocator@D@2@@std@@QAE@XZ ; std::basic_string<char,std::char_traits<char>,std::allocator<char> >::~basic_string<char,std::char_traits<char>,std::allocator<char> >
; Function compile flags: /Ogty
; File c:\program files\microsoft visual studio .net 2003\vc7\include\xstring
;	COMDAT ??1?$basic_string@DU?$char_traits@D@std@@V?$allocator@D@2@@std@@QAE@XZ
_TEXT	SEGMENT
??1?$basic_string@DU?$char_traits@D@std@@V?$allocator@D@2@@std@@QAE@XZ PROC NEAR ; std::basic_string<char,std::char_traits<char>,std::allocator<char> >::~basic_string<char,std::char_traits<char>,std::allocator<char> >, COMDAT
; _this$ = ecx

; 456  : 		{	// destroy the string

  00000	56		 push	 esi
  00001	8b f1		 mov	 esi, ecx

; 457  : 		_Tidy(true);

  00003	83 7e 18 10	 cmp	 DWORD PTR [esi+24], 16	; 00000010H
  00007	72 0c		 jb	 SHORT $L157015
  00009	8b 46 04	 mov	 eax, DWORD PTR [esi+4]
  0000c	50		 push	 eax
  0000d	e8 00 00 00 00	 call	 ??3@YAXPAX@Z		; operator delete
  00012	83 c4 04	 add	 esp, 4
$L157015:
  00015	33 c0		 xor	 eax, eax
  00017	c7 46 18 0f 00
	00 00		 mov	 DWORD PTR [esi+24], 15	; 0000000fH
  0001e	89 46 14	 mov	 DWORD PTR [esi+20], eax
  00021	88 46 04	 mov	 BYTE PTR [esi+4], al
  00024	5e		 pop	 esi

; 458  : 		}

  00025	c3		 ret	 0
??1?$basic_string@DU?$char_traits@D@std@@V?$allocator@D@2@@std@@QAE@XZ ENDP ; std::basic_string<char,std::char_traits<char>,std::allocator<char> >::~basic_string<char,std::char_traits<char>,std::allocator<char> >
_TEXT	ENDS
PUBLIC	?_Grow@?$basic_string@DU?$char_traits@D@std@@V?$allocator@D@2@@std@@IAE_NI_N@Z ; std::basic_string<char,std::char_traits<char>,std::allocator<char> >::_Grow
EXTRN	?_Xlen@_String_base@std@@QBEXXZ:NEAR		; std::_String_base::_Xlen
; Function compile flags: /Ogty
;	COMDAT ?_Grow@?$basic_string@DU?$char_traits@D@std@@V?$allocator@D@2@@std@@IAE_NI_N@Z
_TEXT	SEGMENT
__Newsize$ = 8						; size = 4
__Trim$ = 12						; size = 1
?_Grow@?$basic_string@DU?$char_traits@D@std@@V?$allocator@D@2@@std@@IAE_NI_N@Z PROC NEAR ; std::basic_string<char,std::char_traits<char>,std::allocator<char> >::_Grow, COMDAT
; _this$ = ecx

