; Listing generated by Microsoft (R) Optimizing Compiler Version 13.10.3077 

	TITLE	\Offi SRC_real\Offi src!\_Network\Net\Src\serversocke.cpp
	.386P
include listing.inc
if @Version gt 510
.model FLAT
else
_TEXT	SEGMENT PARA USE32 PUBLIC 'CODE'
_TEXT	ENDS
_DATA	SEGMENT DWORD USE32 PUBLIC 'DATA'
_DATA	ENDS
CONST	SEGMENT DWORD USE32 PUBLIC 'CONST'
CONST	ENDS
_BSS	SEGMENT DWORD USE32 PUBLIC 'BSS'
_BSS	ENDS
$$SYMBOLS	SEGMENT BYTE USE32 'DEBSYM'
$$SYMBOLS	ENDS
$$TYPES	SEGMENT BYTE USE32 'DEBTYP'
$$TYPES	ENDS
_TLS	SEGMENT DWORD USE32 PUBLIC 'TLS'
_TLS	ENDS
;	COMDAT ??_C@_0M@PCENNPGA@?$CFd?4?$CFd?4?$CFd?4?$CFd?$AA@
CONST	SEGMENT DWORD USE32 PUBLIC 'CONST'
CONST	ENDS
;	COMDAT ??_C@_09PKKCPLIP@bad?5alloc?$AA@
CONST	SEGMENT DWORD USE32 PUBLIC 'CONST'
CONST	ENDS
;	COMDAT ??_C@_0BB@MOGOBHAF@list?$DMT?$DO?5too?5long?$AA@
CONST	SEGMENT DWORD USE32 PUBLIC 'CONST'
CONST	ENDS
;	COMDAT ??_C@_0CB@EHMHDGIK@?4?4?2_network?2misc?2include?2mymap?4h@
CONST	SEGMENT DWORD USE32 PUBLIC 'CONST'
CONST	ENDS
;	COMDAT ??_C@_06OJLEAOEG@?$CFs?0?5?$CFd?$AA@
CONST	SEGMENT DWORD USE32 PUBLIC 'CONST'
CONST	ENDS
;	COMDAT ??_C@_09ICHMLBIJ@mymap?4txt?$AA@
CONST	SEGMENT DWORD USE32 PUBLIC 'CONST'
CONST	ENDS
;	COMDAT ??_C@_0BC@KBDMBKEH@deque?$DMT?$DO?5too?5long?$AA@
CONST	SEGMENT DWORD USE32 PUBLIC 'CONST'
CONST	ENDS
xdata$x	SEGMENT DWORD USE32 PUBLIC 'CONST'
xdata$x	ENDS
;	COMDAT ?GetPeerAddr@CSock@@UAEKK@Z
_TEXT	SEGMENT PARA USE32 PUBLIC 'CODE'
_TEXT	ENDS
;	COMDAT ?GetHandle@CSock@@QAEIXZ
_TEXT	SEGMENT PARA USE32 PUBLIC 'CODE'
_TEXT	ENDS
;	COMDAT ?SetID@CSock@@QAEXK@Z
_TEXT	SEGMENT PARA USE32 PUBLIC 'CODE'
_TEXT	ENDS
;	COMDAT ?SetPeerID@CSock@@QAEXK@Z
_TEXT	SEGMENT PARA USE32 PUBLIC 'CODE'
_TEXT	ENDS
;	COMDAT ?GetPacketSize@CBuffer2@@UAEKPAE@Z
_TEXT	SEGMENT PARA USE32 PUBLIC 'CODE'
_TEXT	ENDS
;	COMDAT ?SetHeader@CBuffer2@@UAEXK@Z
_TEXT	SEGMENT PARA USE32 PUBLIC 'CODE'
_TEXT	ENDS
;	COMDAT ??3CBuffer2@@SAXPAX@Z
_TEXT	SEGMENT PARA USE32 PUBLIC 'CODE'
_TEXT	ENDS
;	COMDAT ??_GCBuffer2@@UAEPAXI@Z
_TEXT	SEGMENT PARA USE32 PUBLIC 'CODE'
_TEXT	ENDS
;	COMDAT ??1CBuffer2@@UAE@XZ
_TEXT	SEGMENT PARA USE32 PUBLIC 'CODE'
_TEXT	ENDS
;	COMDAT ?IsEmpty@CBufferQueue@@QAEHXZ
_TEXT	SEGMENT PARA USE32 PUBLIC 'CODE'
_TEXT	ENDS
;	COMDAT ??2CClientSockE@@SAPAXI@Z
_TEXT	SEGMENT PARA USE32 PUBLIC 'CODE'
_TEXT	ENDS
;	COMDAT ??3CClientSockE@@SAXPAX@Z
_TEXT	SEGMENT PARA USE32 PUBLIC 'CODE'
_TEXT	ENDS
;	COMDAT ?GetListenHandle@CServerSockE@@QAEPAXXZ
_TEXT	SEGMENT PARA USE32 PUBLIC 'CODE'
_TEXT	ENDS
;	COMDAT ?GetCloseHandle@CServerSockE@@QAEPAXXZ
_TEXT	SEGMENT PARA USE32 PUBLIC 'CODE'
_TEXT	ENDS
;	COMDAT ?Get@CServerSockE@@UAEPAVCSock@@I@Z
_TEXT	SEGMENT PARA USE32 PUBLIC 'CODE'
_TEXT	ENDS
;	COMDAT ??0CServerSockE@@QAE@W4BUFFER_TYPE@@@Z
_TEXT	SEGMENT PARA USE32 PUBLIC 'CODE'
_TEXT	ENDS
;	COMDAT ??_GCServerSockE@@UAEPAXI@Z
_TEXT	SEGMENT PARA USE32 PUBLIC 'CODE'
_TEXT	ENDS
;	COMDAT ??1CServerSockE@@UAE@XZ
_TEXT	SEGMENT PARA USE32 PUBLIC 'CODE'
_TEXT	ENDS
;	COMDAT ?Listen@CServerSockE@@QAEHXZ
_TEXT	SEGMENT PARA USE32 PUBLIC 'CODE'
_TEXT	ENDS
;	COMDAT ?StartServer@CServerSockE@@QAEHPAVCDPSock@@@Z
_TEXT	SEGMENT PARA USE32 PUBLIC 'CODE'
_TEXT	ENDS
;	COMDAT ?Close@CServerSockE@@UAEXXZ
_TEXT	SEGMENT PARA USE32 PUBLIC 'CODE'
_TEXT	ENDS
;	COMDAT ?AddChild@CServerSockE@@QAEPAVCClientSockE@@I@Z
_TEXT	SEGMENT PARA USE32 PUBLIC 'CODE'
_TEXT	ENDS
;	COMDAT ?CloseChild@CServerSockE@@QAEHI@Z
_TEXT	SEGMENT PARA USE32 PUBLIC 'CODE'
_TEXT	ENDS
;	COMDAT ?CloseAllChild@CServerSockE@@QAEXXZ
_TEXT	SEGMENT PARA USE32 PUBLIC 'CODE'
_TEXT	ENDS
;	COMDAT ?Send@CServerSockE@@UAEXPADKK@Z
_TEXT	SEGMENT PARA USE32 PUBLIC 'CODE'
_TEXT	ENDS
;	COMDAT ?CloseConnection@CServerSockE@@UAEHI@Z
_TEXT	SEGMENT PARA USE32 PUBLIC 'CODE'
_TEXT	ENDS
;	COMDAT ?Shutdown@CServerSockE@@UAEHI@Z
_TEXT	SEGMENT PARA USE32 PUBLIC 'CODE'
_TEXT	ENDS
;	COMDAT ?GetPeerAddr@CServerSockE@@UAEJKPAXPAK@Z
_TEXT	SEGMENT PARA USE32 PUBLIC 'CODE'
_TEXT	ENDS
;	COMDAT ?ListenThreadE@@YGIPAX@Z
_TEXT	SEGMENT PARA USE32 PUBLIC 'CODE'
_TEXT	ENDS
;	COMDAT ?Alloc@?$MemPooler@VCBuffer@@@@QAEPAVCBuffer@@XZ
_TEXT	SEGMENT PARA USE32 PUBLIC 'CODE'
_TEXT	ENDS
;	COMDAT ?Free@?$MemPooler@VCBuffer@@@@QAEHPAVCBuffer@@@Z
_TEXT	SEGMENT PARA USE32 PUBLIC 'CODE'
_TEXT	ENDS
;	COMDAT ?Alloc@?$MemPooler@VCBuffer2@@@@QAEPAVCBuffer2@@XZ
_TEXT	SEGMENT PARA USE32 PUBLIC 'CODE'
_TEXT	ENDS
;	COMDAT ?Free@?$MemPooler@VCBuffer2@@@@QAEHPAVCBuffer2@@@Z
_TEXT	SEGMENT PARA USE32 PUBLIC 'CODE'
_TEXT	ENDS
;	COMDAT ?Alloc@?$MemPooler@VCClientSock@@@@QAEPAVCClientSock@@XZ
_TEXT	SEGMENT PARA USE32 PUBLIC 'CODE'
_TEXT	ENDS
;	COMDAT ?Free@?$MemPooler@VCClientSock@@@@QAEHPAVCClientSock@@@Z
_TEXT	SEGMENT PARA USE32 PUBLIC 'CODE'
_TEXT	ENDS
;	COMDAT ?Alloc@?$MemPooler@VCClientSockE@@@@QAEPAVCClientSockE@@XZ
_TEXT	SEGMENT PARA USE32 PUBLIC 'CODE'
_TEXT	ENDS
;	COMDAT ?Free@?$MemPooler@VCClientSockE@@@@QAEHPAVCClientSockE@@@Z
_TEXT	SEGMENT PARA USE32 PUBLIC 'CODE'
_TEXT	ENDS
;	COMDAT ?Create@?$MemPooler@VCBuffer@@@@IAEXXZ
_TEXT	SEGMENT PARA USE32 PUBLIC 'CODE'
_TEXT	ENDS
;	COMDAT ?Create@?$MemPooler@VCBuffer2@@@@IAEXXZ
_TEXT	SEGMENT PARA USE32 PUBLIC 'CODE'
_TEXT	ENDS
;	COMDAT ?Create@?$MemPooler@VCClientSock@@@@IAEXXZ
_TEXT	SEGMENT PARA USE32 PUBLIC 'CODE'
_TEXT	ENDS
;	COMDAT ?Create@?$MemPooler@VCClientSockE@@@@IAEXXZ
_TEXT	SEGMENT PARA USE32 PUBLIC 'CODE'
_TEXT	ENDS
;	COMDAT ?push_back@?$list@PAXV?$allocator@PAX@std@@@std@@QAEXABQAX@Z
_TEXT	SEGMENT PARA USE32 PUBLIC 'CODE'
_TEXT	ENDS
;	COMDAT ?end@?$list@PAXV?$allocator@PAX@std@@@std@@QAE?AViterator@12@XZ
_TEXT	SEGMENT PARA USE32 PUBLIC 'CODE'
_TEXT	ENDS
;	COMDAT ?_Insert@?$list@PAXV?$allocator@PAX@std@@@std@@QAEXViterator@12@ABQAX@Z
_TEXT	SEGMENT PARA USE32 PUBLIC 'CODE'
_TEXT	ENDS
;	COMDAT ?_Nextnode@?$list@PAXV?$allocator@PAX@std@@@std@@KAAAPAU_Node@?$_List_nod@PAXV?$allocator@PAX@std@@@2@PAU342@@Z
_TEXT	SEGMENT PARA USE32 PUBLIC 'CODE'
_TEXT	ENDS
;	COMDAT ?_Prevnode@?$list@PAXV?$allocator@PAX@std@@@std@@KAAAPAU_Node@?$_List_nod@PAXV?$allocator@PAX@std@@@2@PAU342@@Z
_TEXT	SEGMENT PARA USE32 PUBLIC 'CODE'
_TEXT	ENDS
;	COMDAT ?_Buynode@?$list@PAXV?$allocator@PAX@std@@@std@@IAEPAU_Node@?$_List_nod@PAXV?$allocator@PAX@std@@@2@PAU342@0ABQAX@Z
_TEXT	SEGMENT PARA USE32 PUBLIC 'CODE'
_TEXT	ENDS
;	COMDAT ?_Incsize@?$list@PAXV?$allocator@PAX@std@@@std@@IAEXI@Z
_TEXT	SEGMENT PARA USE32 PUBLIC 'CODE'
_TEXT	ENDS
;	COMDAT ??0iterator@?$list@PAXV?$allocator@PAX@std@@@std@@QAE@PAU_Node@?$_List_nod@PAXV?$allocator@PAX@std@@@2@@Z
_TEXT	SEGMENT PARA USE32 PUBLIC 'CODE'
_TEXT	ENDS
;	COMDAT ?_Mynode@const_iterator@?$list@PAXV?$allocator@PAX@std@@@std@@QBEPAU_Node@?$_List_nod@PAXV?$allocator@PAX@std@@@3@XZ
_TEXT	SEGMENT PARA USE32 PUBLIC 'CODE'
_TEXT	ENDS
;	COMDAT ??0length_error@std@@QAE@ABV01@@Z
_TEXT	SEGMENT PARA USE32 PUBLIC 'CODE'
_TEXT	ENDS
;	COMDAT ??0logic_error@std@@QAE@ABV01@@Z
_TEXT	SEGMENT PARA USE32 PUBLIC 'CODE'
_TEXT	ENDS
;	COMDAT ??0?$basic_string@DU?$char_traits@D@std@@V?$allocator@D@2@@std@@QAE@PBD@Z
_TEXT	SEGMENT PARA USE32 PUBLIC 'CODE'
_TEXT	ENDS
;	COMDAT ?max_size@?$list@PAXV?$allocator@PAX@std@@@std@@QBEIXZ
_TEXT	SEGMENT PARA USE32 PUBLIC 'CODE'
_TEXT	ENDS
;	COMDAT ?deallocate@?$allocator@U_Node@?$_List_nod@PAXV?$allocator@PAX@std@@@std@@@std@@QAEXPAU_Node@?$_List_nod@PAXV?$allocator@PAX@std@@@2@I@Z
_TEXT	SEGMENT PARA USE32 PUBLIC 'CODE'
_TEXT	ENDS
;	COMDAT ?allocate@?$allocator@U_Node@?$_List_nod@PAXV?$allocator@PAX@std@@@std@@@std@@QAEPAU_Node@?$_List_nod@PAXV?$allocator@PAX@std@@@2@I@Z
_TEXT	SEGMENT PARA USE32 PUBLIC 'CODE'
_TEXT	ENDS
;	COMDAT ??0const_iterator@?$list@PAXV?$allocator@PAX@std@@@std@@QAE@PAU_Node@?$_List_nod@PAXV?$allocator@PAX@std@@@2@@Z
_TEXT	SEGMENT PARA USE32 PUBLIC 'CODE'
_TEXT	ENDS
;	COMDAT ??0_Node@?$_List_nod@PAXV?$allocator@PAX@std@@@std@@QAE@PAU012@0ABQAX@Z
_TEXT	SEGMENT PARA USE32 PUBLIC 'CODE'
_TEXT	ENDS
;	COMDAT ??0?$allocator@D@std@@QAE@XZ
_TEXT	SEGMENT PARA USE32 PUBLIC 'CODE'
_TEXT	ENDS
;	COMDAT ?max_size@?$allocator@PAX@std@@QBEIXZ
_TEXT	SEGMENT PARA USE32 PUBLIC 'CODE'
_TEXT	ENDS
;	COMDAT ??1?$CMyPool@V?$CMyBucket@PAVCClientSock@@@@@@UAE@XZ
_TEXT	SEGMENT PARA USE32 PUBLIC 'CODE'
_TEXT	ENDS
;	COMDAT ??1?$CMyMap@PAVCClientSock@@@@UAE@XZ
_TEXT	SEGMENT PARA USE32 PUBLIC 'CODE'
_TEXT	ENDS
;	COMDAT ?Lookup@?$CMyMap@PAVCClientSock@@@@QAEHKAAPAVCClientSock@@@Z
_TEXT	SEGMENT PARA USE32 PUBLIC 'CODE'
_TEXT	ENDS
;	COMDAT ??1?$CMyPool@V?$CMyBucket@PAVCClientSockE@@@@@@UAE@XZ
_TEXT	SEGMENT PARA USE32 PUBLIC 'CODE'
_TEXT	ENDS
;	COMDAT ??0?$CMyMap@PAVCClientSockE@@@@QAE@XZ
_TEXT	SEGMENT PARA USE32 PUBLIC 'CODE'
_TEXT	ENDS
;	COMDAT ??1?$CMyMap@PAVCClientSockE@@@@UAE@XZ
_TEXT	SEGMENT PARA USE32 PUBLIC 'CODE'
_TEXT	ENDS
;	COMDAT ?SetSize@?$CMyMap@PAVCClientSockE@@@@QAEXIII@Z
_TEXT	SEGMENT PARA USE32 PUBLIC 'CODE'
_TEXT	ENDS
;	COMDAT ?Lookup@?$CMyMap@PAVCClientSockE@@@@QAEHKAAPAVCClientSockE@@@Z
_TEXT	SEGMENT PARA USE32 PUBLIC 'CODE'
_TEXT	ENDS
;	COMDAT ?SetAt@?$CMyMap@PAVCClientSockE@@@@QAEXKABQAVCClientSockE@@@Z
_TEXT	SEGMENT PARA USE32 PUBLIC 'CODE'
_TEXT	ENDS
;	COMDAT ?RemoveAll@?$CMyMap@PAVCClientSockE@@@@QAEXXZ
_TEXT	SEGMENT PARA USE32 PUBLIC 'CODE'
_TEXT	ENDS
;	COMDAT ?RemoveKey@?$CMyMap@PAVCClientSockE@@@@QAEHK@Z
_TEXT	SEGMENT PARA USE32 PUBLIC 'CODE'
_TEXT	ENDS
;	COMDAT ?GetFirstActive@?$CMyMap@PAVCClientSockE@@@@QAEPAV?$CMyBucket@PAVCClientSockE@@@@XZ
_TEXT	SEGMENT PARA USE32 PUBLIC 'CODE'
_TEXT	ENDS
;	COMDAT ?Lock@?$CMyMap@PAVCClientSockE@@@@QAEXXZ
_TEXT	SEGMENT PARA USE32 PUBLIC 'CODE'
_TEXT	ENDS
;	COMDAT ?Unlock@?$CMyMap@PAVCClientSockE@@@@QAEXXZ
_TEXT	SEGMENT PARA USE32 PUBLIC 'CODE'
_TEXT	ENDS
;	COMDAT ??1?$CMyBucket@PAVCClientSockE@@@@UAE@XZ
_TEXT	SEGMENT PARA USE32 PUBLIC 'CODE'
_TEXT	ENDS
;	COMDAT ??$_Allocate@U_Node@?$_List_nod@PAXV?$allocator@PAX@std@@@std@@@std@@YAPAU_Node@?$_List_nod@PAXV?$allocator@PAX@std@@@0@IPAU120@@Z
_TEXT	SEGMENT PARA USE32 PUBLIC 'CODE'
_TEXT	ENDS
;	COMDAT ??_G?$CMyPool@V?$CMyBucket@PAVCClientSock@@@@@@UAEPAXI@Z
_TEXT	SEGMENT PARA USE32 PUBLIC 'CODE'
_TEXT	ENDS
;	COMDAT ??1?$stack@PAV?$CMyBucket@PAVCClientSock@@@@V?$deque@PAV?$CMyBucket@PAVCClientSock@@@@V?$allocator@PAV?$CMyBucket@PAVCClientSock@@@@@std@@@std@@@std@@QAE@XZ
_TEXT	SEGMENT PARA USE32 PUBLIC 'CODE'
_TEXT	ENDS
;	COMDAT ??_G?$CMyMap@PAVCClientSock@@@@UAEPAXI@Z
_TEXT	SEGMENT PARA USE32 PUBLIC 'CODE'
_TEXT	ENDS
;	COMDAT ??_G?$CMyPool@V?$CMyBucket@PAVCClientSockE@@@@@@UAEPAXI@Z
_TEXT	SEGMENT PARA USE32 PUBLIC 'CODE'
_TEXT	ENDS
;	COMDAT ??1?$stack@PAV?$CMyBucket@PAVCClientSockE@@@@V?$deque@PAV?$CMyBucket@PAVCClientSockE@@@@V?$allocator@PAV?$CMyBucket@PAVCClientSockE@@@@@std@@@std@@@std@@QAE@XZ
_TEXT	SEGMENT PARA USE32 PUBLIC 'CODE'
_TEXT	ENDS
;	COMDAT ??_G?$CMyMap@PAVCClientSockE@@@@UAEPAXI@Z
_TEXT	SEGMENT PARA USE32 PUBLIC 'CODE'
_TEXT	ENDS
;	COMDAT ??_E?$CMyBucket@PAVCClientSockE@@@@UAEPAXI@Z
_TEXT	SEGMENT PARA USE32 PUBLIC 'CODE'
_TEXT	ENDS
;	COMDAT ??_G?$CMyBucket@PAVCClientSockE@@@@UAEPAXI@Z
_TEXT	SEGMENT PARA USE32 PUBLIC 'CODE'
_TEXT	ENDS
;	COMDAT ??1?$deque@PAV?$CMyBucket@PAVCClientSock@@@@V?$allocator@PAV?$CMyBucket@PAVCClientSock@@@@@std@@@std@@QAE@XZ
_TEXT	SEGMENT PARA USE32 PUBLIC 'CODE'
_TEXT	ENDS
;	COMDAT ??1?$list@PAV?$CMyBucket@PAVCClientSock@@@@V?$allocator@PAV?$CMyBucket@PAVCClientSock@@@@@std@@@std@@QAE@XZ
_TEXT	SEGMENT PARA USE32 PUBLIC 'CODE'
_TEXT	ENDS
;	COMDAT ??1?$deque@PAV?$CMyBucket@PAVCClientSockE@@@@V?$allocator@PAV?$CMyBucket@PAVCClientSockE@@@@@std@@@std@@QAE@XZ
_TEXT	SEGMENT PARA USE32 PUBLIC 'CODE'
_TEXT	ENDS
;	COMDAT ??1?$list@PAV?$CMyBucket@PAVCClientSockE@@@@V?$allocator@PAV?$CMyBucket@PAVCClientSockE@@@@@std@@@std@@QAE@XZ
_TEXT	SEGMENT PARA USE32 PUBLIC 'CODE'
_TEXT	ENDS
;	COMDAT ?_Tidy@?$deque@PAV?$CMyBucket@PAVCClientSock@@@@V?$allocator@PAV?$CMyBucket@PAVCClientSock@@@@@std@@@std@@IAEXXZ
_TEXT	SEGMENT PARA USE32 PUBLIC 'CODE'
_TEXT	ENDS
;	COMDAT ?_Tidy@?$list@PAV?$CMyBucket@PAVCClientSock@@@@V?$allocator@PAV?$CMyBucket@PAVCClientSock@@@@@std@@@std@@IAEXXZ
_TEXT	SEGMENT PARA USE32 PUBLIC 'CODE'
_TEXT	ENDS
;	COMDAT ?_Tidy@?$deque@PAV?$CMyBucket@PAVCClientSockE@@@@V?$allocator@PAV?$CMyBucket@PAVCClientSockE@@@@@std@@@std@@IAEXXZ
_TEXT	SEGMENT PARA USE32 PUBLIC 'CODE'
_TEXT	ENDS
;	COMDAT ?_Tidy@?$list@PAV?$CMyBucket@PAVCClientSockE@@@@V?$allocator@PAV?$CMyBucket@PAVCClientSockE@@@@@std@@@std@@IAEXXZ
_TEXT	SEGMENT PARA USE32 PUBLIC 'CODE'
_TEXT	ENDS
;	COMDAT ?empty@?$deque@PAV?$CMyBucket@PAVCClientSock@@@@V?$allocator@PAV?$CMyBucket@PAVCClientSock@@@@@std@@@std@@QBE_NXZ
_TEXT	SEGMENT PARA USE32 PUBLIC 'CODE'
_TEXT	ENDS
;	COMDAT ?pop_back@?$deque@PAV?$CMyBucket@PAVCClientSock@@@@V?$allocator@PAV?$CMyBucket@PAVCClientSock@@@@@std@@@std@@QAEXXZ
_TEXT	SEGMENT PARA USE32 PUBLIC 'CODE'
_TEXT	ENDS
;	COMDAT ?deallocate@?$allocator@PAV?$CMyBucket@PAVCClientSock@@@@@std@@QAEXPAPAV?$CMyBucket@PAVCClientSock@@@@I@Z
_TEXT	SEGMENT PARA USE32 PUBLIC 'CODE'
_TEXT	ENDS
;	COMDAT ?deallocate@?$allocator@PAPAV?$CMyBucket@PAVCClientSock@@@@@std@@QAEXPAPAPAV?$CMyBucket@PAVCClientSock@@@@I@Z
_TEXT	SEGMENT PARA USE32 PUBLIC 'CODE'
_TEXT	ENDS
;	COMDAT ?destroy@?$allocator@PAPAV?$CMyBucket@PAVCClientSock@@@@@std@@QAEXPAPAPAV?$CMyBucket@PAVCClientSock@@@@@Z
_TEXT	SEGMENT PARA USE32 PUBLIC 'CODE'
_TEXT	ENDS
;	COMDAT ?_Nextnode@?$list@PAV?$CMyBucket@PAVCClientSock@@@@V?$allocator@PAV?$CMyBucket@PAVCClientSock@@@@@std@@@std@@KAAAPAU_Node@?$_List_nod@PAV?$CMyBucket@PAVCClientSock@@@@V?$allocator@PAV?$CMyBucket@PAVCClientSock@@@@@std@@@2@PAU342@@Z
_TEXT	SEGMENT PARA USE32 PUBLIC 'CODE'
_TEXT	ENDS
;	COMDAT ?_Prevnode@?$list@PAV?$CMyBucket@PAVCClientSock@@@@V?$allocator@PAV?$CMyBucket@PAVCClientSock@@@@@std@@@std@@KAAAPAU_Node@?$_List_nod@PAV?$CMyBucket@PAVCClientSock@@@@V?$allocator@PAV?$CMyBucket@PAVCClientSock@@@@@std@@@2@PAU342@@Z
_TEXT	SEGMENT PARA USE32 PUBLIC 'CODE'
_TEXT	ENDS
;	COMDAT ?clear@?$list@PAV?$CMyBucket@PAVCClientSock@@@@V?$allocator@PAV?$CMyBucket@PAVCClientSock@@@@@std@@@std@@QAEXXZ
_TEXT	SEGMENT PARA USE32 PUBLIC 'CODE'
_TEXT	ENDS
;	COMDAT ?deallocate@?$allocator@U_Node@?$_List_nod@PAV?$CMyBucket@PAVCClientSock@@@@V?$allocator@PAV?$CMyBucket@PAVCClientSock@@@@@std@@@std@@@std@@QAEXPAU_Node@?$_List_nod@PAV?$CMyBucket@PAVCClientSock@@@@V?$allocator@PAV?$CMyBucket@PAVCClientSock@@@@@std@@@2@I@Z
_TEXT	SEGMENT PARA USE32 PUBLIC 'CODE'
_TEXT	ENDS
;	COMDAT ?destroy@?$allocator@PAU_Node@?$_List_nod@PAV?$CMyBucket@PAVCClientSock@@@@V?$allocator@PAV?$CMyBucket@PAVCClientSock@@@@@std@@@std@@@std@@QAEXPAPAU_Node@?$_List_nod@PAV?$CMyBucket@PAVCClientSock@@@@V?$allocator@PAV?$CMyBucket@PAVCClientSock@@@@@std@@@2@@Z
_TEXT	SEGMENT PARA USE32 PUBLIC 'CODE'
_TEXT	ENDS
;	COMDAT ?empty@?$deque@PAV?$CMyBucket@PAVCClientSockE@@@@V?$allocator@PAV?$CMyBucket@PAVCClientSockE@@@@@std@@@std@@QBE_NXZ
_TEXT	SEGMENT PARA USE32 PUBLIC 'CODE'
_TEXT	ENDS
;	COMDAT ?pop_back@?$deque@PAV?$CMyBucket@PAVCClientSockE@@@@V?$allocator@PAV?$CMyBucket@PAVCClientSockE@@@@@std@@@std@@QAEXXZ
_TEXT	SEGMENT PARA USE32 PUBLIC 'CODE'
_TEXT	ENDS
;	COMDAT ?deallocate@?$allocator@PAV?$CMyBucket@PAVCClientSockE@@@@@std@@QAEXPAPAV?$CMyBucket@PAVCClientSockE@@@@I@Z
_TEXT	SEGMENT PARA USE32 PUBLIC 'CODE'
_TEXT	ENDS
;	COMDAT ?deallocate@?$allocator@PAPAV?$CMyBucket@PAVCClientSockE@@@@@std@@QAEXPAPAPAV?$CMyBucket@PAVCClientSockE@@@@I@Z
_TEXT	SEGMENT PARA USE32 PUBLIC 'CODE'
_TEXT	ENDS
;	COMDAT ?destroy@?$allocator@PAPAV?$CMyBucket@PAVCClientSockE@@@@@std@@QAEXPAPAPAV?$CMyBucket@PAVCClientSockE@@@@@Z
_TEXT	SEGMENT PARA USE32 PUBLIC 'CODE'
_TEXT	ENDS
;	COMDAT ?_Nextnode@?$list@PAV?$CMyBucket@PAVCClientSockE@@@@V?$allocator@PAV?$CMyBucket@PAVCClientSockE@@@@@std@@@std@@KAAAPAU_Node@?$_List_nod@PAV?$CMyBucket@PAVCClientSockE@@@@V?$allocator@PAV?$CMyBucket@PAVCClientSockE@@@@@std@@@2@PAU342@@Z
_TEXT	SEGMENT PARA USE32 PUBLIC 'CODE'
_TEXT	ENDS
;	COMDAT ?_Prevnode@?$list@PAV?$CMyBucket@PAVCClientSockE@@@@V?$allocator@PAV?$CMyBucket@PAVCClientSockE@@@@@std@@@std@@KAAAPAU_Node@?$_List_nod@PAV?$CMyBucket@PAVCClientSockE@@@@V?$allocator@PAV?$CMyBucket@PAVCClientSockE@@@@@std@@@2@PAU342@@Z
_TEXT	SEGMENT PARA USE32 PUBLIC 'CODE'
_TEXT	ENDS
;	COMDAT ?clear@?$list@PAV?$CMyBucket@PAVCClientSockE@@@@V?$allocator@PAV?$CMyBucket@PAVCClientSockE@@@@@std@@@std@@QAEXXZ
_TEXT	SEGMENT PARA USE32 PUBLIC 'CODE'
_TEXT	ENDS
;	COMDAT ?deallocate@?$allocator@U_Node@?$_List_nod@PAV?$CMyBucket@PAVCClientSockE@@@@V?$allocator@PAV?$CMyBucket@PAVCClientSockE@@@@@std@@@std@@@std@@QAEXPAU_Node@?$_List_nod@PAV?$CMyBucket@PAVCClientSockE@@@@V?$allocator@PAV?$CMyBucket@PAVCClientSockE@@@@@std@@@2@I@Z
_TEXT	SEGMENT PARA USE32 PUBLIC 'CODE'
_TEXT	ENDS
;	COMDAT ?destroy@?$allocator@PAU_Node@?$_List_nod@PAV?$CMyBucket@PAVCClientSockE@@@@V?$allocator@PAV?$CMyBucket@PAVCClientSockE@@@@@std@@@std@@@std@@QAEXPAPAU_Node@?$_List_nod@PAV?$CMyBucket@PAVCClientSockE@@@@V?$allocator@PAV?$CMyBucket@PAVCClientSockE@@@@@std@@@2@@Z
_TEXT	SEGMENT PARA USE32 PUBLIC 'CODE'
_TEXT	ENDS
;	COMDAT ?destroy@?$allocator@PAV?$CMyBucket@PAVCClientSock@@@@@std@@QAEXPAPAV?$CMyBucket@PAVCClientSock@@@@@Z
_TEXT	SEGMENT PARA USE32 PUBLIC 'CODE'
_TEXT	ENDS
;	COMDAT ?destroy@?$allocator@U_Node@?$_List_nod@PAV?$CMyBucket@PAVCClientSock@@@@V?$allocator@PAV?$CMyBucket@PAVCClientSock@@@@@std@@@std@@@std@@QAEXPAU_Node@?$_List_nod@PAV?$CMyBucket@PAVCClientSock@@@@V?$allocator@PAV?$CMyBucket@PAVCClientSock@@@@@std@@@2@@Z
_TEXT	SEGMENT PARA USE32 PUBLIC 'CODE'
_TEXT	ENDS
;	COMDAT ?destroy@?$allocator@PAV?$CMyBucket@PAVCClientSockE@@@@@std@@QAEXPAPAV?$CMyBucket@PAVCClientSockE@@@@@Z
_TEXT	SEGMENT PARA USE32 PUBLIC 'CODE'
_TEXT	ENDS
;	COMDAT ?destroy@?$allocator@U_Node@?$_List_nod@PAV?$CMyBucket@PAVCClientSockE@@@@V?$allocator@PAV?$CMyBucket@PAVCClientSockE@@@@@std@@@std@@@std@@QAEXPAU_Node@?$_List_nod@PAV?$CMyBucket@PAVCClientSockE@@@@V?$allocator@PAV?$CMyBucket@PAVCClientSockE@@@@@std@@@2@@Z
_TEXT	SEGMENT PARA USE32 PUBLIC 'CODE'
_TEXT	ENDS
;	COMDAT ?Clear@?$CMyPool@V?$CMyBucket@PAVCClientSock@@@@@@QAEXXZ
_TEXT	SEGMENT PARA USE32 PUBLIC 'CODE'
_TEXT	ENDS
;	COMDAT ??1?$CMyBucket@PAVCClientSock@@@@UAE@XZ
_TEXT	SEGMENT PARA USE32 PUBLIC 'CODE'
_TEXT	ENDS
;	COMDAT ?IsEqual@?$CMyBucket@PAVCClientSock@@@@QAEHK@Z
_TEXT	SEGMENT PARA USE32 PUBLIC 'CODE'
_TEXT	ENDS
;	COMDAT ??0?$CMyPool@V?$CMyBucket@PAVCClientSockE@@@@@@QAE@XZ
_TEXT	SEGMENT PARA USE32 PUBLIC 'CODE'
_TEXT	ENDS
;	COMDAT ?Clear@?$CMyPool@V?$CMyBucket@PAVCClientSockE@@@@@@QAEXXZ
_TEXT	SEGMENT PARA USE32 PUBLIC 'CODE'
_TEXT	ENDS
;	COMDAT ?SetSize@?$CMyPool@V?$CMyBucket@PAVCClientSockE@@@@@@QAEXII@Z
_TEXT	SEGMENT PARA USE32 PUBLIC 'CODE'
_TEXT	ENDS
;	COMDAT ?Pop@?$CMyPool@V?$CMyBucket@PAVCClientSockE@@@@@@QAEPAV?$CMyBucket@PAVCClientSockE@@@@XZ
_TEXT	SEGMENT PARA USE32 PUBLIC 'CODE'
_TEXT	ENDS
;	COMDAT ?Push@?$CMyPool@V?$CMyBucket@PAVCClientSockE@@@@@@QAEXPAV?$CMyBucket@PAVCClientSockE@@@@@Z
_TEXT	SEGMENT PARA USE32 PUBLIC 'CODE'
_TEXT	ENDS
;	COMDAT ?AddItToActiveList@?$CMyMap@PAVCClientSockE@@@@QAEXPAV?$CMyBucket@PAVCClientSockE@@@@@Z
_TEXT	SEGMENT PARA USE32 PUBLIC 'CODE'
_TEXT	ENDS
;	COMDAT ?RemoveItFromActiveList@?$CMyMap@PAVCClientSockE@@@@QAEXPAV?$CMyBucket@PAVCClientSockE@@@@@Z
_TEXT	SEGMENT PARA USE32 PUBLIC 'CODE'
_TEXT	ENDS
;	COMDAT ??0?$CMyBucket@PAVCClientSockE@@@@QAE@XZ
_TEXT	SEGMENT PARA USE32 PUBLIC 'CODE'
_TEXT	ENDS
;	COMDAT ?Empty@?$CMyBucket@PAVCClientSockE@@@@QAEXXZ
_TEXT	SEGMENT PARA USE32 PUBLIC 'CODE'
_TEXT	ENDS
;	COMDAT ?IsEqual@?$CMyBucket@PAVCClientSockE@@@@QAEHK@Z
_TEXT	SEGMENT PARA USE32 PUBLIC 'CODE'
_TEXT	ENDS
;	COMDAT ?IsEmpty@?$CMyBucket@PAVCClientSockE@@@@QAEHXZ
_TEXT	SEGMENT PARA USE32 PUBLIC 'CODE'
_TEXT	ENDS
;	COMDAT ??$_Destroy@PAPAV?$CMyBucket@PAVCClientSock@@@@@std@@YAXPAPAPAV?$CMyBucket@PAVCClientSock@@@@@Z
_TEXT	SEGMENT PARA USE32 PUBLIC 'CODE'
_TEXT	ENDS
;	COMDAT ??$_Destroy@PAU_Node@?$_List_nod@PAV?$CMyBucket@PAVCClientSock@@@@V?$allocator@PAV?$CMyBucket@PAVCClientSock@@@@@std@@@std@@@std@@YAXPAPAU_Node@?$_List_nod@PAV?$CMyBucket@PAVCClientSock@@@@V?$allocator@PAV?$CMyBucket@PAVCClientSock@@@@@std@@@0@@Z
_TEXT	SEGMENT PARA USE32 PUBLIC 'CODE'
_TEXT	ENDS
;	COMDAT ??$_Destroy@PAPAV?$CMyBucket@PAVCClientSockE@@@@@std@@YAXPAPAPAV?$CMyBucket@PAVCClientSockE@@@@@Z
_TEXT	SEGMENT PARA USE32 PUBLIC 'CODE'
_TEXT	ENDS
;	COMDAT ??$_Destroy@PAU_Node@?$_List_nod@PAV?$CMyBucket@PAVCClientSockE@@@@V?$allocator@PAV?$CMyBucket@PAVCClientSockE@@@@@std@@@std@@@std@@YAXPAPAU_Node@?$_List_nod@PAV?$CMyBucket@PAVCClientSockE@@@@V?$allocator@PAV?$CMyBucket@PAVCClientSockE@@@@@std@@@0@@Z
_TEXT	SEGMENT PARA USE32 PUBLIC 'CODE'
_TEXT	ENDS
;	COMDAT ??$_Destroy@PAV?$CMyBucket@PAVCClientSock@@@@@std@@YAXPAPAV?$CMyBucket@PAVCClientSock@@@@@Z
_TEXT	SEGMENT PARA USE32 PUBLIC 'CODE'
_TEXT	ENDS
;	COMDAT ??$_Destroy@U_Node@?$_List_nod@PAV?$CMyBucket@PAVCClientSock@@@@V?$allocator@PAV?$CMyBucket@PAVCClientSock@@@@@std@@@std@@@std@@YAXPAU_Node@?$_List_nod@PAV?$CMyBucket@PAVCClientSock@@@@V?$allocator@PAV?$CMyBucket@PAVCClientSock@@@@@std@@@0@@Z
_TEXT	SEGMENT PARA USE32 PUBLIC 'CODE'
_TEXT	ENDS
;	COMDAT ??$_Destroy@PAV?$CMyBucket@PAVCClientSockE@@@@@std@@YAXPAPAV?$CMyBucket@PAVCClientSockE@@@@@Z
_TEXT	SEGMENT PARA USE32 PUBLIC 'CODE'
_TEXT	ENDS
;	COMDAT ??$_Destroy@U_Node@?$_List_nod@PAV?$CMyBucket@PAVCClientSockE@@@@V?$allocator@PAV?$CMyBucket@PAVCClientSockE@@@@@std@@@std@@@std@@YAXPAU_Node@?$_List_nod@PAV?$CMyBucket@PAVCClientSockE@@@@V?$allocator@PAV?$CMyBucket@PAVCClientSockE@@@@@std@@@0@@Z
_TEXT	SEGMENT PARA USE32 PUBLIC 'CODE'
_TEXT	ENDS
;	COMDAT ??_G?$CMyBucket@PAVCClientSock@@@@UAEPAXI@Z
_TEXT	SEGMENT PARA USE32 PUBLIC 'CODE'
_TEXT	ENDS
;	COMDAT ?empty@?$stack@PAV?$CMyBucket@PAVCClientSock@@@@V?$deque@PAV?$CMyBucket@PAVCClientSock@@@@V?$allocator@PAV?$CMyBucket@PAVCClientSock@@@@@std@@@std@@@std@@QBE_NXZ
_TEXT	SEGMENT PARA USE32 PUBLIC 'CODE'
_TEXT	ENDS
;	COMDAT ?pop@?$stack@PAV?$CMyBucket@PAVCClientSock@@@@V?$deque@PAV?$CMyBucket@PAVCClientSock@@@@V?$allocator@PAV?$CMyBucket@PAVCClientSock@@@@@std@@@std@@@std@@QAEXXZ
_TEXT	SEGMENT PARA USE32 PUBLIC 'CODE'
_TEXT	ENDS
;	COMDAT ?begin@?$list@PAV?$CMyBucket@PAVCClientSock@@@@V?$allocator@PAV?$CMyBucket@PAVCClientSock@@@@@std@@@std@@QAE?AViterator@12@XZ
_TEXT	SEGMENT PARA USE32 PUBLIC 'CODE'
_TEXT	ENDS
;	COMDAT ?end@?$list@PAV?$CMyBucket@PAVCClientSock@@@@V?$allocator@PAV?$CMyBucket@PAVCClientSock@@@@@std@@@std@@QAE?AViterator@12@XZ
_TEXT	SEGMENT PARA USE32 PUBLIC 'CODE'
_TEXT	ENDS
;	COMDAT ??0?$stack@PAV?$CMyBucket@PAVCClientSockE@@@@V?$deque@PAV?$CMyBucket@PAVCClientSockE@@@@V?$allocator@PAV?$CMyBucket@PAVCClientSockE@@@@@std@@@std@@@std@@QAE@XZ
_TEXT	SEGMENT PARA USE32 PUBLIC 'CODE'
_TEXT	ENDS
;	COMDAT ?empty@?$stack@PAV?$CMyBucket@PAVCClientSockE@@@@V?$deque@PAV?$CMyBucket@PAVCClientSockE@@@@V?$allocator@PAV?$CMyBucket@PAVCClientSockE@@@@@std@@@std@@@std@@QBE_NXZ
_TEXT	SEGMENT PARA USE32 PUBLIC 'CODE'
_TEXT	ENDS
;	COMDAT ?top@?$stack@PAV?$CMyBucket@PAVCClientSockE@@@@V?$deque@PAV?$CMyBucket@PAVCClientSockE@@@@V?$allocator@PAV?$CMyBucket@PAVCClientSockE@@@@@std@@@std@@@std@@QAEAAPAV?$CMyBucket@PAVCClientSockE@@@@XZ
_TEXT	SEGMENT PARA USE32 PUBLIC 'CODE'
_TEXT	ENDS
;	COMDAT ?push@?$stack@PAV?$CMyBucket@PAVCClientSockE@@@@V?$deque@PAV?$CMyBucket@PAVCClientSockE@@@@V?$allocator@PAV?$CMyBucket@PAVCClientSockE@@@@@std@@@std@@@std@@QAEXABQAV?$CMyBucket@PAVCClientSockE@@@@@Z
_TEXT	SEGMENT PARA USE32 PUBLIC 'CODE'
_TEXT	ENDS
;	COMDAT ?pop@?$stack@PAV?$CMyBucket@PAVCClientSockE@@@@V?$deque@PAV?$CMyBucket@PAVCClientSockE@@@@V?$allocator@PAV?$CMyBucket@PAVCClientSockE@@@@@std@@@std@@@std@@QAEXXZ
_TEXT	SEGMENT PARA USE32 PUBLIC 'CODE'
_TEXT	ENDS
;	COMDAT ??0?$list@PAV?$CMyBucket@PAVCClientSockE@@@@V?$allocator@PAV?$CMyBucket@PAVCClientSockE@@@@@std@@@std@@QAE@XZ
_TEXT	SEGMENT PARA USE32 PUBLIC 'CODE'
_TEXT	ENDS
;	COMDAT ?begin@?$list@PAV?$CMyBucket@PAVCClientSockE@@@@V?$allocator@PAV?$CMyBucket@PAVCClientSockE@@@@@std@@@std@@QAE?AViterator@12@XZ
_TEXT	SEGMENT PARA USE32 PUBLIC 'CODE'
_TEXT	ENDS
;	COMDAT ?end@?$list@PAV?$CMyBucket@PAVCClientSockE@@@@V?$allocator@PAV?$CMyBucket@PAVCClientSockE@@@@@std@@@std@@QAE?AViterator@12@XZ
_TEXT	SEGMENT PARA USE32 PUBLIC 'CODE'
_TEXT	ENDS
;	COMDAT ??Diterator@?$list@PAV?$CMyBucket@PAVCClientSock@@@@V?$allocator@PAV?$CMyBucket@PAVCClientSock@@@@@std@@@std@@QBEAAPAV?$CMyBucket@PAVCClientSock@@@@XZ
_TEXT	SEGMENT PARA USE32 PUBLIC 'CODE'
_TEXT	ENDS
;	COMDAT ??Eiterator@?$list@PAV?$CMyBucket@PAVCClientSock@@@@V?$allocator@PAV?$CMyBucket@PAVCClientSock@@@@@std@@@std@@QAEAAV012@XZ
_TEXT	SEGMENT PARA USE32 PUBLIC 'CODE'
_TEXT	ENDS
;	COMDAT ??9const_iterator@?$list@PAV?$CMyBucket@PAVCClientSock@@@@V?$allocator@PAV?$CMyBucket@PAVCClientSock@@@@@std@@@std@@QBE_NABV012@@Z
_TEXT	SEGMENT PARA USE32 PUBLIC 'CODE'
_TEXT	ENDS
;	COMDAT ??Diterator@?$list@PAV?$CMyBucket@PAVCClientSockE@@@@V?$allocator@PAV?$CMyBucket@PAVCClientSockE@@@@@std@@@std@@QBEAAPAV?$CMyBucket@PAVCClientSockE@@@@XZ
_TEXT	SEGMENT PARA USE32 PUBLIC 'CODE'
_TEXT	ENDS
;	COMDAT ??Eiterator@?$list@PAV?$CMyBucket@PAVCClientSockE@@@@V?$allocator@PAV?$CMyBucket@PAVCClientSockE@@@@@std@@@std@@QAEAAV012@XZ
_TEXT	SEGMENT PARA USE32 PUBLIC 'CODE'
_TEXT	ENDS
;	COMDAT ??9const_iterator@?$list@PAV?$CMyBucket@PAVCClientSockE@@@@V?$allocator@PAV?$CMyBucket@PAVCClientSockE@@@@@std@@@std@@QBE_NABV012@@Z
_TEXT	SEGMENT PARA USE32 PUBLIC 'CODE'
_TEXT	ENDS
;	COMDAT ??0?$deque@PAV?$CMyBucket@PAVCClientSockE@@@@V?$allocator@PAV?$CMyBucket@PAVCClientSockE@@@@@std@@@std@@QAE@XZ
_TEXT	SEGMENT PARA USE32 PUBLIC 'CODE'
_TEXT	ENDS
;	COMDAT ?back@?$deque@PAV?$CMyBucket@PAVCClientSockE@@@@V?$allocator@PAV?$CMyBucket@PAVCClientSockE@@@@@std@@@std@@QAEAAPAV?$CMyBucket@PAVCClientSockE@@@@XZ
_TEXT	SEGMENT PARA USE32 PUBLIC 'CODE'
_TEXT	ENDS
;	COMDAT ?push_back@?$deque@PAV?$CMyBucket@PAVCClientSockE@@@@V?$allocator@PAV?$CMyBucket@PAVCClientSockE@@@@@std@@@std@@QAEXABQAV?$CMyBucket@PAVCClientSockE@@@@@Z
_TEXT	SEGMENT PARA USE32 PUBLIC 'CODE'
_TEXT	ENDS
;	COMDAT ??0?$allocator@PAV?$CMyBucket@PAVCClientSockE@@@@@std@@QAE@XZ
_TEXT	SEGMENT PARA USE32 PUBLIC 'CODE'
_TEXT	ENDS
;	COMDAT ?_Buynode@?$list@PAV?$CMyBucket@PAVCClientSockE@@@@V?$allocator@PAV?$CMyBucket@PAVCClientSockE@@@@@std@@@std@@IAEPAU_Node@?$_List_nod@PAV?$CMyBucket@PAVCClientSockE@@@@V?$allocator@PAV?$CMyBucket@PAVCClientSockE@@@@@std@@@2@XZ
_TEXT	SEGMENT PARA USE32 PUBLIC 'CODE'
_TEXT	ENDS
;	COMDAT ??0?$_List_val@PAV?$CMyBucket@PAVCClientSockE@@@@V?$allocator@PAV?$CMyBucket@PAVCClientSockE@@@@@std@@@std@@IAE@V?$allocator@PAV?$CMyBucket@PAVCClientSockE@@@@@1@@Z
_TEXT	SEGMENT PARA USE32 PUBLIC 'CODE'
_TEXT	ENDS
;	COMDAT ??0iterator@?$list@PAV?$CMyBucket@PAVCClientSock@@@@V?$allocator@PAV?$CMyBucket@PAVCClientSock@@@@@std@@@std@@QAE@PAU_Node@?$_List_nod@PAV?$CMyBucket@PAVCClientSock@@@@V?$allocator@PAV?$CMyBucket@PAVCClientSock@@@@@std@@@2@@Z
_TEXT	SEGMENT PARA USE32 PUBLIC 'CODE'
_TEXT	ENDS
;	COMDAT ??Dconst_iterator@?$list@PAV?$CMyBucket@PAVCClientSock@@@@V?$allocator@PAV?$CMyBucket@PAVCClientSock@@@@@std@@@std@@QBEABQAV?$CMyBucket@PAVCClientSock@@@@XZ
_TEXT	SEGMENT PARA USE32 PUBLIC 'CODE'
_TEXT	ENDS
;	COMDAT ??Econst_iterator@?$list@PAV?$CMyBucket@PAVCClientSock@@@@V?$allocator@PAV?$CMyBucket@PAVCClientSock@@@@@std@@@std@@QAEAAV012@XZ
_TEXT	SEGMENT PARA USE32 PUBLIC 'CODE'
_TEXT	ENDS
;	COMDAT ??8const_iterator@?$list@PAV?$CMyBucket@PAVCClientSock@@@@V?$allocator@PAV?$CMyBucket@PAVCClientSock@@@@@std@@@std@@QBE_NABV012@@Z
_TEXT	SEGMENT PARA USE32 PUBLIC 'CODE'
_TEXT	ENDS
;	COMDAT ??0iterator@?$list@PAV?$CMyBucket@PAVCClientSockE@@@@V?$allocator@PAV?$CMyBucket@PAVCClientSockE@@@@@std@@@std@@QAE@PAU_Node@?$_List_nod@PAV?$CMyBucket@PAVCClientSockE@@@@V?$allocator@PAV?$CMyBucket@PAVCClientSockE@@@@@std@@@2@@Z
_TEXT	SEGMENT PARA USE32 PUBLIC 'CODE'
_TEXT	ENDS
;	COMDAT ??Dconst_iterator@?$list@PAV?$CMyBucket@PAVCClientSockE@@@@V?$allocator@PAV?$CMyBucket@PAVCClientSockE@@@@@std@@@std@@QBEABQAV?$CMyBucket@PAVCClientSockE@@@@XZ
_TEXT	SEGMENT PARA USE32 PUBLIC 'CODE'
_TEXT	ENDS
;	COMDAT ??Econst_iterator@?$list@PAV?$CMyBucket@PAVCClientSockE@@@@V?$allocator@PAV?$CMyBucket@PAVCClientSockE@@@@@std@@@std@@QAEAAV012@XZ
_TEXT	SEGMENT PARA USE32 PUBLIC 'CODE'
_TEXT	ENDS
;	COMDAT ??8const_iterator@?$list@PAV?$CMyBucket@PAVCClientSockE@@@@V?$allocator@PAV?$CMyBucket@PAVCClientSockE@@@@@std@@@std@@QBE_NABV012@@Z
_TEXT	SEGMENT PARA USE32 PUBLIC 'CODE'
_TEXT	ENDS
;	COMDAT ?_Myval@?$list@PAV?$CMyBucket@PAVCClientSock@@@@V?$allocator@PAV?$CMyBucket@PAVCClientSock@@@@@std@@@std@@KAAAPAV?$CMyBucket@PAVCClientSock@@@@PAU_Node@?$_List_nod@PAV?$CMyBucket@PAVCClientSock@@@@V?$allocator@PAV?$CMyBucket@PAVCClientSock@@@@@std@@@2@@Z
_TEXT	SEGMENT PARA USE32 PUBLIC 'CODE'
_TEXT	ENDS
;	COMDAT ?end@?$deque@PAV?$CMyBucket@PAVCClientSockE@@@@V?$allocator@PAV?$CMyBucket@PAVCClientSockE@@@@@std@@@std@@QAE?AViterator@12@XZ
_TEXT	SEGMENT PARA USE32 PUBLIC 'CODE'
_TEXT	ENDS
;	COMDAT ?_Growmap@?$deque@PAV?$CMyBucket@PAVCClientSockE@@@@V?$allocator@PAV?$CMyBucket@PAVCClientSockE@@@@@std@@@std@@IAEXI@Z
_TEXT	SEGMENT PARA USE32 PUBLIC 'CODE'
_TEXT	ENDS
;	COMDAT ??0?$_Deque_val@PAV?$CMyBucket@PAVCClientSockE@@@@V?$allocator@PAV?$CMyBucket@PAVCClientSockE@@@@@std@@@std@@IAE@V?$allocator@PAV?$CMyBucket@PAVCClientSockE@@@@@1@@Z
_TEXT	SEGMENT PARA USE32 PUBLIC 'CODE'
_TEXT	ENDS
;	COMDAT ??0?$allocator@PAV?$CMyBucket@PAVCClientSockE@@@@@std@@QAE@ABV01@@Z
_TEXT	SEGMENT PARA USE32 PUBLIC 'CODE'
_TEXT	ENDS
;	COMDAT ?allocate@?$allocator@PAV?$CMyBucket@PAVCClientSockE@@@@@std@@QAEPAPAV?$CMyBucket@PAVCClientSockE@@@@I@Z
_TEXT	SEGMENT PARA USE32 PUBLIC 'CODE'
_TEXT	ENDS
;	COMDAT ?construct@?$allocator@PAV?$CMyBucket@PAVCClientSockE@@@@@std@@QAEXPAPAV?$CMyBucket@PAVCClientSockE@@@@ABQAV3@@Z
_TEXT	SEGMENT PARA USE32 PUBLIC 'CODE'
_TEXT	ENDS
;	COMDAT ?_Myval@?$list@PAV?$CMyBucket@PAVCClientSockE@@@@V?$allocator@PAV?$CMyBucket@PAVCClientSockE@@@@@std@@@std@@KAAAPAV?$CMyBucket@PAVCClientSockE@@@@PAU_Node@?$_List_nod@PAV?$CMyBucket@PAVCClientSockE@@@@V?$allocator@PAV?$CMyBucket@PAVCClientSockE@@@@@std@@@2@@Z
_TEXT	SEGMENT PARA USE32 PUBLIC 'CODE'
_TEXT	ENDS
;	COMDAT ??0?$_List_ptr@PAV?$CMyBucket@PAVCClientSockE@@@@V?$allocator@PAV?$CMyBucket@PAVCClientSockE@@@@@std@@@std@@IAE@V?$allocator@PAV?$CMyBucket@PAVCClientSockE@@@@@1@@Z
_TEXT	SEGMENT PARA USE32 PUBLIC 'CODE'
_TEXT	ENDS
;	COMDAT ?allocate@?$allocator@U_Node@?$_List_nod@PAV?$CMyBucket@PAVCClientSockE@@@@V?$allocator@PAV?$CMyBucket@PAVCClientSockE@@@@@std@@@std@@@std@@QAEPAU_Node@?$_List_nod@PAV?$CMyBucket@PAVCClientSockE@@@@V?$allocator@PAV?$CMyBucket@PAVCClientSockE@@@@@std@@@2@I@Z
_TEXT	SEGMENT PARA USE32 PUBLIC 'CODE'
_TEXT	ENDS
;	COMDAT ?construct@?$allocator@PAU_Node@?$_List_nod@PAV?$CMyBucket@PAVCClientSockE@@@@V?$allocator@PAV?$CMyBucket@PAVCClientSockE@@@@@std@@@std@@@std@@QAEXPAPAU_Node@?$_List_nod@PAV?$CMyBucket@PAVCClientSockE@@@@V?$allocator@PAV?$CMyBucket@PAVCClientSockE@@@@@std@@@2@ABQAU342@@Z
_TEXT	SEGMENT PARA USE32 PUBLIC 'CODE'
_TEXT	ENDS
;	COMDAT ??0const_iterator@?$list@PAV?$CMyBucket@PAVCClientSock@@@@V?$allocator@PAV?$CMyBucket@PAVCClientSock@@@@@std@@@std@@QAE@PAU_Node@?$_List_nod@PAV?$CMyBucket@PAVCClientSock@@@@V?$allocator@PAV?$CMyBucket@PAVCClientSock@@@@@std@@@2@@Z
_TEXT	SEGMENT PARA USE32 PUBLIC 'CODE'
_TEXT	ENDS
;	COMDAT ??0const_iterator@?$list@PAV?$CMyBucket@PAVCClientSockE@@@@V?$allocator@PAV?$CMyBucket@PAVCClientSockE@@@@@std@@@std@@QAE@PAU_Node@?$_List_nod@PAV?$CMyBucket@PAVCClientSockE@@@@V?$allocator@PAV?$CMyBucket@PAVCClientSockE@@@@@std@@@2@@Z
_TEXT	SEGMENT PARA USE32 PUBLIC 'CODE'
_TEXT	ENDS
;	COMDAT ??Diterator@?$deque@PAV?$CMyBucket@PAVCClientSockE@@@@V?$allocator@PAV?$CMyBucket@PAVCClientSockE@@@@@std@@@std@@QBEAAPAV?$CMyBucket@PAVCClientSockE@@@@XZ
_TEXT	SEGMENT PARA USE32 PUBLIC 'CODE'
_TEXT	ENDS
;	COMDAT ??Giterator@?$deque@PAV?$CMyBucket@PAVCClientSockE@@@@V?$allocator@PAV?$CMyBucket@PAVCClientSockE@@@@@std@@@std@@QBE?AV012@H@Z
_TEXT	SEGMENT PARA USE32 PUBLIC 'CODE'
_TEXT	ENDS
;	COMDAT ?max_size@?$deque@PAV?$CMyBucket@PAVCClientSockE@@@@V?$allocator@PAV?$CMyBucket@PAVCClientSockE@@@@@std@@@std@@QBEIXZ
_TEXT	SEGMENT PARA USE32 PUBLIC 'CODE'
_TEXT	ENDS
;	COMDAT ?_Xlen@?$deque@PAV?$CMyBucket@PAVCClientSockE@@@@V?$allocator@PAV?$CMyBucket@PAVCClientSockE@@@@@std@@@std@@IBEXXZ
_TEXT	SEGMENT PARA USE32 PUBLIC 'CODE'
_TEXT	ENDS
;	COMDAT ??0?$_Deque_map@PAV?$CMyBucket@PAVCClientSockE@@@@V?$allocator@PAV?$CMyBucket@PAVCClientSockE@@@@@std@@@std@@IAE@V?$allocator@PAV?$CMyBucket@PAVCClientSockE@@@@@1@@Z
_TEXT	SEGMENT PARA USE32 PUBLIC 'CODE'
_TEXT	ENDS
;	COMDAT ?allocate@?$allocator@PAPAV?$CMyBucket@PAVCClientSockE@@@@@std@@QAEPAPAPAV?$CMyBucket@PAVCClientSockE@@@@I@Z
_TEXT	SEGMENT PARA USE32 PUBLIC 'CODE'
_TEXT	ENDS
;	COMDAT ??0?$_List_nod@PAV?$CMyBucket@PAVCClientSockE@@@@V?$allocator@PAV?$CMyBucket@PAVCClientSockE@@@@@std@@@std@@IAE@V?$allocator@PAV?$CMyBucket@PAVCClientSockE@@@@@1@@Z
_TEXT	SEGMENT PARA USE32 PUBLIC 'CODE'
_TEXT	ENDS
;	COMDAT ??0iterator@?$deque@PAV?$CMyBucket@PAVCClientSockE@@@@V?$allocator@PAV?$CMyBucket@PAVCClientSockE@@@@@std@@@std@@QAE@IPBV12@@Z
_TEXT	SEGMENT PARA USE32 PUBLIC 'CODE'
_TEXT	ENDS
;	COMDAT ??Ziterator@?$deque@PAV?$CMyBucket@PAVCClientSockE@@@@V?$allocator@PAV?$CMyBucket@PAVCClientSockE@@@@@std@@@std@@QAEAAV012@H@Z
_TEXT	SEGMENT PARA USE32 PUBLIC 'CODE'
_TEXT	ENDS
;	COMDAT ??Dconst_iterator@?$deque@PAV?$CMyBucket@PAVCClientSockE@@@@V?$allocator@PAV?$CMyBucket@PAVCClientSockE@@@@@std@@@std@@QBEABQAV?$CMyBucket@PAVCClientSockE@@@@XZ
_TEXT	SEGMENT PARA USE32 PUBLIC 'CODE'
_TEXT	ENDS
;	COMDAT ?max_size@?$allocator@PAV?$CMyBucket@PAVCClientSockE@@@@@std@@QBEIXZ
_TEXT	SEGMENT PARA USE32 PUBLIC 'CODE'
_TEXT	ENDS
;	COMDAT ??Yiterator@?$deque@PAV?$CMyBucket@PAVCClientSockE@@@@V?$allocator@PAV?$CMyBucket@PAVCClientSockE@@@@@std@@@std@@QAEAAV012@H@Z
_TEXT	SEGMENT PARA USE32 PUBLIC 'CODE'
_TEXT	ENDS
;	COMDAT ??0const_iterator@?$deque@PAV?$CMyBucket@PAVCClientSockE@@@@V?$allocator@PAV?$CMyBucket@PAVCClientSockE@@@@@std@@@std@@QAE@IPBV12@@Z
_TEXT	SEGMENT PARA USE32 PUBLIC 'CODE'
_TEXT	ENDS
;	COMDAT ?Grow@?$CMyPool@V?$CMyBucket@PAVCClientSockE@@@@@@AAEXI@Z
_TEXT	SEGMENT PARA USE32 PUBLIC 'CODE'
_TEXT	ENDS
;	COMDAT ??$_Uninitialized_copy@PAPAPAV?$CMyBucket@PAVCClientSockE@@@@PAPAPAV1@V?$allocator@PAPAV?$CMyBucket@PAVCClientSockE@@@@@std@@@std@@YAPAPAPAV?$CMyBucket@PAVCClientSockE@@@@PAPAPAV1@00AAV?$allocator@PAPAV?$CMyBucket@PAVCClientSockE@@@@@0@@Z
_TEXT	SEGMENT PARA USE32 PUBLIC 'CODE'
_TEXT	ENDS
;	COMDAT ??$_Uninitialized_fill_n@PAPAPAV?$CMyBucket@PAVCClientSockE@@@@IPAPAV1@V?$allocator@PAPAV?$CMyBucket@PAVCClientSockE@@@@@std@@@std@@YAXPAPAPAV?$CMyBucket@PAVCClientSockE@@@@IABQAPAV1@AAV?$allocator@PAPAV?$CMyBucket@PAVCClientSockE@@@@@0@@Z
_TEXT	SEGMENT PARA USE32 PUBLIC 'CODE'
_TEXT	ENDS
;	COMDAT ??$_Destroy_range@PAPAV?$CMyBucket@PAVCClientSockE@@@@V?$allocator@PAPAV?$CMyBucket@PAVCClientSockE@@@@@std@@@std@@YAXPAPAPAV?$CMyBucket@PAVCClientSockE@@@@0AAV?$allocator@PAPAV?$CMyBucket@PAVCClientSockE@@@@@0@@Z
_TEXT	SEGMENT PARA USE32 PUBLIC 'CODE'
_TEXT	ENDS
;	COMDAT ??$_Allocate@PAV?$CMyBucket@PAVCClientSockE@@@@@std@@YAPAPAV?$CMyBucket@PAVCClientSockE@@@@IPAPAV1@@Z
_TEXT	SEGMENT PARA USE32 PUBLIC 'CODE'
_TEXT	ENDS
;	COMDAT ??$_Construct@PAV?$CMyBucket@PAVCClientSockE@@@@PAV1@@std@@YAXPAPAV?$CMyBucket@PAVCClientSockE@@@@ABQAV1@@Z
_TEXT	SEGMENT PARA USE32 PUBLIC 'CODE'
_TEXT	ENDS
;	COMDAT ??$?0PAV?$CMyBucket@PAVCClientSockE@@@@@?$allocator@PAU_Node@?$_List_nod@PAV?$CMyBucket@PAVCClientSockE@@@@V?$allocator@PAV?$CMyBucket@PAVCClientSockE@@@@@std@@@std@@@std@@QAE@ABV?$allocator@PAV?$CMyBucket@PAVCClientSockE@@@@@1@@Z
_TEXT	SEGMENT PARA USE32 PUBLIC 'CODE'
_TEXT	ENDS
;	COMDAT ??$_Allocate@U_Node@?$_List_nod@PAV?$CMyBucket@PAVCClientSockE@@@@V?$allocator@PAV?$CMyBucket@PAVCClientSockE@@@@@std@@@std@@@std@@YAPAU_Node@?$_List_nod@PAV?$CMyBucket@PAVCClientSockE@@@@V?$allocator@PAV?$CMyBucket@PAVCClientSockE@@@@@std@@@0@IPAU120@@Z
_TEXT	SEGMENT PARA USE32 PUBLIC 'CODE'
_TEXT	ENDS
;	COMDAT ??$_Construct@PAU_Node@?$_List_nod@PAV?$CMyBucket@PAVCClientSockE@@@@V?$allocator@PAV?$CMyBucket@PAVCClientSockE@@@@@std@@@std@@PAU123@@std@@YAXPAPAU_Node@?$_List_nod@PAV?$CMyBucket@PAVCClientSockE@@@@V?$allocator@PAV?$CMyBucket@PAVCClientSockE@@@@@std@@@0@ABQAU120@@Z
_TEXT	SEGMENT PARA USE32 PUBLIC 'CODE'
_TEXT	ENDS
;	COMDAT ??$?0PAV?$CMyBucket@PAVCClientSockE@@@@@?$allocator@PAPAV?$CMyBucket@PAVCClientSockE@@@@@std@@QAE@ABV?$allocator@PAV?$CMyBucket@PAVCClientSockE@@@@@1@@Z
_TEXT	SEGMENT PARA USE32 PUBLIC 'CODE'
_TEXT	ENDS
;	COMDAT ??$_Allocate@PAPAV?$CMyBucket@PAVCClientSockE@@@@@std@@YAPAPAPAV?$CMyBucket@PAVCClientSockE@@@@IPAPAPAV1@@Z
_TEXT	SEGMENT PARA USE32 PUBLIC 'CODE'
_TEXT	ENDS
;	COMDAT ??$?0PAV?$CMyBucket@PAVCClientSockE@@@@@?$allocator@U_Node@?$_List_nod@PAV?$CMyBucket@PAVCClientSockE@@@@V?$allocator@PAV?$CMyBucket@PAVCClientSockE@@@@@std@@@std@@@std@@QAE@ABV?$allocator@PAV?$CMyBucket@PAVCClientSockE@@@@@1@@Z
_TEXT	SEGMENT PARA USE32 PUBLIC 'CODE'
_TEXT	ENDS
;	COMDAT ?push_back@?$list@PAV?$CMyBucket@PAVCClientSockE@@@@V?$allocator@PAV?$CMyBucket@PAVCClientSockE@@@@@std@@@std@@QAEXABQAV?$CMyBucket@PAVCClientSockE@@@@@Z
_TEXT	SEGMENT PARA USE32 PUBLIC 'CODE'
_TEXT	ENDS
;	COMDAT ?_Insert@?$list@PAV?$CMyBucket@PAVCClientSockE@@@@V?$allocator@PAV?$CMyBucket@PAVCClientSockE@@@@@std@@@std@@QAEXViterator@12@ABQAV?$CMyBucket@PAVCClientSockE@@@@@Z
_TEXT	SEGMENT PARA USE32 PUBLIC 'CODE'
_TEXT	ENDS
;	COMDAT ?_Buynode@?$list@PAV?$CMyBucket@PAVCClientSockE@@@@V?$allocator@PAV?$CMyBucket@PAVCClientSockE@@@@@std@@@std@@IAEPAU_Node@?$_List_nod@PAV?$CMyBucket@PAVCClientSockE@@@@V?$allocator@PAV?$CMyBucket@PAVCClientSockE@@@@@std@@@2@PAU342@0ABQAV?$CMyBucket@PAVCClientSockE@@@@@Z
_TEXT	SEGMENT PARA USE32 PUBLIC 'CODE'
_TEXT	ENDS
;	COMDAT ?_Incsize@?$list@PAV?$CMyBucket@PAVCClientSockE@@@@V?$allocator@PAV?$CMyBucket@PAVCClientSockE@@@@@std@@@std@@IAEXI@Z
_TEXT	SEGMENT PARA USE32 PUBLIC 'CODE'
_TEXT	ENDS
;	COMDAT ?_Mynode@const_iterator@?$list@PAV?$CMyBucket@PAVCClientSockE@@@@V?$allocator@PAV?$CMyBucket@PAVCClientSockE@@@@@std@@@std@@QBEPAU_Node@?$_List_nod@PAV?$CMyBucket@PAVCClientSockE@@@@V?$allocator@PAV?$CMyBucket@PAVCClientSockE@@@@@std@@@3@XZ
_TEXT	SEGMENT PARA USE32 PUBLIC 'CODE'
_TEXT	ENDS
;	COMDAT ?max_size@?$list@PAV?$CMyBucket@PAVCClientSockE@@@@V?$allocator@PAV?$CMyBucket@PAVCClientSockE@@@@@std@@@std@@QBEIXZ
_TEXT	SEGMENT PARA USE32 PUBLIC 'CODE'
_TEXT	ENDS
;	COMDAT ??0_Node@?$_List_nod@PAV?$CMyBucket@PAVCClientSockE@@@@V?$allocator@PAV?$CMyBucket@PAVCClientSockE@@@@@std@@@std@@QAE@PAU012@0ABQAV?$CMyBucket@PAVCClientSockE@@@@@Z
_TEXT	SEGMENT PARA USE32 PUBLIC 'CODE'
_TEXT	ENDS
;	COMDAT ??$_Ptr_cat@PAV?$CMyBucket@PAVCClientSockE@@@@@std@@YA?AU_Scalar_ptr_iterator_tag@0@PAPAPAV?$CMyBucket@PAVCClientSockE@@@@0@Z
_TEXT	SEGMENT PARA USE32 PUBLIC 'CODE'
_TEXT	ENDS
;	COMDAT ??$_Uninit_copy@PAPAV?$CMyBucket@PAVCClientSockE@@@@PAPAV1@@std@@YAPAPAPAV?$CMyBucket@PAVCClientSockE@@@@PAPAPAV1@00AAV?$allocator@PAPAV?$CMyBucket@PAVCClientSockE@@@@@0@U_Scalar_ptr_iterator_tag@0@@Z
_TEXT	SEGMENT PARA USE32 PUBLIC 'CODE'
_TEXT	ENDS
;	COMDAT ??$_Uninit_fill_n@PAPAV?$CMyBucket@PAVCClientSockE@@@@IPAPAV1@@std@@YAXPAPAPAV?$CMyBucket@PAVCClientSockE@@@@IABQAPAV1@AAV?$allocator@PAPAV?$CMyBucket@PAVCClientSockE@@@@@0@U_Scalar_ptr_iterator_tag@0@@Z
_TEXT	SEGMENT PARA USE32 PUBLIC 'CODE'
_TEXT	ENDS
;	COMDAT ??$_Destroy_range@PAPAV?$CMyBucket@PAVCClientSockE@@@@V?$allocator@PAPAV?$CMyBucket@PAVCClientSockE@@@@@std@@@std@@YAXPAPAPAV?$CMyBucket@PAVCClientSockE@@@@0AAV?$allocator@PAPAV?$CMyBucket@PAVCClientSockE@@@@@0@U_Scalar_ptr_iterator_tag@0@@Z
_TEXT	SEGMENT PARA USE32 PUBLIC 'CODE'
_TEXT	ENDS
;	COMDAT ??$fill_n@PAPAPAV?$CMyBucket@PAVCClientSockE@@@@IPAPAV1@@std@@YAXPAPAPAV?$CMyBucket@PAVCClientSockE@@@@IABQAPAV1@@Z
_TEXT	SEGMENT PARA USE32 PUBLIC 'CODE'
_TEXT	ENDS
;	COMDAT ??_7?$CMyBucket@PAVCClientSock@@@@6B@
CONST	SEGMENT DWORD USE32 PUBLIC 'CONST'
CONST	ENDS
;	COMDAT ??_7?$CMyBucket@PAVCClientSockE@@@@6B@
CONST	SEGMENT DWORD USE32 PUBLIC 'CONST'
CONST	ENDS
;	COMDAT ?Leave@CMclCritSec@@QAEXXZ
_TEXT	SEGMENT PARA USE32 PUBLIC 'CODE'
_TEXT	ENDS
;	COMDAT ?Enter@CMclCritSec@@QAEXXZ
_TEXT	SEGMENT PARA USE32 PUBLIC 'CODE'
_TEXT	ENDS
;	COMDAT ?IsPrime@@YAHK@Z
_TEXT	SEGMENT PARA USE32 PUBLIC 'CODE'
_TEXT	ENDS
;	COMDAT ??0CMclCritSec@@QAE@XZ
_TEXT	SEGMENT PARA USE32 PUBLIC 'CODE'
_TEXT	ENDS
;	COMDAT ??_7CMclCritSec@@6B@
CONST	SEGMENT DWORD USE32 PUBLIC 'CONST'
CONST	ENDS
;	COMDAT ??_GCMclCritSec@@UAEPAXI@Z
_TEXT	SEGMENT PARA USE32 PUBLIC 'CODE'
_TEXT	ENDS
;	COMDAT ??_7?$CMyMap@PAVCClientSockE@@@@6B@
CONST	SEGMENT DWORD USE32 PUBLIC 'CONST'
CONST	ENDS
;	COMDAT ??_7?$CMyPool@V?$CMyBucket@PAVCClientSockE@@@@@@6B@
CONST	SEGMENT DWORD USE32 PUBLIC 'CONST'
CONST	ENDS
;	COMDAT ?IDHash@@YAKKI@Z
_TEXT	SEGMENT PARA USE32 PUBLIC 'CODE'
_TEXT	ENDS
;	COMDAT ??1CMclCritSec@@UAE@XZ
_TEXT	SEGMENT PARA USE32 PUBLIC 'CODE'
_TEXT	ENDS
;	COMDAT ??_7?$CMyMap@PAVCClientSock@@@@6B@
CONST	SEGMENT DWORD USE32 PUBLIC 'CONST'
CONST	ENDS
;	COMDAT ??_7?$CMyPool@V?$CMyBucket@PAVCClientSock@@@@@@6B@
CONST	SEGMENT DWORD USE32 PUBLIC 'CONST'
CONST	ENDS
;	COMDAT ?_Psave@?$_Facetptr@V?$ctype@G@std@@@std@@2PBVfacet@locale@2@B
_DATA	SEGMENT DWORD USE32 PUBLIC 'DATA'
_DATA	ENDS
;	COMDAT ?_Psave@?$_Facetptr@V?$ctype@D@std@@@std@@2PBVfacet@locale@2@B
_DATA	SEGMENT DWORD USE32 PUBLIC 'DATA'
_DATA	ENDS
;	COMDAT ?assign@?$basic_string@DU?$char_traits@D@std@@V?$allocator@D@2@@std@@QAEAAV12@PBD@Z
_TEXT	SEGMENT PARA USE32 PUBLIC 'CODE'
_TEXT	ENDS
;	COMDAT ?assign@?$basic_string@DU?$char_traits@D@std@@V?$allocator@D@2@@std@@QAEAAV12@PBDI@Z
_TEXT	SEGMENT PARA USE32 PUBLIC 'CODE'
_TEXT	ENDS
;	COMDAT ?_Inside@?$basic_string@DU?$char_traits@D@std@@V?$allocator@D@2@@std@@IAE_NPBD@Z
_TEXT	SEGMENT PARA USE32 PUBLIC 'CODE'
_TEXT	ENDS
;	COMDAT ?assign@?$basic_string@DU?$char_traits@D@std@@V?$allocator@D@2@@std@@QAEAAV12@ABV12@II@Z
_TEXT	SEGMENT PARA USE32 PUBLIC 'CODE'
_TEXT	ENDS
;	COMDAT ?size@?$basic_string@DU?$char_traits@D@std@@V?$allocator@D@2@@std@@QBEIXZ
_TEXT	SEGMENT PARA USE32 PUBLIC 'CODE'
_TEXT	ENDS
;	COMDAT ?npos@?$basic_string@DU?$char_traits@D@std@@V?$allocator@D@2@@std@@2IB
CONST	SEGMENT DWORD USE32 PUBLIC 'CONST'
CONST	ENDS
;	COMDAT ?erase@?$basic_string@DU?$char_traits@D@std@@V?$allocator@D@2@@std@@QAEAAV12@II@Z
_TEXT	SEGMENT PARA USE32 PUBLIC 'CODE'
_TEXT	ENDS
;	COMDAT ?move@?$char_traits@D@std@@SAPADPADPBDI@Z
_TEXT	SEGMENT PARA USE32 PUBLIC 'CODE'
_TEXT	ENDS
;	COMDAT ?_Myptr@?$basic_string@DU?$char_traits@D@std@@V?$allocator@D@2@@std@@QBEPBDXZ
_TEXT	SEGMENT PARA USE32 PUBLIC 'CODE'
_TEXT	ENDS
;	COMDAT ?_Grow@?$basic_string@DU?$char_traits@D@std@@V?$allocator@D@2@@std@@IAE_NI_N@Z
_TEXT	SEGMENT PARA USE32 PUBLIC 'CODE'
_TEXT	ENDS
;	COMDAT ?max_size@?$basic_string@DU?$char_traits@D@std@@V?$allocator@D@2@@std@@QBEIXZ
_TEXT	SEGMENT PARA USE32 PUBLIC 'CODE'
_TEXT	ENDS
;	COMDAT ?max_size@?$allocator@D@std@@QBEIXZ
_TEXT	SEGMENT PARA USE32 PUBLIC 'CODE'
_TEXT	ENDS
;	COMDAT ?_Copy@?$basic_string@DU?$char_traits@D@std@@V?$allocator@D@2@@std@@IAEXII@Z
_TEXT	SEGMENT PARA USE32 PUBLIC 'CODE'
_TEXT	ENDS
;	COMDAT ?allocate@?$allocator@D@std@@QAEPADI@Z
_TEXT	SEGMENT PARA USE32 PUBLIC 'CODE'
_TEXT	ENDS
;	COMDAT ??$_Allocate@D@std@@YAPADIPAD@Z
_TEXT	SEGMENT PARA USE32 PUBLIC 'CODE'
_TEXT	ENDS
;	COMDAT ?copy@?$char_traits@D@std@@SAPADPADPBDI@Z
_TEXT	SEGMENT PARA USE32 PUBLIC 'CODE'
_TEXT	ENDS
;	COMDAT ?_Myptr@?$basic_string@DU?$char_traits@D@std@@V?$allocator@D@2@@std@@QAEPADXZ
_TEXT	SEGMENT PARA USE32 PUBLIC 'CODE'
_TEXT	ENDS
;	COMDAT ?_Eos@?$basic_string@DU?$char_traits@D@std@@V?$allocator@D@2@@std@@IAEXI@Z
_TEXT	SEGMENT PARA USE32 PUBLIC 'CODE'
_TEXT	ENDS
;	COMDAT ?assign@?$char_traits@D@std@@SAXAADABD@Z
_TEXT	SEGMENT PARA USE32 PUBLIC 'CODE'
_TEXT	ENDS
;	COMDAT ?length@?$char_traits@D@std@@SAIPBD@Z
_TEXT	SEGMENT PARA USE32 PUBLIC 'CODE'
_TEXT	ENDS
;	COMDAT ?_Tidy@?$basic_string@DU?$char_traits@D@std@@V?$allocator@D@2@@std@@IAEX_NI@Z
_TEXT	SEGMENT PARA USE32 PUBLIC 'CODE'
_TEXT	ENDS
;	COMDAT ?deallocate@?$allocator@D@std@@QAEXPADI@Z
_TEXT	SEGMENT PARA USE32 PUBLIC 'CODE'
_TEXT	ENDS
;	COMDAT ??0?$_String_val@DV?$allocator@D@std@@@std@@IAE@V?$allocator@D@1@@Z
_TEXT	SEGMENT PARA USE32 PUBLIC 'CODE'
_TEXT	ENDS
;	COMDAT ??0?$allocator@D@std@@QAE@ABV01@@Z
_TEXT	SEGMENT PARA USE32 PUBLIC 'CODE'
_TEXT	ENDS
;	COMDAT ??0?$basic_string@DU?$char_traits@D@std@@V?$allocator@D@2@@std@@QAE@ABV01@@Z
_TEXT	SEGMENT PARA USE32 PUBLIC 'CODE'
_TEXT	ENDS
;	COMDAT ??_7logic_error@std@@6B@
CONST	SEGMENT DWORD USE32 PUBLIC 'CONST'
CONST	ENDS
;	COMDAT ??_Glogic_error@std@@UAEPAXI@Z
_TEXT	SEGMENT PARA USE32 PUBLIC 'CODE'
_TEXT	ENDS
;	COMDAT ?what@logic_error@std@@UBEPBDXZ
_TEXT	SEGMENT PARA USE32 PUBLIC 'CODE'
_TEXT	ENDS
;	COMDAT ?c_str@?$basic_string@DU?$char_traits@D@std@@V?$allocator@D@2@@std@@QBEPBDXZ
_TEXT	SEGMENT PARA USE32 PUBLIC 'CODE'
_TEXT	ENDS
;	COMDAT ??_7length_error@std@@6B@
CONST	SEGMENT DWORD USE32 PUBLIC 'CONST'
CONST	ENDS
;	COMDAT ??_Glength_error@std@@UAEPAXI@Z
_TEXT	SEGMENT PARA USE32 PUBLIC 'CODE'
_TEXT	ENDS
;	COMDAT ??1logic_error@std@@UAE@XZ
_TEXT	SEGMENT PARA USE32 PUBLIC 'CODE'
_TEXT	ENDS
;	COMDAT __CTA3?AVlength_error@std@@
xdata$x	SEGMENT DWORD USE32 PUBLIC 'CONST'
xdata$x	ENDS
;	COMDAT ??1length_error@std@@UAE@XZ
_TEXT	SEGMENT PARA USE32 PUBLIC 'CODE'
_TEXT	ENDS
;	COMDAT __CT??_R0?AVexception@@@8??0exception@@QAE@ABV0@@Z12
xdata$x	SEGMENT DWORD USE32 PUBLIC 'CONST'
xdata$x	ENDS
;	COMDAT ??_R0?AVexception@@@8
_DATA	SEGMENT DWORD USE32 PUBLIC 'DATA'
_DATA	ENDS
;	COMDAT __CT??_R0?AVlogic_error@std@@@8??0logic_error@std@@QAE@ABV01@@Z40
xdata$x	SEGMENT DWORD USE32 PUBLIC 'CONST'
xdata$x	ENDS
;	COMDAT __CT??_R0?AVlength_error@std@@@8??0length_error@std@@QAE@ABV01@@Z40
xdata$x	SEGMENT DWORD USE32 PUBLIC 'CONST'
xdata$x	ENDS
;	COMDAT ??_R0?AVlogic_error@std@@@8
_DATA	SEGMENT DWORD USE32 PUBLIC 'DATA'
_DATA	ENDS
;	COMDAT ??_R0?AVlength_error@std@@@8
_DATA	SEGMENT DWORD USE32 PUBLIC 'DATA'
_DATA	ENDS
;	COMDAT __TI3?AVlength_error@std@@
xdata$x	SEGMENT DWORD USE32 PUBLIC 'CONST'
xdata$x	ENDS
;	COMDAT ??1?$basic_string@DU?$char_traits@D@std@@V?$allocator@D@2@@std@@QAE@XZ
_TEXT	SEGMENT PARA USE32 PUBLIC 'CODE'
_TEXT	ENDS
;	COMDAT ??0length_error@std@@QAE@ABV?$basic_string@DU?$char_traits@D@std@@V?$allocator@D@2@@1@@Z
_TEXT	SEGMENT PARA USE32 PUBLIC 'CODE'
_TEXT	ENDS
;	COMDAT ??0logic_error@std@@QAE@ABV?$basic_string@DU?$char_traits@D@std@@V?$allocator@D@2@@1@@Z
_TEXT	SEGMENT PARA USE32 PUBLIC 'CODE'
_TEXT	ENDS
;	COMDAT ??3@YAXPAX0@Z
_TEXT	SEGMENT PARA USE32 PUBLIC 'CODE'
_TEXT	ENDS
;	COMDAT ??2@YAPAXIPAX@Z
_TEXT	SEGMENT PARA USE32 PUBLIC 'CODE'
_TEXT	ENDS
;	COMDAT ??_7CServerSockE@@6B@
CONST	SEGMENT DWORD USE32 PUBLIC 'CONST'
CONST	ENDS
;	COMDAT ??1CMclAutoLock@@QAE@XZ
_TEXT	SEGMENT PARA USE32 PUBLIC 'CODE'
_TEXT	ENDS
;	COMDAT ??0CMclAutoLock@@QAE@AAVCMclCritSec@@@Z
_TEXT	SEGMENT PARA USE32 PUBLIC 'CODE'
_TEXT	ENDS
;	COMDAT ??_7CBuffer2@@6B@
CONST	SEGMENT DWORD USE32 PUBLIC 'CONST'
CONST	ENDS
sxdata	SEGMENT DWORD USE32 'SXDATA'
sxdata	ENDS
FLAT	GROUP _DATA, CONST, _BSS
	ASSUME	CS: FLAT, DS: FLAT, SS: FLAT
endif

INCLUDELIB LIBCMT
INCLUDELIB OLDNAMES

PUBLIC	?GetHandle@CSock@@QAEIXZ			; CSock::GetHandle
; Function compile flags: /Ogty
; File c:\offi src_real\offi src!\_network\net\include\sock.h
;	COMDAT ?GetHandle@CSock@@QAEIXZ
_TEXT	SEGMENT
?GetHandle@CSock@@QAEIXZ PROC NEAR			; CSock::GetHandle, COMDAT
; _this$ = ecx

; 50   : inline SOCKET CSock::GetHandle( void )	{	return m_hSocket;	}

  00000	8b 41 04	 mov	 eax, DWORD PTR [ecx+4]
  00003	c3		 ret	 0
?GetHandle@CSock@@QAEIXZ ENDP				; CSock::GetHandle
_TEXT	ENDS
PUBLIC	?SetID@CSock@@QAEXK@Z				; CSock::SetID
; Function compile flags: /Ogty
;	COMDAT ?SetID@CSock@@QAEXK@Z
_TEXT	SEGMENT
_dpid$ = 8						; size = 4
?SetID@CSock@@QAEXK@Z PROC NEAR				; CSock::SetID, COMDAT
; _this$ = ecx

; 53   : inline void	CSock::SetID( DPID dpid )	{	m_dpid	= dpid;	}

  00000	8b 44 24 04	 mov	 eax, DWORD PTR _dpid$[esp-4]
  00004	89 41 08	 mov	 DWORD PTR [ecx+8], eax
  00007	c2 04 00	 ret	 4
?SetID@CSock@@QAEXK@Z ENDP				; CSock::SetID
_TEXT	ENDS
PUBLIC	?SetPeerID@CSock@@QAEXK@Z			; CSock::SetPeerID
; Function compile flags: /Ogty
;	COMDAT ?SetPeerID@CSock@@QAEXK@Z
_TEXT	SEGMENT
_dpid$ = 8						; size = 4
?SetPeerID@CSock@@QAEXK@Z PROC NEAR			; CSock::SetPeerID, COMDAT
; _this$ = ecx

; 55   : inline void CSock::SetPeerID( DPID dpid )	{	m_dpidpeer	= dpid;	}

  00000	8b 44 24 04	 mov	 eax, DWORD PTR _dpid$[esp-4]
  00004	89 41 0c	 mov	 DWORD PTR [ecx+12], eax
  00007	c2 04 00	 ret	 4
?SetPeerID@CSock@@QAEXK@Z ENDP				; CSock::SetPeerID
_TEXT	ENDS
PUBLIC	??2@YAPAXIPAX@Z					; operator new
; Function compile flags: /Ogty
; File c:\program files\microsoft visual studio .net 2003\vc7\include\new.h
;	COMDAT ??2@YAPAXIPAX@Z
_TEXT	SEGMENT
___formal$ = 8						; size = 4
__P$ = 12						; size = 4
??2@YAPAXIPAX@Z PROC NEAR				; operator new, COMDAT

; 109  :         {return (_P); }

  00000	8b 44 24 08	 mov	 eax, DWORD PTR __P$[esp-4]
  00004	c3		 ret	 0
??2@YAPAXIPAX@Z ENDP					; operator new
_TEXT	ENDS
PUBLIC	??3@YAXPAX0@Z					; operator delete
; Function compile flags: /Ogty
;	COMDAT ??3@YAXPAX0@Z
_TEXT	SEGMENT
___formal$ = 8						; size = 4
___formal$ = 12						; size = 4
??3@YAXPAX0@Z PROC NEAR					; operator delete, COMDAT

; 112  :         {return; }

  00000	c3		 ret	 0
??3@YAXPAX0@Z ENDP					; operator delete
_TEXT	ENDS
PUBLIC	?GetListenHandle@CServerSockE@@QAEPAXXZ		; CServerSockE::GetListenHandle
; Function compile flags: /Ogty
; File c:\offi src_real\offi src!\_network\net\include\serversocke.h
;	COMDAT ?GetListenHandle@CServerSockE@@QAEPAXXZ
_TEXT	SEGMENT
?GetListenHandle@CServerSockE@@QAEPAXXZ PROC NEAR	; CServerSockE::GetListenHandle, COMDAT
; _this$ = ecx

; 65   : inline HANDLE CServerSockE::GetListenHandle( void )	{	return m_hListen; }

  00000	8b 41 18	 mov	 eax, DWORD PTR [ecx+24]
  00003	c3		 ret	 0
?GetListenHandle@CServerSockE@@QAEPAXXZ ENDP		; CServerSockE::GetListenHandle
_TEXT	ENDS
PUBLIC	?GetCloseHandle@CServerSockE@@QAEPAXXZ		; CServerSockE::GetCloseHandle
; Function compile flags: /Ogty
;	COMDAT ?GetCloseHandle@CServerSockE@@QAEPAXXZ
_TEXT	SEGMENT
?GetCloseHandle@CServerSockE@@QAEPAXXZ PROC NEAR	; CServerSockE::GetCloseHandle, COMDAT
; _this$ = ecx

; 66   : inline HANDLE CServerSockE::GetCloseHandle( void )	{	return m_hClose;	}

  00000	8b 41 14	 mov	 eax, DWORD PTR [ecx+20]
  00003	c3		 ret	 0
?GetCloseHandle@CServerSockE@@QAEPAXXZ ENDP		; CServerSockE::GetCloseHandle
_TEXT	ENDS
PUBLIC	?Listen@CServerSockE@@QAEHXZ			; CServerSockE::Listen
EXTRN	__imp__listen@8:NEAR
EXTRN	__imp__WSAEventSelect@12:NEAR
; Function compile flags: /Ogty
; File c:\offi src_real\offi src!\_network\net\src\serversocke.cpp
;	COMDAT ?Listen@CServerSockE@@QAEHXZ
_TEXT	SEGMENT
?Listen@CServerSockE@@QAEHXZ PROC NEAR			; CServerSockE::Listen, COMDAT
; _this$ = ecx

; 35   : {

  00000	56		 push	 esi
  00001	8b f1		 mov	 esi, ecx

; 36   : 	if( m_hSocket == INVALID_SOCKET )

  00003	8b 46 04	 mov	 eax, DWORD PTR [esi+4]
  00006	83 f8 ff	 cmp	 eax, -1
  00009	75 04		 jne	 SHORT $L153251
$L155381:

; 37   : 		return FALSE;

  0000b	33 c0		 xor	 eax, eax
  0000d	5e		 pop	 esi

; 45   : 	{
; 46   : 		TRACE( "Listen failed with error %d\n", WSAGetLastError() );
; 47   : 		return FALSE;
; 48   : 	}
; 49   : 	return TRUE;
; 50   : }

  0000e	c3		 ret	 0
$L153251:

; 38   : 
; 39   : 	if( SOCKET_ERROR == WSAEventSelect( m_hSocket, m_hListen, FD_ACCEPT | FD_CONNECT ) )

  0000f	8b 4e 18	 mov	 ecx, DWORD PTR [esi+24]
  00012	6a 18		 push	 24			; 00000018H
  00014	51		 push	 ecx
  00015	50		 push	 eax
  00016	ff 15 00 00 00
	00		 call	 DWORD PTR __imp__WSAEventSelect@12
  0001c	83 f8 ff	 cmp	 eax, -1

; 40   : 	{
; 41   : 		TRACE( " Can't set event with error %d\n", WSAGetLastError() );
; 42   : 		return FALSE;

  0001f	74 ea		 je	 SHORT $L155381

; 43   : 	}
; 44   : 	if( listen( m_hSocket, 5 ) == SOCKET_ERROR )

  00021	8b 56 04	 mov	 edx, DWORD PTR [esi+4]
  00024	6a 05		 push	 5
  00026	52		 push	 edx
  00027	ff 15 00 00 00
	00		 call	 DWORD PTR __imp__listen@8
  0002d	33 c9		 xor	 ecx, ecx
  0002f	83 f8 ff	 cmp	 eax, -1
  00032	0f 95 c1	 setne	 cl
  00035	5e		 pop	 esi
  00036	8b c1		 mov	 eax, ecx

; 45   : 	{
; 46   : 		TRACE( "Listen failed with error %d\n", WSAGetLastError() );
; 47   : 		return FALSE;
; 48   : 	}
; 49   : 	return TRUE;
; 50   : }

  00038	c3		 ret	 0
?Listen@CServerSockE@@QAEHXZ ENDP			; CServerSockE::Listen
_TEXT	ENDS
PUBLIC	?Shutdown@CServerSockE@@UAEHI@Z			; CServerSockE::Shutdown
; Function compile flags: /Ogty
;	COMDAT ?Shutdown@CServerSockE@@UAEHI@Z
_TEXT	SEGMENT
_hSocket$ = 8						; size = 4
?Shutdown@CServerSockE@@UAEHI@Z PROC NEAR		; CServerSockE::Shutdown, COMDAT
; _this$ = ecx

; 196  : 	return FALSE;

  00000	33 c0		 xor	 eax, eax

; 197  : }

  00002	c2 04 00	 ret	 4
?Shutdown@CServerSockE@@UAEHI@Z ENDP			; CServerSockE::Shutdown
_TEXT	ENDS
PUBLIC	?Free@?$MemPooler@VCClientSockE@@@@QAEHPAVCClientSockE@@@Z ; MemPooler<CClientSockE>::Free
EXTRN	__imp__EnterCriticalSection@4:NEAR
EXTRN	__imp__LeaveCriticalSection@4:NEAR
; Function compile flags: /Ogty
; File c:\offi src_real\offi src!\_network\misc\include\mempooler.h
;	COMDAT ?Free@?$MemPooler@VCClientSockE@@@@QAEHPAVCClientSockE@@@Z
_TEXT	SEGMENT
_lpMem$ = 8						; size = 4
?Free@?$MemPooler@VCClientSockE@@@@QAEHPAVCClientSockE@@@Z PROC NEAR ; MemPooler<CClientSockE>::Free, COMDAT
; _this$ = ecx

; 80   : 		{

  00000	53		 push	 ebx
  00001	56		 push	 esi
  00002	8b f1		 mov	 esi, ecx
  00004	57		 push	 edi

; 81   : #ifdef __VERIFY_MEMPOOL
; 82   : 			::operator delete(lpMem);
; 83   : 			return TRUE;
; 84   : #endif
; 85   : 
; 86   : 			BlockNode* pNode	= NULL;
; 87   : 
; 88   : 			EnterCriticalSection( &m_cs );

  00005	8d 5e 1c	 lea	 ebx, DWORD PTR [esi+28]
  00008	53		 push	 ebx
  00009	ff 15 00 00 00
	00		 call	 DWORD PTR __imp__EnterCriticalSection@4

; 89   : 
; 90   : 			pNode	= ( reinterpret_cast<BlockNode*>( lpMem ) ) - 1;
; 91   : 			if( m_nAllocCount > 0 )

  0000f	8b 4e 18	 mov	 ecx, DWORD PTR [esi+24]
  00012	85 c9		 test	 ecx, ecx
  00014	8b 7c 24 10	 mov	 edi, DWORD PTR _lpMem$[esp+8]
  00018	8d 47 fc	 lea	 eax, DWORD PTR [edi-4]
  0001b	7e 09		 jle	 SHORT $L153494

; 92   : 			{
; 93   : 				pNode->pNext	= m_pFreeList;

  0001d	8b 0e		 mov	 ecx, DWORD PTR [esi]
  0001f	89 08		 mov	 DWORD PTR [eax], ecx

; 94   : 				m_pFreeList		= pNode;

  00021	89 06		 mov	 DWORD PTR [esi], eax

; 95   : 				m_nAllocCount--;

  00023	ff 4e 18	 dec	 DWORD PTR [esi+24]
$L153494:

; 96   : 			}
; 97   : 
; 98   : 			//	mulcom	BEGIN100422	 
; 99   : 			::memset( lpMem, 0, sizeof(T) );

  00026	33 c0		 xor	 eax, eax
  00028	b9 1f 01 00 00	 mov	 ecx, 287		; 0000011fH

; 100  : 			//	mulcom	END100422	 
; 101  : 
; 102  : 			LeaveCriticalSection( &m_cs );

  0002d	53		 push	 ebx
  0002e	f3 ab		 rep stosd
  00030	ff 15 00 00 00
	00		 call	 DWORD PTR __imp__LeaveCriticalSection@4
  00036	5f		 pop	 edi
  00037	5e		 pop	 esi

; 103  : 
; 104  : 			return TRUE;

  00038	b8 01 00 00 00	 mov	 eax, 1
  0003d	5b		 pop	 ebx

; 105  : 		}

  0003e	c2 04 00	 ret	 4
?Free@?$MemPooler@VCClientSockE@@@@QAEHPAVCClientSockE@@@Z ENDP ; MemPooler<CClientSockE>::Free
_TEXT	ENDS
PUBLIC	?_Nextnode@?$list@PAXV?$allocator@PAX@std@@@std@@KAAAPAU_Node@?$_List_nod@PAXV?$allocator@PAX@std@@@2@PAU342@@Z ; std::list<void *,std::allocator<void *> >::_Nextnode
; Function compile flags: /Ogty
; File c:\program files\microsoft visual studio .net 2003\vc7\include\list
;	COMDAT ?_Nextnode@?$list@PAXV?$allocator@PAX@std@@@std@@KAAAPAU_Node@?$_List_nod@PAXV?$allocator@PAX@std@@@2@PAU342@@Z
_TEXT	SEGMENT
__Pnode$ = 8						; size = 4
?_Nextnode@?$list@PAXV?$allocator@PAX@std@@@std@@KAAAPAU_Node@?$_List_nod@PAXV?$allocator@PAX@std@@@2@PAU342@@Z PROC NEAR ; std::list<void *,std::allocator<void *> >::_Nextnode, COMDAT

; 108  : 		return ((_Nodepref)(*_Pnode)._Next);

  00000	8b 44 24 04	 mov	 eax, DWORD PTR __Pnode$[esp-4]

; 109  : 		}

  00004	c3		 ret	 0
?_Nextnode@?$list@PAXV?$allocator@PAX@std@@@std@@KAAAPAU_Node@?$_List_nod@PAXV?$allocator@PAX@std@@@2@PAU342@@Z ENDP ; std::list<void *,std::allocator<void *> >::_Nextnode
_TEXT	ENDS
PUBLIC	?_Prevnode@?$list@PAXV?$allocator@PAX@std@@@std@@KAAAPAU_Node@?$_List_nod@PAXV?$allocator@PAX@std@@@2@PAU342@@Z ; std::list<void *,std::allocator<void *> >::_Prevnode
; Function compile flags: /Ogty
;	COMDAT ?_Prevnode@?$list@PAXV?$allocator@PAX@std@@@std@@KAAAPAU_Node@?$_List_nod@PAXV?$allocator@PAX@std@@@2@PAU342@@Z
_TEXT	SEGMENT
__Pnode$ = 8						; size = 4
?_Prevnode@?$list@PAXV?$allocator@PAX@std@@@std@@KAAAPAU_Node@?$_List_nod@PAXV?$allocator@PAX@std@@@2@PAU342@@Z PROC NEAR ; std::list<void *,std::allocator<void *> >::_Prevnode, COMDAT

; 113  : 		return ((_Nodepref)(*_Pnode)._Prev);

  00000	8b 44 24 04	 mov	 eax, DWORD PTR __Pnode$[esp-4]
  00004	83 c0 04	 add	 eax, 4

; 114  : 		}

  00007	c3		 ret	 0
?_Prevnode@?$list@PAXV?$allocator@PAX@std@@@std@@KAAAPAU_Node@?$_List_nod@PAXV?$allocator@PAX@std@@@2@PAU342@@Z ENDP ; std::list<void *,std::allocator<void *> >::_Prevnode
_TEXT	ENDS
PUBLIC	?_Mynode@const_iterator@?$list@PAXV?$allocator@PAX@std@@@std@@QBEPAU_Node@?$_List_nod@PAXV?$allocator@PAX@std@@@3@XZ ; std::list<void *,std::allocator<void *> >::const_iterator::_Mynode
; Function compile flags: /Ogty
;	COMDAT ?_Mynode@const_iterator@?$list@PAXV?$allocator@PAX@std@@@std@@QBEPAU_Node@?$_List_nod@PAXV?$allocator@PAX@std@@@3@XZ
_TEXT	SEGMENT
?_Mynode@const_iterator@?$list@PAXV?$allocator@PAX@std@@@std@@QBEPAU_Node@?$_List_nod@PAXV?$allocator@PAX@std@@@3@XZ PROC NEAR ; std::list<void *,std::allocator<void *> >::const_iterator::_Mynode, COMDAT
; _this$ = ecx

; 207  : 			return (_Ptr);

  00000	8b 01		 mov	 eax, DWORD PTR [ecx]

; 208  : 			}

  00002	c3		 ret	 0
?_Mynode@const_iterator@?$list@PAXV?$allocator@PAX@std@@@std@@QBEPAU_Node@?$_List_nod@PAXV?$allocator@PAX@std@@@3@XZ ENDP ; std::list<void *,std::allocator<void *> >::const_iterator::_Mynode
_TEXT	ENDS
PUBLIC	?deallocate@?$allocator@U_Node@?$_List_nod@PAXV?$allocator@PAX@std@@@std@@@std@@QAEXPAU_Node@?$_List_nod@PAXV?$allocator@PAX@std@@@2@I@Z ; std::allocator<std::_List_nod<void *,std::allocator<void *> >::_Node>::deallocate
EXTRN	??3@YAXPAX@Z:NEAR				; operator delete
; Function compile flags: /Ogty
; File c:\program files\microsoft visual studio .net 2003\vc7\include\xmemory
;	COMDAT ?deallocate@?$allocator@U_Node@?$_List_nod@PAXV?$allocator@PAX@std@@@std@@@std@@QAEXPAU_Node@?$_List_nod@PAXV?$allocator@PAX@std@@@2@I@Z
_TEXT	SEGMENT
__Ptr$ = 8						; size = 4
___formal$ = 12						; size = 4
?deallocate@?$allocator@U_Node@?$_List_nod@PAXV?$allocator@PAX@std@@@std@@@std@@QAEXPAU_Node@?$_List_nod@PAXV?$allocator@PAX@std@@@2@I@Z PROC NEAR ; std::allocator<std::_List_nod<void *,std::allocator<void *> >::_Node>::deallocate, COMDAT
; _this$ = ecx

; 132  : 		operator delete(_Ptr);

  00000	8b 44 24 04	 mov	 eax, DWORD PTR __Ptr$[esp-4]
  00004	50		 push	 eax
  00005	e8 00 00 00 00	 call	 ??3@YAXPAX@Z		; operator delete
  0000a	59		 pop	 ecx

; 133  : 		}

  0000b	c2 08 00	 ret	 8
?deallocate@?$allocator@U_Node@?$_List_nod@PAXV?$allocator@PAX@std@@@std@@@std@@QAEXPAU_Node@?$_List_nod@PAXV?$allocator@PAX@std@@@2@I@Z ENDP ; std::allocator<std::_List_nod<void *,std::allocator<void *> >::_Node>::deallocate
_TEXT	ENDS
PUBLIC	??0const_iterator@?$list@PAXV?$allocator@PAX@std@@@std@@QAE@PAU_Node@?$_List_nod@PAXV?$allocator@PAX@std@@@2@@Z ; std::list<void *,std::allocator<void *> >::const_iterator::const_iterator
; Function compile flags: /Ogty
; File c:\program files\microsoft visual studio .net 2003\vc7\include\list
;	COMDAT ??0const_iterator@?$list@PAXV?$allocator@PAX@std@@@std@@QAE@PAU_Node@?$_List_nod@PAXV?$allocator@PAX@std@@@2@@Z
_TEXT	SEGMENT
__Pnode$ = 8						; size = 4
??0const_iterator@?$list@PAXV?$allocator@PAX@std@@@std@@QAE@PAU_Node@?$_List_nod@PAXV?$allocator@PAX@std@@@2@@Z PROC NEAR ; std::list<void *,std::allocator<void *> >::const_iterator::const_iterator, COMDAT
; _this$ = ecx

; 156  : 			{	// construct with node pointer _Pnode

  00000	8b c1		 mov	 eax, ecx
  00002	8b 4c 24 04	 mov	 ecx, DWORD PTR __Pnode$[esp-4]
  00006	89 08		 mov	 DWORD PTR [eax], ecx

; 157  : 			}

  00008	c2 04 00	 ret	 4
??0const_iterator@?$list@PAXV?$allocator@PAX@std@@@std@@QAE@PAU_Node@?$_List_nod@PAXV?$allocator@PAX@std@@@2@@Z ENDP ; std::list<void *,std::allocator<void *> >::const_iterator::const_iterator
_TEXT	ENDS
PUBLIC	??0_Node@?$_List_nod@PAXV?$allocator@PAX@std@@@std@@QAE@PAU012@0ABQAX@Z ; std::_List_nod<void *,std::allocator<void *> >::_Node::_Node
; Function compile flags: /Ogty
;	COMDAT ??0_Node@?$_List_nod@PAXV?$allocator@PAX@std@@@std@@QAE@PAU012@0ABQAX@Z
_TEXT	SEGMENT
__Nextarg$ = 8						; size = 4
__Prevarg$ = 12						; size = 4
__Myvalarg$ = 16					; size = 4
??0_Node@?$_List_nod@PAXV?$allocator@PAX@std@@@std@@QAE@PAU012@0ABQAX@Z PROC NEAR ; std::_List_nod<void *,std::allocator<void *> >::_Node::_Node, COMDAT
; _this$ = ecx

; 34   : 			{	// construct a node with value

  00000	8b 54 24 08	 mov	 edx, DWORD PTR __Prevarg$[esp-4]
  00004	8b c1		 mov	 eax, ecx
  00006	8b 4c 24 04	 mov	 ecx, DWORD PTR __Nextarg$[esp-4]
  0000a	89 08		 mov	 DWORD PTR [eax], ecx
  0000c	8b 4c 24 0c	 mov	 ecx, DWORD PTR __Myvalarg$[esp-4]
  00010	89 50 04	 mov	 DWORD PTR [eax+4], edx
  00013	8b 11		 mov	 edx, DWORD PTR [ecx]
  00015	89 50 08	 mov	 DWORD PTR [eax+8], edx

; 35   : 			}

  00018	c2 0c 00	 ret	 12			; 0000000cH
??0_Node@?$_List_nod@PAXV?$allocator@PAX@std@@@std@@QAE@PAU012@0ABQAX@Z ENDP ; std::_List_nod<void *,std::allocator<void *> >::_Node::_Node
_TEXT	ENDS
PUBLIC	??0?$allocator@D@std@@QAE@XZ			; std::allocator<char>::allocator<char>
; Function compile flags: /Ogty
; File c:\program files\microsoft visual studio .net 2003\vc7\include\xmemory
;	COMDAT ??0?$allocator@D@std@@QAE@XZ
_TEXT	SEGMENT
??0?$allocator@D@std@@QAE@XZ PROC NEAR			; std::allocator<char>::allocator<char>, COMDAT
; _this$ = ecx

; 111  : 	allocator()

  00000	8b c1		 mov	 eax, ecx

; 112  : 		{	// construct default allocator (do nothing)
; 113  : 		}

  00002	c3		 ret	 0
??0?$allocator@D@std@@QAE@XZ ENDP			; std::allocator<char>::allocator<char>
_TEXT	ENDS
PUBLIC	?max_size@?$allocator@PAX@std@@QBEIXZ		; std::allocator<void *>::max_size
; Function compile flags: /Ogty
;	COMDAT ?max_size@?$allocator@PAX@std@@QBEIXZ
_TEXT	SEGMENT
?max_size@?$allocator@PAX@std@@QBEIXZ PROC NEAR		; std::allocator<void *>::max_size, COMDAT
; _this$ = ecx

; 157  : 		_SIZT _Count = (_SIZT)(-1) / sizeof (_Ty);
; 158  : 		return (0 < _Count ? _Count : 1);

  00000	b8 ff ff ff 3f	 mov	 eax, 1073741823		; 3fffffffH

; 159  : 		}

  00005	c3		 ret	 0
?max_size@?$allocator@PAX@std@@QBEIXZ ENDP		; std::allocator<void *>::max_size
_TEXT	ENDS
PUBLIC	?GetFirstActive@?$CMyMap@PAVCClientSockE@@@@QAEPAV?$CMyBucket@PAVCClientSockE@@@@XZ ; CMyMap<CClientSockE *>::GetFirstActive
; Function compile flags: /Ogty
; File c:\offi src_real\offi src!\_network\misc\include\mymap.h
;	COMDAT ?GetFirstActive@?$CMyMap@PAVCClientSockE@@@@QAEPAV?$CMyBucket@PAVCClientSockE@@@@XZ
_TEXT	SEGMENT
?GetFirstActive@?$CMyMap@PAVCClientSockE@@@@QAEPAV?$CMyBucket@PAVCClientSockE@@@@XZ PROC NEAR ; CMyMap<CClientSockE *>::GetFirstActive, COMDAT
; _this$ = ecx

; 464  : 	return m_pFirstActive;

  00000	8b 41 34	 mov	 eax, DWORD PTR [ecx+52]

; 465  : }

  00003	c3		 ret	 0
?GetFirstActive@?$CMyMap@PAVCClientSockE@@@@QAEPAV?$CMyBucket@PAVCClientSockE@@@@XZ ENDP ; CMyMap<CClientSockE *>::GetFirstActive
_TEXT	ENDS
PUBLIC	??1?$CMyBucket@PAVCClientSockE@@@@UAE@XZ	; CMyBucket<CClientSockE *>::~CMyBucket<CClientSockE *>
PUBLIC	??_7?$CMyBucket@PAVCClientSockE@@@@6B@		; CMyBucket<CClientSockE *>::`vftable'
PUBLIC	??_E?$CMyBucket@PAVCClientSockE@@@@UAEPAXI@Z	; CMyBucket<CClientSockE *>::`vector deleting destructor'
;	COMDAT ??_7?$CMyBucket@PAVCClientSockE@@@@6B@
CONST	SEGMENT
??_7?$CMyBucket@PAVCClientSockE@@@@6B@ DD FLAT:??_E?$CMyBucket@PAVCClientSockE@@@@UAEPAXI@Z ; CMyBucket<CClientSockE *>::`vftable'
; Function compile flags: /Ogty
CONST	ENDS
;	COMDAT ??1?$CMyBucket@PAVCClientSockE@@@@UAE@XZ
_TEXT	SEGMENT
??1?$CMyBucket@PAVCClientSockE@@@@UAE@XZ PROC NEAR	; CMyBucket<CClientSockE *>::~CMyBucket<CClientSockE *>, COMDAT
; _this$ = ecx

; 59   : {

  00000	c7 01 00 00 00
	00		 mov	 DWORD PTR [ecx], OFFSET FLAT:??_7?$CMyBucket@PAVCClientSockE@@@@6B@

; 60   : 
; 61   : }

  00006	c3		 ret	 0
??1?$CMyBucket@PAVCClientSockE@@@@UAE@XZ ENDP		; CMyBucket<CClientSockE *>::~CMyBucket<CClientSockE *>
_TEXT	ENDS
PUBLIC	??$_Allocate@U_Node@?$_List_nod@PAXV?$allocator@PAX@std@@@std@@@std@@YAPAU_Node@?$_List_nod@PAXV?$allocator@PAX@std@@@0@IPAU120@@Z ; std::_Allocate<std::_List_nod<void *,std::allocator<void *> >::_Node>
EXTRN	??2@YAPAXI@Z:NEAR				; operator new
; Function compile flags: /Ogty
; File c:\program files\microsoft visual studio .net 2003\vc7\include\xmemory
;	COMDAT ??$_Allocate@U_Node@?$_List_nod@PAXV?$allocator@PAX@std@@@std@@@std@@YAPAU_Node@?$_List_nod@PAXV?$allocator@PAX@std@@@0@IPAU120@@Z
_TEXT	SEGMENT
__Count$ = 8						; size = 4
___formal$ = 12						; size = 4
??$_Allocate@U_Node@?$_List_nod@PAXV?$allocator@PAX@std@@@std@@@std@@YAPAU_Node@?$_List_nod@PAXV?$allocator@PAX@std@@@0@IPAU120@@Z PROC NEAR ; std::_Allocate<std::_List_nod<void *,std::allocator<void *> >::_Node>, COMDAT

; 34   : 	return ((_Ty _FARQ *)operator new(_Count * sizeof (_Ty)));

  00000	8b 44 24 04	 mov	 eax, DWORD PTR __Count$[esp-4]
  00004	8d 04 40	 lea	 eax, DWORD PTR [eax+eax*2]
  00007	c1 e0 02	 shl	 eax, 2
  0000a	50		 push	 eax
  0000b	e8 00 00 00 00	 call	 ??2@YAPAXI@Z		; operator new
  00010	83 c4 04	 add	 esp, 4

; 35   : 	}

  00013	c3		 ret	 0
??$_Allocate@U_Node@?$_List_nod@PAXV?$allocator@PAX@std@@@std@@@std@@YAPAU_Node@?$_List_nod@PAXV?$allocator@PAX@std@@@0@IPAU120@@Z ENDP ; std::_Allocate<std::_List_nod<void *,std::allocator<void *> >::_Node>
_TEXT	ENDS
EXTRN	??_M@YGXPAXIHP6EX0@Z@Z:NEAR			; `eh vector destructor iterator'
EXTRN	??_V@YAXPAX@Z:NEAR				; operator delete[]
; Function compile flags: /Ogty
;	COMDAT ??_E?$CMyBucket@PAVCClientSockE@@@@UAEPAXI@Z
_TEXT	SEGMENT
___flags$ = 8						; size = 4
??_E?$CMyBucket@PAVCClientSockE@@@@UAEPAXI@Z PROC NEAR	; CMyBucket<CClientSockE *>::`vector deleting destructor', COMDAT
; _this$ = ecx
  00000	53		 push	 ebx
  00001	8a 5c 24 08	 mov	 bl, BYTE PTR ___flags$[esp]
  00005	f6 c3 02	 test	 bl, 2
  00008	56		 push	 esi
  00009	8b f1		 mov	 esi, ecx
  0000b	74 2b		 je	 SHORT $L153945
  0000d	8b 46 fc	 mov	 eax, DWORD PTR [esi-4]
  00010	57		 push	 edi
  00011	68 00 00 00 00	 push	 OFFSET FLAT:??1?$CMyBucket@PAVCClientSockE@@@@UAE@XZ ; CMyBucket<CClientSockE *>::~CMyBucket<CClientSockE *>
  00016	8d 7e fc	 lea	 edi, DWORD PTR [esi-4]
  00019	50		 push	 eax
  0001a	6a 18		 push	 24			; 00000018H
  0001c	56		 push	 esi
  0001d	e8 00 00 00 00	 call	 ??_M@YGXPAXIHP6EX0@Z@Z
  00022	f6 c3 01	 test	 bl, 1
  00025	74 09		 je	 SHORT $L153946
  00027	57		 push	 edi
  00028	e8 00 00 00 00	 call	 ??_V@YAXPAX@Z		; operator delete[]
  0002d	83 c4 04	 add	 esp, 4
$L153946:
  00030	8b c7		 mov	 eax, edi
  00032	5f		 pop	 edi
  00033	5e		 pop	 esi
  00034	5b		 pop	 ebx
  00035	c2 04 00	 ret	 4
$L153945:
  00038	f6 c3 01	 test	 bl, 1
  0003b	c7 06 00 00 00
	00		 mov	 DWORD PTR [esi], OFFSET FLAT:??_7?$CMyBucket@PAVCClientSockE@@@@6B@
  00041	74 09		 je	 SHORT $L153948
  00043	56		 push	 esi
  00044	e8 00 00 00 00	 call	 ??3@YAXPAX@Z		; operator delete
  00049	83 c4 04	 add	 esp, 4
$L153948:
  0004c	8b c6		 mov	 eax, esi
  0004e	5e		 pop	 esi
  0004f	5b		 pop	 ebx
  00050	c2 04 00	 ret	 4
??_E?$CMyBucket@PAVCClientSockE@@@@UAEPAXI@Z ENDP	; CMyBucket<CClientSockE *>::`vector deleting destructor'
_TEXT	ENDS
PUBLIC	?empty@?$deque@PAV?$CMyBucket@PAVCClientSockE@@@@V?$allocator@PAV?$CMyBucket@PAVCClientSockE@@@@@std@@@std@@QBE_NXZ ; std::deque<CMyBucket<CClientSockE *> *,std::allocator<CMyBucket<CClientSockE *> *> >::empty
; Function compile flags: /Ogty
; File c:\program files\microsoft visual studio .net 2003\vc7\include\deque
;	COMDAT ?empty@?$deque@PAV?$CMyBucket@PAVCClientSockE@@@@V?$allocator@PAV?$CMyBucket@PAVCClientSockE@@@@@std@@@std@@QBE_NXZ
_TEXT	SEGMENT
?empty@?$deque@PAV?$CMyBucket@PAVCClientSockE@@@@V?$allocator@PAV?$CMyBucket@PAVCClientSockE@@@@@std@@@std@@QBE_NXZ PROC NEAR ; std::deque<CMyBucket<CClientSockE *> *,std::allocator<CMyBucket<CClientSockE *> *> >::empty, COMDAT
; _this$ = ecx

; 502  : 		return (_Mysize == 0);

  00000	8b 51 10	 mov	 edx, DWORD PTR [ecx+16]
  00003	33 c0		 xor	 eax, eax
  00005	85 d2		 test	 edx, edx
  00007	0f 94 c0	 sete	 al

; 503  : 		}

  0000a	c3		 ret	 0
?empty@?$deque@PAV?$CMyBucket@PAVCClientSockE@@@@V?$allocator@PAV?$CMyBucket@PAVCClientSockE@@@@@std@@@std@@QBE_NXZ ENDP ; std::deque<CMyBucket<CClientSockE *> *,std::allocator<CMyBucket<CClientSockE *> *> >::empty
_TEXT	ENDS
PUBLIC	?deallocate@?$allocator@PAV?$CMyBucket@PAVCClientSockE@@@@@std@@QAEXPAPAV?$CMyBucket@PAVCClientSockE@@@@I@Z ; std::allocator<CMyBucket<CClientSockE *> *>::deallocate
; Function compile flags: /Ogty
; File c:\program files\microsoft visual studio .net 2003\vc7\include\xmemory
;	COMDAT ?deallocate@?$allocator@PAV?$CMyBucket@PAVCClientSockE@@@@@std@@QAEXPAPAV?$CMyBucket@PAVCClientSockE@@@@I@Z
_TEXT	SEGMENT
__Ptr$ = 8						; size = 4
___formal$ = 12						; size = 4
?deallocate@?$allocator@PAV?$CMyBucket@PAVCClientSockE@@@@@std@@QAEXPAPAV?$CMyBucket@PAVCClientSockE@@@@I@Z PROC NEAR ; std::allocator<CMyBucket<CClientSockE *> *>::deallocate, COMDAT
; _this$ = ecx

; 132  : 		operator delete(_Ptr);

  00000	8b 44 24 04	 mov	 eax, DWORD PTR __Ptr$[esp-4]
  00004	50		 push	 eax
  00005	e8 00 00 00 00	 call	 ??3@YAXPAX@Z		; operator delete
  0000a	59		 pop	 ecx

; 133  : 		}

  0000b	c2 08 00	 ret	 8
?deallocate@?$allocator@PAV?$CMyBucket@PAVCClientSockE@@@@@std@@QAEXPAPAV?$CMyBucket@PAVCClientSockE@@@@I@Z ENDP ; std::allocator<CMyBucket<CClientSockE *> *>::deallocate
_TEXT	ENDS
PUBLIC	?deallocate@?$allocator@PAPAV?$CMyBucket@PAVCClientSockE@@@@@std@@QAEXPAPAPAV?$CMyBucket@PAVCClientSockE@@@@I@Z ; std::allocator<CMyBucket<CClientSockE *> * *>::deallocate
; Function compile flags: /Ogty
;	COMDAT ?deallocate@?$allocator@PAPAV?$CMyBucket@PAVCClientSockE@@@@@std@@QAEXPAPAPAV?$CMyBucket@PAVCClientSockE@@@@I@Z
_TEXT	SEGMENT
__Ptr$ = 8						; size = 4
___formal$ = 12						; size = 4
?deallocate@?$allocator@PAPAV?$CMyBucket@PAVCClientSockE@@@@@std@@QAEXPAPAPAV?$CMyBucket@PAVCClientSockE@@@@I@Z PROC NEAR ; std::allocator<CMyBucket<CClientSockE *> * *>::deallocate, COMDAT
; _this$ = ecx

; 132  : 		operator delete(_Ptr);

  00000	8b 44 24 04	 mov	 eax, DWORD PTR __Ptr$[esp-4]
  00004	50		 push	 eax
  00005	e8 00 00 00 00	 call	 ??3@YAXPAX@Z		; operator delete
  0000a	59		 pop	 ecx

; 133  : 		}

  0000b	c2 08 00	 ret	 8
?deallocate@?$allocator@PAPAV?$CMyBucket@PAVCClientSockE@@@@@std@@QAEXPAPAPAV?$CMyBucket@PAVCClientSockE@@@@I@Z ENDP ; std::allocator<CMyBucket<CClientSockE *> * *>::deallocate
_TEXT	ENDS
PUBLIC	?_Nextnode@?$list@PAV?$CMyBucket@PAVCClientSockE@@@@V?$allocator@PAV?$CMyBucket@PAVCClientSockE@@@@@std@@@std@@KAAAPAU_Node@?$_List_nod@PAV?$CMyBucket@PAVCClientSockE@@@@V?$allocator@PAV?$CMyBucket@PAVCClientSockE@@@@@std@@@2@PAU342@@Z ; std::list<CMyBucket<CClientSockE *> *,std::allocator<CMyBucket<CClientSockE *> *> >::_Nextnode
; Function compile flags: /Ogty
; File c:\program files\microsoft visual studio .net 2003\vc7\include\list
;	COMDAT ?_Nextnode@?$list@PAV?$CMyBucket@PAVCClientSockE@@@@V?$allocator@PAV?$CMyBucket@PAVCClientSockE@@@@@std@@@std@@KAAAPAU_Node@?$_List_nod@PAV?$CMyBucket@PAVCClientSockE@@@@V?$allocator@PAV?$CMyBucket@PAVCClientSockE@@@@@std@@@2@PAU342@@Z
_TEXT	SEGMENT
__Pnode$ = 8						; size = 4
?_Nextnode@?$list@PAV?$CMyBucket@PAVCClientSockE@@@@V?$allocator@PAV?$CMyBucket@PAVCClientSockE@@@@@std@@@std@@KAAAPAU_Node@?$_List_nod@PAV?$CMyBucket@PAVCClientSockE@@@@V?$allocator@PAV?$CMyBucket@PAVCClientSockE@@@@@std@@@2@PAU342@@Z PROC NEAR ; std::list<CMyBucket<CClientSockE *> *,std::allocator<CMyBucket<CClientSockE *> *> >::_Nextnode, COMDAT

; 108  : 		return ((_Nodepref)(*_Pnode)._Next);

  00000	8b 44 24 04	 mov	 eax, DWORD PTR __Pnode$[esp-4]

; 109  : 		}

  00004	c3		 ret	 0
?_Nextnode@?$list@PAV?$CMyBucket@PAVCClientSockE@@@@V?$allocator@PAV?$CMyBucket@PAVCClientSockE@@@@@std@@@std@@KAAAPAU_Node@?$_List_nod@PAV?$CMyBucket@PAVCClientSockE@@@@V?$allocator@PAV?$CMyBucket@PAVCClientSockE@@@@@std@@@2@PAU342@@Z ENDP ; std::list<CMyBucket<CClientSockE *> *,std::allocator<CMyBucket<CClientSockE *> *> >::_Nextnode
_TEXT	ENDS
PUBLIC	?_Prevnode@?$list@PAV?$CMyBucket@PAVCClientSockE@@@@V?$allocator@PAV?$CMyBucket@PAVCClientSockE@@@@@std@@@std@@KAAAPAU_Node@?$_List_nod@PAV?$CMyBucket@PAVCClientSockE@@@@V?$allocator@PAV?$CMyBucket@PAVCClientSockE@@@@@std@@@2@PAU342@@Z ; std::list<CMyBucket<CClientSockE *> *,std::allocator<CMyBucket<CClientSockE *> *> >::_Prevnode
; Function compile flags: /Ogty
;	COMDAT ?_Prevnode@?$list@PAV?$CMyBucket@PAVCClientSockE@@@@V?$allocator@PAV?$CMyBucket@PAVCClientSockE@@@@@std@@@std@@KAAAPAU_Node@?$_List_nod@PAV?$CMyBucket@PAVCClientSockE@@@@V?$allocator@PAV?$CMyBucket@PAVCClientSockE@@@@@std@@@2@PAU342@@Z
_TEXT	SEGMENT
__Pnode$ = 8						; size = 4
?_Prevnode@?$list@PAV?$CMyBucket@PAVCClientSockE@@@@V?$allocator@PAV?$CMyBucket@PAVCClientSockE@@@@@std@@@std@@KAAAPAU_Node@?$_List_nod@PAV?$CMyBucket@PAVCClientSockE@@@@V?$allocator@PAV?$CMyBucket@PAVCClientSockE@@@@@std@@@2@PAU342@@Z PROC NEAR ; std::list<CMyBucket<CClientSockE *> *,std::allocator<CMyBucket<CClientSockE *> *> >::_Prevnode, COMDAT

; 113  : 		return ((_Nodepref)(*_Pnode)._Prev);

  00000	8b 44 24 04	 mov	 eax, DWORD PTR __Pnode$[esp-4]
  00004	83 c0 04	 add	 eax, 4

; 114  : 		}

  00007	c3		 ret	 0
?_Prevnode@?$list@PAV?$CMyBucket@PAVCClientSockE@@@@V?$allocator@PAV?$CMyBucket@PAVCClientSockE@@@@@std@@@std@@KAAAPAU_Node@?$_List_nod@PAV?$CMyBucket@PAVCClientSockE@@@@V?$allocator@PAV?$CMyBucket@PAVCClientSockE@@@@@std@@@2@PAU342@@Z ENDP ; std::list<CMyBucket<CClientSockE *> *,std::allocator<CMyBucket<CClientSockE *> *> >::_Prevnode
_TEXT	ENDS
PUBLIC	?deallocate@?$allocator@U_Node@?$_List_nod@PAV?$CMyBucket@PAVCClientSockE@@@@V?$allocator@PAV?$CMyBucket@PAVCClientSockE@@@@@std@@@std@@@std@@QAEXPAU_Node@?$_List_nod@PAV?$CMyBucket@PAVCClientSockE@@@@V?$allocator@PAV?$CMyBucket@PAVCClientSockE@@@@@std@@@2@I@Z ; std::allocator<std::_List_nod<CMyBucket<CClientSockE *> *,std::allocator<CMyBucket<CClientSockE *> *> >::_Node>::deallocate
; Function compile flags: /Ogty
; File c:\program files\microsoft visual studio .net 2003\vc7\include\xmemory
;	COMDAT ?deallocate@?$allocator@U_Node@?$_List_nod@PAV?$CMyBucket@PAVCClientSockE@@@@V?$allocator@PAV?$CMyBucket@PAVCClientSockE@@@@@std@@@std@@@std@@QAEXPAU_Node@?$_List_nod@PAV?$CMyBucket@PAVCClientSockE@@@@V?$allocator@PAV?$CMyBucket@PAVCClientSockE@@@@@std@@@2@I@Z
_TEXT	SEGMENT
__Ptr$ = 8						; size = 4
___formal$ = 12						; size = 4
?deallocate@?$allocator@U_Node@?$_List_nod@PAV?$CMyBucket@PAVCClientSockE@@@@V?$allocator@PAV?$CMyBucket@PAVCClientSockE@@@@@std@@@std@@@std@@QAEXPAU_Node@?$_List_nod@PAV?$CMyBucket@PAVCClientSockE@@@@V?$allocator@PAV?$CMyBucket@PAVCClientSockE@@@@@std@@@2@I@Z PROC NEAR ; std::allocator<std::_List_nod<CMyBucket<CClientSockE *> *,std::allocator<CMyBucket<CClientSockE *> *> >::_Node>::deallocate, COMDAT
; _this$ = ecx

; 132  : 		operator delete(_Ptr);

  00000	8b 44 24 04	 mov	 eax, DWORD PTR __Ptr$[esp-4]
  00004	50		 push	 eax
  00005	e8 00 00 00 00	 call	 ??3@YAXPAX@Z		; operator delete
  0000a	59		 pop	 ecx

; 133  : 		}

  0000b	c2 08 00	 ret	 8
?deallocate@?$allocator@U_Node@?$_List_nod@PAV?$CMyBucket@PAVCClientSockE@@@@V?$allocator@PAV?$CMyBucket@PAVCClientSockE@@@@@std@@@std@@@std@@QAEXPAU_Node@?$_List_nod@PAV?$CMyBucket@PAVCClientSockE@@@@V?$allocator@PAV?$CMyBucket@PAVCClientSockE@@@@@std@@@2@I@Z ENDP ; std::allocator<std::_List_nod<CMyBucket<CClientSockE *> *,std::allocator<CMyBucket<CClientSockE *> *> >::_Node>::deallocate
_TEXT	ENDS
PUBLIC	?AddItToActiveList@?$CMyMap@PAVCClientSockE@@@@QAEXPAV?$CMyBucket@PAVCClientSockE@@@@@Z ; CMyMap<CClientSockE *>::AddItToActiveList
; Function compile flags: /Ogty
; File c:\offi src_real\offi src!\_network\misc\include\mymap.h
;	COMDAT ?AddItToActiveList@?$CMyMap@PAVCClientSockE@@@@QAEXPAV?$CMyBucket@PAVCClientSockE@@@@@Z
_TEXT	SEGMENT
_pBucket$ = 8						; size = 4
?AddItToActiveList@?$CMyMap@PAVCClientSockE@@@@QAEXPAV?$CMyBucket@PAVCClientSockE@@@@@Z PROC NEAR ; CMyMap<CClientSockE *>::AddItToActiveList, COMDAT
; _this$ = ecx

; 443  : 	// Add it to the active list
; 444  : 	if( m_pFirstActive )

  00000	8b 51 34	 mov	 edx, DWORD PTR [ecx+52]
  00003	85 d2		 test	 edx, edx
  00005	8b 44 24 04	 mov	 eax, DWORD PTR _pBucket$[esp-4]
  00009	74 03		 je	 SHORT $L154350

; 445  : 		m_pFirstActive->pPrevious	= pBucket;

  0000b	89 42 10	 mov	 DWORD PTR [edx+16], eax
$L154350:

; 446  : 	pBucket->pNext	= m_pFirstActive;

  0000e	8b 51 34	 mov	 edx, DWORD PTR [ecx+52]
  00011	89 50 14	 mov	 DWORD PTR [eax+20], edx

; 447  : 	pBucket->pPrevious	= NULL;

  00014	c7 40 10 00 00
	00 00		 mov	 DWORD PTR [eax+16], 0

; 448  : 	m_pFirstActive	= pBucket;

  0001b	89 41 34	 mov	 DWORD PTR [ecx+52], eax

; 449  : }

  0001e	c2 04 00	 ret	 4
?AddItToActiveList@?$CMyMap@PAVCClientSockE@@@@QAEXPAV?$CMyBucket@PAVCClientSockE@@@@@Z ENDP ; CMyMap<CClientSockE *>::AddItToActiveList
_TEXT	ENDS
PUBLIC	?RemoveItFromActiveList@?$CMyMap@PAVCClientSockE@@@@QAEXPAV?$CMyBucket@PAVCClientSockE@@@@@Z ; CMyMap<CClientSockE *>::RemoveItFromActiveList
; Function compile flags: /Ogty
;	COMDAT ?RemoveItFromActiveList@?$CMyMap@PAVCClientSockE@@@@QAEXPAV?$CMyBucket@PAVCClientSockE@@@@@Z
_TEXT	SEGMENT
_pBucket$ = 8						; size = 4
?RemoveItFromActiveList@?$CMyMap@PAVCClientSockE@@@@QAEXPAV?$CMyBucket@PAVCClientSockE@@@@@Z PROC NEAR ; CMyMap<CClientSockE *>::RemoveItFromActiveList, COMDAT
; _this$ = ecx

; 453  : 	// Remove it from active list
; 454  : 	if( pBucket->pPrevious )

  00000	8b 44 24 04	 mov	 eax, DWORD PTR _pBucket$[esp-4]
  00004	8b 50 10	 mov	 edx, DWORD PTR [eax+16]
  00007	85 d2		 test	 edx, edx
  00009	56		 push	 esi
  0000a	74 06		 je	 SHORT $L154356

; 455  : 		pBucket->pPrevious->pNext	= pBucket->pNext;

  0000c	8b 70 14	 mov	 esi, DWORD PTR [eax+20]
  0000f	89 72 14	 mov	 DWORD PTR [edx+20], esi
$L154356:

; 456  : 	if( pBucket->pNext )

  00012	8b 50 14	 mov	 edx, DWORD PTR [eax+20]
  00015	85 d2		 test	 edx, edx
  00017	74 06		 je	 SHORT $L154357

; 457  : 		pBucket->pNext->pPrevious	= pBucket->pPrevious;

  00019	8b 70 10	 mov	 esi, DWORD PTR [eax+16]
  0001c	89 72 10	 mov	 DWORD PTR [edx+16], esi
$L154357:

; 458  : 	if( m_pFirstActive == pBucket )

  0001f	39 41 34	 cmp	 DWORD PTR [ecx+52], eax
  00022	5e		 pop	 esi
  00023	75 06		 jne	 SHORT $L154358

; 459  : 		m_pFirstActive	= pBucket->pNext;

  00025	8b 40 14	 mov	 eax, DWORD PTR [eax+20]
  00028	89 41 34	 mov	 DWORD PTR [ecx+52], eax
$L154358:

; 460  : }

  0002b	c2 04 00	 ret	 4
?RemoveItFromActiveList@?$CMyMap@PAVCClientSockE@@@@QAEXPAV?$CMyBucket@PAVCClientSockE@@@@@Z ENDP ; CMyMap<CClientSockE *>::RemoveItFromActiveList
_TEXT	ENDS
PUBLIC	??0?$CMyBucket@PAVCClientSockE@@@@QAE@XZ	; CMyBucket<CClientSockE *>::CMyBucket<CClientSockE *>
; Function compile flags: /Ogty
;	COMDAT ??0?$CMyBucket@PAVCClientSockE@@@@QAE@XZ
_TEXT	SEGMENT
??0?$CMyBucket@PAVCClientSockE@@@@QAE@XZ PROC NEAR	; CMyBucket<CClientSockE *>::CMyBucket<CClientSockE *>, COMDAT
; _this$ = ecx

; 52   : {

  00000	8b c1		 mov	 eax, ecx

; 53   : 	m_dwKey		= INVALID_KEY;
; 54   : 	m_pNext		= NULL;	// map

  00002	33 c9		 xor	 ecx, ecx
  00004	c7 00 00 00 00
	00		 mov	 DWORD PTR [eax], OFFSET FLAT:??_7?$CMyBucket@PAVCClientSockE@@@@6B@
  0000a	c7 40 04 ff ff
	ff ff		 mov	 DWORD PTR [eax+4], -1
  00011	89 48 0c	 mov	 DWORD PTR [eax+12], ecx

; 55   : 	pPrevious	= pNext		= NULL;	// list

  00014	89 48 14	 mov	 DWORD PTR [eax+20], ecx
  00017	89 48 10	 mov	 DWORD PTR [eax+16], ecx

; 56   : }

  0001a	c3		 ret	 0
??0?$CMyBucket@PAVCClientSockE@@@@QAE@XZ ENDP		; CMyBucket<CClientSockE *>::CMyBucket<CClientSockE *>
_TEXT	ENDS
PUBLIC	?Empty@?$CMyBucket@PAVCClientSockE@@@@QAEXXZ	; CMyBucket<CClientSockE *>::Empty
; Function compile flags: /Ogty
;	COMDAT ?Empty@?$CMyBucket@PAVCClientSockE@@@@QAEXXZ
_TEXT	SEGMENT
?Empty@?$CMyBucket@PAVCClientSockE@@@@QAEXXZ PROC NEAR	; CMyBucket<CClientSockE *>::Empty, COMDAT
; _this$ = ecx

; 65   : 	m_dwKey		= INVALID_KEY;

  00000	c7 41 04 ff ff
	ff ff		 mov	 DWORD PTR [ecx+4], -1

; 66   : }

  00007	c3		 ret	 0
?Empty@?$CMyBucket@PAVCClientSockE@@@@QAEXXZ ENDP	; CMyBucket<CClientSockE *>::Empty
_TEXT	ENDS
PUBLIC	?IsEqual@?$CMyBucket@PAVCClientSockE@@@@QAEHK@Z	; CMyBucket<CClientSockE *>::IsEqual
; Function compile flags: /Ogty
;	COMDAT ?IsEqual@?$CMyBucket@PAVCClientSockE@@@@QAEHK@Z
_TEXT	SEGMENT
_dwKey$ = 8						; size = 4
?IsEqual@?$CMyBucket@PAVCClientSockE@@@@QAEHK@Z PROC NEAR ; CMyBucket<CClientSockE *>::IsEqual, COMDAT
; _this$ = ecx

; 70   : 	return( dwKey == m_dwKey );

  00000	8b 54 24 04	 mov	 edx, DWORD PTR _dwKey$[esp-4]
  00004	56		 push	 esi
  00005	8b 71 04	 mov	 esi, DWORD PTR [ecx+4]
  00008	33 c0		 xor	 eax, eax
  0000a	3b d6		 cmp	 edx, esi
  0000c	0f 94 c0	 sete	 al
  0000f	5e		 pop	 esi

; 71   : }

  00010	c2 04 00	 ret	 4
?IsEqual@?$CMyBucket@PAVCClientSockE@@@@QAEHK@Z ENDP	; CMyBucket<CClientSockE *>::IsEqual
_TEXT	ENDS
PUBLIC	?IsEmpty@?$CMyBucket@PAVCClientSockE@@@@QAEHXZ	; CMyBucket<CClientSockE *>::IsEmpty
; Function compile flags: /Ogty
;	COMDAT ?IsEmpty@?$CMyBucket@PAVCClientSockE@@@@QAEHXZ
_TEXT	SEGMENT
?IsEmpty@?$CMyBucket@PAVCClientSockE@@@@QAEHXZ PROC NEAR ; CMyBucket<CClientSockE *>::IsEmpty, COMDAT
; _this$ = ecx

; 75   : 	return( m_dwKey == INVALID_KEY );

  00000	8b 51 04	 mov	 edx, DWORD PTR [ecx+4]
  00003	33 c0		 xor	 eax, eax
  00005	83 fa ff	 cmp	 edx, -1
  00008	0f 94 c0	 sete	 al

; 76   : }

  0000b	c3		 ret	 0
?IsEmpty@?$CMyBucket@PAVCClientSockE@@@@QAEHXZ ENDP	; CMyBucket<CClientSockE *>::IsEmpty
_TEXT	ENDS
PUBLIC	??$_Destroy@PAPAV?$CMyBucket@PAVCClientSockE@@@@@std@@YAXPAPAPAV?$CMyBucket@PAVCClientSockE@@@@@Z ; std::_Destroy<CMyBucket<CClientSockE *> * *>
; Function compile flags: /Ogty
; File c:\program files\microsoft visual studio .net 2003\vc7\include\xmemory
;	COMDAT ??$_Destroy@PAPAV?$CMyBucket@PAVCClientSockE@@@@@std@@YAXPAPAPAV?$CMyBucket@PAVCClientSockE@@@@@Z
_TEXT	SEGMENT
__Ptr$ = 8						; size = 4
??$_Destroy@PAPAV?$CMyBucket@PAVCClientSockE@@@@@std@@YAXPAPAPAV?$CMyBucket@PAVCClientSockE@@@@@Z PROC NEAR ; std::_Destroy<CMyBucket<CClientSockE *> * *>, COMDAT

; 49   : 	_DESTRUCTOR(_Ty, _Ptr);
; 50   : 	}

  00000	c3		 ret	 0
??$_Destroy@PAPAV?$CMyBucket@PAVCClientSockE@@@@@std@@YAXPAPAPAV?$CMyBucket@PAVCClientSockE@@@@@Z ENDP ; std::_Destroy<CMyBucket<CClientSockE *> * *>
_TEXT	ENDS
PUBLIC	??$_Destroy@PAU_Node@?$_List_nod@PAV?$CMyBucket@PAVCClientSockE@@@@V?$allocator@PAV?$CMyBucket@PAVCClientSockE@@@@@std@@@std@@@std@@YAXPAPAU_Node@?$_List_nod@PAV?$CMyBucket@PAVCClientSockE@@@@V?$allocator@PAV?$CMyBucket@PAVCClientSockE@@@@@std@@@0@@Z ; std::_Destroy<std::_List_nod<CMyBucket<CClientSockE *> *,std::allocator<CMyBucket<CClientSockE *> *> >::_Node *>
; Function compile flags: /Ogty
;	COMDAT ??$_Destroy@PAU_Node@?$_List_nod@PAV?$CMyBucket@PAVCClientSockE@@@@V?$allocator@PAV?$CMyBucket@PAVCClientSockE@@@@@std@@@std@@@std@@YAXPAPAU_Node@?$_List_nod@PAV?$CMyBucket@PAVCClientSockE@@@@V?$allocator@PAV?$CMyBucket@PAVCClientSockE@@@@@std@@@0@@Z
_TEXT	SEGMENT
__Ptr$ = 8						; size = 4
??$_Destroy@PAU_Node@?$_List_nod@PAV?$CMyBucket@PAVCClientSockE@@@@V?$allocator@PAV?$CMyBucket@PAVCClientSockE@@@@@std@@@std@@@std@@YAXPAPAU_Node@?$_List_nod@PAV?$CMyBucket@PAVCClientSockE@@@@V?$allocator@PAV?$CMyBucket@PAVCClientSockE@@@@@std@@@0@@Z PROC NEAR ; std::_Destroy<std::_List_nod<CMyBucket<CClientSockE *> *,std::allocator<CMyBucket<CClientSockE *> *> >::_Node *>, COMDAT

; 49   : 	_DESTRUCTOR(_Ty, _Ptr);
; 50   : 	}

  00000	c3		 ret	 0
??$_Destroy@PAU_Node@?$_List_nod@PAV?$CMyBucket@PAVCClientSockE@@@@V?$allocator@PAV?$CMyBucket@PAVCClientSockE@@@@@std@@@std@@@std@@YAXPAPAU_Node@?$_List_nod@PAV?$CMyBucket@PAVCClientSockE@@@@V?$allocator@PAV?$CMyBucket@PAVCClientSockE@@@@@std@@@0@@Z ENDP ; std::_Destroy<std::_List_nod<CMyBucket<CClientSockE *> *,std::allocator<CMyBucket<CClientSockE *> *> >::_Node *>
_TEXT	ENDS
PUBLIC	??$_Destroy@PAV?$CMyBucket@PAVCClientSockE@@@@@std@@YAXPAPAV?$CMyBucket@PAVCClientSockE@@@@@Z ; std::_Destroy<CMyBucket<CClientSockE *> *>
; Function compile flags: /Ogty
;	COMDAT ??$_Destroy@PAV?$CMyBucket@PAVCClientSockE@@@@@std@@YAXPAPAV?$CMyBucket@PAVCClientSockE@@@@@Z
_TEXT	SEGMENT
__Ptr$ = 8						; size = 4
??$_Destroy@PAV?$CMyBucket@PAVCClientSockE@@@@@std@@YAXPAPAV?$CMyBucket@PAVCClientSockE@@@@@Z PROC NEAR ; std::_Destroy<CMyBucket<CClientSockE *> *>, COMDAT

; 49   : 	_DESTRUCTOR(_Ty, _Ptr);
; 50   : 	}

  00000	c3		 ret	 0
??$_Destroy@PAV?$CMyBucket@PAVCClientSockE@@@@@std@@YAXPAPAV?$CMyBucket@PAVCClientSockE@@@@@Z ENDP ; std::_Destroy<CMyBucket<CClientSockE *> *>
_TEXT	ENDS
PUBLIC	??$_Destroy@U_Node@?$_List_nod@PAV?$CMyBucket@PAVCClientSockE@@@@V?$allocator@PAV?$CMyBucket@PAVCClientSockE@@@@@std@@@std@@@std@@YAXPAU_Node@?$_List_nod@PAV?$CMyBucket@PAVCClientSockE@@@@V?$allocator@PAV?$CMyBucket@PAVCClientSockE@@@@@std@@@0@@Z ; std::_Destroy<std::_List_nod<CMyBucket<CClientSockE *> *,std::allocator<CMyBucket<CClientSockE *> *> >::_Node>
; Function compile flags: /Ogty
;	COMDAT ??$_Destroy@U_Node@?$_List_nod@PAV?$CMyBucket@PAVCClientSockE@@@@V?$allocator@PAV?$CMyBucket@PAVCClientSockE@@@@@std@@@std@@@std@@YAXPAU_Node@?$_List_nod@PAV?$CMyBucket@PAVCClientSockE@@@@V?$allocator@PAV?$CMyBucket@PAVCClientSockE@@@@@std@@@0@@Z
_TEXT	SEGMENT
__Ptr$ = 8						; size = 4
??$_Destroy@U_Node@?$_List_nod@PAV?$CMyBucket@PAVCClientSockE@@@@V?$allocator@PAV?$CMyBucket@PAVCClientSockE@@@@@std@@@std@@@std@@YAXPAU_Node@?$_List_nod@PAV?$CMyBucket@PAVCClientSockE@@@@V?$allocator@PAV?$CMyBucket@PAVCClientSockE@@@@@std@@@0@@Z PROC NEAR ; std::_Destroy<std::_List_nod<CMyBucket<CClientSockE *> *,std::allocator<CMyBucket<CClientSockE *> *> >::_Node>, COMDAT

; 49   : 	_DESTRUCTOR(_Ty, _Ptr);
; 50   : 	}

  00000	c3		 ret	 0
??$_Destroy@U_Node@?$_List_nod@PAV?$CMyBucket@PAVCClientSockE@@@@V?$allocator@PAV?$CMyBucket@PAVCClientSockE@@@@@std@@@std@@@std@@YAXPAU_Node@?$_List_nod@PAV?$CMyBucket@PAVCClientSockE@@@@V?$allocator@PAV?$CMyBucket@PAVCClientSockE@@@@@std@@@0@@Z ENDP ; std::_Destroy<std::_List_nod<CMyBucket<CClientSockE *> *,std::allocator<CMyBucket<CClientSockE *> *> >::_Node>
_TEXT	ENDS
PUBLIC	?empty@?$stack@PAV?$CMyBucket@PAVCClientSockE@@@@V?$deque@PAV?$CMyBucket@PAVCClientSockE@@@@V?$allocator@PAV?$CMyBucket@PAVCClientSockE@@@@@std@@@std@@@std@@QBE_NXZ ; std::stack<CMyBucket<CClientSockE *> *,std::deque<CMyBucket<CClientSockE *> *,std::allocator<CMyBucket<CClientSockE *> *> > >::empty
; Function compile flags: /Ogty
; File c:\program files\microsoft visual studio .net 2003\vc7\include\stack
;	COMDAT ?empty@?$stack@PAV?$CMyBucket@PAVCClientSockE@@@@V?$deque@PAV?$CMyBucket@PAVCClientSockE@@@@V?$allocator@PAV?$CMyBucket@PAVCClientSockE@@@@@std@@@std@@@std@@QBE_NXZ
_TEXT	SEGMENT
?empty@?$stack@PAV?$CMyBucket@PAVCClientSockE@@@@V?$deque@PAV?$CMyBucket@PAVCClientSockE@@@@V?$allocator@PAV?$CMyBucket@PAVCClientSockE@@@@@std@@@std@@@std@@QBE_NXZ PROC NEAR ; std::stack<CMyBucket<CClientSockE *> *,std::deque<CMyBucket<CClientSockE *> *,std::allocator<CMyBucket<CClientSockE *> *> > >::empty, COMDAT
; _this$ = ecx

; 33   : 		return (c.empty());

  00000	8b 51 10	 mov	 edx, DWORD PTR [ecx+16]
  00003	33 c0		 xor	 eax, eax
  00005	85 d2		 test	 edx, edx
  00007	0f 94 c0	 sete	 al

; 34   : 		}

  0000a	c3		 ret	 0
?empty@?$stack@PAV?$CMyBucket@PAVCClientSockE@@@@V?$deque@PAV?$CMyBucket@PAVCClientSockE@@@@V?$allocator@PAV?$CMyBucket@PAVCClientSockE@@@@@std@@@std@@@std@@QBE_NXZ ENDP ; std::stack<CMyBucket<CClientSockE *> *,std::deque<CMyBucket<CClientSockE *> *,std::allocator<CMyBucket<CClientSockE *> *> > >::empty
_TEXT	ENDS
PUBLIC	??0?$allocator@PAV?$CMyBucket@PAVCClientSockE@@@@@std@@QAE@XZ ; std::allocator<CMyBucket<CClientSockE *> *>::allocator<CMyBucket<CClientSockE *> *>
; Function compile flags: /Ogty
; File c:\program files\microsoft visual studio .net 2003\vc7\include\xmemory
;	COMDAT ??0?$allocator@PAV?$CMyBucket@PAVCClientSockE@@@@@std@@QAE@XZ
_TEXT	SEGMENT
??0?$allocator@PAV?$CMyBucket@PAVCClientSockE@@@@@std@@QAE@XZ PROC NEAR ; std::allocator<CMyBucket<CClientSockE *> *>::allocator<CMyBucket<CClientSockE *> *>, COMDAT
; _this$ = ecx

; 111  : 	allocator()

  00000	8b c1		 mov	 eax, ecx

; 112  : 		{	// construct default allocator (do nothing)
; 113  : 		}

  00002	c3		 ret	 0
??0?$allocator@PAV?$CMyBucket@PAVCClientSockE@@@@@std@@QAE@XZ ENDP ; std::allocator<CMyBucket<CClientSockE *> *>::allocator<CMyBucket<CClientSockE *> *>
_TEXT	ENDS
PUBLIC	??Econst_iterator@?$list@PAV?$CMyBucket@PAVCClientSockE@@@@V?$allocator@PAV?$CMyBucket@PAVCClientSockE@@@@@std@@@std@@QAEAAV012@XZ ; std::list<CMyBucket<CClientSockE *> *,std::allocator<CMyBucket<CClientSockE *> *> >::const_iterator::operator++
; Function compile flags: /Ogty
; File c:\program files\microsoft visual studio .net 2003\vc7\include\list
;	COMDAT ??Econst_iterator@?$list@PAV?$CMyBucket@PAVCClientSockE@@@@V?$allocator@PAV?$CMyBucket@PAVCClientSockE@@@@@std@@@std@@QAEAAV012@XZ
_TEXT	SEGMENT
??Econst_iterator@?$list@PAV?$CMyBucket@PAVCClientSockE@@@@V?$allocator@PAV?$CMyBucket@PAVCClientSockE@@@@@std@@@std@@QAEAAV012@XZ PROC NEAR ; std::list<CMyBucket<CClientSockE *> *,std::allocator<CMyBucket<CClientSockE *> *> >::const_iterator::operator++, COMDAT
; _this$ = ecx

; 170  : 			{	// preincrement

  00000	8b c1		 mov	 eax, ecx

; 171  : 			_Ptr = _Nextnode(_Ptr);

  00002	8b 08		 mov	 ecx, DWORD PTR [eax]
  00004	8b 11		 mov	 edx, DWORD PTR [ecx]
  00006	89 10		 mov	 DWORD PTR [eax], edx

; 172  : 			return (*this);
; 173  : 			}

  00008	c3		 ret	 0
??Econst_iterator@?$list@PAV?$CMyBucket@PAVCClientSockE@@@@V?$allocator@PAV?$CMyBucket@PAVCClientSockE@@@@@std@@@std@@QAEAAV012@XZ ENDP ; std::list<CMyBucket<CClientSockE *> *,std::allocator<CMyBucket<CClientSockE *> *> >::const_iterator::operator++
_TEXT	ENDS
PUBLIC	??8const_iterator@?$list@PAV?$CMyBucket@PAVCClientSockE@@@@V?$allocator@PAV?$CMyBucket@PAVCClientSockE@@@@@std@@@std@@QBE_NABV012@@Z ; std::list<CMyBucket<CClientSockE *> *,std::allocator<CMyBucket<CClientSockE *> *> >::const_iterator::operator==
; Function compile flags: /Ogty
;	COMDAT ??8const_iterator@?$list@PAV?$CMyBucket@PAVCClientSockE@@@@V?$allocator@PAV?$CMyBucket@PAVCClientSockE@@@@@std@@@std@@QBE_NABV012@@Z
_TEXT	SEGMENT
__Right$ = 8						; size = 4
??8const_iterator@?$list@PAV?$CMyBucket@PAVCClientSockE@@@@V?$allocator@PAV?$CMyBucket@PAVCClientSockE@@@@@std@@@std@@QBE_NABV012@@Z PROC NEAR ; std::list<CMyBucket<CClientSockE *> *,std::allocator<CMyBucket<CClientSockE *> *> >::const_iterator::operator==, COMDAT
; _this$ = ecx

; 197  : 			return (_Ptr == _Right._Ptr);

  00000	8b 01		 mov	 eax, DWORD PTR [ecx]
  00002	8b 4c 24 04	 mov	 ecx, DWORD PTR __Right$[esp-4]
  00006	2b 01		 sub	 eax, DWORD PTR [ecx]
  00008	f7 d8		 neg	 eax
  0000a	1b c0		 sbb	 eax, eax
  0000c	40		 inc	 eax

; 198  : 			}

  0000d	c2 04 00	 ret	 4
??8const_iterator@?$list@PAV?$CMyBucket@PAVCClientSockE@@@@V?$allocator@PAV?$CMyBucket@PAVCClientSockE@@@@@std@@@std@@QBE_NABV012@@Z ENDP ; std::list<CMyBucket<CClientSockE *> *,std::allocator<CMyBucket<CClientSockE *> *> >::const_iterator::operator==
_TEXT	ENDS
PUBLIC	??0?$allocator@PAV?$CMyBucket@PAVCClientSockE@@@@@std@@QAE@ABV01@@Z ; std::allocator<CMyBucket<CClientSockE *> *>::allocator<CMyBucket<CClientSockE *> *>
; Function compile flags: /Ogty
; File c:\program files\microsoft visual studio .net 2003\vc7\include\xmemory
;	COMDAT ??0?$allocator@PAV?$CMyBucket@PAVCClientSockE@@@@@std@@QAE@ABV01@@Z
_TEXT	SEGMENT
___formal$ = 8						; size = 4
??0?$allocator@PAV?$CMyBucket@PAVCClientSockE@@@@@std@@QAE@ABV01@@Z PROC NEAR ; std::allocator<CMyBucket<CClientSockE *> *>::allocator<CMyBucket<CClientSockE *> *>, COMDAT
; _this$ = ecx

; 115  : 	allocator(const allocator<_Ty>&)

  00000	8b c1		 mov	 eax, ecx

; 116  : 		{	// construct by copying (do nothing)
; 117  : 		}

  00002	c2 04 00	 ret	 4
??0?$allocator@PAV?$CMyBucket@PAVCClientSockE@@@@@std@@QAE@ABV01@@Z ENDP ; std::allocator<CMyBucket<CClientSockE *> *>::allocator<CMyBucket<CClientSockE *> *>
_TEXT	ENDS
PUBLIC	?_Myval@?$list@PAV?$CMyBucket@PAVCClientSockE@@@@V?$allocator@PAV?$CMyBucket@PAVCClientSockE@@@@@std@@@std@@KAAAPAV?$CMyBucket@PAVCClientSockE@@@@PAU_Node@?$_List_nod@PAV?$CMyBucket@PAVCClientSockE@@@@V?$allocator@PAV?$CMyBucket@PAVCClientSockE@@@@@std@@@2@@Z ; std::list<CMyBucket<CClientSockE *> *,std::allocator<CMyBucket<CClientSockE *> *> >::_Myval
; Function compile flags: /Ogty
; File c:\program files\microsoft visual studio .net 2003\vc7\include\list
;	COMDAT ?_Myval@?$list@PAV?$CMyBucket@PAVCClientSockE@@@@V?$allocator@PAV?$CMyBucket@PAVCClientSockE@@@@@std@@@std@@KAAAPAV?$CMyBucket@PAVCClientSockE@@@@PAU_Node@?$_List_nod@PAV?$CMyBucket@PAVCClientSockE@@@@V?$allocator@PAV?$CMyBucket@PAVCClientSockE@@@@@std@@@2@@Z
_TEXT	SEGMENT
__Pnode$ = 8						; size = 4
?_Myval@?$list@PAV?$CMyBucket@PAVCClientSockE@@@@V?$allocator@PAV?$CMyBucket@PAVCClientSockE@@@@@std@@@std@@KAAAPAV?$CMyBucket@PAVCClientSockE@@@@PAU_Node@?$_List_nod@PAV?$CMyBucket@PAVCClientSockE@@@@V?$allocator@PAV?$CMyBucket@PAVCClientSockE@@@@@std@@@2@@Z PROC NEAR ; std::list<CMyBucket<CClientSockE *> *,std::allocator<CMyBucket<CClientSockE *> *> >::_Myval, COMDAT

; 118  : 		return ((_Vref)(*_Pnode)._Myval);

  00000	8b 44 24 04	 mov	 eax, DWORD PTR __Pnode$[esp-4]
  00004	83 c0 08	 add	 eax, 8

; 119  : 		}

  00007	c3		 ret	 0
?_Myval@?$list@PAV?$CMyBucket@PAVCClientSockE@@@@V?$allocator@PAV?$CMyBucket@PAVCClientSockE@@@@@std@@@std@@KAAAPAV?$CMyBucket@PAVCClientSockE@@@@PAU_Node@?$_List_nod@PAV?$CMyBucket@PAVCClientSockE@@@@V?$allocator@PAV?$CMyBucket@PAVCClientSockE@@@@@std@@@2@@Z ENDP ; std::list<CMyBucket<CClientSockE *> *,std::allocator<CMyBucket<CClientSockE *> *> >::_Myval
_TEXT	ENDS
PUBLIC	??0const_iterator@?$list@PAV?$CMyBucket@PAVCClientSockE@@@@V?$allocator@PAV?$CMyBucket@PAVCClientSockE@@@@@std@@@std@@QAE@PAU_Node@?$_List_nod@PAV?$CMyBucket@PAVCClientSockE@@@@V?$allocator@PAV?$CMyBucket@PAVCClientSockE@@@@@std@@@2@@Z ; std::list<CMyBucket<CClientSockE *> *,std::allocator<CMyBucket<CClientSockE *> *> >::const_iterator::const_iterator
; Function compile flags: /Ogty
;	COMDAT ??0const_iterator@?$list@PAV?$CMyBucket@PAVCClientSockE@@@@V?$allocator@PAV?$CMyBucket@PAVCClientSockE@@@@@std@@@std@@QAE@PAU_Node@?$_List_nod@PAV?$CMyBucket@PAVCClientSockE@@@@V?$allocator@PAV?$CMyBucket@PAVCClientSockE@@@@@std@@@2@@Z
_TEXT	SEGMENT
__Pnode$ = 8						; size = 4
??0const_iterator@?$list@PAV?$CMyBucket@PAVCClientSockE@@@@V?$allocator@PAV?$CMyBucket@PAVCClientSockE@@@@@std@@@std@@QAE@PAU_Node@?$_List_nod@PAV?$CMyBucket@PAVCClientSockE@@@@V?$allocator@PAV?$CMyBucket@PAVCClientSockE@@@@@std@@@2@@Z PROC NEAR ; std::list<CMyBucket<CClientSockE *> *,std::allocator<CMyBucket<CClientSockE *> *> >::const_iterator::const_iterator, COMDAT
; _this$ = ecx

; 156  : 			{	// construct with node pointer _Pnode

  00000	8b c1		 mov	 eax, ecx
  00002	8b 4c 24 04	 mov	 ecx, DWORD PTR __Pnode$[esp-4]
  00006	89 08		 mov	 DWORD PTR [eax], ecx

; 157  : 			}

  00008	c2 04 00	 ret	 4
??0const_iterator@?$list@PAV?$CMyBucket@PAVCClientSockE@@@@V?$allocator@PAV?$CMyBucket@PAVCClientSockE@@@@@std@@@std@@QAE@PAU_Node@?$_List_nod@PAV?$CMyBucket@PAVCClientSockE@@@@V?$allocator@PAV?$CMyBucket@PAVCClientSockE@@@@@std@@@2@@Z ENDP ; std::list<CMyBucket<CClientSockE *> *,std::allocator<CMyBucket<CClientSockE *> *> >::const_iterator::const_iterator
_TEXT	ENDS
PUBLIC	??Dconst_iterator@?$deque@PAV?$CMyBucket@PAVCClientSockE@@@@V?$allocator@PAV?$CMyBucket@PAVCClientSockE@@@@@std@@@std@@QBEABQAV?$CMyBucket@PAVCClientSockE@@@@XZ ; std::deque<CMyBucket<CClientSockE *> *,std::allocator<CMyBucket<CClientSockE *> *> >::const_iterator::operator*
; Function compile flags: /Ogty
; File c:\program files\microsoft visual studio .net 2003\vc7\include\deque
;	COMDAT ??Dconst_iterator@?$deque@PAV?$CMyBucket@PAVCClientSockE@@@@V?$allocator@PAV?$CMyBucket@PAVCClientSockE@@@@@std@@@std@@QBEABQAV?$CMyBucket@PAVCClientSockE@@@@XZ
_TEXT	SEGMENT
??Dconst_iterator@?$deque@PAV?$CMyBucket@PAVCClientSockE@@@@V?$allocator@PAV?$CMyBucket@PAVCClientSockE@@@@@std@@@std@@QBEABQAV?$CMyBucket@PAVCClientSockE@@@@XZ PROC NEAR ; std::deque<CMyBucket<CClientSockE *> *,std::allocator<CMyBucket<CClientSockE *> *> >::const_iterator::operator*, COMDAT
; _this$ = ecx

; 109  : 			size_type _Block = _Myoff / _DEQUESIZ;

  00000	8b 51 04	 mov	 edx, DWORD PTR [ecx+4]

; 110  : 			size_type _Off = _Myoff - _Block * _DEQUESIZ;
; 111  : 			if (_Mycont->_Mapsize <= _Block)

  00003	8b 09		 mov	 ecx, DWORD PTR [ecx]
  00005	8b c2		 mov	 eax, edx
  00007	c1 e8 02	 shr	 eax, 2
  0000a	56		 push	 esi
  0000b	8d 34 85 00 00
	00 00		 lea	 esi, DWORD PTR [eax*4]
  00012	2b d6		 sub	 edx, esi
  00014	8b 71 08	 mov	 esi, DWORD PTR [ecx+8]
  00017	3b f0		 cmp	 esi, eax
  00019	77 02		 ja	 SHORT $L154752

; 112  : 				_Block -= _Mycont->_Mapsize;

  0001b	2b c6		 sub	 eax, esi
$L154752:

; 113  : 			return ((_Mycont->_Map)[_Block][_Off]);

  0001d	8b 49 04	 mov	 ecx, DWORD PTR [ecx+4]
  00020	8b 04 81	 mov	 eax, DWORD PTR [ecx+eax*4]
  00023	8d 04 90	 lea	 eax, DWORD PTR [eax+edx*4]
  00026	5e		 pop	 esi

; 114  : 			}

  00027	c3		 ret	 0
??Dconst_iterator@?$deque@PAV?$CMyBucket@PAVCClientSockE@@@@V?$allocator@PAV?$CMyBucket@PAVCClientSockE@@@@@std@@@std@@QBEABQAV?$CMyBucket@PAVCClientSockE@@@@XZ ENDP ; std::deque<CMyBucket<CClientSockE *> *,std::allocator<CMyBucket<CClientSockE *> *> >::const_iterator::operator*
_TEXT	ENDS
PUBLIC	?max_size@?$allocator@PAV?$CMyBucket@PAVCClientSockE@@@@@std@@QBEIXZ ; std::allocator<CMyBucket<CClientSockE *> *>::max_size
; Function compile flags: /Ogty
; File c:\program files\microsoft visual studio .net 2003\vc7\include\xmemory
;	COMDAT ?max_size@?$allocator@PAV?$CMyBucket@PAVCClientSockE@@@@@std@@QBEIXZ
_TEXT	SEGMENT
?max_size@?$allocator@PAV?$CMyBucket@PAVCClientSockE@@@@@std@@QBEIXZ PROC NEAR ; std::allocator<CMyBucket<CClientSockE *> *>::max_size, COMDAT
; _this$ = ecx

; 157  : 		_SIZT _Count = (_SIZT)(-1) / sizeof (_Ty);
; 158  : 		return (0 < _Count ? _Count : 1);

  00000	b8 ff ff ff 3f	 mov	 eax, 1073741823		; 3fffffffH

; 159  : 		}

  00005	c3		 ret	 0
?max_size@?$allocator@PAV?$CMyBucket@PAVCClientSockE@@@@@std@@QBEIXZ ENDP ; std::allocator<CMyBucket<CClientSockE *> *>::max_size
_TEXT	ENDS
PUBLIC	??Yiterator@?$deque@PAV?$CMyBucket@PAVCClientSockE@@@@V?$allocator@PAV?$CMyBucket@PAVCClientSockE@@@@@std@@@std@@QAEAAV012@H@Z ; std::deque<CMyBucket<CClientSockE *> *,std::allocator<CMyBucket<CClientSockE *> *> >::iterator::operator+=
; Function compile flags: /Ogty
; File c:\program files\microsoft visual studio .net 2003\vc7\include\deque
;	COMDAT ??Yiterator@?$deque@PAV?$CMyBucket@PAVCClientSockE@@@@V?$allocator@PAV?$CMyBucket@PAVCClientSockE@@@@@std@@@std@@QAEAAV012@H@Z
_TEXT	SEGMENT
__Off$ = 8						; size = 4
??Yiterator@?$deque@PAV?$CMyBucket@PAVCClientSockE@@@@V?$allocator@PAV?$CMyBucket@PAVCClientSockE@@@@@std@@@std@@QAEAAV012@H@Z PROC NEAR ; std::deque<CMyBucket<CClientSockE *> *,std::allocator<CMyBucket<CClientSockE *> *> >::iterator::operator+=, COMDAT
; _this$ = ecx

; 282  : 			{	// increment by integer

  00000	8b c1		 mov	 eax, ecx

; 283  : 			this->_Myoff += _Off;

  00002	8b 50 04	 mov	 edx, DWORD PTR [eax+4]
  00005	8b 4c 24 04	 mov	 ecx, DWORD PTR __Off$[esp-4]
  00009	03 d1		 add	 edx, ecx
  0000b	89 50 04	 mov	 DWORD PTR [eax+4], edx

; 284  : 			return (*this);
; 285  : 			}

  0000e	c2 04 00	 ret	 4
??Yiterator@?$deque@PAV?$CMyBucket@PAVCClientSockE@@@@V?$allocator@PAV?$CMyBucket@PAVCClientSockE@@@@@std@@@std@@QAEAAV012@H@Z ENDP ; std::deque<CMyBucket<CClientSockE *> *,std::allocator<CMyBucket<CClientSockE *> *> >::iterator::operator+=
_TEXT	ENDS
PUBLIC	??0const_iterator@?$deque@PAV?$CMyBucket@PAVCClientSockE@@@@V?$allocator@PAV?$CMyBucket@PAVCClientSockE@@@@@std@@@std@@QAE@IPBV12@@Z ; std::deque<CMyBucket<CClientSockE *> *,std::allocator<CMyBucket<CClientSockE *> *> >::const_iterator::const_iterator
; Function compile flags: /Ogty
;	COMDAT ??0const_iterator@?$deque@PAV?$CMyBucket@PAVCClientSockE@@@@V?$allocator@PAV?$CMyBucket@PAVCClientSockE@@@@@std@@@std@@QAE@IPBV12@@Z
_TEXT	SEGMENT
__Off$ = 8						; size = 4
__Pdeque$ = 12						; size = 4
??0const_iterator@?$deque@PAV?$CMyBucket@PAVCClientSockE@@@@V?$allocator@PAV?$CMyBucket@PAVCClientSockE@@@@@std@@@std@@QAE@IPBV12@@Z PROC NEAR ; std::deque<CMyBucket<CClientSockE *> *,std::allocator<CMyBucket<CClientSockE *> *> >::const_iterator::const_iterator, COMDAT
; _this$ = ecx

; 102  : 			{	// construct with offset _Off in *_Pdeque
; 103  : 			_Mycont = _Pdeque;
; 104  : 			_Myoff = _Off;

  00000	8b 54 24 04	 mov	 edx, DWORD PTR __Off$[esp-4]
  00004	8b c1		 mov	 eax, ecx
  00006	8b 4c 24 08	 mov	 ecx, DWORD PTR __Pdeque$[esp-4]
  0000a	89 08		 mov	 DWORD PTR [eax], ecx
  0000c	89 50 04	 mov	 DWORD PTR [eax+4], edx

; 105  : 			}

  0000f	c2 08 00	 ret	 8
??0const_iterator@?$deque@PAV?$CMyBucket@PAVCClientSockE@@@@V?$allocator@PAV?$CMyBucket@PAVCClientSockE@@@@@std@@@std@@QAE@IPBV12@@Z ENDP ; std::deque<CMyBucket<CClientSockE *> *,std::allocator<CMyBucket<CClientSockE *> *> >::const_iterator::const_iterator
_TEXT	ENDS
PUBLIC	??$_Allocate@PAV?$CMyBucket@PAVCClientSockE@@@@@std@@YAPAPAV?$CMyBucket@PAVCClientSockE@@@@IPAPAV1@@Z ; std::_Allocate<CMyBucket<CClientSockE *> *>
; Function compile flags: /Ogty
; File c:\program files\microsoft visual studio .net 2003\vc7\include\xmemory
;	COMDAT ??$_Allocate@PAV?$CMyBucket@PAVCClientSockE@@@@@std@@YAPAPAV?$CMyBucket@PAVCClientSockE@@@@IPAPAV1@@Z
_TEXT	SEGMENT
__Count$ = 8						; size = 4
___formal$ = 12						; size = 4
??$_Allocate@PAV?$CMyBucket@PAVCClientSockE@@@@@std@@YAPAPAV?$CMyBucket@PAVCClientSockE@@@@IPAPAV1@@Z PROC NEAR ; std::_Allocate<CMyBucket<CClientSockE *> *>, COMDAT

; 34   : 	return ((_Ty _FARQ *)operator new(_Count * sizeof (_Ty)));

  00000	8b 44 24 04	 mov	 eax, DWORD PTR __Count$[esp-4]
  00004	8d 0c 85 00 00
	00 00		 lea	 ecx, DWORD PTR [eax*4]
  0000b	51		 push	 ecx
  0000c	e8 00 00 00 00	 call	 ??2@YAPAXI@Z		; operator new
  00011	83 c4 04	 add	 esp, 4

; 35   : 	}

  00014	c3		 ret	 0
??$_Allocate@PAV?$CMyBucket@PAVCClientSockE@@@@@std@@YAPAPAV?$CMyBucket@PAVCClientSockE@@@@IPAPAV1@@Z ENDP ; std::_Allocate<CMyBucket<CClientSockE *> *>
_TEXT	ENDS
PUBLIC	??$_Construct@PAV?$CMyBucket@PAVCClientSockE@@@@PAV1@@std@@YAXPAPAV?$CMyBucket@PAVCClientSockE@@@@ABQAV1@@Z ; std::_Construct<CMyBucket<CClientSockE *> *,CMyBucket<CClientSockE *> *>
; Function compile flags: /Ogty
;	COMDAT ??$_Construct@PAV?$CMyBucket@PAVCClientSockE@@@@PAV1@@std@@YAXPAPAV?$CMyBucket@PAVCClientSockE@@@@ABQAV1@@Z
_TEXT	SEGMENT
__Ptr$ = 8						; size = 4
__Val$ = 12						; size = 4
??$_Construct@PAV?$CMyBucket@PAVCClientSockE@@@@PAV1@@std@@YAXPAPAV?$CMyBucket@PAVCClientSockE@@@@ABQAV1@@Z PROC NEAR ; std::_Construct<CMyBucket<CClientSockE *> *,CMyBucket<CClientSockE *> *>, COMDAT

; 42   : 	new ((void _FARQ *)_Ptr) _T1(_Val);

  00000	8b 44 24 04	 mov	 eax, DWORD PTR __Ptr$[esp-4]
  00004	85 c0		 test	 eax, eax
  00006	74 08		 je	 SHORT $L155526
  00008	8b 4c 24 08	 mov	 ecx, DWORD PTR __Val$[esp-4]
  0000c	8b 11		 mov	 edx, DWORD PTR [ecx]
  0000e	89 10		 mov	 DWORD PTR [eax], edx
$L155526:

; 43   : 	}

  00010	c3		 ret	 0
??$_Construct@PAV?$CMyBucket@PAVCClientSockE@@@@PAV1@@std@@YAXPAPAV?$CMyBucket@PAVCClientSockE@@@@ABQAV1@@Z ENDP ; std::_Construct<CMyBucket<CClientSockE *> *,CMyBucket<CClientSockE *> *>
_TEXT	ENDS
PUBLIC	??$?0PAV?$CMyBucket@PAVCClientSockE@@@@@?$allocator@PAU_Node@?$_List_nod@PAV?$CMyBucket@PAVCClientSockE@@@@V?$allocator@PAV?$CMyBucket@PAVCClientSockE@@@@@std@@@std@@@std@@QAE@ABV?$allocator@PAV?$CMyBucket@PAVCClientSockE@@@@@1@@Z ; std::allocator<std::_List_nod<CMyBucket<CClientSockE *> *,std::allocator<CMyBucket<CClientSockE *> *> >::_Node *>::allocator<std::_List_nod<CMyBucket<CClientSockE *> *,std::allocator<CMyBucket<CClientSockE *> *> >::_Node *><CMyBucket<CClientSockE *> *>
; Function compile flags: /Ogty
;	COMDAT ??$?0PAV?$CMyBucket@PAVCClientSockE@@@@@?$allocator@PAU_Node@?$_List_nod@PAV?$CMyBucket@PAVCClientSockE@@@@V?$allocator@PAV?$CMyBucket@PAVCClientSockE@@@@@std@@@std@@@std@@QAE@ABV?$allocator@PAV?$CMyBucket@PAVCClientSockE@@@@@1@@Z
_TEXT	SEGMENT
___formal$ = 8						; size = 4
??$?0PAV?$CMyBucket@PAVCClientSockE@@@@@?$allocator@PAU_Node@?$_List_nod@PAV?$CMyBucket@PAVCClientSockE@@@@V?$allocator@PAV?$CMyBucket@PAVCClientSockE@@@@@std@@@std@@@std@@QAE@ABV?$allocator@PAV?$CMyBucket@PAVCClientSockE@@@@@1@@Z PROC NEAR ; std::allocator<std::_List_nod<CMyBucket<CClientSockE *> *,std::allocator<CMyBucket<CClientSockE *> *> >::_Node *>::allocator<std::_List_nod<CMyBucket<CClientSockE *> *,std::allocator<CMyBucket<CClientSockE *> *> >::_Node *><CMyBucket<CClientSockE *> *>, COMDAT
; _this$ = ecx

; 120  : 		allocator(const allocator<_Other>&)

  00000	8b c1		 mov	 eax, ecx

; 121  : 		{	// construct from a related allocator (do nothing)
; 122  : 		}

  00002	c2 04 00	 ret	 4
??$?0PAV?$CMyBucket@PAVCClientSockE@@@@@?$allocator@PAU_Node@?$_List_nod@PAV?$CMyBucket@PAVCClientSockE@@@@V?$allocator@PAV?$CMyBucket@PAVCClientSockE@@@@@std@@@std@@@std@@QAE@ABV?$allocator@PAV?$CMyBucket@PAVCClientSockE@@@@@1@@Z ENDP ; std::allocator<std::_List_nod<CMyBucket<CClientSockE *> *,std::allocator<CMyBucket<CClientSockE *> *> >::_Node *>::allocator<std::_List_nod<CMyBucket<CClientSockE *> *,std::allocator<CMyBucket<CClientSockE *> *> >::_Node *><CMyBucket<CClientSockE *> *>
_TEXT	ENDS
PUBLIC	??$_Allocate@U_Node@?$_List_nod@PAV?$CMyBucket@PAVCClientSockE@@@@V?$allocator@PAV?$CMyBucket@PAVCClientSockE@@@@@std@@@std@@@std@@YAPAU_Node@?$_List_nod@PAV?$CMyBucket@PAVCClientSockE@@@@V?$allocator@PAV?$CMyBucket@PAVCClientSockE@@@@@std@@@0@IPAU120@@Z ; std::_Allocate<std::_List_nod<CMyBucket<CClientSockE *> *,std::allocator<CMyBucket<CClientSockE *> *> >::_Node>
; Function compile flags: /Ogty
;	COMDAT ??$_Allocate@U_Node@?$_List_nod@PAV?$CMyBucket@PAVCClientSockE@@@@V?$allocator@PAV?$CMyBucket@PAVCClientSockE@@@@@std@@@std@@@std@@YAPAU_Node@?$_List_nod@PAV?$CMyBucket@PAVCClientSockE@@@@V?$allocator@PAV?$CMyBucket@PAVCClientSockE@@@@@std@@@0@IPAU120@@Z
_TEXT	SEGMENT
__Count$ = 8						; size = 4
___formal$ = 12						; size = 4
??$_Allocate@U_Node@?$_List_nod@PAV?$CMyBucket@PAVCClientSockE@@@@V?$allocator@PAV?$CMyBucket@PAVCClientSockE@@@@@std@@@std@@@std@@YAPAU_Node@?$_List_nod@PAV?$CMyBucket@PAVCClientSockE@@@@V?$allocator@PAV?$CMyBucket@PAVCClientSockE@@@@@std@@@0@IPAU120@@Z PROC NEAR ; std::_Allocate<std::_List_nod<CMyBucket<CClientSockE *> *,std::allocator<CMyBucket<CClientSockE *> *> >::_Node>, COMDAT

; 34   : 	return ((_Ty _FARQ *)operator new(_Count * sizeof (_Ty)));

  00000	8b 44 24 04	 mov	 eax, DWORD PTR __Count$[esp-4]
  00004	8d 04 40	 lea	 eax, DWORD PTR [eax+eax*2]
  00007	c1 e0 02	 shl	 eax, 2
  0000a	50		 push	 eax
  0000b	e8 00 00 00 00	 call	 ??2@YAPAXI@Z		; operator new
  00010	83 c4 04	 add	 esp, 4

; 35   : 	}

  00013	c3		 ret	 0
??$_Allocate@U_Node@?$_List_nod@PAV?$CMyBucket@PAVCClientSockE@@@@V?$allocator@PAV?$CMyBucket@PAVCClientSockE@@@@@std@@@std@@@std@@YAPAU_Node@?$_List_nod@PAV?$CMyBucket@PAVCClientSockE@@@@V?$allocator@PAV?$CMyBucket@PAVCClientSockE@@@@@std@@@0@IPAU120@@Z ENDP ; std::_Allocate<std::_List_nod<CMyBucket<CClientSockE *> *,std::allocator<CMyBucket<CClientSockE *> *> >::_Node>
_TEXT	ENDS
PUBLIC	??$_Construct@PAU_Node@?$_List_nod@PAV?$CMyBucket@PAVCClientSockE@@@@V?$allocator@PAV?$CMyBucket@PAVCClientSockE@@@@@std@@@std@@PAU123@@std@@YAXPAPAU_Node@?$_List_nod@PAV?$CMyBucket@PAVCClientSockE@@@@V?$allocator@PAV?$CMyBucket@PAVCClientSockE@@@@@std@@@0@ABQAU120@@Z ; std::_Construct<std::_List_nod<CMyBucket<CClientSockE *> *,std::allocator<CMyBucket<CClientSockE *> *> >::_Node *,std::_List_nod<CMyBucket<CClientSockE *> *,std::allocator<CMyBucket<CClientSockE *> *> >::_Node *>
; Function compile flags: /Ogty
;	COMDAT ??$_Construct@PAU_Node@?$_List_nod@PAV?$CMyBucket@PAVCClientSockE@@@@V?$allocator@PAV?$CMyBucket@PAVCClientSockE@@@@@std@@@std@@PAU123@@std@@YAXPAPAU_Node@?$_List_nod@PAV?$CMyBucket@PAVCClientSockE@@@@V?$allocator@PAV?$CMyBucket@PAVCClientSockE@@@@@std@@@0@ABQAU120@@Z
_TEXT	SEGMENT
__Ptr$ = 8						; size = 4
__Val$ = 12						; size = 4
??$_Construct@PAU_Node@?$_List_nod@PAV?$CMyBucket@PAVCClientSockE@@@@V?$allocator@PAV?$CMyBucket@PAVCClientSockE@@@@@std@@@std@@PAU123@@std@@YAXPAPAU_Node@?$_List_nod@PAV?$CMyBucket@PAVCClientSockE@@@@V?$allocator@PAV?$CMyBucket@PAVCClientSockE@@@@@std@@@0@ABQAU120@@Z PROC NEAR ; std::_Construct<std::_List_nod<CMyBucket<CClientSockE *> *,std::allocator<CMyBucket<CClientSockE *> *> >::_Node *,std::_List_nod<CMyBucket<CClientSockE *> *,std::allocator<CMyBucket<CClientSockE *> *> >::_Node *>, COMDAT

; 42   : 	new ((void _FARQ *)_Ptr) _T1(_Val);

  00000	8b 44 24 04	 mov	 eax, DWORD PTR __Ptr$[esp-4]
  00004	85 c0		 test	 eax, eax
  00006	74 08		 je	 SHORT $L155541
  00008	8b 4c 24 08	 mov	 ecx, DWORD PTR __Val$[esp-4]
  0000c	8b 11		 mov	 edx, DWORD PTR [ecx]
  0000e	89 10		 mov	 DWORD PTR [eax], edx
$L155541:

; 43   : 	}

  00010	c3		 ret	 0
??$_Construct@PAU_Node@?$_List_nod@PAV?$CMyBucket@PAVCClientSockE@@@@V?$allocator@PAV?$CMyBucket@PAVCClientSockE@@@@@std@@@std@@PAU123@@std@@YAXPAPAU_Node@?$_List_nod@PAV?$CMyBucket@PAVCClientSockE@@@@V?$allocator@PAV?$CMyBucket@PAVCClientSockE@@@@@std@@@0@ABQAU120@@Z ENDP ; std::_Construct<std::_List_nod<CMyBucket<CClientSockE *> *,std::allocator<CMyBucket<CClientSockE *> *> >::_Node *,std::_List_nod<CMyBucket<CClientSockE *> *,std::allocator<CMyBucket<CClientSockE *> *> >::_Node *>
_TEXT	ENDS
PUBLIC	??$?0PAV?$CMyBucket@PAVCClientSockE@@@@@?$allocator@PAPAV?$CMyBucket@PAVCClientSockE@@@@@std@@QAE@ABV?$allocator@PAV?$CMyBucket@PAVCClientSockE@@@@@1@@Z ; std::allocator<CMyBucket<CClientSockE *> * *>::allocator<CMyBucket<CClientSockE *> * *><CMyBucket<CClientSockE *> *>
; Function compile flags: /Ogty
;	COMDAT ??$?0PAV?$CMyBucket@PAVCClientSockE@@@@@?$allocator@PAPAV?$CMyBucket@PAVCClientSockE@@@@@std@@QAE@ABV?$allocator@PAV?$CMyBucket@PAVCClientSockE@@@@@1@@Z
_TEXT	SEGMENT
___formal$ = 8						; size = 4
??$?0PAV?$CMyBucket@PAVCClientSockE@@@@@?$allocator@PAPAV?$CMyBucket@PAVCClientSockE@@@@@std@@QAE@ABV?$allocator@PAV?$CMyBucket@PAVCClientSockE@@@@@1@@Z PROC NEAR ; std::allocator<CMyBucket<CClientSockE *> * *>::allocator<CMyBucket<CClientSockE *> * *><CMyBucket<CClientSockE *> *>, COMDAT
; _this$ = ecx

; 120  : 		allocator(const allocator<_Other>&)

  00000	8b c1		 mov	 eax, ecx

; 121  : 		{	// construct from a related allocator (do nothing)
; 122  : 		}

  00002	c2 04 00	 ret	 4
??$?0PAV?$CMyBucket@PAVCClientSockE@@@@@?$allocator@PAPAV?$CMyBucket@PAVCClientSockE@@@@@std@@QAE@ABV?$allocator@PAV?$CMyBucket@PAVCClientSockE@@@@@1@@Z ENDP ; std::allocator<CMyBucket<CClientSockE *> * *>::allocator<CMyBucket<CClientSockE *> * *><CMyBucket<CClientSockE *> *>
_TEXT	ENDS
PUBLIC	??$_Allocate@PAPAV?$CMyBucket@PAVCClientSockE@@@@@std@@YAPAPAPAV?$CMyBucket@PAVCClientSockE@@@@IPAPAPAV1@@Z ; std::_Allocate<CMyBucket<CClientSockE *> * *>
; Function compile flags: /Ogty
;	COMDAT ??$_Allocate@PAPAV?$CMyBucket@PAVCClientSockE@@@@@std@@YAPAPAPAV?$CMyBucket@PAVCClientSockE@@@@IPAPAPAV1@@Z
_TEXT	SEGMENT
__Count$ = 8						; size = 4
___formal$ = 12						; size = 4
??$_Allocate@PAPAV?$CMyBucket@PAVCClientSockE@@@@@std@@YAPAPAPAV?$CMyBucket@PAVCClientSockE@@@@IPAPAPAV1@@Z PROC NEAR ; std::_Allocate<CMyBucket<CClientSockE *> * *>, COMDAT

; 34   : 	return ((_Ty _FARQ *)operator new(_Count * sizeof (_Ty)));

  00000	8b 44 24 04	 mov	 eax, DWORD PTR __Count$[esp-4]
  00004	8d 0c 85 00 00
	00 00		 lea	 ecx, DWORD PTR [eax*4]
  0000b	51		 push	 ecx
  0000c	e8 00 00 00 00	 call	 ??2@YAPAXI@Z		; operator new
  00011	83 c4 04	 add	 esp, 4

; 35   : 	}

  00014	c3		 ret	 0
??$_Allocate@PAPAV?$CMyBucket@PAVCClientSockE@@@@@std@@YAPAPAPAV?$CMyBucket@PAVCClientSockE@@@@IPAPAPAV1@@Z ENDP ; std::_Allocate<CMyBucket<CClientSockE *> * *>
_TEXT	ENDS
PUBLIC	??$?0PAV?$CMyBucket@PAVCClientSockE@@@@@?$allocator@U_Node@?$_List_nod@PAV?$CMyBucket@PAVCClientSockE@@@@V?$allocator@PAV?$CMyBucket@PAVCClientSockE@@@@@std@@@std@@@std@@QAE@ABV?$allocator@PAV?$CMyBucket@PAVCClientSockE@@@@@1@@Z ; std::allocator<std::_List_nod<CMyBucket<CClientSockE *> *,std::allocator<CMyBucket<CClientSockE *> *> >::_Node>::allocator<std::_List_nod<CMyBucket<CClientSockE *> *,std::allocator<CMyBucket<CClientSockE *> *> >::_Node><CMyBucket<CClientSockE *> *>
; Function compile flags: /Ogty
;	COMDAT ??$?0PAV?$CMyBucket@PAVCClientSockE@@@@@?$allocator@U_Node@?$_List_nod@PAV?$CMyBucket@PAVCClientSockE@@@@V?$allocator@PAV?$CMyBucket@PAVCClientSockE@@@@@std@@@std@@@std@@QAE@ABV?$allocator@PAV?$CMyBucket@PAVCClientSockE@@@@@1@@Z
_TEXT	SEGMENT
___formal$ = 8						; size = 4
??$?0PAV?$CMyBucket@PAVCClientSockE@@@@@?$allocator@U_Node@?$_List_nod@PAV?$CMyBucket@PAVCClientSockE@@@@V?$allocator@PAV?$CMyBucket@PAVCClientSockE@@@@@std@@@std@@@std@@QAE@ABV?$allocator@PAV?$CMyBucket@PAVCClientSockE@@@@@1@@Z PROC NEAR ; std::allocator<std::_List_nod<CMyBucket<CClientSockE *> *,std::allocator<CMyBucket<CClientSockE *> *> >::_Node>::allocator<std::_List_nod<CMyBucket<CClientSockE *> *,std::allocator<CMyBucket<CClientSockE *> *> >::_Node><CMyBucket<CClientSockE *> *>, COMDAT
; _this$ = ecx

; 120  : 		allocator(const allocator<_Other>&)

  00000	8b c1		 mov	 eax, ecx

; 121  : 		{	// construct from a related allocator (do nothing)
; 122  : 		}

  00002	c2 04 00	 ret	 4
??$?0PAV?$CMyBucket@PAVCClientSockE@@@@@?$allocator@U_Node@?$_List_nod@PAV?$CMyBucket@PAVCClientSockE@@@@V?$allocator@PAV?$CMyBucket@PAVCClientSockE@@@@@std@@@std@@@std@@QAE@ABV?$allocator@PAV?$CMyBucket@PAVCClientSockE@@@@@1@@Z ENDP ; std::allocator<std::_List_nod<CMyBucket<CClientSockE *> *,std::allocator<CMyBucket<CClientSockE *> *> >::_Node>::allocator<std::_List_nod<CMyBucket<CClientSockE *> *,std::allocator<CMyBucket<CClientSockE *> *> >::_Node><CMyBucket<CClientSockE *> *>
_TEXT	ENDS
PUBLIC	?_Mynode@const_iterator@?$list@PAV?$CMyBucket@PAVCClientSockE@@@@V?$allocator@PAV?$CMyBucket@PAVCClientSockE@@@@@std@@@std@@QBEPAU_Node@?$_List_nod@PAV?$CMyBucket@PAVCClientSockE@@@@V?$allocator@PAV?$CMyBucket@PAVCClientSockE@@@@@std@@@3@XZ ; std::list<CMyBucket<CClientSockE *> *,std::allocator<CMyBucket<CClientSockE *> *> >::const_iterator::_Mynode
; Function compile flags: /Ogty
; File c:\program files\microsoft visual studio .net 2003\vc7\include\list
;	COMDAT ?_Mynode@const_iterator@?$list@PAV?$CMyBucket@PAVCClientSockE@@@@V?$allocator@PAV?$CMyBucket@PAVCClientSockE@@@@@std@@@std@@QBEPAU_Node@?$_List_nod@PAV?$CMyBucket@PAVCClientSockE@@@@V?$allocator@PAV?$CMyBucket@PAVCClientSockE@@@@@std@@@3@XZ
_TEXT	SEGMENT
?_Mynode@const_iterator@?$list@PAV?$CMyBucket@PAVCClientSockE@@@@V?$allocator@PAV?$CMyBucket@PAVCClientSockE@@@@@std@@@std@@QBEPAU_Node@?$_List_nod@PAV?$CMyBucket@PAVCClientSockE@@@@V?$allocator@PAV?$CMyBucket@PAVCClientSockE@@@@@std@@@3@XZ PROC NEAR ; std::list<CMyBucket<CClientSockE *> *,std::allocator<CMyBucket<CClientSockE *> *> >::const_iterator::_Mynode, COMDAT
; _this$ = ecx

; 207  : 			return (_Ptr);

  00000	8b 01		 mov	 eax, DWORD PTR [ecx]

; 208  : 			}

  00002	c3		 ret	 0
?_Mynode@const_iterator@?$list@PAV?$CMyBucket@PAVCClientSockE@@@@V?$allocator@PAV?$CMyBucket@PAVCClientSockE@@@@@std@@@std@@QBEPAU_Node@?$_List_nod@PAV?$CMyBucket@PAVCClientSockE@@@@V?$allocator@PAV?$CMyBucket@PAVCClientSockE@@@@@std@@@3@XZ ENDP ; std::list<CMyBucket<CClientSockE *> *,std::allocator<CMyBucket<CClientSockE *> *> >::const_iterator::_Mynode
_TEXT	ENDS
PUBLIC	?max_size@?$list@PAV?$CMyBucket@PAVCClientSockE@@@@V?$allocator@PAV?$CMyBucket@PAVCClientSockE@@@@@std@@@std@@QBEIXZ ; std::list<CMyBucket<CClientSockE *> *,std::allocator<CMyBucket<CClientSockE *> *> >::max_size
; Function compile flags: /Ogty
;	COMDAT ?max_size@?$list@PAV?$CMyBucket@PAVCClientSockE@@@@V?$allocator@PAV?$CMyBucket@PAVCClientSockE@@@@@std@@@std@@QBEIXZ
_TEXT	SEGMENT
?max_size@?$list@PAV?$CMyBucket@PAVCClientSockE@@@@V?$allocator@PAV?$CMyBucket@PAVCClientSockE@@@@@std@@@std@@QBEIXZ PROC NEAR ; std::list<CMyBucket<CClientSockE *> *,std::allocator<CMyBucket<CClientSockE *> *> >::max_size, COMDAT
; _this$ = ecx

; 436  : 		return (this->_Alval.max_size());

  00000	b8 ff ff ff 3f	 mov	 eax, 1073741823		; 3fffffffH

; 437  : 		}

  00005	c3		 ret	 0
?max_size@?$list@PAV?$CMyBucket@PAVCClientSockE@@@@V?$allocator@PAV?$CMyBucket@PAVCClientSockE@@@@@std@@@std@@QBEIXZ ENDP ; std::list<CMyBucket<CClientSockE *> *,std::allocator<CMyBucket<CClientSockE *> *> >::max_size
_TEXT	ENDS
PUBLIC	??0_Node@?$_List_nod@PAV?$CMyBucket@PAVCClientSockE@@@@V?$allocator@PAV?$CMyBucket@PAVCClientSockE@@@@@std@@@std@@QAE@PAU012@0ABQAV?$CMyBucket@PAVCClientSockE@@@@@Z ; std::_List_nod<CMyBucket<CClientSockE *> *,std::allocator<CMyBucket<CClientSockE *> *> >::_Node::_Node
; Function compile flags: /Ogty
;	COMDAT ??0_Node@?$_List_nod@PAV?$CMyBucket@PAVCClientSockE@@@@V?$allocator@PAV?$CMyBucket@PAVCClientSockE@@@@@std@@@std@@QAE@PAU012@0ABQAV?$CMyBucket@PAVCClientSockE@@@@@Z
_TEXT	SEGMENT
__Nextarg$ = 8						; size = 4
__Prevarg$ = 12						; size = 4
__Myvalarg$ = 16					; size = 4
??0_Node@?$_List_nod@PAV?$CMyBucket@PAVCClientSockE@@@@V?$allocator@PAV?$CMyBucket@PAVCClientSockE@@@@@std@@@std@@QAE@PAU012@0ABQAV?$CMyBucket@PAVCClientSockE@@@@@Z PROC NEAR ; std::_List_nod<CMyBucket<CClientSockE *> *,std::allocator<CMyBucket<CClientSockE *> *> >::_Node::_Node, COMDAT
; _this$ = ecx

; 34   : 			{	// construct a node with value

  00000	8b 54 24 08	 mov	 edx, DWORD PTR __Prevarg$[esp-4]
  00004	8b c1		 mov	 eax, ecx
  00006	8b 4c 24 04	 mov	 ecx, DWORD PTR __Nextarg$[esp-4]
  0000a	89 08		 mov	 DWORD PTR [eax], ecx
  0000c	8b 4c 24 0c	 mov	 ecx, DWORD PTR __Myvalarg$[esp-4]
  00010	89 50 04	 mov	 DWORD PTR [eax+4], edx
  00013	8b 11		 mov	 edx, DWORD PTR [ecx]
  00015	89 50 08	 mov	 DWORD PTR [eax+8], edx

; 35   : 			}

  00018	c2 0c 00	 ret	 12			; 0000000cH
??0_Node@?$_List_nod@PAV?$CMyBucket@PAVCClientSockE@@@@V?$allocator@PAV?$CMyBucket@PAVCClientSockE@@@@@std@@@std@@QAE@PAU012@0ABQAV?$CMyBucket@PAVCClientSockE@@@@@Z ENDP ; std::_List_nod<CMyBucket<CClientSockE *> *,std::allocator<CMyBucket<CClientSockE *> *> >::_Node::_Node
_TEXT	ENDS
PUBLIC	??$_Ptr_cat@PAV?$CMyBucket@PAVCClientSockE@@@@@std@@YA?AU_Scalar_ptr_iterator_tag@0@PAPAPAV?$CMyBucket@PAVCClientSockE@@@@0@Z ; std::_Ptr_cat<CMyBucket<CClientSockE *> *>
; Function compile flags: /Ogty
; File c:\program files\microsoft visual studio .net 2003\vc7\include\xutility
;	COMDAT ??$_Ptr_cat@PAV?$CMyBucket@PAVCClientSockE@@@@@std@@YA?AU_Scalar_ptr_iterator_tag@0@PAPAPAV?$CMyBucket@PAVCClientSockE@@@@0@Z
_TEXT	SEGMENT
__Cat$ = -1						; size = 1
___formal$ = 8						; size = 4
___formal$ = 12						; size = 4
??$_Ptr_cat@PAV?$CMyBucket@PAVCClientSockE@@@@@std@@YA?AU_Scalar_ptr_iterator_tag@0@PAPAPAV?$CMyBucket@PAVCClientSockE@@@@0@Z PROC NEAR ; std::_Ptr_cat<CMyBucket<CClientSockE *> *>, COMDAT

; 218  : 	{	// return pointer category from pointer to pointer arguments

  00000	51		 push	 ecx

; 219  : 	_Scalar_ptr_iterator_tag _Cat;
; 220  : 	return (_Cat);

  00001	8a 44 24 03	 mov	 al, BYTE PTR __Cat$[esp+4]

; 221  : 	}

  00005	59		 pop	 ecx
  00006	c3		 ret	 0
??$_Ptr_cat@PAV?$CMyBucket@PAVCClientSockE@@@@@std@@YA?AU_Scalar_ptr_iterator_tag@0@PAPAPAV?$CMyBucket@PAVCClientSockE@@@@0@Z ENDP ; std::_Ptr_cat<CMyBucket<CClientSockE *> *>
_TEXT	ENDS
PUBLIC	??$_Uninit_copy@PAPAV?$CMyBucket@PAVCClientSockE@@@@PAPAV1@@std@@YAPAPAPAV?$CMyBucket@PAVCClientSockE@@@@PAPAPAV1@00AAV?$allocator@PAPAV?$CMyBucket@PAVCClientSockE@@@@@0@U_Scalar_ptr_iterator_tag@0@@Z ; std::_Uninit_copy<CMyBucket<CClientSockE *> * *,CMyBucket<CClientSockE *> * *>
EXTRN	_memmove:NEAR
; Function compile flags: /Ogty
; File c:\program files\microsoft visual studio .net 2003\vc7\include\memory
;	COMDAT ??$_Uninit_copy@PAPAV?$CMyBucket@PAVCClientSockE@@@@PAPAV1@@std@@YAPAPAPAV?$CMyBucket@PAVCClientSockE@@@@PAPAPAV1@00AAV?$allocator@PAPAV?$CMyBucket@PAVCClientSockE@@@@@0@U_Scalar_ptr_iterator_tag@0@@Z
_TEXT	SEGMENT
__First$ = 8						; size = 4
__Last$ = 12						; size = 4
__Dest$ = 16						; size = 4
___formal$ = 20						; size = 4
___formal$ = 24						; size = 1
??$_Uninit_copy@PAPAV?$CMyBucket@PAVCClientSockE@@@@PAPAV1@@std@@YAPAPAPAV?$CMyBucket@PAVCClientSockE@@@@PAPAPAV1@00AAV?$allocator@PAPAV?$CMyBucket@PAVCClientSockE@@@@@0@U_Scalar_ptr_iterator_tag@0@@Z PROC NEAR ; std::_Uninit_copy<CMyBucket<CClientSockE *> * *,CMyBucket<CClientSockE *> * *>, COMDAT

; 106  : 	size_t _Count = (size_t)(_Last - _First);

  00000	8b 4c 24 04	 mov	 ecx, DWORD PTR __First$[esp-4]
  00004	8b 44 24 08	 mov	 eax, DWORD PTR __Last$[esp-4]
  00008	2b c1		 sub	 eax, ecx
  0000a	56		 push	 esi
  0000b	c1 f8 02	 sar	 eax, 2

; 107  : 	return ((_Ty2 *)memmove(&*_Dest, &*_First,
; 108  : 		_Count * sizeof (*_First)) + _Count);	// NB: non-overlapping move

  0000e	8d 34 85 00 00
	00 00		 lea	 esi, DWORD PTR [eax*4]
  00015	8b 44 24 10	 mov	 eax, DWORD PTR __Dest$[esp]
  00019	56		 push	 esi
  0001a	51		 push	 ecx
  0001b	50		 push	 eax
  0001c	e8 00 00 00 00	 call	 _memmove
  00021	83 c4 0c	 add	 esp, 12			; 0000000cH
  00024	03 c6		 add	 eax, esi
  00026	5e		 pop	 esi

; 109  : 	}

  00027	c3		 ret	 0
??$_Uninit_copy@PAPAV?$CMyBucket@PAVCClientSockE@@@@PAPAV1@@std@@YAPAPAPAV?$CMyBucket@PAVCClientSockE@@@@PAPAPAV1@00AAV?$allocator@PAPAV?$CMyBucket@PAVCClientSockE@@@@@0@U_Scalar_ptr_iterator_tag@0@@Z ENDP ; std::_Uninit_copy<CMyBucket<CClientSockE *> * *,CMyBucket<CClientSockE *> * *>
_TEXT	ENDS
PUBLIC	??$_Destroy_range@PAPAV?$CMyBucket@PAVCClientSockE@@@@V?$allocator@PAPAV?$CMyBucket@PAVCClientSockE@@@@@std@@@std@@YAXPAPAPAV?$CMyBucket@PAVCClientSockE@@@@0AAV?$allocator@PAPAV?$CMyBucket@PAVCClientSockE@@@@@0@U_Scalar_ptr_iterator_tag@0@@Z ; std::_Destroy_range<CMyBucket<CClientSockE *> * *,std::allocator<CMyBucket<CClientSockE *> * *> >
; Function compile flags: /Ogty
; File c:\program files\microsoft visual studio .net 2003\vc7\include\xmemory
;	COMDAT ??$_Destroy_range@PAPAV?$CMyBucket@PAVCClientSockE@@@@V?$allocator@PAPAV?$CMyBucket@PAVCClientSockE@@@@@std@@@std@@YAXPAPAPAV?$CMyBucket@PAVCClientSockE@@@@0AAV?$allocator@PAPAV?$CMyBucket@PAVCClientSockE@@@@@0@U_Scalar_ptr_iterator_tag@0@@Z
_TEXT	SEGMENT
__First$ = 8						; size = 4
__Last$ = 12						; size = 4
__Al$ = 16						; size = 4
___formal$ = 20						; size = 1
??$_Destroy_range@PAPAV?$CMyBucket@PAVCClientSockE@@@@V?$allocator@PAPAV?$CMyBucket@PAVCClientSockE@@@@@std@@@std@@YAXPAPAPAV?$CMyBucket@PAVCClientSockE@@@@0AAV?$allocator@PAPAV?$CMyBucket@PAVCClientSockE@@@@@0@U_Scalar_ptr_iterator_tag@0@@Z PROC NEAR ; std::_Destroy_range<CMyBucket<CClientSockE *> * *,std::allocator<CMyBucket<CClientSockE *> * *> >, COMDAT

; 234  : 	}

  00000	c3		 ret	 0
??$_Destroy_range@PAPAV?$CMyBucket@PAVCClientSockE@@@@V?$allocator@PAPAV?$CMyBucket@PAVCClientSockE@@@@@std@@@std@@YAXPAPAPAV?$CMyBucket@PAVCClientSockE@@@@0AAV?$allocator@PAPAV?$CMyBucket@PAVCClientSockE@@@@@0@U_Scalar_ptr_iterator_tag@0@@Z ENDP ; std::_Destroy_range<CMyBucket<CClientSockE *> * *,std::allocator<CMyBucket<CClientSockE *> * *> >
_TEXT	ENDS
PUBLIC	??$fill_n@PAPAPAV?$CMyBucket@PAVCClientSockE@@@@IPAPAV1@@std@@YAXPAPAPAV?$CMyBucket@PAVCClientSockE@@@@IABQAPAV1@@Z ; std::fill_n<CMyBucket<CClientSockE *> * * *,unsigned int,CMyBucket<CClientSockE *> * *>
; Function compile flags: /Ogty
; File c:\program files\microsoft visual studio .net 2003\vc7\include\xutility
;	COMDAT ??$fill_n@PAPAPAV?$CMyBucket@PAVCClientSockE@@@@IPAPAV1@@std@@YAXPAPAPAV?$CMyBucket@PAVCClientSockE@@@@IABQAPAV1@@Z
_TEXT	SEGMENT
__First$ = 8						; size = 4
__Count$ = 12						; size = 4
__Val$ = 16						; size = 4
??$fill_n@PAPAPAV?$CMyBucket@PAVCClientSockE@@@@IPAPAV1@@std@@YAXPAPAPAV?$CMyBucket@PAVCClientSockE@@@@IABQAPAV1@@Z PROC NEAR ; std::fill_n<CMyBucket<CClientSockE *> * * *,unsigned int,CMyBucket<CClientSockE *> * *>, COMDAT

; 1160 : 	for (; 0 < _Count; --_Count, ++_First)

  00000	8b 4c 24 08	 mov	 ecx, DWORD PTR __Count$[esp-4]
  00004	85 c9		 test	 ecx, ecx
  00006	76 14		 jbe	 SHORT $L155035
  00008	8b 54 24 0c	 mov	 edx, DWORD PTR __Val$[esp-4]
  0000c	8b 44 24 04	 mov	 eax, DWORD PTR __First$[esp-4]
  00010	56		 push	 esi
$L155033:

; 1161 : 		*_First = _Val;

  00011	8b 32		 mov	 esi, DWORD PTR [edx]
  00013	89 30		 mov	 DWORD PTR [eax], esi
  00015	83 c0 04	 add	 eax, 4
  00018	49		 dec	 ecx
  00019	75 f6		 jne	 SHORT $L155033
  0001b	5e		 pop	 esi
$L155035:

; 1162 : 	}

  0001c	c3		 ret	 0
??$fill_n@PAPAPAV?$CMyBucket@PAVCClientSockE@@@@IPAPAV1@@std@@YAXPAPAPAV?$CMyBucket@PAVCClientSockE@@@@IABQAPAV1@@Z ENDP ; std::fill_n<CMyBucket<CClientSockE *> * * *,unsigned int,CMyBucket<CClientSockE *> * *>
_TEXT	ENDS
PUBLIC	?assign@?$char_traits@D@std@@SAXAADABD@Z	; std::char_traits<char>::assign
; Function compile flags: /Ogty
; File c:\program files\microsoft visual studio .net 2003\vc7\include\iosfwd
;	COMDAT ?assign@?$char_traits@D@std@@SAXAADABD@Z
_TEXT	SEGMENT
__Left$ = 8						; size = 4
__Right$ = 12						; size = 4
?assign@?$char_traits@D@std@@SAXAADABD@Z PROC NEAR	; std::char_traits<char>::assign, COMDAT

; 331  : 		_Left = _Right;

  00000	8b 44 24 08	 mov	 eax, DWORD PTR __Right$[esp-4]
  00004	8a 08		 mov	 cl, BYTE PTR [eax]
  00006	8b 54 24 04	 mov	 edx, DWORD PTR __Left$[esp-4]
  0000a	88 0a		 mov	 BYTE PTR [edx], cl

; 332  : 		}

  0000c	c3		 ret	 0
?assign@?$char_traits@D@std@@SAXAADABD@Z ENDP		; std::char_traits<char>::assign
_TEXT	ENDS
PUBLIC	?length@?$char_traits@D@std@@SAIPBD@Z		; std::char_traits<char>::length
; Function compile flags: /Ogty
;	COMDAT ?length@?$char_traits@D@std@@SAIPBD@Z
_TEXT	SEGMENT
__First$ = 8						; size = 4
?length@?$char_traits@D@std@@SAIPBD@Z PROC NEAR		; std::char_traits<char>::length, COMDAT

; 352  : 		return (::strlen(_First));

  00000	8b 44 24 04	 mov	 eax, DWORD PTR __First$[esp-4]
  00004	8d 50 01	 lea	 edx, DWORD PTR [eax+1]
$L155592:
  00007	8a 08		 mov	 cl, BYTE PTR [eax]
  00009	40		 inc	 eax
  0000a	84 c9		 test	 cl, cl
  0000c	75 f9		 jne	 SHORT $L155592
  0000e	2b c2		 sub	 eax, edx

; 353  : 		}

  00010	c3		 ret	 0
?length@?$char_traits@D@std@@SAIPBD@Z ENDP		; std::char_traits<char>::length
_TEXT	ENDS
PUBLIC	?copy@?$char_traits@D@std@@SAPADPADPBDI@Z	; std::char_traits<char>::copy
; Function compile flags: /Ogty
;	COMDAT ?copy@?$char_traits@D@std@@SAPADPADPBDI@Z
_TEXT	SEGMENT
__First1$ = 8						; size = 4
__First2$ = 12						; size = 4
__Count$ = 16						; size = 4
?copy@?$char_traits@D@std@@SAPADPADPBDI@Z PROC NEAR	; std::char_traits<char>::copy, COMDAT

; 358  : 		return ((_Elem *)::memcpy(_First1, _First2, _Count));

  00000	8b 4c 24 0c	 mov	 ecx, DWORD PTR __Count$[esp-4]
  00004	56		 push	 esi
  00005	8b 74 24 0c	 mov	 esi, DWORD PTR __First2$[esp]
  00009	57		 push	 edi
  0000a	8b 7c 24 0c	 mov	 edi, DWORD PTR __First1$[esp+4]
  0000e	8b c1		 mov	 eax, ecx
  00010	8b d7		 mov	 edx, edi
  00012	c1 e9 02	 shr	 ecx, 2
  00015	f3 a5		 rep movsd
  00017	8b c8		 mov	 ecx, eax
  00019	83 e1 03	 and	 ecx, 3
  0001c	f3 a4		 rep movsb
  0001e	5f		 pop	 edi
  0001f	8b c2		 mov	 eax, edx
  00021	5e		 pop	 esi

; 359  : 		}

  00022	c3		 ret	 0
?copy@?$char_traits@D@std@@SAPADPADPBDI@Z ENDP		; std::char_traits<char>::copy
_TEXT	ENDS
PUBLIC	?move@?$char_traits@D@std@@SAPADPADPBDI@Z	; std::char_traits<char>::move
; Function compile flags: /Ogty
;	COMDAT ?move@?$char_traits@D@std@@SAPADPADPBDI@Z
_TEXT	SEGMENT
__First1$ = 8						; size = 4
__First2$ = 12						; size = 4
__Count$ = 16						; size = 4
?move@?$char_traits@D@std@@SAPADPADPBDI@Z PROC NEAR	; std::char_traits<char>::move, COMDAT

; 370  : 		return ((_Elem *)::memmove(_First1, _First2, _Count));

  00000	e9 00 00 00 00	 jmp	 _memmove
?move@?$char_traits@D@std@@SAPADPADPBDI@Z ENDP		; std::char_traits<char>::move
_TEXT	ENDS
PUBLIC	??0CMclCritSec@@QAE@XZ				; CMclCritSec::CMclCritSec
PUBLIC	??_7CMclCritSec@@6B@				; CMclCritSec::`vftable'
PUBLIC	??_GCMclCritSec@@UAEPAXI@Z			; CMclCritSec::`scalar deleting destructor'
EXTRN	??_ECMclCritSec@@UAEPAXI@Z:NEAR			; CMclCritSec::`vector deleting destructor'
EXTRN	__imp__InitializeCriticalSection@4:NEAR
;	COMDAT ??_7CMclCritSec@@6B@
; File c:\offi src_real\offi src!\_network\mcl\include\cmclcritsec.h
CONST	SEGMENT
??_7CMclCritSec@@6B@ DD FLAT:??_ECMclCritSec@@UAEPAXI@Z	; CMclCritSec::`vftable'
; Function compile flags: /Ogty
CONST	ENDS
;	COMDAT ??0CMclCritSec@@QAE@XZ
_TEXT	SEGMENT
??0CMclCritSec@@QAE@XZ PROC NEAR			; CMclCritSec::CMclCritSec, COMDAT
; _this$ = ecx

; 19   :     CMclCritSec(void)

  00000	56		 push	 esi
  00001	8b f1		 mov	 esi, ecx

; 20   :     {
; 21   : 		::InitializeCriticalSection( &m_CritSec );

  00003	8d 46 04	 lea	 eax, DWORD PTR [esi+4]
  00006	50		 push	 eax
  00007	c7 06 00 00 00
	00		 mov	 DWORD PTR [esi], OFFSET FLAT:??_7CMclCritSec@@6B@
  0000d	ff 15 00 00 00
	00		 call	 DWORD PTR __imp__InitializeCriticalSection@4

; 22   : 	}

  00013	8b c6		 mov	 eax, esi
  00015	5e		 pop	 esi
  00016	c3		 ret	 0
??0CMclCritSec@@QAE@XZ ENDP				; CMclCritSec::CMclCritSec
_TEXT	ENDS
PUBLIC	??1CMclCritSec@@UAE@XZ				; CMclCritSec::~CMclCritSec
EXTRN	__imp__DeleteCriticalSection@4:NEAR
; Function compile flags: /Ogty
;	COMDAT ??1CMclCritSec@@UAE@XZ
_TEXT	SEGMENT
??1CMclCritSec@@UAE@XZ PROC NEAR			; CMclCritSec::~CMclCritSec, COMDAT
; _this$ = ecx

; 26   : 	{

  00000	c7 01 00 00 00
	00		 mov	 DWORD PTR [ecx], OFFSET FLAT:??_7CMclCritSec@@6B@

; 27   : 		::DeleteCriticalSection( &m_CritSec );

  00006	83 c1 04	 add	 ecx, 4
  00009	51		 push	 ecx
  0000a	ff 15 00 00 00
	00		 call	 DWORD PTR __imp__DeleteCriticalSection@4

; 28   : 	}

  00010	c3		 ret	 0
??1CMclCritSec@@UAE@XZ ENDP				; CMclCritSec::~CMclCritSec
_TEXT	ENDS
PUBLIC	?Enter@CMclCritSec@@QAEXXZ			; CMclCritSec::Enter
; Function compile flags: /Ogty
;	COMDAT ?Enter@CMclCritSec@@QAEXXZ
_TEXT	SEGMENT
?Enter@CMclCritSec@@QAEXXZ PROC NEAR			; CMclCritSec::Enter, COMDAT
; _this$ = ecx

; 33   : 		::EnterCriticalSection( &m_CritSec );

  00000	83 c1 04	 add	 ecx, 4
  00003	51		 push	 ecx
  00004	ff 15 00 00 00
	00		 call	 DWORD PTR __imp__EnterCriticalSection@4

; 34   : 	}

  0000a	c3		 ret	 0
?Enter@CMclCritSec@@QAEXXZ ENDP				; CMclCritSec::Enter
_TEXT	ENDS
PUBLIC	?Leave@CMclCritSec@@QAEXXZ			; CMclCritSec::Leave
; Function compile flags: /Ogty
;	COMDAT ?Leave@CMclCritSec@@QAEXXZ
_TEXT	SEGMENT
?Leave@CMclCritSec@@QAEXXZ PROC NEAR			; CMclCritSec::Leave, COMDAT
; _this$ = ecx

; 39   : 		::LeaveCriticalSection( &m_CritSec );

  00000	83 c1 04	 add	 ecx, 4
  00003	51		 push	 ecx
  00004	ff 15 00 00 00
	00		 call	 DWORD PTR __imp__LeaveCriticalSection@4

; 40   : 	}

  0000a	c3		 ret	 0
?Leave@CMclCritSec@@QAEXXZ ENDP				; CMclCritSec::Leave
; Function compile flags: /Ogty
_TEXT	ENDS
;	COMDAT ??_GCMclCritSec@@UAEPAXI@Z
_TEXT	SEGMENT
___flags$ = 8						; size = 4
??_GCMclCritSec@@UAEPAXI@Z PROC NEAR			; CMclCritSec::`scalar deleting destructor', COMDAT
; _this$ = ecx
  00000	56		 push	 esi
  00001	8b f1		 mov	 esi, ecx
  00003	8d 46 04	 lea	 eax, DWORD PTR [esi+4]
  00006	50		 push	 eax
  00007	c7 06 00 00 00
	00		 mov	 DWORD PTR [esi], OFFSET FLAT:??_7CMclCritSec@@6B@
  0000d	ff 15 00 00 00
	00		 call	 DWORD PTR __imp__DeleteCriticalSection@4
  00013	f6 44 24 08 01	 test	 BYTE PTR ___flags$[esp], 1
  00018	74 09		 je	 SHORT $L155618
  0001a	56		 push	 esi
  0001b	e8 00 00 00 00	 call	 ??3@YAXPAX@Z		; operator delete
  00020	83 c4 04	 add	 esp, 4
$L155618:
  00023	8b c6		 mov	 eax, esi
  00025	5e		 pop	 esi
  00026	c2 04 00	 ret	 4
??_GCMclCritSec@@UAEPAXI@Z ENDP				; CMclCritSec::`scalar deleting destructor'
_TEXT	ENDS
PUBLIC	??0CMclAutoLock@@QAE@AAVCMclCritSec@@@Z		; CMclAutoLock::CMclAutoLock
; Function compile flags: /Ogty
; File c:\offi src_real\offi src!\_network\mcl\include\cmclautolock.h
;	COMDAT ??0CMclAutoLock@@QAE@AAVCMclCritSec@@@Z
_TEXT	SEGMENT
_rCMclCritSec$ = 8					; size = 4
??0CMclAutoLock@@QAE@AAVCMclCritSec@@@Z PROC NEAR	; CMclAutoLock::CMclAutoLock, COMDAT
; _this$ = ecx

; 20   : 	{
; 21   : 		m_pcCritSec = &rCMclCritSec;

  00000	8b 44 24 04	 mov	 eax, DWORD PTR _rCMclCritSec$[esp-4]
  00004	56		 push	 esi
  00005	8b f1		 mov	 esi, ecx
  00007	89 06		 mov	 DWORD PTR [esi], eax

; 22   : 		m_pcCritSec->Enter();

  00009	83 c0 04	 add	 eax, 4
  0000c	50		 push	 eax
  0000d	ff 15 00 00 00
	00		 call	 DWORD PTR __imp__EnterCriticalSection@4

; 23   : 	}

  00013	8b c6		 mov	 eax, esi
  00015	5e		 pop	 esi
  00016	c2 04 00	 ret	 4
??0CMclAutoLock@@QAE@AAVCMclCritSec@@@Z ENDP		; CMclAutoLock::CMclAutoLock
_TEXT	ENDS
PUBLIC	??1CMclAutoLock@@QAE@XZ				; CMclAutoLock::~CMclAutoLock
; Function compile flags: /Ogty
;	COMDAT ??1CMclAutoLock@@QAE@XZ
_TEXT	SEGMENT
??1CMclAutoLock@@QAE@XZ PROC NEAR			; CMclAutoLock::~CMclAutoLock, COMDAT
; _this$ = ecx

; 28   : 		m_pcCritSec->Leave();

  00000	8b 01		 mov	 eax, DWORD PTR [ecx]
  00002	83 c0 04	 add	 eax, 4
  00005	50		 push	 eax
  00006	ff 15 00 00 00
	00		 call	 DWORD PTR __imp__LeaveCriticalSection@4

; 29   : 	}

  0000c	c3		 ret	 0
??1CMclAutoLock@@QAE@XZ ENDP				; CMclAutoLock::~CMclAutoLock
_TEXT	ENDS
PUBLIC	?IDHash@@YAKKI@Z				; IDHash
; Function compile flags: /Ogty
; File c:\offi src_real\offi src!\_network\cmnhdr.h
;	COMDAT ?IDHash@@YAKKI@Z
_TEXT	SEGMENT
_id$ = 8						; size = 4
_HashSize$ = 12						; size = 4
?IDHash@@YAKKI@Z PROC NEAR				; IDHash, COMDAT

; 48   : 	return (((id) + (id>>8) + (id>>16) + (id>>24)) & (HashSize-1));

  00000	8b 44 24 04	 mov	 eax, DWORD PTR _id$[esp-4]
  00004	8b d0		 mov	 edx, eax
  00006	8b c8		 mov	 ecx, eax
  00008	c1 ea 10	 shr	 edx, 16			; 00000010H
  0000b	03 d0		 add	 edx, eax
  0000d	c1 e9 18	 shr	 ecx, 24			; 00000018H
  00010	c1 e8 08	 shr	 eax, 8
  00013	03 d1		 add	 edx, ecx
  00015	8b 4c 24 08	 mov	 ecx, DWORD PTR _HashSize$[esp-4]
  00019	03 c2		 add	 eax, edx
  0001b	49		 dec	 ecx
  0001c	23 c1		 and	 eax, ecx

; 49   : }

  0001e	c3		 ret	 0
?IDHash@@YAKKI@Z ENDP					; IDHash
_TEXT	ENDS
PUBLIC	?IsPrime@@YAHK@Z				; IsPrime
; Function compile flags: /Ogty
;	COMDAT ?IsPrime@@YAHK@Z
_TEXT	SEGMENT
_n$ = 8							; size = 4
?IsPrime@@YAHK@Z PROC NEAR				; IsPrime, COMDAT

; 78   : {

  00000	56		 push	 esi

; 79   : 	u_long i = 2, j = n;
; 80   : 	while( i < j ) {

  00001	8b 74 24 08	 mov	 esi, DWORD PTR _n$[esp]
  00005	b9 02 00 00 00	 mov	 ecx, 2
  0000a	3b f1		 cmp	 esi, ecx
  0000c	76 11		 jbe	 SHORT $L130212
  0000e	8b ff		 npad	 2
$L130211:

; 81   : 		if( n % i == 0 )

  00010	33 d2		 xor	 edx, edx
  00012	8b c6		 mov	 eax, esi
  00014	f7 f1		 div	 ecx
  00016	85 d2		 test	 edx, edx
  00018	74 0c		 je	 SHORT $L155640

; 83   : 		j = n / i++;

  0001a	41		 inc	 ecx
  0001b	3b c8		 cmp	 ecx, eax
  0001d	72 f1		 jb	 SHORT $L130211
$L130212:

; 84   : 	}
; 85   : 	return TRUE;

  0001f	b8 01 00 00 00	 mov	 eax, 1
  00024	5e		 pop	 esi

; 86   : }

  00025	c3		 ret	 0
$L155640:

; 82   : 			return FALSE;

  00026	33 c0		 xor	 eax, eax
  00028	5e		 pop	 esi

; 86   : }

  00029	c3		 ret	 0
?IsPrime@@YAHK@Z ENDP					; IsPrime
_TEXT	ENDS
PUBLIC	?size@?$basic_string@DU?$char_traits@D@std@@V?$allocator@D@2@@std@@QBEIXZ ; std::basic_string<char,std::char_traits<char>,std::allocator<char> >::size
; Function compile flags: /Ogty
; File c:\program files\microsoft visual studio .net 2003\vc7\include\xstring
;	COMDAT ?size@?$basic_string@DU?$char_traits@D@std@@V?$allocator@D@2@@std@@QBEIXZ
_TEXT	SEGMENT
?size@?$basic_string@DU?$char_traits@D@std@@V?$allocator@D@2@@std@@QBEIXZ PROC NEAR ; std::basic_string<char,std::char_traits<char>,std::allocator<char> >::size, COMDAT
; _this$ = ecx

; 1109 : 		return (_Mysize);

  00000	8b 41 14	 mov	 eax, DWORD PTR [ecx+20]

; 1110 : 		}

  00003	c3		 ret	 0
?size@?$basic_string@DU?$char_traits@D@std@@V?$allocator@D@2@@std@@QBEIXZ ENDP ; std::basic_string<char,std::char_traits<char>,std::allocator<char> >::size
_TEXT	ENDS
PUBLIC	?_Myptr@?$basic_string@DU?$char_traits@D@std@@V?$allocator@D@2@@std@@QBEPBDXZ ; std::basic_string<char,std::char_traits<char>,std::allocator<char> >::_Myptr
; Function compile flags: /Ogty
;	COMDAT ?_Myptr@?$basic_string@DU?$char_traits@D@std@@V?$allocator@D@2@@std@@QBEPBDXZ
_TEXT	SEGMENT
?_Myptr@?$basic_string@DU?$char_traits@D@std@@V?$allocator@D@2@@std@@QBEPBDXZ PROC NEAR ; std::basic_string<char,std::char_traits<char>,std::allocator<char> >::_Myptr, COMDAT
; _this$ = ecx

; 1537 : 		return (_BUF_SIZE <= _Myres ? _Bx._Ptr : _Bx._Buf);

  00000	83 79 18 10	 cmp	 DWORD PTR [ecx+24], 16	; 00000010H
  00004	72 04		 jb	 SHORT $L155648
  00006	8b 41 04	 mov	 eax, DWORD PTR [ecx+4]

; 1538 : 		}

  00009	c3		 ret	 0
$L155648:

; 1537 : 		return (_BUF_SIZE <= _Myres ? _Bx._Ptr : _Bx._Buf);

  0000a	8d 41 04	 lea	 eax, DWORD PTR [ecx+4]

; 1538 : 		}

  0000d	c3		 ret	 0
?_Myptr@?$basic_string@DU?$char_traits@D@std@@V?$allocator@D@2@@std@@QBEPBDXZ ENDP ; std::basic_string<char,std::char_traits<char>,std::allocator<char> >::_Myptr
_TEXT	ENDS
PUBLIC	??0?$allocator@D@std@@QAE@ABV01@@Z		; std::allocator<char>::allocator<char>
; Function compile flags: /Ogty
; File c:\program files\microsoft visual studio .net 2003\vc7\include\xmemory
;	COMDAT ??0?$allocator@D@std@@QAE@ABV01@@Z
_TEXT	SEGMENT
___formal$ = 8						; size = 4
??0?$allocator@D@std@@QAE@ABV01@@Z PROC NEAR		; std::allocator<char>::allocator<char>, COMDAT
; _this$ = ecx

; 115  : 	allocator(const allocator<_Ty>&)

  00000	8b c1		 mov	 eax, ecx

; 116  : 		{	// construct by copying (do nothing)
; 117  : 		}

  00002	c2 04 00	 ret	 4
??0?$allocator@D@std@@QAE@ABV01@@Z ENDP			; std::allocator<char>::allocator<char>
_TEXT	ENDS
PUBLIC	?_Myptr@?$basic_string@DU?$char_traits@D@std@@V?$allocator@D@2@@std@@QAEPADXZ ; std::basic_string<char,std::char_traits<char>,std::allocator<char> >::_Myptr
; Function compile flags: /Ogty
; File c:\program files\microsoft visual studio .net 2003\vc7\include\xstring
;	COMDAT ?_Myptr@?$basic_string@DU?$char_traits@D@std@@V?$allocator@D@2@@std@@QAEPADXZ
_TEXT	SEGMENT
?_Myptr@?$basic_string@DU?$char_traits@D@std@@V?$allocator@D@2@@std@@QAEPADXZ PROC NEAR ; std::basic_string<char,std::char_traits<char>,std::allocator<char> >::_Myptr, COMDAT
; _this$ = ecx

; 1532 : 		return (_BUF_SIZE <= _Myres ? _Bx._Ptr : _Bx._Buf);

  00000	83 79 18 10	 cmp	 DWORD PTR [ecx+24], 16	; 00000010H
  00004	72 04		 jb	 SHORT $L155656
  00006	8b 41 04	 mov	 eax, DWORD PTR [ecx+4]

; 1533 : 		}

  00009	c3		 ret	 0
$L155656:

; 1532 : 		return (_BUF_SIZE <= _Myres ? _Bx._Ptr : _Bx._Buf);

  0000a	8d 41 04	 lea	 eax, DWORD PTR [ecx+4]

; 1533 : 		}

  0000d	c3		 ret	 0
?_Myptr@?$basic_string@DU?$char_traits@D@std@@V?$allocator@D@2@@std@@QAEPADXZ ENDP ; std::basic_string<char,std::char_traits<char>,std::allocator<char> >::_Myptr
_TEXT	ENDS
PUBLIC	?deallocate@?$allocator@D@std@@QAEXPADI@Z	; std::allocator<char>::deallocate
; Function compile flags: /Ogty
; File c:\program files\microsoft visual studio .net 2003\vc7\include\xmemory
;	COMDAT ?deallocate@?$allocator@D@std@@QAEXPADI@Z
_TEXT	SEGMENT
__Ptr$ = 8						; size = 4
___formal$ = 12						; size = 4
?deallocate@?$allocator@D@std@@QAEXPADI@Z PROC NEAR	; std::allocator<char>::deallocate, COMDAT
; _this$ = ecx

; 132  : 		operator delete(_Ptr);

  00000	8b 44 24 04	 mov	 eax, DWORD PTR __Ptr$[esp-4]
  00004	50		 push	 eax
  00005	e8 00 00 00 00	 call	 ??3@YAXPAX@Z		; operator delete
  0000a	59		 pop	 ecx

; 133  : 		}

  0000b	c2 08 00	 ret	 8
?deallocate@?$allocator@D@std@@QAEXPADI@Z ENDP		; std::allocator<char>::deallocate
_TEXT	ENDS
PUBLIC	?_Inside@?$basic_string@DU?$char_traits@D@std@@V?$allocator@D@2@@std@@IAE_NPBD@Z ; std::basic_string<char,std::char_traits<char>,std::allocator<char> >::_Inside
; Function compile flags: /Ogty
; File c:\program files\microsoft visual studio .net 2003\vc7\include\xstring
;	COMDAT ?_Inside@?$basic_string@DU?$char_traits@D@std@@V?$allocator@D@2@@std@@IAE_NPBD@Z
_TEXT	SEGMENT
__Ptr$ = 8						; size = 4
?_Inside@?$basic_string@DU?$char_traits@D@std@@V?$allocator@D@2@@std@@IAE_NPBD@Z PROC NEAR ; std::basic_string<char,std::char_traits<char>,std::allocator<char> >::_Inside, COMDAT
; _this$ = ecx

; 1494 : 		{	// test if _Ptr points inside string

  00000	56		 push	 esi

; 1495 : 		if (_Ptr < _Myptr() || _Myptr() + _Mysize <= _Ptr)

  00001	8b 71 18	 mov	 esi, DWORD PTR [ecx+24]
  00004	83 fe 10	 cmp	 esi, 16			; 00000010H
  00007	57		 push	 edi
  00008	8d 41 04	 lea	 eax, DWORD PTR [ecx+4]
  0000b	72 04		 jb	 SHORT $L155668
  0000d	8b 10		 mov	 edx, DWORD PTR [eax]
  0000f	eb 02		 jmp	 SHORT $L155669
$L155668:
  00011	8b d0		 mov	 edx, eax
$L155669:
  00013	8b 7c 24 0c	 mov	 edi, DWORD PTR __Ptr$[esp+4]
  00017	3b fa		 cmp	 edi, edx
  00019	72 17		 jb	 SHORT $L147799
  0001b	83 fe 10	 cmp	 esi, 16			; 00000010H
  0001e	72 02		 jb	 SHORT $L155676
  00020	8b 00		 mov	 eax, DWORD PTR [eax]
$L155676:
  00022	8b 49 14	 mov	 ecx, DWORD PTR [ecx+20]
  00025	03 c8		 add	 ecx, eax
  00027	3b cf		 cmp	 ecx, edi
  00029	76 07		 jbe	 SHORT $L147799
  0002b	5f		 pop	 edi

; 1497 : 		else
; 1498 : 			return (true);

  0002c	b0 01		 mov	 al, 1
  0002e	5e		 pop	 esi

; 1499 : 		}

  0002f	c2 04 00	 ret	 4
$L147799:
  00032	5f		 pop	 edi

; 1496 : 			return (false);	// don't ask

  00033	32 c0		 xor	 al, al
  00035	5e		 pop	 esi

; 1499 : 		}

  00036	c2 04 00	 ret	 4
?_Inside@?$basic_string@DU?$char_traits@D@std@@V?$allocator@D@2@@std@@IAE_NPBD@Z ENDP ; std::basic_string<char,std::char_traits<char>,std::allocator<char> >::_Inside
_TEXT	ENDS
PUBLIC	?max_size@?$allocator@D@std@@QBEIXZ		; std::allocator<char>::max_size
; Function compile flags: /Ogty
; File c:\program files\microsoft visual studio .net 2003\vc7\include\xmemory
;	COMDAT ?max_size@?$allocator@D@std@@QBEIXZ
_TEXT	SEGMENT
?max_size@?$allocator@D@std@@QBEIXZ PROC NEAR		; std::allocator<char>::max_size, COMDAT
; _this$ = ecx

; 157  : 		_SIZT _Count = (_SIZT)(-1) / sizeof (_Ty);
; 158  : 		return (0 < _Count ? _Count : 1);

  00000	83 c8 ff	 or	 eax, -1

; 159  : 		}

  00003	c3		 ret	 0
?max_size@?$allocator@D@std@@QBEIXZ ENDP		; std::allocator<char>::max_size
_TEXT	ENDS
PUBLIC	??$_Allocate@D@std@@YAPADIPAD@Z			; std::_Allocate<char>
; Function compile flags: /Ogty
;	COMDAT ??$_Allocate@D@std@@YAPADIPAD@Z
_TEXT	SEGMENT
__Count$ = 8						; size = 4
___formal$ = 12						; size = 4
??$_Allocate@D@std@@YAPADIPAD@Z PROC NEAR		; std::_Allocate<char>, COMDAT

; 34   : 	return ((_Ty _FARQ *)operator new(_Count * sizeof (_Ty)));

  00000	8b 44 24 04	 mov	 eax, DWORD PTR __Count$[esp-4]
  00004	50		 push	 eax
  00005	e8 00 00 00 00	 call	 ??2@YAPAXI@Z		; operator new
  0000a	83 c4 04	 add	 esp, 4

; 35   : 	}

  0000d	c3		 ret	 0
??$_Allocate@D@std@@YAPADIPAD@Z ENDP			; std::_Allocate<char>
_TEXT	ENDS
PUBLIC	??3CClientSockE@@SAXPAX@Z			; CClientSockE::operator delete
EXTRN	?m_pPool@CClientSockE@@2PAV?$MemPooler@VCClientSockE@@@@A:DWORD ; CClientSockE::m_pPool
; Function compile flags: /Ogty
; File c:\offi src_real\offi src!\_network\net\include\clientsocke.h
;	COMDAT ??3CClientSockE@@SAXPAX@Z
_TEXT	SEGMENT
_lpMem$ = 8						; size = 4
??3CClientSockE@@SAXPAX@Z PROC NEAR			; CClientSockE::operator delete, COMDAT

; 84   : 	void	operator delete( void* lpMem )	{	CClientSockE::m_pPool->Free( (CClientSockE*)lpMem );	}

  00000	53		 push	 ebx
  00001	56		 push	 esi
  00002	8b 35 00 00 00
	00		 mov	 esi, DWORD PTR ?m_pPool@CClientSockE@@2PAV?$MemPooler@VCClientSockE@@@@A ; CClientSockE::m_pPool
  00008	57		 push	 edi
  00009	8d 5e 1c	 lea	 ebx, DWORD PTR [esi+28]
  0000c	53		 push	 ebx
  0000d	ff 15 00 00 00
	00		 call	 DWORD PTR __imp__EnterCriticalSection@4
  00013	8b 4e 18	 mov	 ecx, DWORD PTR [esi+24]
  00016	85 c9		 test	 ecx, ecx
  00018	8b 7c 24 10	 mov	 edi, DWORD PTR _lpMem$[esp+8]
  0001c	8d 47 fc	 lea	 eax, DWORD PTR [edi-4]
  0001f	7e 09		 jle	 SHORT $L155693
  00021	8b 0e		 mov	 ecx, DWORD PTR [esi]
  00023	89 08		 mov	 DWORD PTR [eax], ecx
  00025	89 06		 mov	 DWORD PTR [esi], eax
  00027	ff 4e 18	 dec	 DWORD PTR [esi+24]
$L155693:
  0002a	33 c0		 xor	 eax, eax
  0002c	b9 1f 01 00 00	 mov	 ecx, 287		; 0000011fH
  00031	53		 push	 ebx
  00032	f3 ab		 rep stosd
  00034	ff 15 00 00 00
	00		 call	 DWORD PTR __imp__LeaveCriticalSection@4
  0003a	5f		 pop	 edi
  0003b	5e		 pop	 esi
  0003c	5b		 pop	 ebx
  0003d	c3		 ret	 0
??3CClientSockE@@SAXPAX@Z ENDP				; CClientSockE::operator delete
_TEXT	ENDS
PUBLIC	??0iterator@?$list@PAXV?$allocator@PAX@std@@@std@@QAE@PAU_Node@?$_List_nod@PAXV?$allocator@PAX@std@@@2@@Z ; std::list<void *,std::allocator<void *> >::iterator::iterator
; Function compile flags: /Ogty
; File c:\program files\microsoft visual studio .net 2003\vc7\include\list
;	COMDAT ??0iterator@?$list@PAXV?$allocator@PAX@std@@@std@@QAE@PAU_Node@?$_List_nod@PAXV?$allocator@PAX@std@@@2@@Z
_TEXT	SEGMENT
__Pnode$ = 8						; size = 4
??0iterator@?$list@PAXV?$allocator@PAX@std@@@std@@QAE@PAU_Node@?$_List_nod@PAXV?$allocator@PAX@std@@@2@@Z PROC NEAR ; std::list<void *,std::allocator<void *> >::iterator::iterator, COMDAT
; _this$ = ecx

; 235  : 			{	// construct with node pointer _Pnode

  00000	8b c1		 mov	 eax, ecx
  00002	8b 4c 24 04	 mov	 ecx, DWORD PTR __Pnode$[esp-4]
  00006	89 08		 mov	 DWORD PTR [eax], ecx

; 236  : 			}

  00008	c2 04 00	 ret	 4
??0iterator@?$list@PAXV?$allocator@PAX@std@@@std@@QAE@PAU_Node@?$_List_nod@PAXV?$allocator@PAX@std@@@2@@Z ENDP ; std::list<void *,std::allocator<void *> >::iterator::iterator
_TEXT	ENDS
PUBLIC	?max_size@?$list@PAXV?$allocator@PAX@std@@@std@@QBEIXZ ; std::list<void *,std::allocator<void *> >::max_size
; Function compile flags: /Ogty
;	COMDAT ?max_size@?$list@PAXV?$allocator@PAX@std@@@std@@QBEIXZ
_TEXT	SEGMENT
?max_size@?$list@PAXV?$allocator@PAX@std@@@std@@QBEIXZ PROC NEAR ; std::list<void *,std::allocator<void *> >::max_size, COMDAT
; _this$ = ecx

; 436  : 		return (this->_Alval.max_size());

  00000	b8 ff ff ff 3f	 mov	 eax, 1073741823		; 3fffffffH

; 437  : 		}

  00005	c3		 ret	 0
?max_size@?$list@PAXV?$allocator@PAX@std@@@std@@QBEIXZ ENDP ; std::list<void *,std::allocator<void *> >::max_size
_TEXT	ENDS
PUBLIC	?allocate@?$allocator@U_Node@?$_List_nod@PAXV?$allocator@PAX@std@@@std@@@std@@QAEPAU_Node@?$_List_nod@PAXV?$allocator@PAX@std@@@2@I@Z ; std::allocator<std::_List_nod<void *,std::allocator<void *> >::_Node>::allocate
; Function compile flags: /Ogty
; File c:\program files\microsoft visual studio .net 2003\vc7\include\xmemory
;	COMDAT ?allocate@?$allocator@U_Node@?$_List_nod@PAXV?$allocator@PAX@std@@@std@@@std@@QAEPAU_Node@?$_List_nod@PAXV?$allocator@PAX@std@@@2@I@Z
_TEXT	SEGMENT
__Count$ = 8						; size = 4
?allocate@?$allocator@U_Node@?$_List_nod@PAXV?$allocator@PAX@std@@@std@@@std@@QAEPAU_Node@?$_List_nod@PAXV?$allocator@PAX@std@@@2@I@Z PROC NEAR ; std::allocator<std::_List_nod<void *,std::allocator<void *> >::_Node>::allocate, COMDAT
; _this$ = ecx

; 137  : 		return (_Allocate(_Count, (pointer)0));

  00000	8b 44 24 04	 mov	 eax, DWORD PTR __Count$[esp-4]
  00004	8d 04 40	 lea	 eax, DWORD PTR [eax+eax*2]
  00007	c1 e0 02	 shl	 eax, 2
  0000a	50		 push	 eax
  0000b	e8 00 00 00 00	 call	 ??2@YAPAXI@Z		; operator new
  00010	83 c4 04	 add	 esp, 4

; 138  : 		}

  00013	c2 04 00	 ret	 4
?allocate@?$allocator@U_Node@?$_List_nod@PAXV?$allocator@PAX@std@@@std@@@std@@QAEPAU_Node@?$_List_nod@PAXV?$allocator@PAX@std@@@2@I@Z ENDP ; std::allocator<std::_List_nod<void *,std::allocator<void *> >::_Node>::allocate
_TEXT	ENDS
PUBLIC	?Lookup@?$CMyMap@PAVCClientSockE@@@@QAEHKAAPAVCClientSockE@@@Z ; CMyMap<CClientSockE *>::Lookup
; Function compile flags: /Ogty
; File c:\offi src_real\offi src!\_network\misc\include\mymap.h
;	COMDAT ?Lookup@?$CMyMap@PAVCClientSockE@@@@QAEHKAAPAVCClientSockE@@@Z
_TEXT	SEGMENT
_dwKey$ = 8						; size = 4
_value$ = 12						; size = 4
?Lookup@?$CMyMap@PAVCClientSockE@@@@QAEHKAAPAVCClientSockE@@@Z PROC NEAR ; CMyMap<CClientSockE *>::Lookup, COMDAT
; _this$ = ecx

; 325  : 	ASSERT( m_nHashSize > 0 );
; 326  : 
; 327  : 	if( dwKey == INVALID_KEY )

  00000	8b 54 24 04	 mov	 edx, DWORD PTR _dwKey$[esp-4]
  00004	83 fa ff	 cmp	 edx, -1

; 328  : 		return FALSE;

  00007	74 38		 je	 SHORT $L153840
  00009	56		 push	 esi
  0000a	57		 push	 edi

; 329  : 	
; 330  : 	INIT_LOOP(1000);
; 331  : 	CMyBucket<T>* pBucket	= &m_pBuckets[IDHash( dwKey, m_nHashSize )];

  0000b	8b fa		 mov	 edi, edx
  0000d	c1 ef 10	 shr	 edi, 16			; 00000010H
  00010	03 fa		 add	 edi, edx
  00012	8b f2		 mov	 esi, edx
  00014	c1 ee 18	 shr	 esi, 24			; 00000018H
  00017	03 fe		 add	 edi, esi
  00019	8b 71 38	 mov	 esi, DWORD PTR [ecx+56]
  0001c	8b 49 04	 mov	 ecx, DWORD PTR [ecx+4]
  0001f	8b c2		 mov	 eax, edx
  00021	c1 e8 08	 shr	 eax, 8
  00024	03 c7		 add	 eax, edi
  00026	4e		 dec	 esi
  00027	23 c6		 and	 eax, esi
  00029	8d 04 40	 lea	 eax, DWORD PTR [eax+eax*2]
  0002c	8d 04 c1	 lea	 eax, DWORD PTR [ecx+eax*8]

; 332  : 	while( pBucket )

  0002f	85 c0		 test	 eax, eax
  00031	5f		 pop	 edi
  00032	5e		 pop	 esi
  00033	74 0c		 je	 SHORT $L153840
$L153839:

; 333  : 	{
; 334  : 		VERIFY_LOOP( __FILE__, __LINE__ );
; 335  : 		if( pBucket->IsEqual( dwKey ) )

  00035	3b 50 04	 cmp	 edx, DWORD PTR [eax+4]
  00038	74 0c		 je	 SHORT $L155728

; 339  : 		}
; 340  : 		pBucket		= pBucket->m_pNext;

  0003a	8b 40 0c	 mov	 eax, DWORD PTR [eax+12]
  0003d	85 c0		 test	 eax, eax
  0003f	75 f4		 jne	 SHORT $L153839
$L153840:

; 341  : 	}
; 342  : 	return FALSE;

  00041	33 c0		 xor	 eax, eax

; 343  : }

  00043	c2 08 00	 ret	 8
$L155728:

; 336  : 		{
; 337  : 			value	= pBucket->m_value;

  00046	8b 50 08	 mov	 edx, DWORD PTR [eax+8]
  00049	8b 44 24 08	 mov	 eax, DWORD PTR _value$[esp-4]
  0004d	89 10		 mov	 DWORD PTR [eax], edx

; 338  : 			return TRUE;

  0004f	b8 01 00 00 00	 mov	 eax, 1

; 343  : }

  00054	c2 08 00	 ret	 8
?Lookup@?$CMyMap@PAVCClientSockE@@@@QAEHKAAPAVCClientSockE@@@Z ENDP ; CMyMap<CClientSockE *>::Lookup
_TEXT	ENDS
PUBLIC	?Lock@?$CMyMap@PAVCClientSockE@@@@QAEXXZ	; CMyMap<CClientSockE *>::Lock
; Function compile flags: /Ogty
;	COMDAT ?Lock@?$CMyMap@PAVCClientSockE@@@@QAEXXZ
_TEXT	SEGMENT
?Lock@?$CMyMap@PAVCClientSockE@@@@QAEXXZ PROC NEAR	; CMyMap<CClientSockE *>::Lock, COMDAT
; _this$ = ecx

; 474  : 	m_AddRemoveLock.Enter();

  00000	83 c1 44	 add	 ecx, 68			; 00000044H
  00003	51		 push	 ecx
  00004	ff 15 00 00 00
	00		 call	 DWORD PTR __imp__EnterCriticalSection@4

; 475  : }

  0000a	c3		 ret	 0
?Lock@?$CMyMap@PAVCClientSockE@@@@QAEXXZ ENDP		; CMyMap<CClientSockE *>::Lock
_TEXT	ENDS
PUBLIC	?Unlock@?$CMyMap@PAVCClientSockE@@@@QAEXXZ	; CMyMap<CClientSockE *>::Unlock
; Function compile flags: /Ogty
;	COMDAT ?Unlock@?$CMyMap@PAVCClientSockE@@@@QAEXXZ
_TEXT	SEGMENT
?Unlock@?$CMyMap@PAVCClientSockE@@@@QAEXXZ PROC NEAR	; CMyMap<CClientSockE *>::Unlock, COMDAT
; _this$ = ecx

; 479  : 	m_AddRemoveLock.Leave();

  00000	83 c1 44	 add	 ecx, 68			; 00000044H
  00003	51		 push	 ecx
  00004	ff 15 00 00 00
	00		 call	 DWORD PTR __imp__LeaveCriticalSection@4

; 480  : }

  0000a	c3		 ret	 0
?Unlock@?$CMyMap@PAVCClientSockE@@@@QAEXXZ ENDP		; CMyMap<CClientSockE *>::Unlock
_TEXT	ENDS
PUBLIC	?destroy@?$allocator@PAPAV?$CMyBucket@PAVCClientSockE@@@@@std@@QAEXPAPAPAV?$CMyBucket@PAVCClientSockE@@@@@Z ; std::allocator<CMyBucket<CClientSockE *> * *>::destroy
; Function compile flags: /Ogty
; File c:\program files\microsoft visual studio .net 2003\vc7\include\xmemory
;	COMDAT ?destroy@?$allocator@PAPAV?$CMyBucket@PAVCClientSockE@@@@@std@@QAEXPAPAPAV?$CMyBucket@PAVCClientSockE@@@@@Z
_TEXT	SEGMENT
__Ptr$ = 8						; size = 4
?destroy@?$allocator@PAPAV?$CMyBucket@PAVCClientSockE@@@@@std@@QAEXPAPAPAV?$CMyBucket@PAVCClientSockE@@@@@Z PROC NEAR ; std::allocator<CMyBucket<CClientSockE *> * *>::destroy, COMDAT
; _this$ = ecx

; 152  : 		_Destroy(_Ptr);
; 153  : 		}

  00000	c2 04 00	 ret	 4
?destroy@?$allocator@PAPAV?$CMyBucket@PAVCClientSockE@@@@@std@@QAEXPAPAPAV?$CMyBucket@PAVCClientSockE@@@@@Z ENDP ; std::allocator<CMyBucket<CClientSockE *> * *>::destroy
_TEXT	ENDS
PUBLIC	?destroy@?$allocator@PAU_Node@?$_List_nod@PAV?$CMyBucket@PAVCClientSockE@@@@V?$allocator@PAV?$CMyBucket@PAVCClientSockE@@@@@std@@@std@@@std@@QAEXPAPAU_Node@?$_List_nod@PAV?$CMyBucket@PAVCClientSockE@@@@V?$allocator@PAV?$CMyBucket@PAVCClientSockE@@@@@std@@@2@@Z ; std::allocator<std::_List_nod<CMyBucket<CClientSockE *> *,std::allocator<CMyBucket<CClientSockE *> *> >::_Node *>::destroy
; Function compile flags: /Ogty
;	COMDAT ?destroy@?$allocator@PAU_Node@?$_List_nod@PAV?$CMyBucket@PAVCClientSockE@@@@V?$allocator@PAV?$CMyBucket@PAVCClientSockE@@@@@std@@@std@@@std@@QAEXPAPAU_Node@?$_List_nod@PAV?$CMyBucket@PAVCClientSockE@@@@V?$allocator@PAV?$CMyBucket@PAVCClientSockE@@@@@std@@@2@@Z
_TEXT	SEGMENT
__Ptr$ = 8						; size = 4
?destroy@?$allocator@PAU_Node@?$_List_nod@PAV?$CMyBucket@PAVCClientSockE@@@@V?$allocator@PAV?$CMyBucket@PAVCClientSockE@@@@@std@@@std@@@std@@QAEXPAPAU_Node@?$_List_nod@PAV?$CMyBucket@PAVCClientSockE@@@@V?$allocator@PAV?$CMyBucket@PAVCClientSockE@@@@@std@@@2@@Z PROC NEAR ; std::allocator<std::_List_nod<CMyBucket<CClientSockE *> *,std::allocator<CMyBucket<CClientSockE *> *> >::_Node *>::destroy, COMDAT
; _this$ = ecx

; 152  : 		_Destroy(_Ptr);
; 153  : 		}

  00000	c2 04 00	 ret	 4
?destroy@?$allocator@PAU_Node@?$_List_nod@PAV?$CMyBucket@PAVCClientSockE@@@@V?$allocator@PAV?$CMyBucket@PAVCClientSockE@@@@@std@@@std@@@std@@QAEXPAPAU_Node@?$_List_nod@PAV?$CMyBucket@PAVCClientSockE@@@@V?$allocator@PAV?$CMyBucket@PAVCClientSockE@@@@@std@@@2@@Z ENDP ; std::allocator<std::_List_nod<CMyBucket<CClientSockE *> *,std::allocator<CMyBucket<CClientSockE *> *> >::_Node *>::destroy
_TEXT	ENDS
PUBLIC	?destroy@?$allocator@PAV?$CMyBucket@PAVCClientSockE@@@@@std@@QAEXPAPAV?$CMyBucket@PAVCClientSockE@@@@@Z ; std::allocator<CMyBucket<CClientSockE *> *>::destroy
; Function compile flags: /Ogty
;	COMDAT ?destroy@?$allocator@PAV?$CMyBucket@PAVCClientSockE@@@@@std@@QAEXPAPAV?$CMyBucket@PAVCClientSockE@@@@@Z
_TEXT	SEGMENT
__Ptr$ = 8						; size = 4
?destroy@?$allocator@PAV?$CMyBucket@PAVCClientSockE@@@@@std@@QAEXPAPAV?$CMyBucket@PAVCClientSockE@@@@@Z PROC NEAR ; std::allocator<CMyBucket<CClientSockE *> *>::destroy, COMDAT
; _this$ = ecx

; 152  : 		_Destroy(_Ptr);
; 153  : 		}

  00000	c2 04 00	 ret	 4
?destroy@?$allocator@PAV?$CMyBucket@PAVCClientSockE@@@@@std@@QAEXPAPAV?$CMyBucket@PAVCClientSockE@@@@@Z ENDP ; std::allocator<CMyBucket<CClientSockE *> *>::destroy
_TEXT	ENDS
PUBLIC	?destroy@?$allocator@U_Node@?$_List_nod@PAV?$CMyBucket@PAVCClientSockE@@@@V?$allocator@PAV?$CMyBucket@PAVCClientSockE@@@@@std@@@std@@@std@@QAEXPAU_Node@?$_List_nod@PAV?$CMyBucket@PAVCClientSockE@@@@V?$allocator@PAV?$CMyBucket@PAVCClientSockE@@@@@std@@@2@@Z ; std::allocator<std::_List_nod<CMyBucket<CClientSockE *> *,std::allocator<CMyBucket<CClientSockE *> *> >::_Node>::destroy
; Function compile flags: /Ogty
;	COMDAT ?destroy@?$allocator@U_Node@?$_List_nod@PAV?$CMyBucket@PAVCClientSockE@@@@V?$allocator@PAV?$CMyBucket@PAVCClientSockE@@@@@std@@@std@@@std@@QAEXPAU_Node@?$_List_nod@PAV?$CMyBucket@PAVCClientSockE@@@@V?$allocator@PAV?$CMyBucket@PAVCClientSockE@@@@@std@@@2@@Z
_TEXT	SEGMENT
__Ptr$ = 8						; size = 4
?destroy@?$allocator@U_Node@?$_List_nod@PAV?$CMyBucket@PAVCClientSockE@@@@V?$allocator@PAV?$CMyBucket@PAVCClientSockE@@@@@std@@@std@@@std@@QAEXPAU_Node@?$_List_nod@PAV?$CMyBucket@PAVCClientSockE@@@@V?$allocator@PAV?$CMyBucket@PAVCClientSockE@@@@@std@@@2@@Z PROC NEAR ; std::allocator<std::_List_nod<CMyBucket<CClientSockE *> *,std::allocator<CMyBucket<CClientSockE *> *> >::_Node>::destroy, COMDAT
; _this$ = ecx

; 152  : 		_Destroy(_Ptr);
; 153  : 		}

  00000	c2 04 00	 ret	 4
?destroy@?$allocator@U_Node@?$_List_nod@PAV?$CMyBucket@PAVCClientSockE@@@@V?$allocator@PAV?$CMyBucket@PAVCClientSockE@@@@@std@@@std@@@std@@QAEXPAU_Node@?$_List_nod@PAV?$CMyBucket@PAVCClientSockE@@@@V?$allocator@PAV?$CMyBucket@PAVCClientSockE@@@@@std@@@2@@Z ENDP ; std::allocator<std::_List_nod<CMyBucket<CClientSockE *> *,std::allocator<CMyBucket<CClientSockE *> *> >::_Node>::destroy
_TEXT	ENDS
PUBLIC	??Eiterator@?$list@PAV?$CMyBucket@PAVCClientSockE@@@@V?$allocator@PAV?$CMyBucket@PAVCClientSockE@@@@@std@@@std@@QAEAAV012@XZ ; std::list<CMyBucket<CClientSockE *> *,std::allocator<CMyBucket<CClientSockE *> *> >::iterator::operator++
; Function compile flags: /Ogty
; File c:\program files\microsoft visual studio .net 2003\vc7\include\list
;	COMDAT ??Eiterator@?$list@PAV?$CMyBucket@PAVCClientSockE@@@@V?$allocator@PAV?$CMyBucket@PAVCClientSockE@@@@@std@@@std@@QAEAAV012@XZ
_TEXT	SEGMENT
??Eiterator@?$list@PAV?$CMyBucket@PAVCClientSockE@@@@V?$allocator@PAV?$CMyBucket@PAVCClientSockE@@@@@std@@@std@@QAEAAV012@XZ PROC NEAR ; std::list<CMyBucket<CClientSockE *> *,std::allocator<CMyBucket<CClientSockE *> *> >::iterator::operator++, COMDAT
; _this$ = ecx

; 249  : 			{	// preincrement

  00000	8b c1		 mov	 eax, ecx

; 250  : 			++(*(const_iterator *)this);

  00002	8b 08		 mov	 ecx, DWORD PTR [eax]
  00004	8b 11		 mov	 edx, DWORD PTR [ecx]
  00006	89 10		 mov	 DWORD PTR [eax], edx

; 251  : 			return (*this);
; 252  : 			}

  00008	c3		 ret	 0
??Eiterator@?$list@PAV?$CMyBucket@PAVCClientSockE@@@@V?$allocator@PAV?$CMyBucket@PAVCClientSockE@@@@@std@@@std@@QAEAAV012@XZ ENDP ; std::list<CMyBucket<CClientSockE *> *,std::allocator<CMyBucket<CClientSockE *> *> >::iterator::operator++
_TEXT	ENDS
PUBLIC	??9const_iterator@?$list@PAV?$CMyBucket@PAVCClientSockE@@@@V?$allocator@PAV?$CMyBucket@PAVCClientSockE@@@@@std@@@std@@QBE_NABV012@@Z ; std::list<CMyBucket<CClientSockE *> *,std::allocator<CMyBucket<CClientSockE *> *> >::const_iterator::operator!=
; Function compile flags: /Ogty
;	COMDAT ??9const_iterator@?$list@PAV?$CMyBucket@PAVCClientSockE@@@@V?$allocator@PAV?$CMyBucket@PAVCClientSockE@@@@@std@@@std@@QBE_NABV012@@Z
_TEXT	SEGMENT
__Right$ = 8						; size = 4
??9const_iterator@?$list@PAV?$CMyBucket@PAVCClientSockE@@@@V?$allocator@PAV?$CMyBucket@PAVCClientSockE@@@@@std@@@std@@QBE_NABV012@@Z PROC NEAR ; std::list<CMyBucket<CClientSockE *> *,std::allocator<CMyBucket<CClientSockE *> *> >::const_iterator::operator!=, COMDAT
; _this$ = ecx

; 202  : 			return (!(*this == _Right));

  00000	8b 01		 mov	 eax, DWORD PTR [ecx]
  00002	8b 54 24 04	 mov	 edx, DWORD PTR __Right$[esp-4]
  00006	56		 push	 esi
  00007	8b 32		 mov	 esi, DWORD PTR [edx]
  00009	33 c9		 xor	 ecx, ecx
  0000b	3b c6		 cmp	 eax, esi
  0000d	0f 95 c1	 setne	 cl
  00010	8a c1		 mov	 al, cl
  00012	5e		 pop	 esi

; 203  : 			}

  00013	c2 04 00	 ret	 4
??9const_iterator@?$list@PAV?$CMyBucket@PAVCClientSockE@@@@V?$allocator@PAV?$CMyBucket@PAVCClientSockE@@@@@std@@@std@@QBE_NABV012@@Z ENDP ; std::list<CMyBucket<CClientSockE *> *,std::allocator<CMyBucket<CClientSockE *> *> >::const_iterator::operator!=
_TEXT	ENDS
PUBLIC	??0iterator@?$list@PAV?$CMyBucket@PAVCClientSockE@@@@V?$allocator@PAV?$CMyBucket@PAVCClientSockE@@@@@std@@@std@@QAE@PAU_Node@?$_List_nod@PAV?$CMyBucket@PAVCClientSockE@@@@V?$allocator@PAV?$CMyBucket@PAVCClientSockE@@@@@std@@@2@@Z ; std::list<CMyBucket<CClientSockE *> *,std::allocator<CMyBucket<CClientSockE *> *> >::iterator::iterator
; Function compile flags: /Ogty
;	COMDAT ??0iterator@?$list@PAV?$CMyBucket@PAVCClientSockE@@@@V?$allocator@PAV?$CMyBucket@PAVCClientSockE@@@@@std@@@std@@QAE@PAU_Node@?$_List_nod@PAV?$CMyBucket@PAVCClientSockE@@@@V?$allocator@PAV?$CMyBucket@PAVCClientSockE@@@@@std@@@2@@Z
_TEXT	SEGMENT
__Pnode$ = 8						; size = 4
??0iterator@?$list@PAV?$CMyBucket@PAVCClientSockE@@@@V?$allocator@PAV?$CMyBucket@PAVCClientSockE@@@@@std@@@std@@QAE@PAU_Node@?$_List_nod@PAV?$CMyBucket@PAVCClientSockE@@@@V?$allocator@PAV?$CMyBucket@PAVCClientSockE@@@@@std@@@2@@Z PROC NEAR ; std::list<CMyBucket<CClientSockE *> *,std::allocator<CMyBucket<CClientSockE *> *> >::iterator::iterator, COMDAT
; _this$ = ecx

; 235  : 			{	// construct with node pointer _Pnode

  00000	8b c1		 mov	 eax, ecx
  00002	8b 4c 24 04	 mov	 ecx, DWORD PTR __Pnode$[esp-4]
  00006	89 08		 mov	 DWORD PTR [eax], ecx

; 236  : 			}

  00008	c2 04 00	 ret	 4
??0iterator@?$list@PAV?$CMyBucket@PAVCClientSockE@@@@V?$allocator@PAV?$CMyBucket@PAVCClientSockE@@@@@std@@@std@@QAE@PAU_Node@?$_List_nod@PAV?$CMyBucket@PAVCClientSockE@@@@V?$allocator@PAV?$CMyBucket@PAVCClientSockE@@@@@std@@@2@@Z ENDP ; std::list<CMyBucket<CClientSockE *> *,std::allocator<CMyBucket<CClientSockE *> *> >::iterator::iterator
_TEXT	ENDS
PUBLIC	??Dconst_iterator@?$list@PAV?$CMyBucket@PAVCClientSockE@@@@V?$allocator@PAV?$CMyBucket@PAVCClientSockE@@@@@std@@@std@@QBEABQAV?$CMyBucket@PAVCClientSockE@@@@XZ ; std::list<CMyBucket<CClientSockE *> *,std::allocator<CMyBucket<CClientSockE *> *> >::const_iterator::operator*
; Function compile flags: /Ogty
;	COMDAT ??Dconst_iterator@?$list@PAV?$CMyBucket@PAVCClientSockE@@@@V?$allocator@PAV?$CMyBucket@PAVCClientSockE@@@@@std@@@std@@QBEABQAV?$CMyBucket@PAVCClientSockE@@@@XZ
_TEXT	SEGMENT
??Dconst_iterator@?$list@PAV?$CMyBucket@PAVCClientSockE@@@@V?$allocator@PAV?$CMyBucket@PAVCClientSockE@@@@@std@@@std@@QBEABQAV?$CMyBucket@PAVCClientSockE@@@@XZ PROC NEAR ; std::list<CMyBucket<CClientSockE *> *,std::allocator<CMyBucket<CClientSockE *> *> >::const_iterator::operator*, COMDAT
; _this$ = ecx

; 161  : 			return (_Myval(_Ptr));

  00000	8b 01		 mov	 eax, DWORD PTR [ecx]
  00002	83 c0 08	 add	 eax, 8

; 162  : 			}

  00005	c3		 ret	 0
??Dconst_iterator@?$list@PAV?$CMyBucket@PAVCClientSockE@@@@V?$allocator@PAV?$CMyBucket@PAVCClientSockE@@@@@std@@@std@@QBEABQAV?$CMyBucket@PAVCClientSockE@@@@XZ ENDP ; std::list<CMyBucket<CClientSockE *> *,std::allocator<CMyBucket<CClientSockE *> *> >::const_iterator::operator*
_TEXT	ENDS
PUBLIC	?allocate@?$allocator@PAV?$CMyBucket@PAVCClientSockE@@@@@std@@QAEPAPAV?$CMyBucket@PAVCClientSockE@@@@I@Z ; std::allocator<CMyBucket<CClientSockE *> *>::allocate
; Function compile flags: /Ogty
; File c:\program files\microsoft visual studio .net 2003\vc7\include\xmemory
;	COMDAT ?allocate@?$allocator@PAV?$CMyBucket@PAVCClientSockE@@@@@std@@QAEPAPAV?$CMyBucket@PAVCClientSockE@@@@I@Z
_TEXT	SEGMENT
__Count$ = 8						; size = 4
?allocate@?$allocator@PAV?$CMyBucket@PAVCClientSockE@@@@@std@@QAEPAPAV?$CMyBucket@PAVCClientSockE@@@@I@Z PROC NEAR ; std::allocator<CMyBucket<CClientSockE *> *>::allocate, COMDAT
; _this$ = ecx

; 137  : 		return (_Allocate(_Count, (pointer)0));

  00000	8b 44 24 04	 mov	 eax, DWORD PTR __Count$[esp-4]
  00004	8d 0c 85 00 00
	00 00		 lea	 ecx, DWORD PTR [eax*4]
  0000b	51		 push	 ecx
  0000c	e8 00 00 00 00	 call	 ??2@YAPAXI@Z		; operator new
  00011	83 c4 04	 add	 esp, 4

; 138  : 		}

  00014	c2 04 00	 ret	 4
?allocate@?$allocator@PAV?$CMyBucket@PAVCClientSockE@@@@@std@@QAEPAPAV?$CMyBucket@PAVCClientSockE@@@@I@Z ENDP ; std::allocator<CMyBucket<CClientSockE *> *>::allocate
_TEXT	ENDS
PUBLIC	?construct@?$allocator@PAV?$CMyBucket@PAVCClientSockE@@@@@std@@QAEXPAPAV?$CMyBucket@PAVCClientSockE@@@@ABQAV3@@Z ; std::allocator<CMyBucket<CClientSockE *> *>::construct
; Function compile flags: /Ogty
;	COMDAT ?construct@?$allocator@PAV?$CMyBucket@PAVCClientSockE@@@@@std@@QAEXPAPAV?$CMyBucket@PAVCClientSockE@@@@ABQAV3@@Z
_TEXT	SEGMENT
__Ptr$ = 8						; size = 4
__Val$ = 12						; size = 4
?construct@?$allocator@PAV?$CMyBucket@PAVCClientSockE@@@@@std@@QAEXPAPAV?$CMyBucket@PAVCClientSockE@@@@ABQAV3@@Z PROC NEAR ; std::allocator<CMyBucket<CClientSockE *> *>::construct, COMDAT
; _this$ = ecx

; 147  : 		_Construct(_Ptr, _Val);

  00000	8b 44 24 04	 mov	 eax, DWORD PTR __Ptr$[esp-4]
  00004	85 c0		 test	 eax, eax
  00006	74 08		 je	 SHORT $L155814
  00008	8b 4c 24 08	 mov	 ecx, DWORD PTR __Val$[esp-4]
  0000c	8b 11		 mov	 edx, DWORD PTR [ecx]
  0000e	89 10		 mov	 DWORD PTR [eax], edx
$L155814:

; 148  : 		}

  00010	c2 08 00	 ret	 8
?construct@?$allocator@PAV?$CMyBucket@PAVCClientSockE@@@@@std@@QAEXPAPAV?$CMyBucket@PAVCClientSockE@@@@ABQAV3@@Z ENDP ; std::allocator<CMyBucket<CClientSockE *> *>::construct
_TEXT	ENDS
PUBLIC	?allocate@?$allocator@U_Node@?$_List_nod@PAV?$CMyBucket@PAVCClientSockE@@@@V?$allocator@PAV?$CMyBucket@PAVCClientSockE@@@@@std@@@std@@@std@@QAEPAU_Node@?$_List_nod@PAV?$CMyBucket@PAVCClientSockE@@@@V?$allocator@PAV?$CMyBucket@PAVCClientSockE@@@@@std@@@2@I@Z ; std::allocator<std::_List_nod<CMyBucket<CClientSockE *> *,std::allocator<CMyBucket<CClientSockE *> *> >::_Node>::allocate
; Function compile flags: /Ogty
;	COMDAT ?allocate@?$allocator@U_Node@?$_List_nod@PAV?$CMyBucket@PAVCClientSockE@@@@V?$allocator@PAV?$CMyBucket@PAVCClientSockE@@@@@std@@@std@@@std@@QAEPAU_Node@?$_List_nod@PAV?$CMyBucket@PAVCClientSockE@@@@V?$allocator@PAV?$CMyBucket@PAVCClientSockE@@@@@std@@@2@I@Z
_TEXT	SEGMENT
__Count$ = 8						; size = 4
?allocate@?$allocator@U_Node@?$_List_nod@PAV?$CMyBucket@PAVCClientSockE@@@@V?$allocator@PAV?$CMyBucket@PAVCClientSockE@@@@@std@@@std@@@std@@QAEPAU_Node@?$_List_nod@PAV?$CMyBucket@PAVCClientSockE@@@@V?$allocator@PAV?$CMyBucket@PAVCClientSockE@@@@@std@@@2@I@Z PROC NEAR ; std::allocator<std::_List_nod<CMyBucket<CClientSockE *> *,std::allocator<CMyBucket<CClientSockE *> *> >::_Node>::allocate, COMDAT
; _this$ = ecx

; 137  : 		return (_Allocate(_Count, (pointer)0));

  00000	8b 44 24 04	 mov	 eax, DWORD PTR __Count$[esp-4]
  00004	8d 04 40	 lea	 eax, DWORD PTR [eax+eax*2]
  00007	c1 e0 02	 shl	 eax, 2
  0000a	50		 push	 eax
  0000b	e8 00 00 00 00	 call	 ??2@YAPAXI@Z		; operator new
  00010	83 c4 04	 add	 esp, 4

; 138  : 		}

  00013	c2 04 00	 ret	 4
?allocate@?$allocator@U_Node@?$_List_nod@PAV?$CMyBucket@PAVCClientSockE@@@@V?$allocator@PAV?$CMyBucket@PAVCClientSockE@@@@@std@@@std@@@std@@QAEPAU_Node@?$_List_nod@PAV?$CMyBucket@PAVCClientSockE@@@@V?$allocator@PAV?$CMyBucket@PAVCClientSockE@@@@@std@@@2@I@Z ENDP ; std::allocator<std::_List_nod<CMyBucket<CClientSockE *> *,std::allocator<CMyBucket<CClientSockE *> *> >::_Node>::allocate
_TEXT	ENDS
PUBLIC	?construct@?$allocator@PAU_Node@?$_List_nod@PAV?$CMyBucket@PAVCClientSockE@@@@V?$allocator@PAV?$CMyBucket@PAVCClientSockE@@@@@std@@@std@@@std@@QAEXPAPAU_Node@?$_List_nod@PAV?$CMyBucket@PAVCClientSockE@@@@V?$allocator@PAV?$CMyBucket@PAVCClientSockE@@@@@std@@@2@ABQAU342@@Z ; std::allocator<std::_List_nod<CMyBucket<CClientSockE *> *,std::allocator<CMyBucket<CClientSockE *> *> >::_Node *>::construct
; Function compile flags: /Ogty
;	COMDAT ?construct@?$allocator@PAU_Node@?$_List_nod@PAV?$CMyBucket@PAVCClientSockE@@@@V?$allocator@PAV?$CMyBucket@PAVCClientSockE@@@@@std@@@std@@@std@@QAEXPAPAU_Node@?$_List_nod@PAV?$CMyBucket@PAVCClientSockE@@@@V?$allocator@PAV?$CMyBucket@PAVCClientSockE@@@@@std@@@2@ABQAU342@@Z
_TEXT	SEGMENT
__Ptr$ = 8						; size = 4
__Val$ = 12						; size = 4
?construct@?$allocator@PAU_Node@?$_List_nod@PAV?$CMyBucket@PAVCClientSockE@@@@V?$allocator@PAV?$CMyBucket@PAVCClientSockE@@@@@std@@@std@@@std@@QAEXPAPAU_Node@?$_List_nod@PAV?$CMyBucket@PAVCClientSockE@@@@V?$allocator@PAV?$CMyBucket@PAVCClientSockE@@@@@std@@@2@ABQAU342@@Z PROC NEAR ; std::allocator<std::_List_nod<CMyBucket<CClientSockE *> *,std::allocator<CMyBucket<CClientSockE *> *> >::_Node *>::construct, COMDAT
; _this$ = ecx

; 147  : 		_Construct(_Ptr, _Val);

  00000	8b 44 24 04	 mov	 eax, DWORD PTR __Ptr$[esp-4]
  00004	85 c0		 test	 eax, eax
  00006	74 08		 je	 SHORT $L155837
  00008	8b 4c 24 08	 mov	 ecx, DWORD PTR __Val$[esp-4]
  0000c	8b 11		 mov	 edx, DWORD PTR [ecx]
  0000e	89 10		 mov	 DWORD PTR [eax], edx
$L155837:

; 148  : 		}

  00010	c2 08 00	 ret	 8
?construct@?$allocator@PAU_Node@?$_List_nod@PAV?$CMyBucket@PAVCClientSockE@@@@V?$allocator@PAV?$CMyBucket@PAVCClientSockE@@@@@std@@@std@@@std@@QAEXPAPAU_Node@?$_List_nod@PAV?$CMyBucket@PAVCClientSockE@@@@V?$allocator@PAV?$CMyBucket@PAVCClientSockE@@@@@std@@@2@ABQAU342@@Z ENDP ; std::allocator<std::_List_nod<CMyBucket<CClientSockE *> *,std::allocator<CMyBucket<CClientSockE *> *> >::_Node *>::construct
_TEXT	ENDS
PUBLIC	??Diterator@?$deque@PAV?$CMyBucket@PAVCClientSockE@@@@V?$allocator@PAV?$CMyBucket@PAVCClientSockE@@@@@std@@@std@@QBEAAPAV?$CMyBucket@PAVCClientSockE@@@@XZ ; std::deque<CMyBucket<CClientSockE *> *,std::allocator<CMyBucket<CClientSockE *> *> >::iterator::operator*
; Function compile flags: /Ogty
; File c:\program files\microsoft visual studio .net 2003\vc7\include\deque
;	COMDAT ??Diterator@?$deque@PAV?$CMyBucket@PAVCClientSockE@@@@V?$allocator@PAV?$CMyBucket@PAVCClientSockE@@@@@std@@@std@@QBEAAPAV?$CMyBucket@PAVCClientSockE@@@@XZ
_TEXT	SEGMENT
??Diterator@?$deque@PAV?$CMyBucket@PAVCClientSockE@@@@V?$allocator@PAV?$CMyBucket@PAVCClientSockE@@@@@std@@@std@@QBEAAPAV?$CMyBucket@PAVCClientSockE@@@@XZ PROC NEAR ; std::deque<CMyBucket<CClientSockE *> *,std::allocator<CMyBucket<CClientSockE *> *> >::iterator::operator*, COMDAT
; _this$ = ecx

; 247  : 			return ((reference)**(const_iterator *)this);

  00000	8b 51 04	 mov	 edx, DWORD PTR [ecx+4]
  00003	8b 09		 mov	 ecx, DWORD PTR [ecx]
  00005	8b c2		 mov	 eax, edx
  00007	c1 e8 02	 shr	 eax, 2
  0000a	56		 push	 esi
  0000b	8d 34 85 00 00
	00 00		 lea	 esi, DWORD PTR [eax*4]
  00012	2b d6		 sub	 edx, esi
  00014	8b 71 08	 mov	 esi, DWORD PTR [ecx+8]
  00017	3b f0		 cmp	 esi, eax
  00019	77 02		 ja	 SHORT $L155849
  0001b	2b c6		 sub	 eax, esi
$L155849:
  0001d	8b 49 04	 mov	 ecx, DWORD PTR [ecx+4]
  00020	8b 04 81	 mov	 eax, DWORD PTR [ecx+eax*4]
  00023	8d 04 90	 lea	 eax, DWORD PTR [eax+edx*4]
  00026	5e		 pop	 esi

; 248  : 			}

  00027	c3		 ret	 0
??Diterator@?$deque@PAV?$CMyBucket@PAVCClientSockE@@@@V?$allocator@PAV?$CMyBucket@PAVCClientSockE@@@@@std@@@std@@QBEAAPAV?$CMyBucket@PAVCClientSockE@@@@XZ ENDP ; std::deque<CMyBucket<CClientSockE *> *,std::allocator<CMyBucket<CClientSockE *> *> >::iterator::operator*
_TEXT	ENDS
PUBLIC	?max_size@?$deque@PAV?$CMyBucket@PAVCClientSockE@@@@V?$allocator@PAV?$CMyBucket@PAVCClientSockE@@@@@std@@@std@@QBEIXZ ; std::deque<CMyBucket<CClientSockE *> *,std::allocator<CMyBucket<CClientSockE *> *> >::max_size
; Function compile flags: /Ogty
;	COMDAT ?max_size@?$deque@PAV?$CMyBucket@PAVCClientSockE@@@@V?$allocator@PAV?$CMyBucket@PAVCClientSockE@@@@@std@@@std@@QBEIXZ
_TEXT	SEGMENT
?max_size@?$deque@PAV?$CMyBucket@PAVCClientSockE@@@@V?$allocator@PAV?$CMyBucket@PAVCClientSockE@@@@@std@@@std@@QBEIXZ PROC NEAR ; std::deque<CMyBucket<CClientSockE *> *,std::allocator<CMyBucket<CClientSockE *> *> >::max_size, COMDAT
; _this$ = ecx

; 497  : 		return (this->_Alval.max_size());

  00000	b8 ff ff ff 3f	 mov	 eax, 1073741823		; 3fffffffH

; 498  : 		}

  00005	c3		 ret	 0
?max_size@?$deque@PAV?$CMyBucket@PAVCClientSockE@@@@V?$allocator@PAV?$CMyBucket@PAVCClientSockE@@@@@std@@@std@@QBEIXZ ENDP ; std::deque<CMyBucket<CClientSockE *> *,std::allocator<CMyBucket<CClientSockE *> *> >::max_size
_TEXT	ENDS
PUBLIC	??0?$_Deque_map@PAV?$CMyBucket@PAVCClientSockE@@@@V?$allocator@PAV?$CMyBucket@PAVCClientSockE@@@@@std@@@std@@IAE@V?$allocator@PAV?$CMyBucket@PAVCClientSockE@@@@@1@@Z ; std::_Deque_map<CMyBucket<CClientSockE *> *,std::allocator<CMyBucket<CClientSockE *> *> >::_Deque_map<CMyBucket<CClientSockE *> *,std::allocator<CMyBucket<CClientSockE *> *> >
; Function compile flags: /Ogty
;	COMDAT ??0?$_Deque_map@PAV?$CMyBucket@PAVCClientSockE@@@@V?$allocator@PAV?$CMyBucket@PAVCClientSockE@@@@@std@@@std@@IAE@V?$allocator@PAV?$CMyBucket@PAVCClientSockE@@@@@1@@Z
_TEXT	SEGMENT
__Al$ = 8						; size = 1
??0?$_Deque_map@PAV?$CMyBucket@PAVCClientSockE@@@@V?$allocator@PAV?$CMyBucket@PAVCClientSockE@@@@@std@@@std@@IAE@V?$allocator@PAV?$CMyBucket@PAVCClientSockE@@@@@1@@Z PROC NEAR ; std::_Deque_map<CMyBucket<CClientSockE *> *,std::allocator<CMyBucket<CClientSockE *> *> >::_Deque_map<CMyBucket<CClientSockE *> *,std::allocator<CMyBucket<CClientSockE *> *> >, COMDAT
; _this$ = ecx

; 21   : 		{	// construct allocator from _Al

  00000	8b c1		 mov	 eax, ecx

; 22   : 		}

  00002	c2 04 00	 ret	 4
??0?$_Deque_map@PAV?$CMyBucket@PAVCClientSockE@@@@V?$allocator@PAV?$CMyBucket@PAVCClientSockE@@@@@std@@@std@@IAE@V?$allocator@PAV?$CMyBucket@PAVCClientSockE@@@@@1@@Z ENDP ; std::_Deque_map<CMyBucket<CClientSockE *> *,std::allocator<CMyBucket<CClientSockE *> *> >::_Deque_map<CMyBucket<CClientSockE *> *,std::allocator<CMyBucket<CClientSockE *> *> >
_TEXT	ENDS
PUBLIC	?allocate@?$allocator@PAPAV?$CMyBucket@PAVCClientSockE@@@@@std@@QAEPAPAPAV?$CMyBucket@PAVCClientSockE@@@@I@Z ; std::allocator<CMyBucket<CClientSockE *> * *>::allocate
; Function compile flags: /Ogty
; File c:\program files\microsoft visual studio .net 2003\vc7\include\xmemory
;	COMDAT ?allocate@?$allocator@PAPAV?$CMyBucket@PAVCClientSockE@@@@@std@@QAEPAPAPAV?$CMyBucket@PAVCClientSockE@@@@I@Z
_TEXT	SEGMENT
__Count$ = 8						; size = 4
?allocate@?$allocator@PAPAV?$CMyBucket@PAVCClientSockE@@@@@std@@QAEPAPAPAV?$CMyBucket@PAVCClientSockE@@@@I@Z PROC NEAR ; std::allocator<CMyBucket<CClientSockE *> * *>::allocate, COMDAT
; _this$ = ecx

; 137  : 		return (_Allocate(_Count, (pointer)0));

  00000	8b 44 24 04	 mov	 eax, DWORD PTR __Count$[esp-4]
  00004	8d 0c 85 00 00
	00 00		 lea	 ecx, DWORD PTR [eax*4]
  0000b	51		 push	 ecx
  0000c	e8 00 00 00 00	 call	 ??2@YAPAXI@Z		; operator new
  00011	83 c4 04	 add	 esp, 4

; 138  : 		}

  00014	c2 04 00	 ret	 4
?allocate@?$allocator@PAPAV?$CMyBucket@PAVCClientSockE@@@@@std@@QAEPAPAPAV?$CMyBucket@PAVCClientSockE@@@@I@Z ENDP ; std::allocator<CMyBucket<CClientSockE *> * *>::allocate
_TEXT	ENDS
PUBLIC	??0?$_List_nod@PAV?$CMyBucket@PAVCClientSockE@@@@V?$allocator@PAV?$CMyBucket@PAVCClientSockE@@@@@std@@@std@@IAE@V?$allocator@PAV?$CMyBucket@PAVCClientSockE@@@@@1@@Z ; std::_List_nod<CMyBucket<CClientSockE *> *,std::allocator<CMyBucket<CClientSockE *> *> >::_List_nod<CMyBucket<CClientSockE *> *,std::allocator<CMyBucket<CClientSockE *> *> >
; Function compile flags: /Ogty
; File c:\program files\microsoft visual studio .net 2003\vc7\include\list
;	COMDAT ??0?$_List_nod@PAV?$CMyBucket@PAVCClientSockE@@@@V?$allocator@PAV?$CMyBucket@PAVCClientSockE@@@@@std@@@std@@IAE@V?$allocator@PAV?$CMyBucket@PAVCClientSockE@@@@@1@@Z
_TEXT	SEGMENT
__Al$ = 8						; size = 1
??0?$_List_nod@PAV?$CMyBucket@PAVCClientSockE@@@@V?$allocator@PAV?$CMyBucket@PAVCClientSockE@@@@@std@@@std@@IAE@V?$allocator@PAV?$CMyBucket@PAVCClientSockE@@@@@1@@Z PROC NEAR ; std::_List_nod<CMyBucket<CClientSockE *> *,std::allocator<CMyBucket<CClientSockE *> *> >::_List_nod<CMyBucket<CClientSockE *> *,std::allocator<CMyBucket<CClientSockE *> *> >, COMDAT
; _this$ = ecx

; 44   : 		{	// construct allocator from _Al

  00000	8b c1		 mov	 eax, ecx

; 45   : 		}

  00002	c2 04 00	 ret	 4
??0?$_List_nod@PAV?$CMyBucket@PAVCClientSockE@@@@V?$allocator@PAV?$CMyBucket@PAVCClientSockE@@@@@std@@@std@@IAE@V?$allocator@PAV?$CMyBucket@PAVCClientSockE@@@@@1@@Z ENDP ; std::_List_nod<CMyBucket<CClientSockE *> *,std::allocator<CMyBucket<CClientSockE *> *> >::_List_nod<CMyBucket<CClientSockE *> *,std::allocator<CMyBucket<CClientSockE *> *> >
_TEXT	ENDS
PUBLIC	??0iterator@?$deque@PAV?$CMyBucket@PAVCClientSockE@@@@V?$allocator@PAV?$CMyBucket@PAVCClientSockE@@@@@std@@@std@@QAE@IPBV12@@Z ; std::deque<CMyBucket<CClientSockE *> *,std::allocator<CMyBucket<CClientSockE *> *> >::iterator::iterator
; Function compile flags: /Ogty
; File c:\program files\microsoft visual studio .net 2003\vc7\include\deque
;	COMDAT ??0iterator@?$deque@PAV?$CMyBucket@PAVCClientSockE@@@@V?$allocator@PAV?$CMyBucket@PAVCClientSockE@@@@@std@@@std@@QAE@IPBV12@@Z
_TEXT	SEGMENT
__Off$ = 8						; size = 4
__Pdeque$ = 12						; size = 4
??0iterator@?$deque@PAV?$CMyBucket@PAVCClientSockE@@@@V?$allocator@PAV?$CMyBucket@PAVCClientSockE@@@@@std@@@std@@QAE@IPBV12@@Z PROC NEAR ; std::deque<CMyBucket<CClientSockE *> *,std::allocator<CMyBucket<CClientSockE *> *> >::iterator::iterator, COMDAT
; _this$ = ecx

; 242  : 			{	// construct with offset _Off in *_Pdeque

  00000	8b 54 24 04	 mov	 edx, DWORD PTR __Off$[esp-4]
  00004	8b c1		 mov	 eax, ecx
  00006	8b 4c 24 08	 mov	 ecx, DWORD PTR __Pdeque$[esp-4]
  0000a	89 08		 mov	 DWORD PTR [eax], ecx
  0000c	89 50 04	 mov	 DWORD PTR [eax+4], edx

; 243  : 			}

  0000f	c2 08 00	 ret	 8
??0iterator@?$deque@PAV?$CMyBucket@PAVCClientSockE@@@@V?$allocator@PAV?$CMyBucket@PAVCClientSockE@@@@@std@@@std@@QAE@IPBV12@@Z ENDP ; std::deque<CMyBucket<CClientSockE *> *,std::allocator<CMyBucket<CClientSockE *> *> >::iterator::iterator
_TEXT	ENDS
PUBLIC	??Ziterator@?$deque@PAV?$CMyBucket@PAVCClientSockE@@@@V?$allocator@PAV?$CMyBucket@PAVCClientSockE@@@@@std@@@std@@QAEAAV012@H@Z ; std::deque<CMyBucket<CClientSockE *> *,std::allocator<CMyBucket<CClientSockE *> *> >::iterator::operator-=
; Function compile flags: /Ogty
;	COMDAT ??Ziterator@?$deque@PAV?$CMyBucket@PAVCClientSockE@@@@V?$allocator@PAV?$CMyBucket@PAVCClientSockE@@@@@std@@@std@@QAEAAV012@H@Z
_TEXT	SEGMENT
__Off$ = 8						; size = 4
??Ziterator@?$deque@PAV?$CMyBucket@PAVCClientSockE@@@@V?$allocator@PAV?$CMyBucket@PAVCClientSockE@@@@@std@@@std@@QAEAAV012@H@Z PROC NEAR ; std::deque<CMyBucket<CClientSockE *> *,std::allocator<CMyBucket<CClientSockE *> *> >::iterator::operator-=, COMDAT
; _this$ = ecx

; 294  : 			{	// decrement by integer

  00000	8b c1		 mov	 eax, ecx

; 295  : 			return (*this += -_Off);

  00002	8b 50 04	 mov	 edx, DWORD PTR [eax+4]
  00005	8b 4c 24 04	 mov	 ecx, DWORD PTR __Off$[esp-4]
  00009	2b d1		 sub	 edx, ecx
  0000b	89 50 04	 mov	 DWORD PTR [eax+4], edx

; 296  : 			}

  0000e	c2 04 00	 ret	 4
??Ziterator@?$deque@PAV?$CMyBucket@PAVCClientSockE@@@@V?$allocator@PAV?$CMyBucket@PAVCClientSockE@@@@@std@@@std@@QAEAAV012@H@Z ENDP ; std::deque<CMyBucket<CClientSockE *> *,std::allocator<CMyBucket<CClientSockE *> *> >::iterator::operator-=
_TEXT	ENDS
PUBLIC	??$_Uninitialized_copy@PAPAPAV?$CMyBucket@PAVCClientSockE@@@@PAPAPAV1@V?$allocator@PAPAV?$CMyBucket@PAVCClientSockE@@@@@std@@@std@@YAPAPAPAV?$CMyBucket@PAVCClientSockE@@@@PAPAPAV1@00AAV?$allocator@PAPAV?$CMyBucket@PAVCClientSockE@@@@@0@@Z ; std::_Uninitialized_copy<CMyBucket<CClientSockE *> * * *,CMyBucket<CClientSockE *> * * *,std::allocator<CMyBucket<CClientSockE *> * *> >
; Function compile flags: /Ogty
; File c:\program files\microsoft visual studio .net 2003\vc7\include\memory
;	COMDAT ??$_Uninitialized_copy@PAPAPAV?$CMyBucket@PAVCClientSockE@@@@PAPAPAV1@V?$allocator@PAPAV?$CMyBucket@PAVCClientSockE@@@@@std@@@std@@YAPAPAPAV?$CMyBucket@PAVCClientSockE@@@@PAPAPAV1@00AAV?$allocator@PAPAV?$CMyBucket@PAVCClientSockE@@@@@0@@Z
_TEXT	SEGMENT
__First$ = 8						; size = 4
__Last$ = 12						; size = 4
__Dest$ = 16						; size = 4
__Al$ = 20						; size = 4
??$_Uninitialized_copy@PAPAPAV?$CMyBucket@PAVCClientSockE@@@@PAPAPAV1@V?$allocator@PAPAV?$CMyBucket@PAVCClientSockE@@@@@std@@@std@@YAPAPAPAV?$CMyBucket@PAVCClientSockE@@@@PAPAPAV1@00AAV?$allocator@PAPAV?$CMyBucket@PAVCClientSockE@@@@@0@@Z PROC NEAR ; std::_Uninitialized_copy<CMyBucket<CClientSockE *> * * *,CMyBucket<CClientSockE *> * * *,std::allocator<CMyBucket<CClientSockE *> * *> >, COMDAT

; 127  : 	return (_Uninit_copy(_First, _Last, _Dest, _Al,
; 128  : 		_Ptr_cat(_First, _Dest)));

  00000	8b 4c 24 04	 mov	 ecx, DWORD PTR __First$[esp-4]
  00004	8b 44 24 08	 mov	 eax, DWORD PTR __Last$[esp-4]
  00008	2b c1		 sub	 eax, ecx
  0000a	56		 push	 esi
  0000b	c1 f8 02	 sar	 eax, 2
  0000e	8d 34 85 00 00
	00 00		 lea	 esi, DWORD PTR [eax*4]
  00015	8b 44 24 10	 mov	 eax, DWORD PTR __Dest$[esp]
  00019	56		 push	 esi
  0001a	51		 push	 ecx
  0001b	50		 push	 eax
  0001c	e8 00 00 00 00	 call	 _memmove
  00021	83 c4 0c	 add	 esp, 12			; 0000000cH
  00024	03 c6		 add	 eax, esi
  00026	5e		 pop	 esi

; 129  : 	}

  00027	c3		 ret	 0
??$_Uninitialized_copy@PAPAPAV?$CMyBucket@PAVCClientSockE@@@@PAPAPAV1@V?$allocator@PAPAV?$CMyBucket@PAVCClientSockE@@@@@std@@@std@@YAPAPAPAV?$CMyBucket@PAVCClientSockE@@@@PAPAPAV1@00AAV?$allocator@PAPAV?$CMyBucket@PAVCClientSockE@@@@@0@@Z ENDP ; std::_Uninitialized_copy<CMyBucket<CClientSockE *> * * *,CMyBucket<CClientSockE *> * * *,std::allocator<CMyBucket<CClientSockE *> * *> >
_TEXT	ENDS
PUBLIC	??$_Destroy_range@PAPAV?$CMyBucket@PAVCClientSockE@@@@V?$allocator@PAPAV?$CMyBucket@PAVCClientSockE@@@@@std@@@std@@YAXPAPAPAV?$CMyBucket@PAVCClientSockE@@@@0AAV?$allocator@PAPAV?$CMyBucket@PAVCClientSockE@@@@@0@@Z ; std::_Destroy_range<CMyBucket<CClientSockE *> * *,std::allocator<CMyBucket<CClientSockE *> * *> >
; Function compile flags: /Ogty
; File c:\program files\microsoft visual studio .net 2003\vc7\include\xmemory
;	COMDAT ??$_Destroy_range@PAPAV?$CMyBucket@PAVCClientSockE@@@@V?$allocator@PAPAV?$CMyBucket@PAVCClientSockE@@@@@std@@@std@@YAXPAPAPAV?$CMyBucket@PAVCClientSockE@@@@0AAV?$allocator@PAPAV?$CMyBucket@PAVCClientSockE@@@@@0@@Z
_TEXT	SEGMENT
__First$ = 8						; size = 4
__Last$ = 12						; size = 4
__Al$ = 16						; size = 4
??$_Destroy_range@PAPAV?$CMyBucket@PAVCClientSockE@@@@V?$allocator@PAPAV?$CMyBucket@PAVCClientSockE@@@@@std@@@std@@YAXPAPAPAV?$CMyBucket@PAVCClientSockE@@@@0AAV?$allocator@PAPAV?$CMyBucket@PAVCClientSockE@@@@@0@@Z PROC NEAR ; std::_Destroy_range<CMyBucket<CClientSockE *> * *,std::allocator<CMyBucket<CClientSockE *> * *> >, COMDAT

; 217  : 	_Destroy_range(_First, _Last, _Al, _Ptr_cat(_First, _Last));
; 218  : 	}

  00000	c3		 ret	 0
??$_Destroy_range@PAPAV?$CMyBucket@PAVCClientSockE@@@@V?$allocator@PAPAV?$CMyBucket@PAVCClientSockE@@@@@std@@@std@@YAXPAPAPAV?$CMyBucket@PAVCClientSockE@@@@0AAV?$allocator@PAPAV?$CMyBucket@PAVCClientSockE@@@@@0@@Z ENDP ; std::_Destroy_range<CMyBucket<CClientSockE *> * *,std::allocator<CMyBucket<CClientSockE *> * *> >
_TEXT	ENDS
PUBLIC	?_Buynode@?$list@PAV?$CMyBucket@PAVCClientSockE@@@@V?$allocator@PAV?$CMyBucket@PAVCClientSockE@@@@@std@@@std@@IAEPAU_Node@?$_List_nod@PAV?$CMyBucket@PAVCClientSockE@@@@V?$allocator@PAV?$CMyBucket@PAVCClientSockE@@@@@std@@@2@PAU342@0ABQAV?$CMyBucket@PAVCClientSockE@@@@@Z ; std::list<CMyBucket<CClientSockE *> *,std::allocator<CMyBucket<CClientSockE *> *> >::_Buynode
EXTRN	__CxxThrowException@8:NEAR
; Function compile flags: /Ogty
; File c:\program files\microsoft visual studio .net 2003\vc7\include\list
;	COMDAT ?_Buynode@?$list@PAV?$CMyBucket@PAVCClientSockE@@@@V?$allocator@PAV?$CMyBucket@PAVCClientSockE@@@@@std@@@std@@IAEPAU_Node@?$_List_nod@PAV?$CMyBucket@PAVCClientSockE@@@@V?$allocator@PAV?$CMyBucket@PAVCClientSockE@@@@@std@@@2@PAU342@0ABQAV?$CMyBucket@PAVCClientSockE@@@@@Z
_TEXT	SEGMENT
__Next$ = 8						; size = 4
__Prev$ = 12						; size = 4
__Val$ = 16						; size = 4
?_Buynode@?$list@PAV?$CMyBucket@PAVCClientSockE@@@@V?$allocator@PAV?$CMyBucket@PAVCClientSockE@@@@@std@@@std@@IAEPAU_Node@?$_List_nod@PAV?$CMyBucket@PAVCClientSockE@@@@V?$allocator@PAV?$CMyBucket@PAVCClientSockE@@@@@std@@@2@PAU342@0ABQAV?$CMyBucket@PAVCClientSockE@@@@@Z PROC NEAR ; std::list<CMyBucket<CClientSockE *> *,std::allocator<CMyBucket<CClientSockE *> *> >::_Buynode, COMDAT
; _this$ = ecx

; 918  : 		_Nodeptr _Pnode = this->_Alnod.allocate(1);

  00000	6a 0c		 push	 12			; 0000000cH
  00002	e8 00 00 00 00	 call	 ??2@YAPAXI@Z		; operator new
  00007	83 c4 04	 add	 esp, 4

; 919  : 		_TRY_BEGIN
; 920  : 		new ((void *)_Pnode) _Node(_Next, _Prev, _Val);

  0000a	85 c0		 test	 eax, eax
  0000c	74 16		 je	 SHORT $L155920
  0000e	8b 4c 24 04	 mov	 ecx, DWORD PTR __Next$[esp-4]
  00012	8b 54 24 08	 mov	 edx, DWORD PTR __Prev$[esp-4]
  00016	89 08		 mov	 DWORD PTR [eax], ecx
  00018	8b 4c 24 0c	 mov	 ecx, DWORD PTR __Val$[esp-4]
  0001c	89 50 04	 mov	 DWORD PTR [eax+4], edx
  0001f	8b 11		 mov	 edx, DWORD PTR [ecx]
  00021	89 50 08	 mov	 DWORD PTR [eax+8], edx
$L155920:

; 921  : 		_CATCH_ALL
; 922  : 		this->_Alnod.deallocate(_Pnode, 1);
; 923  : 		_RERAISE;
; 924  : 		_CATCH_END
; 925  : 		return (_Pnode);
; 926  : 		}

  00024	c2 0c 00	 ret	 12			; 0000000cH
?_Buynode@?$list@PAV?$CMyBucket@PAVCClientSockE@@@@V?$allocator@PAV?$CMyBucket@PAVCClientSockE@@@@@std@@@std@@IAEPAU_Node@?$_List_nod@PAV?$CMyBucket@PAVCClientSockE@@@@V?$allocator@PAV?$CMyBucket@PAVCClientSockE@@@@@std@@@2@PAU342@0ABQAV?$CMyBucket@PAVCClientSockE@@@@@Z ENDP ; std::list<CMyBucket<CClientSockE *> *,std::allocator<CMyBucket<CClientSockE *> *> >::_Buynode
_TEXT	ENDS
PUBLIC	??$_Uninit_fill_n@PAPAV?$CMyBucket@PAVCClientSockE@@@@IPAPAV1@@std@@YAXPAPAPAV?$CMyBucket@PAVCClientSockE@@@@IABQAPAV1@AAV?$allocator@PAPAV?$CMyBucket@PAVCClientSockE@@@@@0@U_Scalar_ptr_iterator_tag@0@@Z ; std::_Uninit_fill_n<CMyBucket<CClientSockE *> * *,unsigned int,CMyBucket<CClientSockE *> * *>
; Function compile flags: /Ogty
; File c:\program files\microsoft visual studio .net 2003\vc7\include\memory
;	COMDAT ??$_Uninit_fill_n@PAPAV?$CMyBucket@PAVCClientSockE@@@@IPAPAV1@@std@@YAXPAPAPAV?$CMyBucket@PAVCClientSockE@@@@IABQAPAV1@AAV?$allocator@PAPAV?$CMyBucket@PAVCClientSockE@@@@@0@U_Scalar_ptr_iterator_tag@0@@Z
_TEXT	SEGMENT
__First$ = 8						; size = 4
__Count$ = 12						; size = 4
__Val$ = 16						; size = 4
___formal$ = 20						; size = 4
___formal$ = 24						; size = 1
??$_Uninit_fill_n@PAPAV?$CMyBucket@PAVCClientSockE@@@@IPAPAV1@@std@@YAXPAPAPAV?$CMyBucket@PAVCClientSockE@@@@IABQAPAV1@AAV?$allocator@PAPAV?$CMyBucket@PAVCClientSockE@@@@@0@U_Scalar_ptr_iterator_tag@0@@Z PROC NEAR ; std::_Uninit_fill_n<CMyBucket<CClientSockE *> * *,unsigned int,CMyBucket<CClientSockE *> * *>, COMDAT

; 237  : 	fill_n(_First, _Count, _Val);

  00000	8b 4c 24 08	 mov	 ecx, DWORD PTR __Count$[esp-4]
  00004	85 c9		 test	 ecx, ecx
  00006	8b 44 24 04	 mov	 eax, DWORD PTR __First$[esp-4]
  0000a	76 10		 jbe	 SHORT $L155956
  0000c	8b 54 24 0c	 mov	 edx, DWORD PTR __Val$[esp-4]
  00010	56		 push	 esi
$L155954:
  00011	8b 32		 mov	 esi, DWORD PTR [edx]
  00013	89 30		 mov	 DWORD PTR [eax], esi
  00015	83 c0 04	 add	 eax, 4
  00018	49		 dec	 ecx
  00019	75 f6		 jne	 SHORT $L155954
  0001b	5e		 pop	 esi
$L155956:

; 238  : 	}

  0001c	c3		 ret	 0
??$_Uninit_fill_n@PAPAV?$CMyBucket@PAVCClientSockE@@@@IPAPAV1@@std@@YAXPAPAPAV?$CMyBucket@PAVCClientSockE@@@@IABQAPAV1@AAV?$allocator@PAPAV?$CMyBucket@PAVCClientSockE@@@@@0@U_Scalar_ptr_iterator_tag@0@@Z ENDP ; std::_Uninit_fill_n<CMyBucket<CClientSockE *> * *,unsigned int,CMyBucket<CClientSockE *> * *>
_TEXT	ENDS
PUBLIC	??0?$_String_val@DV?$allocator@D@std@@@std@@IAE@V?$allocator@D@1@@Z ; std::_String_val<char,std::allocator<char> >::_String_val<char,std::allocator<char> >
; Function compile flags: /Ogty
; File c:\program files\microsoft visual studio .net 2003\vc7\include\xstring
;	COMDAT ??0?$_String_val@DV?$allocator@D@std@@@std@@IAE@V?$allocator@D@1@@Z
_TEXT	SEGMENT
__Al$ = 8						; size = 1
??0?$_String_val@DV?$allocator@D@std@@@std@@IAE@V?$allocator@D@1@@Z PROC NEAR ; std::_String_val<char,std::allocator<char> >::_String_val<char,std::allocator<char> >, COMDAT
; _this$ = ecx

; 34   : 		{	// construct allocator from _Al

  00000	8b c1		 mov	 eax, ecx

; 35   : 		}

  00002	c2 04 00	 ret	 4
??0?$_String_val@DV?$allocator@D@std@@@std@@IAE@V?$allocator@D@1@@Z ENDP ; std::_String_val<char,std::allocator<char> >::_String_val<char,std::allocator<char> >
_TEXT	ENDS
PUBLIC	?_Eos@?$basic_string@DU?$char_traits@D@std@@V?$allocator@D@2@@std@@IAEXI@Z ; std::basic_string<char,std::char_traits<char>,std::allocator<char> >::_Eos
; Function compile flags: /Ogty
;	COMDAT ?_Eos@?$basic_string@DU?$char_traits@D@std@@V?$allocator@D@2@@std@@IAEXI@Z
_TEXT	SEGMENT
__Newsize$ = 8						; size = 4
?_Eos@?$basic_string@DU?$char_traits@D@std@@V?$allocator@D@2@@std@@IAEXI@Z PROC NEAR ; std::basic_string<char,std::char_traits<char>,std::allocator<char> >::_Eos, COMDAT
; _this$ = ecx

; 1475 : 		_Traits::assign(_Myptr()[_Mysize = _Newsize], _Elem());

  00000	83 79 18 10	 cmp	 DWORD PTR [ecx+24], 16	; 00000010H
  00004	8b 44 24 04	 mov	 eax, DWORD PTR __Newsize$[esp-4]
  00008	89 41 14	 mov	 DWORD PTR [ecx+20], eax
  0000b	72 0a		 jb	 SHORT $L155976
  0000d	8b 49 04	 mov	 ecx, DWORD PTR [ecx+4]
  00010	c6 04 01 00	 mov	 BYTE PTR [ecx+eax], 0

; 1476 : 		}

  00014	c2 04 00	 ret	 4

; 1475 : 		_Traits::assign(_Myptr()[_Mysize = _Newsize], _Elem());

$L155976:
  00017	c6 44 01 04 00	 mov	 BYTE PTR [ecx+eax+4], 0

; 1476 : 		}

  0001c	c2 04 00	 ret	 4
?_Eos@?$basic_string@DU?$char_traits@D@std@@V?$allocator@D@2@@std@@IAEXI@Z ENDP ; std::basic_string<char,std::char_traits<char>,std::allocator<char> >::_Eos
_TEXT	ENDS
PUBLIC	?max_size@?$basic_string@DU?$char_traits@D@std@@V?$allocator@D@2@@std@@QBEIXZ ; std::basic_string<char,std::char_traits<char>,std::allocator<char> >::max_size
; Function compile flags: /Ogty
;	COMDAT ?max_size@?$basic_string@DU?$char_traits@D@std@@V?$allocator@D@2@@std@@QBEIXZ
_TEXT	SEGMENT
?max_size@?$basic_string@DU?$char_traits@D@std@@V?$allocator@D@2@@std@@QBEIXZ PROC NEAR ; std::basic_string<char,std::char_traits<char>,std::allocator<char> >::max_size, COMDAT
; _this$ = ecx

; 1114 : 		size_type _Num = _Mybase::_Alval.max_size();
; 1115 : 		return (_Num <= 1 ? 1 : _Num - 1);

  00000	b8 fe ff ff ff	 mov	 eax, -2			; fffffffeH

; 1116 : 		}

  00005	c3		 ret	 0
?max_size@?$basic_string@DU?$char_traits@D@std@@V?$allocator@D@2@@std@@QBEIXZ ENDP ; std::basic_string<char,std::char_traits<char>,std::allocator<char> >::max_size
_TEXT	ENDS
PUBLIC	?allocate@?$allocator@D@std@@QAEPADI@Z		; std::allocator<char>::allocate
; Function compile flags: /Ogty
; File c:\program files\microsoft visual studio .net 2003\vc7\include\xmemory
;	COMDAT ?allocate@?$allocator@D@std@@QAEPADI@Z
_TEXT	SEGMENT
__Count$ = 8						; size = 4
?allocate@?$allocator@D@std@@QAEPADI@Z PROC NEAR	; std::allocator<char>::allocate, COMDAT
; _this$ = ecx

; 137  : 		return (_Allocate(_Count, (pointer)0));

  00000	8b 44 24 04	 mov	 eax, DWORD PTR __Count$[esp-4]
  00004	50		 push	 eax
  00005	e8 00 00 00 00	 call	 ??2@YAPAXI@Z		; operator new
  0000a	83 c4 04	 add	 esp, 4

; 138  : 		}

  0000d	c2 04 00	 ret	 4
?allocate@?$allocator@D@std@@QAEPADI@Z ENDP		; std::allocator<char>::allocate
_TEXT	ENDS
PUBLIC	?Send@CServerSockE@@UAEXPADKK@Z			; CServerSockE::Send
EXTRN	__except_list:DWORD
EXTRN	___CxxFrameHandler:NEAR
;	COMDAT xdata$x
; File c:\offi src_real\offi src!\_network\mcl\include\cmclcritsec.h
xdata$x	SEGMENT
$T156054 DD	0ffffffffH
	DD	FLAT:$L156003
	DD	0ffffffffH
	DD	FLAT:$L156004
$T156049 DD	019930520H
	DD	02H
	DD	FLAT:$T156054
	DD	2 DUP(00H)
	DD	2 DUP(00H)
; Function compile flags: /Ogty
; File c:\offi src_real\offi src!\_network\net\src\serversocke.cpp
xdata$x	ENDS
;	COMDAT ?Send@CServerSockE@@UAEXPADKK@Z
_TEXT	SEGMENT
_Lock$153355 = -16					; size = 4
__$EHRec$ = -12						; size = 12
_lpData$ = 8						; size = 4
_dwDataSize$ = 12					; size = 4
_pChild$153356 = 16					; size = 4
_Lock$153348 = 16					; size = 4
_dpidTo$ = 16						; size = 4
?Send@CServerSockE@@UAEXPADKK@Z PROC NEAR		; CServerSockE::Send, COMDAT
; _this$ = ecx

; 150  : {

  00000	6a ff		 push	 -1
  00002	68 00 00 00 00	 push	 __ehhandler$?Send@CServerSockE@@UAEXPADKK@Z
  00007	64 a1 00 00 00
	00		 mov	 eax, DWORD PTR fs:__except_list
  0000d	50		 push	 eax
  0000e	64 89 25 00 00
	00 00		 mov	 DWORD PTR fs:__except_list, esp
  00015	51		 push	 ecx
  00016	53		 push	 ebx
  00017	56		 push	 esi
  00018	57		 push	 edi

; 151  : 	if( dpidTo == DPID_ALLPLAYERS )

  00019	8b 7c 24 28	 mov	 edi, DWORD PTR _dpidTo$[esp+24]
  0001d	85 ff		 test	 edi, edi
  0001f	8b f1		 mov	 esi, ecx

; 152  : 	{
; 153  : 		CMclAutoLock	Lock( m_mapChild.m_AddRemoveLock );

  00021	8d 46 5c	 lea	 eax, DWORD PTR [esi+92]
  00024	75 53		 jne	 SHORT $L153347
  00026	55		 push	 ebp
  00027	8d 68 04	 lea	 ebp, DWORD PTR [eax+4]
  0002a	55		 push	 ebp
  0002b	89 44 24 30	 mov	 DWORD PTR _Lock$153348[esp+32], eax
  0002f	ff 15 00 00 00
	00		 call	 DWORD PTR __imp__EnterCriticalSection@4

; 154  : 
; 155  : #ifdef __STL_0402
; 156  : 		for( CMapChildE::iterator i = m_mapChild.begin(); i != m_mapChild.end(); ++i )
; 157  : 		{
; 158  : 			CClientSockE* pChild	= i->second;
; 159  : 			pChild->Send( lpData, dwDataSize, pChild->GetHandle() );
; 160  : 		}
; 161  : #else	// __STL_0402
; 162  : 		CClientSockE* pChild;
; 163  : 		CMyBucket<CClientSockE*>* pBucket	= m_mapChild.GetFirstActive();

  00035	8b 76 50	 mov	 esi, DWORD PTR [esi+80]

; 164  : 		while( pBucket )

  00038	85 f6		 test	 esi, esi
  0003a	89 7c 24 1c	 mov	 DWORD PTR __$EHRec$[esp+40], edi
  0003e	74 1d		 je	 SHORT $L153353
  00040	8b 7c 24 28	 mov	 edi, DWORD PTR _dwDataSize$[esp+28]
  00044	8b 5c 24 24	 mov	 ebx, DWORD PTR _lpData$[esp+28]
$L153352:

; 165  : 		{
; 166  : 			pChild	= pBucket->m_value;

  00048	8b 4e 08	 mov	 ecx, DWORD PTR [esi+8]

; 167  : 			pChild->Send( lpData, dwDataSize, pChild->GetHandle() );

  0004b	8b 51 04	 mov	 edx, DWORD PTR [ecx+4]
  0004e	8b 01		 mov	 eax, DWORD PTR [ecx]
  00050	52		 push	 edx
  00051	57		 push	 edi
  00052	53		 push	 ebx
  00053	ff 50 28	 call	 DWORD PTR [eax+40]

; 168  : 			pBucket	= pBucket->pNext;

  00056	8b 76 14	 mov	 esi, DWORD PTR [esi+20]
  00059	85 f6		 test	 esi, esi
  0005b	75 eb		 jne	 SHORT $L153352
$L153353:

; 169  : 		}
; 170  : #endif	// __STL_0402
; 171  : 	}

  0005d	55		 push	 ebp
  0005e	ff 15 00 00 00
	00		 call	 DWORD PTR __imp__LeaveCriticalSection@4
  00064	5d		 pop	 ebp
  00065	5f		 pop	 edi
  00066	5e		 pop	 esi
  00067	5b		 pop	 ebx

; 186  : 	
; 187  : }

  00068	8b 4c 24 04	 mov	 ecx, DWORD PTR __$EHRec$[esp+16]
  0006c	64 89 0d 00 00
	00 00		 mov	 DWORD PTR fs:__except_list, ecx
  00073	83 c4 10	 add	 esp, 16			; 00000010H
  00076	c2 0c 00	 ret	 12			; 0000000cH
$L153347:

; 172  : 	else
; 173  : 	{
; 174  : 		CMclAutoLock	Lock( m_mapChild.m_AddRemoveLock );

  00079	8d 58 04	 lea	 ebx, DWORD PTR [eax+4]
  0007c	53		 push	 ebx
  0007d	89 44 24 10	 mov	 DWORD PTR _Lock$153355[esp+32], eax
  00081	ff 15 00 00 00
	00		 call	 DWORD PTR __imp__EnterCriticalSection@4

; 175  : 
; 176  : #ifdef __STL_0402
; 177  : 		CClientSockE* pChild	= (CClientSockE*)Get( dpidTo );
; 178  : 		if( pChild )
; 179  : 			pChild->Send( lpData, dwDataSize, dpidTo );
; 180  : #else	// __STL_0402
; 181  : 		CClientSockE* pChild;
; 182  : 		if( m_mapChild.Lookup( dpidTo, pChild ) )

  00087	8d 44 24 28	 lea	 eax, DWORD PTR _pChild$153356[esp+24]
  0008b	50		 push	 eax
  0008c	57		 push	 edi
  0008d	8d 4e 1c	 lea	 ecx, DWORD PTR [esi+28]
  00090	c7 44 24 20 01
	00 00 00	 mov	 DWORD PTR __$EHRec$[esp+44], 1
  00098	e8 00 00 00 00	 call	 ?Lookup@?$CMyMap@PAVCClientSockE@@@@QAEHKAAPAVCClientSockE@@@Z ; CMyMap<CClientSockE *>::Lookup
  0009d	85 c0		 test	 eax, eax
  0009f	74 14		 je	 SHORT $L153357

; 183  : 			pChild->Send( lpData, dwDataSize, dpidTo );

  000a1	8b 44 24 24	 mov	 eax, DWORD PTR _dwDataSize$[esp+24]
  000a5	8b 4c 24 28	 mov	 ecx, DWORD PTR _pChild$153356[esp+24]
  000a9	8b 11		 mov	 edx, DWORD PTR [ecx]
  000ab	57		 push	 edi
  000ac	50		 push	 eax
  000ad	8b 44 24 28	 mov	 eax, DWORD PTR _lpData$[esp+32]
  000b1	50		 push	 eax
  000b2	ff 52 28	 call	 DWORD PTR [edx+40]
$L153357:

; 184  : #endif	// __STL_0402
; 185  : 	}

  000b5	53		 push	 ebx
  000b6	ff 15 00 00 00
	00		 call	 DWORD PTR __imp__LeaveCriticalSection@4

; 186  : 	
; 187  : }

  000bc	8b 4c 24 10	 mov	 ecx, DWORD PTR __$EHRec$[esp+28]
  000c0	5f		 pop	 edi
  000c1	5e		 pop	 esi
  000c2	5b		 pop	 ebx
  000c3	64 89 0d 00 00
	00 00		 mov	 DWORD PTR fs:__except_list, ecx
  000ca	83 c4 10	 add	 esp, 16			; 00000010H
  000cd	c2 0c 00	 ret	 12			; 0000000cH
_TEXT	ENDS
;	COMDAT text$x
text$x	SEGMENT
$L156003:
  00000	8d 4d 0c	 lea	 ecx, DWORD PTR _Lock$153348[ebp-4]
  00003	e9 00 00 00 00	 jmp	 ??1CMclAutoLock@@QAE@XZ	; CMclAutoLock::~CMclAutoLock
$L156004:
  00008	8d 4d f0	 lea	 ecx, DWORD PTR _Lock$153355[ebp]
  0000b	e9 00 00 00 00	 jmp	 ??1CMclAutoLock@@QAE@XZ	; CMclAutoLock::~CMclAutoLock
__ehhandler$?Send@CServerSockE@@UAEXPADKK@Z:
  00010	b8 00 00 00 00	 mov	 eax, OFFSET FLAT:$T156049
  00015	e9 00 00 00 00	 jmp	 ___CxxFrameHandler
text$x	ENDS
?Send@CServerSockE@@UAEXPADKK@Z ENDP			; CServerSockE::Send
PUBLIC	?GetPeerAddr@CServerSockE@@UAEJKPAXPAK@Z	; CServerSockE::GetPeerAddr
PUBLIC	??_C@_0M@PCENNPGA@?$CFd?4?$CFd?4?$CFd?4?$CFd?$AA@ ; `string'
EXTRN	___security_cookie:DWORD
EXTRN	@__security_check_cookie@4:NEAR
EXTRN	__imp__getpeername@12:NEAR
EXTRN	_sprintf:NEAR
;	COMDAT ??_C@_0M@PCENNPGA@?$CFd?4?$CFd?4?$CFd?4?$CFd?$AA@
CONST	SEGMENT
??_C@_0M@PCENNPGA@?$CFd?4?$CFd?4?$CFd?4?$CFd?$AA@ DB '%d.%d.%d.%d', 00H ; `string'
; Function compile flags: /Ogty
CONST	ENDS
;	COMDAT ?GetPeerAddr@CServerSockE@@UAEJKPAXPAK@Z
_TEXT	SEGMENT
_pSock$ = -24						; size = 4
_sin$ = -20						; size = 16
__$ArrayPad$ = -4					; size = 4
__$ReturnAddr$ = 4					; size = 4
_namelen$ = 8						; size = 4
_dpid$ = 8						; size = 4
_lpAddr$ = 12						; size = 4
_lpdwSize$ = 16						; size = 4
?GetPeerAddr@CServerSockE@@UAEJKPAXPAK@Z PROC NEAR	; CServerSockE::GetPeerAddr, COMDAT
; _this$ = ecx

; 200  : {

  00000	83 ec 18	 sub	 esp, 24			; 00000018H
  00003	a1 00 00 00 00	 mov	 eax, DWORD PTR ___security_cookie
  00008	89 44 24 14	 mov	 DWORD PTR __$ArrayPad$[esp+24], eax

; 201  : 	ASSERT( lpAddr );
; 202  : 
; 203  : 	CClientSockE* pSock;
; 204  : 	SOCKET hSocket	= (SOCKET)dpid;
; 205  : 	SOCKADDR_IN sin;
; 206  : 
; 207  : 	ZeroMemory( &sin, sizeof(SOCKADDR_IN) );

  0000c	33 c0		 xor	 eax, eax
  0000e	56		 push	 esi

; 208  : 
; 209  : #ifdef __STL_0402
; 210  : 	pSock	= (CClientSockE*)Get( hSocket );
; 211  : #else	// __STL_0402
; 212  : 	m_mapChild.Lookup( hSocket, pSock );

  0000f	8b 74 24 20	 mov	 esi, DWORD PTR _dpid$[esp+24]
  00013	89 44 24 08	 mov	 DWORD PTR _sin$[esp+28], eax
  00017	8d 54 24 04	 lea	 edx, DWORD PTR _pSock$[esp+28]
  0001b	89 44 24 0c	 mov	 DWORD PTR _sin$[esp+32], eax
  0001f	52		 push	 edx
  00020	89 44 24 14	 mov	 DWORD PTR _sin$[esp+40], eax
  00024	56		 push	 esi
  00025	83 c1 1c	 add	 ecx, 28			; 0000001cH
  00028	89 44 24 1c	 mov	 DWORD PTR _sin$[esp+48], eax
  0002c	e8 00 00 00 00	 call	 ?Lookup@?$CMyMap@PAVCClientSockE@@@@QAEHKAAPAVCClientSockE@@@Z ; CMyMap<CClientSockE *>::Lookup

; 213  : #endif	// __STL_0402
; 214  : 	if( !pSock )

  00031	8b 44 24 04	 mov	 eax, DWORD PTR _pSock$[esp+28]
  00035	85 c0		 test	 eax, eax
  00037	75 15		 jne	 SHORT $L153378

; 215  : 		return DPERR_INVALIDPARAM;

  00039	b8 57 00 07 80	 mov	 eax, -2147024809	; 80070057H
  0003e	5e		 pop	 esi

; 225  : 	return DP_OK;
; 226  : }

  0003f	8b 4c 24 14	 mov	 ecx, DWORD PTR __$ArrayPad$[esp+24]
  00043	e8 00 00 00 00	 call	 @__security_check_cookie@4
  00048	83 c4 18	 add	 esp, 24			; 00000018H
  0004b	c2 0c 00	 ret	 12			; 0000000cH
$L153378:

; 216  : 
; 217  : 	int namelen	= sizeof(sin);
; 218  : 	if( getpeername( hSocket, (SOCKADDR *)&sin, &namelen ) == SOCKET_ERROR )

  0004e	8d 44 24 20	 lea	 eax, DWORD PTR _namelen$[esp+24]
  00052	50		 push	 eax
  00053	8d 4c 24 0c	 lea	 ecx, DWORD PTR _sin$[esp+32]
  00057	51		 push	 ecx
  00058	56		 push	 esi
  00059	c7 44 24 2c 10
	00 00 00	 mov	 DWORD PTR _namelen$[esp+36], 16 ; 00000010H
  00061	ff 15 00 00 00
	00		 call	 DWORD PTR __imp__getpeername@12
  00067	83 f8 ff	 cmp	 eax, -1
  0006a	75 15		 jne	 SHORT $L153382

; 219  : 		return DPERR_GENERIC;

  0006c	b8 05 40 00 80	 mov	 eax, -2147467259	; 80004005H
  00071	5e		 pop	 esi

; 225  : 	return DP_OK;
; 226  : }

  00072	8b 4c 24 14	 mov	 ecx, DWORD PTR __$ArrayPad$[esp+24]
  00076	e8 00 00 00 00	 call	 @__security_check_cookie@4
  0007b	83 c4 18	 add	 esp, 24			; 00000018H
  0007e	c2 0c 00	 ret	 12			; 0000000cH
$L153382:

; 220  : 
; 221  : 	sprintf( (char *)lpAddr, "%d.%d.%d.%d", sin.sin_addr.s_net
; 222  : 																	, sin.sin_addr.s_host
; 223  : 																	, sin.sin_addr.s_lh
; 224  : 																	, sin.sin_addr.s_impno );

  00081	0f b6 54 24 0f	 movzx	 edx, BYTE PTR _sin$[esp+35]
  00086	0f b6 44 24 0e	 movzx	 eax, BYTE PTR _sin$[esp+34]
  0008b	52		 push	 edx
  0008c	50		 push	 eax
  0008d	8b 44 24 14	 mov	 eax, DWORD PTR _sin$[esp+40]
  00091	0f b6 cc	 movzx	 ecx, ah
  00094	0f b6 d0	 movzx	 edx, al
  00097	8b 44 24 2c	 mov	 eax, DWORD PTR _lpAddr$[esp+32]
  0009b	51		 push	 ecx
  0009c	52		 push	 edx
  0009d	68 00 00 00 00	 push	 OFFSET FLAT:??_C@_0M@PCENNPGA@?$CFd?4?$CFd?4?$CFd?4?$CFd?$AA@
  000a2	50		 push	 eax
  000a3	e8 00 00 00 00	 call	 _sprintf

; 225  : 	return DP_OK;
; 226  : }

  000a8	8b 4c 24 30	 mov	 ecx, DWORD PTR __$ArrayPad$[esp+52]
  000ac	83 c4 18	 add	 esp, 24			; 00000018H
  000af	33 c0		 xor	 eax, eax
  000b1	5e		 pop	 esi
  000b2	e8 00 00 00 00	 call	 @__security_check_cookie@4
  000b7	83 c4 18	 add	 esp, 24			; 00000018H
  000ba	c2 0c 00	 ret	 12			; 0000000cH
?GetPeerAddr@CServerSockE@@UAEJKPAXPAK@Z ENDP		; CServerSockE::GetPeerAddr
_TEXT	ENDS
PUBLIC	?end@?$list@PAXV?$allocator@PAX@std@@@std@@QAE?AViterator@12@XZ ; std::list<void *,std::allocator<void *> >::end
; Function compile flags: /Ogty
; File c:\program files\microsoft visual studio .net 2003\vc7\include\list
;	COMDAT ?end@?$list@PAXV?$allocator@PAX@std@@@std@@QAE?AViterator@12@XZ
_TEXT	SEGMENT
___$ReturnUdt$ = 8					; size = 4
?end@?$list@PAXV?$allocator@PAX@std@@@std@@QAE?AViterator@12@XZ PROC NEAR ; std::list<void *,std::allocator<void *> >::end, COMDAT
; _this$ = ecx

; 387  : 		return (iterator(_Myhead));

  00000	8b 49 04	 mov	 ecx, DWORD PTR [ecx+4]
  00003	8b 44 24 04	 mov	 eax, DWORD PTR ___$ReturnUdt$[esp-4]
  00007	89 08		 mov	 DWORD PTR [eax], ecx

; 388  : 		}

  00009	c2 04 00	 ret	 4
?end@?$list@PAXV?$allocator@PAX@std@@@std@@QAE?AViterator@12@XZ ENDP ; std::list<void *,std::allocator<void *> >::end
_TEXT	ENDS
PUBLIC	?_Buynode@?$list@PAXV?$allocator@PAX@std@@@std@@IAEPAU_Node@?$_List_nod@PAXV?$allocator@PAX@std@@@2@PAU342@0ABQAX@Z ; std::list<void *,std::allocator<void *> >::_Buynode
; Function compile flags: /Ogty
;	COMDAT ?_Buynode@?$list@PAXV?$allocator@PAX@std@@@std@@IAEPAU_Node@?$_List_nod@PAXV?$allocator@PAX@std@@@2@PAU342@0ABQAX@Z
_TEXT	SEGMENT
__Next$ = 8						; size = 4
__Prev$ = 12						; size = 4
__Val$ = 16						; size = 4
?_Buynode@?$list@PAXV?$allocator@PAX@std@@@std@@IAEPAU_Node@?$_List_nod@PAXV?$allocator@PAX@std@@@2@PAU342@0ABQAX@Z PROC NEAR ; std::list<void *,std::allocator<void *> >::_Buynode, COMDAT
; _this$ = ecx

; 918  : 		_Nodeptr _Pnode = this->_Alnod.allocate(1);

  00000	6a 0c		 push	 12			; 0000000cH
  00002	e8 00 00 00 00	 call	 ??2@YAPAXI@Z		; operator new
  00007	83 c4 04	 add	 esp, 4

; 919  : 		_TRY_BEGIN
; 920  : 		new ((void *)_Pnode) _Node(_Next, _Prev, _Val);

  0000a	85 c0		 test	 eax, eax
  0000c	74 16		 je	 SHORT $L156082
  0000e	8b 4c 24 04	 mov	 ecx, DWORD PTR __Next$[esp-4]
  00012	8b 54 24 08	 mov	 edx, DWORD PTR __Prev$[esp-4]
  00016	89 08		 mov	 DWORD PTR [eax], ecx
  00018	8b 4c 24 0c	 mov	 ecx, DWORD PTR __Val$[esp-4]
  0001c	89 50 04	 mov	 DWORD PTR [eax+4], edx
  0001f	8b 11		 mov	 edx, DWORD PTR [ecx]
  00021	89 50 08	 mov	 DWORD PTR [eax+8], edx
$L156082:

; 921  : 		_CATCH_ALL
; 922  : 		this->_Alnod.deallocate(_Pnode, 1);
; 923  : 		_RERAISE;
; 924  : 		_CATCH_END
; 925  : 		return (_Pnode);
; 926  : 		}

  00024	c2 0c 00	 ret	 12			; 0000000cH
?_Buynode@?$list@PAXV?$allocator@PAX@std@@@std@@IAEPAU_Node@?$_List_nod@PAXV?$allocator@PAX@std@@@2@PAU342@0ABQAX@Z ENDP ; std::list<void *,std::allocator<void *> >::_Buynode
_TEXT	ENDS
PUBLIC	?pop_back@?$deque@PAV?$CMyBucket@PAVCClientSockE@@@@V?$allocator@PAV?$CMyBucket@PAVCClientSockE@@@@@std@@@std@@QAEXXZ ; std::deque<CMyBucket<CClientSockE *> *,std::allocator<CMyBucket<CClientSockE *> *> >::pop_back
; Function compile flags: /Ogty
; File c:\program files\microsoft visual studio .net 2003\vc7\include\deque
;	COMDAT ?pop_back@?$deque@PAV?$CMyBucket@PAVCClientSockE@@@@V?$allocator@PAV?$CMyBucket@PAVCClientSockE@@@@@std@@@std@@QAEXXZ
_TEXT	SEGMENT
?pop_back@?$deque@PAV?$CMyBucket@PAVCClientSockE@@@@V?$allocator@PAV?$CMyBucket@PAVCClientSockE@@@@@std@@@std@@QAEXXZ PROC NEAR ; std::deque<CMyBucket<CClientSockE *> *,std::allocator<CMyBucket<CClientSockE *> *> >::pop_back, COMDAT
; _this$ = ecx

; 599  : 		if (!empty())

  00000	8b 41 10	 mov	 eax, DWORD PTR [ecx+16]
  00003	85 c0		 test	 eax, eax
  00005	74 0d		 je	 SHORT $L154044

; 600  : 			{	// something to erase, do it
; 601  : 			size_type _Newoff = _Mysize + _Myoff - 1;
; 602  : 			size_type _Block = _Newoff / _DEQUESIZ;
; 603  : 			if (_Mapsize <= _Block)
; 604  : 				_Block -= _Mapsize;
; 605  : 			this->_Alval.destroy(_Map[_Block] + _Newoff % _DEQUESIZ);
; 606  : 			if (--_Mysize == 0)

  00007	48		 dec	 eax
  00008	89 41 10	 mov	 DWORD PTR [ecx+16], eax
  0000b	75 07		 jne	 SHORT $L154044

; 607  : 				_Myoff = 0;

  0000d	c7 41 0c 00 00
	00 00		 mov	 DWORD PTR [ecx+12], 0
$L154044:

; 608  : 			}
; 609  : 		}

  00014	c3		 ret	 0
?pop_back@?$deque@PAV?$CMyBucket@PAVCClientSockE@@@@V?$allocator@PAV?$CMyBucket@PAVCClientSockE@@@@@std@@@std@@QAEXXZ ENDP ; std::deque<CMyBucket<CClientSockE *> *,std::allocator<CMyBucket<CClientSockE *> *> >::pop_back
_TEXT	ENDS
PUBLIC	?clear@?$list@PAV?$CMyBucket@PAVCClientSockE@@@@V?$allocator@PAV?$CMyBucket@PAVCClientSockE@@@@@std@@@std@@QAEXXZ ; std::list<CMyBucket<CClientSockE *> *,std::allocator<CMyBucket<CClientSockE *> *> >::clear
; Function compile flags: /Ogty
; File c:\program files\microsoft visual studio .net 2003\vc7\include\list
;	COMDAT ?clear@?$list@PAV?$CMyBucket@PAVCClientSockE@@@@V?$allocator@PAV?$CMyBucket@PAVCClientSockE@@@@@std@@@std@@QAEXXZ
_TEXT	SEGMENT
?clear@?$list@PAV?$CMyBucket@PAVCClientSockE@@@@V?$allocator@PAV?$CMyBucket@PAVCClientSockE@@@@@std@@@std@@QAEXXZ PROC NEAR ; std::list<CMyBucket<CClientSockE *> *,std::allocator<CMyBucket<CClientSockE *> *> >::clear, COMDAT
; _this$ = ecx

; 610  : 		{	// erase all

  00000	56		 push	 esi
  00001	8b f1		 mov	 esi, ecx

; 611  : 		_Nodeptr _Pnext;
; 612  : 		_Nodeptr _Pnode = _Nextnode(_Myhead);

  00003	8b 4e 04	 mov	 ecx, DWORD PTR [esi+4]
  00006	8b 01		 mov	 eax, DWORD PTR [ecx]

; 613  : 		_Nextnode(_Myhead) = _Myhead;

  00008	89 09		 mov	 DWORD PTR [ecx], ecx

; 614  : 		_Prevnode(_Myhead) = _Myhead;

  0000a	8b 4e 04	 mov	 ecx, DWORD PTR [esi+4]
  0000d	89 49 04	 mov	 DWORD PTR [ecx+4], ecx

; 615  : 		_Mysize = 0;
; 616  : 
; 617  : 		for (; _Pnode != _Myhead; _Pnode = _Pnext)

  00010	3b 46 04	 cmp	 eax, DWORD PTR [esi+4]
  00013	c7 46 08 00 00
	00 00		 mov	 DWORD PTR [esi+8], 0
  0001a	74 19		 je	 SHORT $L154077
  0001c	57		 push	 edi
  0001d	8d 49 00	 npad	 3
$L154075:

; 618  : 			{	// delete an element
; 619  : 			_Pnext = _Nextnode(_Pnode);

  00020	8b 38		 mov	 edi, DWORD PTR [eax]

; 620  : 			this->_Alnod.destroy(_Pnode);
; 621  : 			this->_Alnod.deallocate(_Pnode, 1);

  00022	50		 push	 eax
  00023	e8 00 00 00 00	 call	 ??3@YAXPAX@Z		; operator delete
  00028	8b 4e 04	 mov	 ecx, DWORD PTR [esi+4]
  0002b	83 c4 04	 add	 esp, 4
  0002e	3b f9		 cmp	 edi, ecx
  00030	8b c7		 mov	 eax, edi
  00032	75 ec		 jne	 SHORT $L154075
  00034	5f		 pop	 edi
$L154077:
  00035	5e		 pop	 esi

; 622  : 			}
; 623  : 		}

  00036	c3		 ret	 0
?clear@?$list@PAV?$CMyBucket@PAVCClientSockE@@@@V?$allocator@PAV?$CMyBucket@PAVCClientSockE@@@@@std@@@std@@QAEXXZ ENDP ; std::list<CMyBucket<CClientSockE *> *,std::allocator<CMyBucket<CClientSockE *> *> >::clear
_TEXT	ENDS
PUBLIC	?pop@?$stack@PAV?$CMyBucket@PAVCClientSockE@@@@V?$deque@PAV?$CMyBucket@PAVCClientSockE@@@@V?$allocator@PAV?$CMyBucket@PAVCClientSockE@@@@@std@@@std@@@std@@QAEXXZ ; std::stack<CMyBucket<CClientSockE *> *,std::deque<CMyBucket<CClientSockE *> *,std::allocator<CMyBucket<CClientSockE *> *> > >::pop
; Function compile flags: /Ogty
; File c:\program files\microsoft visual studio .net 2003\vc7\include\stack
;	COMDAT ?pop@?$stack@PAV?$CMyBucket@PAVCClientSockE@@@@V?$deque@PAV?$CMyBucket@PAVCClientSockE@@@@V?$allocator@PAV?$CMyBucket@PAVCClientSockE@@@@@std@@@std@@@std@@QAEXXZ
_TEXT	SEGMENT
?pop@?$stack@PAV?$CMyBucket@PAVCClientSockE@@@@V?$deque@PAV?$CMyBucket@PAVCClientSockE@@@@V?$allocator@PAV?$CMyBucket@PAVCClientSockE@@@@@std@@@std@@@std@@QAEXXZ PROC NEAR ; std::stack<CMyBucket<CClientSockE *> *,std::deque<CMyBucket<CClientSockE *> *,std::allocator<CMyBucket<CClientSockE *> *> > >::pop, COMDAT
; _this$ = ecx

; 58   : 		c.pop_back();

  00000	8b 41 10	 mov	 eax, DWORD PTR [ecx+16]
  00003	85 c0		 test	 eax, eax
  00005	74 0d		 je	 SHORT $L156147
  00007	48		 dec	 eax
  00008	89 41 10	 mov	 DWORD PTR [ecx+16], eax
  0000b	75 07		 jne	 SHORT $L156147
  0000d	c7 41 0c 00 00
	00 00		 mov	 DWORD PTR [ecx+12], 0
$L156147:

; 59   : 		}

  00014	c3		 ret	 0
?pop@?$stack@PAV?$CMyBucket@PAVCClientSockE@@@@V?$deque@PAV?$CMyBucket@PAVCClientSockE@@@@V?$allocator@PAV?$CMyBucket@PAVCClientSockE@@@@@std@@@std@@@std@@QAEXXZ ENDP ; std::stack<CMyBucket<CClientSockE *> *,std::deque<CMyBucket<CClientSockE *> *,std::allocator<CMyBucket<CClientSockE *> *> > >::pop
_TEXT	ENDS
PUBLIC	?begin@?$list@PAV?$CMyBucket@PAVCClientSockE@@@@V?$allocator@PAV?$CMyBucket@PAVCClientSockE@@@@@std@@@std@@QAE?AViterator@12@XZ ; std::list<CMyBucket<CClientSockE *> *,std::allocator<CMyBucket<CClientSockE *> *> >::begin
; Function compile flags: /Ogty
; File c:\program files\microsoft visual studio .net 2003\vc7\include\list
;	COMDAT ?begin@?$list@PAV?$CMyBucket@PAVCClientSockE@@@@V?$allocator@PAV?$CMyBucket@PAVCClientSockE@@@@@std@@@std@@QAE?AViterator@12@XZ
_TEXT	SEGMENT
___$ReturnUdt$ = 8					; size = 4
?begin@?$list@PAV?$CMyBucket@PAVCClientSockE@@@@V?$allocator@PAV?$CMyBucket@PAVCClientSockE@@@@@std@@@std@@QAE?AViterator@12@XZ PROC NEAR ; std::list<CMyBucket<CClientSockE *> *,std::allocator<CMyBucket<CClientSockE *> *> >::begin, COMDAT
; _this$ = ecx

; 377  : 		return (iterator(_Nextnode(_Myhead)));

  00000	8b 41 04	 mov	 eax, DWORD PTR [ecx+4]
  00003	8b 08		 mov	 ecx, DWORD PTR [eax]
  00005	8b 44 24 04	 mov	 eax, DWORD PTR ___$ReturnUdt$[esp-4]
  00009	89 08		 mov	 DWORD PTR [eax], ecx

; 378  : 		}

  0000b	c2 04 00	 ret	 4
?begin@?$list@PAV?$CMyBucket@PAVCClientSockE@@@@V?$allocator@PAV?$CMyBucket@PAVCClientSockE@@@@@std@@@std@@QAE?AViterator@12@XZ ENDP ; std::list<CMyBucket<CClientSockE *> *,std::allocator<CMyBucket<CClientSockE *> *> >::begin
_TEXT	ENDS
PUBLIC	?end@?$list@PAV?$CMyBucket@PAVCClientSockE@@@@V?$allocator@PAV?$CMyBucket@PAVCClientSockE@@@@@std@@@std@@QAE?AViterator@12@XZ ; std::list<CMyBucket<CClientSockE *> *,std::allocator<CMyBucket<CClientSockE *> *> >::end
; Function compile flags: /Ogty
;	COMDAT ?end@?$list@PAV?$CMyBucket@PAVCClientSockE@@@@V?$allocator@PAV?$CMyBucket@PAVCClientSockE@@@@@std@@@std@@QAE?AViterator@12@XZ
_TEXT	SEGMENT
___$ReturnUdt$ = 8					; size = 4
?end@?$list@PAV?$CMyBucket@PAVCClientSockE@@@@V?$allocator@PAV?$CMyBucket@PAVCClientSockE@@@@@std@@@std@@QAE?AViterator@12@XZ PROC NEAR ; std::list<CMyBucket<CClientSockE *> *,std::allocator<CMyBucket<CClientSockE *> *> >::end, COMDAT
; _this$ = ecx

; 387  : 		return (iterator(_Myhead));

  00000	8b 49 04	 mov	 ecx, DWORD PTR [ecx+4]
  00003	8b 44 24 04	 mov	 eax, DWORD PTR ___$ReturnUdt$[esp-4]
  00007	89 08		 mov	 DWORD PTR [eax], ecx

; 388  : 		}

  00009	c2 04 00	 ret	 4
?end@?$list@PAV?$CMyBucket@PAVCClientSockE@@@@V?$allocator@PAV?$CMyBucket@PAVCClientSockE@@@@@std@@@std@@QAE?AViterator@12@XZ ENDP ; std::list<CMyBucket<CClientSockE *> *,std::allocator<CMyBucket<CClientSockE *> *> >::end
_TEXT	ENDS
PUBLIC	??Diterator@?$list@PAV?$CMyBucket@PAVCClientSockE@@@@V?$allocator@PAV?$CMyBucket@PAVCClientSockE@@@@@std@@@std@@QBEAAPAV?$CMyBucket@PAVCClientSockE@@@@XZ ; std::list<CMyBucket<CClientSockE *> *,std::allocator<CMyBucket<CClientSockE *> *> >::iterator::operator*
; Function compile flags: /Ogty
;	COMDAT ??Diterator@?$list@PAV?$CMyBucket@PAVCClientSockE@@@@V?$allocator@PAV?$CMyBucket@PAVCClientSockE@@@@@std@@@std@@QBEAAPAV?$CMyBucket@PAVCClientSockE@@@@XZ
_TEXT	SEGMENT
??Diterator@?$list@PAV?$CMyBucket@PAVCClientSockE@@@@V?$allocator@PAV?$CMyBucket@PAVCClientSockE@@@@@std@@@std@@QBEAAPAV?$CMyBucket@PAVCClientSockE@@@@XZ PROC NEAR ; std::list<CMyBucket<CClientSockE *> *,std::allocator<CMyBucket<CClientSockE *> *> >::iterator::operator*, COMDAT
; _this$ = ecx

; 240  : 			return ((reference)**(const_iterator *)this);

  00000	8b 01		 mov	 eax, DWORD PTR [ecx]
  00002	83 c0 08	 add	 eax, 8

; 241  : 			}

  00005	c3		 ret	 0
??Diterator@?$list@PAV?$CMyBucket@PAVCClientSockE@@@@V?$allocator@PAV?$CMyBucket@PAVCClientSockE@@@@@std@@@std@@QBEAAPAV?$CMyBucket@PAVCClientSockE@@@@XZ ENDP ; std::list<CMyBucket<CClientSockE *> *,std::allocator<CMyBucket<CClientSockE *> *> >::iterator::operator*
_TEXT	ENDS
PUBLIC	?_Buynode@?$list@PAV?$CMyBucket@PAVCClientSockE@@@@V?$allocator@PAV?$CMyBucket@PAVCClientSockE@@@@@std@@@std@@IAEPAU_Node@?$_List_nod@PAV?$CMyBucket@PAVCClientSockE@@@@V?$allocator@PAV?$CMyBucket@PAVCClientSockE@@@@@std@@@2@XZ ; std::list<CMyBucket<CClientSockE *> *,std::allocator<CMyBucket<CClientSockE *> *> >::_Buynode
; Function compile flags: /Ogty
;	COMDAT ?_Buynode@?$list@PAV?$CMyBucket@PAVCClientSockE@@@@V?$allocator@PAV?$CMyBucket@PAVCClientSockE@@@@@std@@@std@@IAEPAU_Node@?$_List_nod@PAV?$CMyBucket@PAVCClientSockE@@@@V?$allocator@PAV?$CMyBucket@PAVCClientSockE@@@@@std@@@2@XZ
_TEXT	SEGMENT
?_Buynode@?$list@PAV?$CMyBucket@PAVCClientSockE@@@@V?$allocator@PAV?$CMyBucket@PAVCClientSockE@@@@@std@@@std@@IAEPAU_Node@?$_List_nod@PAV?$CMyBucket@PAVCClientSockE@@@@V?$allocator@PAV?$CMyBucket@PAVCClientSockE@@@@@std@@@2@XZ PROC NEAR ; std::list<CMyBucket<CClientSockE *> *,std::allocator<CMyBucket<CClientSockE *> *> >::_Buynode, COMDAT
; _this$ = ecx

; 899  : 		_Nodeptr _Pnode = this->_Alnod.allocate(1);

  00000	6a 0c		 push	 12			; 0000000cH
  00002	e8 00 00 00 00	 call	 ??2@YAPAXI@Z		; operator new
  00007	83 c4 04	 add	 esp, 4

; 900  : 		int _Linkcnt = 0;
; 901  : 
; 902  : 		_TRY_BEGIN
; 903  : 		this->_Alptr.construct(&_Nextnode(_Pnode), _Pnode);

  0000a	85 c0		 test	 eax, eax
  0000c	74 02		 je	 SHORT $L156226
  0000e	89 00		 mov	 DWORD PTR [eax], eax
$L156226:

; 904  : 		++_Linkcnt;
; 905  : 		this->_Alptr.construct(&_Prevnode(_Pnode), _Pnode);

  00010	8d 48 04	 lea	 ecx, DWORD PTR [eax+4]
  00013	85 c9		 test	 ecx, ecx
  00015	74 02		 je	 SHORT $L156254
  00017	89 01		 mov	 DWORD PTR [ecx], eax
$L156254:

; 906  : 		_CATCH_ALL
; 907  : 		if (0 < _Linkcnt)
; 908  : 			this->_Alptr.destroy(&_Nextnode(_Pnode));
; 909  : 		this->_Alnod.deallocate(_Pnode, 1);
; 910  : 		_RERAISE;
; 911  : 		_CATCH_END
; 912  : 		return (_Pnode);
; 913  : 		}

  00019	c3		 ret	 0
?_Buynode@?$list@PAV?$CMyBucket@PAVCClientSockE@@@@V?$allocator@PAV?$CMyBucket@PAVCClientSockE@@@@@std@@@std@@IAEPAU_Node@?$_List_nod@PAV?$CMyBucket@PAVCClientSockE@@@@V?$allocator@PAV?$CMyBucket@PAVCClientSockE@@@@@std@@@2@XZ ENDP ; std::list<CMyBucket<CClientSockE *> *,std::allocator<CMyBucket<CClientSockE *> *> >::_Buynode
_TEXT	ENDS
PUBLIC	?end@?$deque@PAV?$CMyBucket@PAVCClientSockE@@@@V?$allocator@PAV?$CMyBucket@PAVCClientSockE@@@@@std@@@std@@QAE?AViterator@12@XZ ; std::deque<CMyBucket<CClientSockE *> *,std::allocator<CMyBucket<CClientSockE *> *> >::end
; Function compile flags: /Ogty
; File c:\program files\microsoft visual studio .net 2003\vc7\include\deque
;	COMDAT ?end@?$deque@PAV?$CMyBucket@PAVCClientSockE@@@@V?$allocator@PAV?$CMyBucket@PAVCClientSockE@@@@@std@@@std@@QAE?AViterator@12@XZ
_TEXT	SEGMENT
___$ReturnUdt$ = 8					; size = 4
?end@?$deque@PAV?$CMyBucket@PAVCClientSockE@@@@V?$allocator@PAV?$CMyBucket@PAVCClientSockE@@@@@std@@@std@@QAE?AViterator@12@XZ PROC NEAR ; std::deque<CMyBucket<CClientSockE *> *,std::allocator<CMyBucket<CClientSockE *> *> >::end, COMDAT
; _this$ = ecx

; 449  : 		return (iterator(_Myoff + _Mysize, this));

  00000	8b 41 0c	 mov	 eax, DWORD PTR [ecx+12]
  00003	8b 51 10	 mov	 edx, DWORD PTR [ecx+16]
  00006	03 d0		 add	 edx, eax
  00008	8b 44 24 04	 mov	 eax, DWORD PTR ___$ReturnUdt$[esp-4]
  0000c	89 08		 mov	 DWORD PTR [eax], ecx
  0000e	89 50 04	 mov	 DWORD PTR [eax+4], edx

; 450  : 		}

  00011	c2 04 00	 ret	 4
?end@?$deque@PAV?$CMyBucket@PAVCClientSockE@@@@V?$allocator@PAV?$CMyBucket@PAVCClientSockE@@@@@std@@@std@@QAE?AViterator@12@XZ ENDP ; std::deque<CMyBucket<CClientSockE *> *,std::allocator<CMyBucket<CClientSockE *> *> >::end
_TEXT	ENDS
PUBLIC	??0?$_Deque_val@PAV?$CMyBucket@PAVCClientSockE@@@@V?$allocator@PAV?$CMyBucket@PAVCClientSockE@@@@@std@@@std@@IAE@V?$allocator@PAV?$CMyBucket@PAVCClientSockE@@@@@1@@Z ; std::_Deque_val<CMyBucket<CClientSockE *> *,std::allocator<CMyBucket<CClientSockE *> *> >::_Deque_val<CMyBucket<CClientSockE *> *,std::allocator<CMyBucket<CClientSockE *> *> >
; Function compile flags: /Ogty
;	COMDAT ??0?$_Deque_val@PAV?$CMyBucket@PAVCClientSockE@@@@V?$allocator@PAV?$CMyBucket@PAVCClientSockE@@@@@std@@@std@@IAE@V?$allocator@PAV?$CMyBucket@PAVCClientSockE@@@@@1@@Z
_TEXT	SEGMENT
__Al$ = 8						; size = 1
??0?$_Deque_val@PAV?$CMyBucket@PAVCClientSockE@@@@V?$allocator@PAV?$CMyBucket@PAVCClientSockE@@@@@std@@@std@@IAE@V?$allocator@PAV?$CMyBucket@PAVCClientSockE@@@@@1@@Z PROC NEAR ; std::_Deque_val<CMyBucket<CClientSockE *> *,std::allocator<CMyBucket<CClientSockE *> *> >::_Deque_val<CMyBucket<CClientSockE *> *,std::allocator<CMyBucket<CClientSockE *> *> >, COMDAT
; _this$ = ecx

; 40   : 		{	// construct allocator and base from _Al

  00000	8b c1		 mov	 eax, ecx

; 41   : 		}

  00002	c2 04 00	 ret	 4
??0?$_Deque_val@PAV?$CMyBucket@PAVCClientSockE@@@@V?$allocator@PAV?$CMyBucket@PAVCClientSockE@@@@@std@@@std@@IAE@V?$allocator@PAV?$CMyBucket@PAVCClientSockE@@@@@1@@Z ENDP ; std::_Deque_val<CMyBucket<CClientSockE *> *,std::allocator<CMyBucket<CClientSockE *> *> >::_Deque_val<CMyBucket<CClientSockE *> *,std::allocator<CMyBucket<CClientSockE *> *> >
_TEXT	ENDS
PUBLIC	??0?$_List_ptr@PAV?$CMyBucket@PAVCClientSockE@@@@V?$allocator@PAV?$CMyBucket@PAVCClientSockE@@@@@std@@@std@@IAE@V?$allocator@PAV?$CMyBucket@PAVCClientSockE@@@@@1@@Z ; std::_List_ptr<CMyBucket<CClientSockE *> *,std::allocator<CMyBucket<CClientSockE *> *> >::_List_ptr<CMyBucket<CClientSockE *> *,std::allocator<CMyBucket<CClientSockE *> *> >
; Function compile flags: /Ogty
; File c:\program files\microsoft visual studio .net 2003\vc7\include\list
;	COMDAT ??0?$_List_ptr@PAV?$CMyBucket@PAVCClientSockE@@@@V?$allocator@PAV?$CMyBucket@PAVCClientSockE@@@@@std@@@std@@IAE@V?$allocator@PAV?$CMyBucket@PAVCClientSockE@@@@@1@@Z
_TEXT	SEGMENT
__Al$ = 8						; size = 1
??0?$_List_ptr@PAV?$CMyBucket@PAVCClientSockE@@@@V?$allocator@PAV?$CMyBucket@PAVCClientSockE@@@@@std@@@std@@IAE@V?$allocator@PAV?$CMyBucket@PAVCClientSockE@@@@@1@@Z PROC NEAR ; std::_List_ptr<CMyBucket<CClientSockE *> *,std::allocator<CMyBucket<CClientSockE *> *> >::_List_ptr<CMyBucket<CClientSockE *> *,std::allocator<CMyBucket<CClientSockE *> *> >, COMDAT
; _this$ = ecx

; 64   : 		{	// construct base, and allocator from _Al

  00000	8b c1		 mov	 eax, ecx

; 65   : 		}

  00002	c2 04 00	 ret	 4
??0?$_List_ptr@PAV?$CMyBucket@PAVCClientSockE@@@@V?$allocator@PAV?$CMyBucket@PAVCClientSockE@@@@@std@@@std@@IAE@V?$allocator@PAV?$CMyBucket@PAVCClientSockE@@@@@1@@Z ENDP ; std::_List_ptr<CMyBucket<CClientSockE *> *,std::allocator<CMyBucket<CClientSockE *> *> >::_List_ptr<CMyBucket<CClientSockE *> *,std::allocator<CMyBucket<CClientSockE *> *> >
_TEXT	ENDS
PUBLIC	??Giterator@?$deque@PAV?$CMyBucket@PAVCClientSockE@@@@V?$allocator@PAV?$CMyBucket@PAVCClientSockE@@@@@std@@@std@@QBE?AV012@H@Z ; std::deque<CMyBucket<CClientSockE *> *,std::allocator<CMyBucket<CClientSockE *> *> >::iterator::operator-
; Function compile flags: /Ogty
; File c:\program files\microsoft visual studio .net 2003\vc7\include\deque
;	COMDAT ??Giterator@?$deque@PAV?$CMyBucket@PAVCClientSockE@@@@V?$allocator@PAV?$CMyBucket@PAVCClientSockE@@@@@std@@@std@@QBE?AV012@H@Z
_TEXT	SEGMENT
___$ReturnUdt$ = 8					; size = 4
__Off$ = 12						; size = 4
??Giterator@?$deque@PAV?$CMyBucket@PAVCClientSockE@@@@V?$allocator@PAV?$CMyBucket@PAVCClientSockE@@@@@std@@@std@@QBE?AV012@H@Z PROC NEAR ; std::deque<CMyBucket<CClientSockE *> *,std::allocator<CMyBucket<CClientSockE *> *> >::iterator::operator-, COMDAT
; _this$ = ecx

; 300  : 			iterator _Tmp = *this;

  00000	8b 11		 mov	 edx, DWORD PTR [ecx]
  00002	8b 49 04	 mov	 ecx, DWORD PTR [ecx+4]

; 301  : 			return (_Tmp -= _Off);

  00005	2b 4c 24 08	 sub	 ecx, DWORD PTR __Off$[esp-4]
  00009	8b 44 24 04	 mov	 eax, DWORD PTR ___$ReturnUdt$[esp-4]
  0000d	89 10		 mov	 DWORD PTR [eax], edx
  0000f	89 48 04	 mov	 DWORD PTR [eax+4], ecx

; 302  : 			}

  00012	c2 08 00	 ret	 8
??Giterator@?$deque@PAV?$CMyBucket@PAVCClientSockE@@@@V?$allocator@PAV?$CMyBucket@PAVCClientSockE@@@@@std@@@std@@QBE?AV012@H@Z ENDP ; std::deque<CMyBucket<CClientSockE *> *,std::allocator<CMyBucket<CClientSockE *> *> >::iterator::operator-
_TEXT	ENDS
PUBLIC	??$_Uninitialized_fill_n@PAPAPAV?$CMyBucket@PAVCClientSockE@@@@IPAPAV1@V?$allocator@PAPAV?$CMyBucket@PAVCClientSockE@@@@@std@@@std@@YAXPAPAPAV?$CMyBucket@PAVCClientSockE@@@@IABQAPAV1@AAV?$allocator@PAPAV?$CMyBucket@PAVCClientSockE@@@@@0@@Z ; std::_Uninitialized_fill_n<CMyBucket<CClientSockE *> * * *,unsigned int,CMyBucket<CClientSockE *> * *,std::allocator<CMyBucket<CClientSockE *> * *> >
; Function compile flags: /Ogty
; File c:\program files\microsoft visual studio .net 2003\vc7\include\memory
;	COMDAT ??$_Uninitialized_fill_n@PAPAPAV?$CMyBucket@PAVCClientSockE@@@@IPAPAV1@V?$allocator@PAPAV?$CMyBucket@PAVCClientSockE@@@@@std@@@std@@YAXPAPAPAV?$CMyBucket@PAVCClientSockE@@@@IABQAPAV1@AAV?$allocator@PAPAV?$CMyBucket@PAVCClientSockE@@@@@0@@Z
_TEXT	SEGMENT
__First$ = 8						; size = 4
__Count$ = 12						; size = 4
__Val$ = 16						; size = 4
__Al$ = 20						; size = 4
??$_Uninitialized_fill_n@PAPAPAV?$CMyBucket@PAVCClientSockE@@@@IPAPAV1@V?$allocator@PAPAV?$CMyBucket@PAVCClientSockE@@@@@std@@@std@@YAXPAPAPAV?$CMyBucket@PAVCClientSockE@@@@IABQAPAV1@AAV?$allocator@PAPAV?$CMyBucket@PAVCClientSockE@@@@@0@@Z PROC NEAR ; std::_Uninitialized_fill_n<CMyBucket<CClientSockE *> * * *,unsigned int,CMyBucket<CClientSockE *> * *,std::allocator<CMyBucket<CClientSockE *> * *> >, COMDAT

; 256  : 	_Uninit_fill_n(_First, _Count, _Val, _Al,
; 257  : 		_Ptr_cat(_First, _First));

  00000	8b 4c 24 08	 mov	 ecx, DWORD PTR __Count$[esp-4]
  00004	85 c9		 test	 ecx, ecx
  00006	8b 44 24 04	 mov	 eax, DWORD PTR __First$[esp-4]
  0000a	76 10		 jbe	 SHORT $L156352
  0000c	8b 54 24 0c	 mov	 edx, DWORD PTR __Val$[esp-4]
  00010	56		 push	 esi
$L156350:
  00011	8b 32		 mov	 esi, DWORD PTR [edx]
  00013	89 30		 mov	 DWORD PTR [eax], esi
  00015	83 c0 04	 add	 eax, 4
  00018	49		 dec	 ecx
  00019	75 f6		 jne	 SHORT $L156350
  0001b	5e		 pop	 esi
$L156352:

; 258  : 	}

  0001c	c3		 ret	 0
??$_Uninitialized_fill_n@PAPAPAV?$CMyBucket@PAVCClientSockE@@@@IPAPAV1@V?$allocator@PAPAV?$CMyBucket@PAVCClientSockE@@@@@std@@@std@@YAXPAPAPAV?$CMyBucket@PAVCClientSockE@@@@IABQAPAV1@AAV?$allocator@PAPAV?$CMyBucket@PAVCClientSockE@@@@@0@@Z ENDP ; std::_Uninitialized_fill_n<CMyBucket<CClientSockE *> * * *,unsigned int,CMyBucket<CClientSockE *> * *,std::allocator<CMyBucket<CClientSockE *> * *> >
_TEXT	ENDS
PUBLIC	?_Tidy@?$basic_string@DU?$char_traits@D@std@@V?$allocator@D@2@@std@@IAEX_NI@Z ; std::basic_string<char,std::char_traits<char>,std::allocator<char> >::_Tidy
; Function compile flags: /Ogty
; File c:\program files\microsoft visual studio .net 2003\vc7\include\xstring
;	COMDAT ?_Tidy@?$basic_string@DU?$char_traits@D@std@@V?$allocator@D@2@@std@@IAEX_NI@Z
_TEXT	SEGMENT
__Built$ = 8						; size = 1
__Newsize$ = 12						; size = 4
?_Tidy@?$basic_string@DU?$char_traits@D@std@@V?$allocator@D@2@@std@@IAEX_NI@Z PROC NEAR ; std::basic_string<char,std::char_traits<char>,std::allocator<char> >::_Tidy, COMDAT
; _this$ = ecx

; 1510 : 		if (!_Built)

  00000	8a 44 24 04	 mov	 al, BYTE PTR __Built$[esp-4]
  00004	84 c0		 test	 al, al
  00006	53		 push	 ebx
  00007	55		 push	 ebp
  00008	8b 6c 24 10	 mov	 ebp, DWORD PTR __Newsize$[esp+4]
  0000c	8b d9		 mov	 ebx, ecx
  0000e	74 2f		 je	 SHORT $L156363

; 1511 : 			;
; 1512 : 		else if (_BUF_SIZE <= _Myres)

  00010	83 7b 18 10	 cmp	 DWORD PTR [ebx+24], 16	; 00000010H
  00014	72 29		 jb	 SHORT $L156363

; 1513 : 			{	// copy any leftovers to small buffer and deallocate
; 1514 : 			_Elem *_Ptr = _Bx._Ptr;
; 1515 : 			if (0 < _Newsize)

  00016	85 ed		 test	 ebp, ebp
  00018	8b 43 04	 mov	 eax, DWORD PTR [ebx+4]
  0001b	57		 push	 edi
  0001c	8d 7b 04	 lea	 edi, DWORD PTR [ebx+4]
  0001f	76 14		 jbe	 SHORT $L156360
  00021	56		 push	 esi

; 1516 : 				_Traits::copy(_Bx._Buf, _Ptr, _Newsize);

  00022	8b cd		 mov	 ecx, ebp
  00024	8b d1		 mov	 edx, ecx
  00026	c1 e9 02	 shr	 ecx, 2
  00029	8b f0		 mov	 esi, eax
  0002b	f3 a5		 rep movsd
  0002d	8b ca		 mov	 ecx, edx
  0002f	83 e1 03	 and	 ecx, 3
  00032	f3 a4		 rep movsb
  00034	5e		 pop	 esi
$L156360:

; 1517 : 			_Mybase::_Alval.deallocate(_Ptr, _Myres + 1);

  00035	50		 push	 eax
  00036	e8 00 00 00 00	 call	 ??3@YAXPAX@Z		; operator delete
  0003b	83 c4 04	 add	 esp, 4
  0003e	5f		 pop	 edi
$L156363:

; 1518 : 			}
; 1519 : 		_Myres = _BUF_SIZE - 1;
; 1520 : 		_Eos(_Newsize);

  0003f	89 6b 14	 mov	 DWORD PTR [ebx+20], ebp
  00042	c7 43 18 0f 00
	00 00		 mov	 DWORD PTR [ebx+24], 15	; 0000000fH
  00049	c6 44 2b 04 00	 mov	 BYTE PTR [ebx+ebp+4], 0
  0004e	5d		 pop	 ebp
  0004f	5b		 pop	 ebx

; 1521 : 		}

  00050	c2 08 00	 ret	 8
?_Tidy@?$basic_string@DU?$char_traits@D@std@@V?$allocator@D@2@@std@@IAEX_NI@Z ENDP ; std::basic_string<char,std::char_traits<char>,std::allocator<char> >::_Tidy
_TEXT	ENDS
PUBLIC	?erase@?$basic_string@DU?$char_traits@D@std@@V?$allocator@D@2@@std@@QAEAAV12@II@Z ; std::basic_string<char,std::char_traits<char>,std::allocator<char> >::erase
EXTRN	?_Xran@_String_base@std@@QBEXXZ:NEAR		; std::_String_base::_Xran
; Function compile flags: /Ogty
;	COMDAT ?erase@?$basic_string@DU?$char_traits@D@std@@V?$allocator@D@2@@std@@QAEAAV12@II@Z
_TEXT	SEGMENT
__Off$ = 8						; size = 4
__Count$ = 12						; size = 4
?erase@?$basic_string@DU?$char_traits@D@std@@V?$allocator@D@2@@std@@QAEAAV12@II@Z PROC NEAR ; std::basic_string<char,std::char_traits<char>,std::allocator<char> >::erase, COMDAT
; _this$ = ecx

; 792  : 		{	// erase elements [_Off, _Off + _Count)

  00000	55		 push	 ebp

; 793  : 		if (_Mysize < _Off)

  00001	8b 6c 24 08	 mov	 ebp, DWORD PTR __Off$[esp]
  00005	56		 push	 esi
  00006	8b f1		 mov	 esi, ecx
  00008	39 6e 14	 cmp	 DWORD PTR [esi+20], ebp
  0000b	57		 push	 edi
  0000c	73 05		 jae	 SHORT $L147725

; 794  : 			_String_base::_Xran();	// _Off off end

  0000e	e8 00 00 00 00	 call	 ?_Xran@_String_base@std@@QBEXXZ ; std::_String_base::_Xran
$L147725:

; 795  : 		if (_Mysize - _Off < _Count)

  00013	8b 46 14	 mov	 eax, DWORD PTR [esi+20]
  00016	8b 7c 24 14	 mov	 edi, DWORD PTR __Count$[esp+8]
  0001a	2b c5		 sub	 eax, ebp
  0001c	3b c7		 cmp	 eax, edi
  0001e	73 02		 jae	 SHORT $L147726

; 796  : 			_Count = _Mysize - _Off;	// trim _Count

  00020	8b f8		 mov	 edi, eax
$L147726:

; 797  : 		if (0 < _Count)

  00022	85 ff		 test	 edi, edi
  00024	76 47		 jbe	 SHORT $L156429

; 798  : 			{	// move elements down
; 799  : 			_Traits::move(_Myptr() + _Off, _Myptr() + _Off + _Count,
; 800  : 				_Mysize - _Off - _Count);

  00026	8b 4e 18	 mov	 ecx, DWORD PTR [esi+24]
  00029	83 f9 10	 cmp	 ecx, 16			; 00000010H
  0002c	53		 push	 ebx
  0002d	8d 5e 04	 lea	 ebx, DWORD PTR [esi+4]
  00030	72 04		 jb	 SHORT $L156395
  00032	8b 13		 mov	 edx, DWORD PTR [ebx]
  00034	eb 02		 jmp	 SHORT $L156396
$L156395:
  00036	8b d3		 mov	 edx, ebx
$L156396:
  00038	83 f9 10	 cmp	 ecx, 16			; 00000010H
  0003b	72 04		 jb	 SHORT $L156402
  0003d	8b 0b		 mov	 ecx, DWORD PTR [ebx]
  0003f	eb 02		 jmp	 SHORT $L156403
$L156402:
  00041	8b cb		 mov	 ecx, ebx
$L156403:
  00043	2b c7		 sub	 eax, edi

; 803  : 			}
; 804  : 		return (*this);

  00045	03 d5		 add	 edx, ebp
  00047	50		 push	 eax
  00048	03 d7		 add	 edx, edi
  0004a	52		 push	 edx
  0004b	03 cd		 add	 ecx, ebp
  0004d	51		 push	 ecx
  0004e	e8 00 00 00 00	 call	 _memmove
  00053	8b 46 14	 mov	 eax, DWORD PTR [esi+20]
  00056	8b 4e 18	 mov	 ecx, DWORD PTR [esi+24]
  00059	2b c7		 sub	 eax, edi
  0005b	83 c4 0c	 add	 esp, 12			; 0000000cH
  0005e	83 f9 10	 cmp	 ecx, 16			; 00000010H
  00061	89 46 14	 mov	 DWORD PTR [esi+20], eax
  00064	72 02		 jb	 SHORT $L156426

; 801  : 			size_type _Newsize = _Mysize - _Count;
; 802  : 			_Eos(_Newsize);

  00066	8b 1b		 mov	 ebx, DWORD PTR [ebx]
$L156426:
  00068	c6 04 03 00	 mov	 BYTE PTR [ebx+eax], 0
  0006c	5b		 pop	 ebx
$L156429:
  0006d	5f		 pop	 edi

; 803  : 			}
; 804  : 		return (*this);

  0006e	8b c6		 mov	 eax, esi
  00070	5e		 pop	 esi
  00071	5d		 pop	 ebp

; 805  : 		}

  00072	c2 08 00	 ret	 8
?erase@?$basic_string@DU?$char_traits@D@std@@V?$allocator@D@2@@std@@QAEAAV12@II@Z ENDP ; std::basic_string<char,std::char_traits<char>,std::allocator<char> >::erase
_TEXT	ENDS
PUBLIC	?_Copy@?$basic_string@DU?$char_traits@D@std@@V?$allocator@D@2@@std@@IAEXII@Z ; std::basic_string<char,std::char_traits<char>,std::allocator<char> >::_Copy
;	COMDAT xdata$x
; File c:\program files\microsoft visual studio .net 2003\vc7\include\iosfwd
xdata$x	SEGMENT
$T156633 DD	0ffffffffH
	DD	00H
	DD	0ffffffffH
	DD	00H
	DD	01H
	DD	00H
	DD	01H
	DD	00H
$T156635 DD	00H
	DD	00H
	DD	00H
	DD	FLAT:$L156436
$T156636 DD	00H
	DD	00H
	DD	00H
	DD	FLAT:$L156434
$T156634 DD	02H
	DD	02H
	DD	03H
	DD	01H
	DD	FLAT:$T156635
	DD	00H
	DD	00H
	DD	03H
	DD	01H
	DD	FLAT:$T156636
$T156628 DD	019930520H
	DD	04H
	DD	FLAT:$T156633
	DD	02H
	DD	FLAT:$T156634
	DD	2 DUP(00H)
; Function compile flags: /Ogty
; File c:\program files\microsoft visual studio .net 2003\vc7\include\xstring
xdata$x	ENDS
;	COMDAT ?_Copy@?$basic_string@DU?$char_traits@D@std@@V?$allocator@D@2@@std@@IAEXII@Z
_TEXT	SEGMENT
__Newres$ = -24						; size = 4
_this$ = -20						; size = 4
__$EHRec$ = -16						; size = 16
__Ptr$ = 8						; size = 4
__Newsize$ = 8						; size = 4
__Oldlen$ = 12						; size = 4
?_Copy@?$basic_string@DU?$char_traits@D@std@@V?$allocator@D@2@@std@@IAEXII@Z PROC NEAR ; std::basic_string<char,std::char_traits<char>,std::allocator<char> >::_Copy, COMDAT
; _this$ = ecx

; 1444 : 		{	// copy _Oldlen elements to newly allocated buffer

  00000	55		 push	 ebp
  00001	8b ec		 mov	 ebp, esp
  00003	6a ff		 push	 -1
  00005	68 00 00 00 00	 push	 __ehhandler$?_Copy@?$basic_string@DU?$char_traits@D@std@@V?$allocator@D@2@@std@@IAEXII@Z
  0000a	64 a1 00 00 00
	00		 mov	 eax, DWORD PTR fs:__except_list
  00010	50		 push	 eax
  00011	64 89 25 00 00
	00 00		 mov	 DWORD PTR fs:__except_list, esp
  00018	83 ec 0c	 sub	 esp, 12			; 0000000cH

; 1445 : 		size_type _Newres = _Newsize | _ALLOC_MASK;

  0001b	8b 45 08	 mov	 eax, DWORD PTR __Newsize$[ebp]
  0001e	53		 push	 ebx
  0001f	56		 push	 esi
  00020	8b d8		 mov	 ebx, eax
  00022	83 cb 0f	 or	 ebx, 15			; 0000000fH

; 1446 : 		if (max_size() < _Newres)

  00025	83 fb fe	 cmp	 ebx, -2			; fffffffeH
  00028	57		 push	 edi
  00029	8b f1		 mov	 esi, ecx
  0002b	89 65 f0	 mov	 DWORD PTR __$EHRec$[ebp], esp
  0002e	89 75 ec	 mov	 DWORD PTR _this$[ebp], esi
  00031	76 04		 jbe	 SHORT $L147789

; 1447 : 			_Newres = _Newsize;	// undo roundup if too big

  00033	8b d8		 mov	 ebx, eax

; 1448 : 		else if (_Newres / 3 < _Myres / 2

  00035	eb 22		 jmp	 SHORT $L147791
$L147789:

; 1449 : 			&& _Myres <= max_size() - _Myres / 2)

  00037	8b 7e 18	 mov	 edi, DWORD PTR [esi+24]
  0003a	b8 ab aa aa aa	 mov	 eax, -1431655765	; aaaaaaabH
  0003f	f7 e3		 mul	 ebx
  00041	8b cf		 mov	 ecx, edi
  00043	d1 e9		 shr	 ecx, 1
  00045	d1 ea		 shr	 edx, 1
  00047	3b d1		 cmp	 edx, ecx
  00049	73 0e		 jae	 SHORT $L147791
  0004b	b8 fe ff ff ff	 mov	 eax, -2			; fffffffeH
  00050	2b c1		 sub	 eax, ecx
  00052	3b f8		 cmp	 edi, eax
  00054	77 03		 ja	 SHORT $L147791

; 1450 : 			_Newres = _Myres + _Myres / 2;	// grow exponentially if possible

  00056	8d 1c 39	 lea	 ebx, DWORD PTR [ecx+edi]
$L147791:

; 1451 : 		_Elem *_Ptr;
; 1452 : 
; 1453 : 		_TRY_BEGIN
; 1454 : 			_Ptr = _Mybase::_Alval.allocate(_Newres + 1);

  00059	8d 4b 01	 lea	 ecx, DWORD PTR [ebx+1]
  0005c	51		 push	 ecx
  0005d	c7 45 fc 00 00
	00 00		 mov	 DWORD PTR __$EHRec$[ebp+12], 0
  00064	e8 00 00 00 00	 call	 ??2@YAPAXI@Z		; operator new
  00069	8b d0		 mov	 edx, eax
  0006b	83 c4 04	 add	 esp, 4
  0006e	89 55 08	 mov	 DWORD PTR __Ptr$[ebp], edx
  00071	eb 29		 jmp	 SHORT $L147793
$L156434:

; 1455 : 		_CATCH_ALL
; 1456 : 			_Newres = _Newsize;	// allocation failed, undo roundup and retry

  00073	8b 45 08	 mov	 eax, DWORD PTR __Newsize$[ebp]
  00076	89 45 e8	 mov	 DWORD PTR __Newres$[ebp], eax

; 1457 : 			_TRY_BEGIN
; 1458 : 				_Ptr = _Mybase::_Alval.allocate(_Newres + 1);

  00079	40		 inc	 eax
  0007a	89 65 f0	 mov	 DWORD PTR __$EHRec$[ebp], esp
  0007d	50		 push	 eax
  0007e	c6 45 fc 02	 mov	 BYTE PTR __$EHRec$[ebp+12], 2
  00082	e8 00 00 00 00	 call	 ??2@YAPAXI@Z		; operator new
  00087	89 45 08	 mov	 DWORD PTR __Ptr$[ebp], eax
  0008a	83 c4 04	 add	 esp, 4

; 1462 : 			_CATCH_END
; 1463 : 		_CATCH_END

  0008d	b8 00 00 00 00	 mov	 eax, $L156629
  00092	c3		 ret	 0
$L156629:
  00093	8b 5d e8	 mov	 ebx, DWORD PTR __Newres$[ebp]
  00096	8b 75 ec	 mov	 esi, DWORD PTR _this$[ebp]
  00099	8b 55 08	 mov	 edx, DWORD PTR __Ptr$[ebp]
$L147793:

; 1464 : 
; 1465 : 		if (0 < _Oldlen)

  0009c	8b 4d 0c	 mov	 ecx, DWORD PTR __Oldlen$[ebp]
  0009f	85 c9		 test	 ecx, ecx
  000a1	76 24		 jbe	 SHORT $L156553

; 1466 : 			_Traits::copy(_Ptr, _Myptr(), _Oldlen);	// copy existing elements

  000a3	83 7e 18 10	 cmp	 DWORD PTR [esi+24], 16	; 00000010H
  000a7	72 05		 jb	 SHORT $L156550
  000a9	8b 76 04	 mov	 esi, DWORD PTR [esi+4]
  000ac	eb 03		 jmp	 SHORT $L156551
$L156550:
  000ae	83 c6 04	 add	 esi, 4
$L156551:
  000b1	8b c1		 mov	 eax, ecx
  000b3	c1 e9 02	 shr	 ecx, 2
  000b6	8b fa		 mov	 edi, edx
  000b8	f3 a5		 rep movsd
  000ba	8b c8		 mov	 ecx, eax
  000bc	83 e1 03	 and	 ecx, 3
  000bf	f3 a4		 rep movsb
  000c1	8b 75 ec	 mov	 esi, DWORD PTR _this$[ebp]
  000c4	8b 4d 0c	 mov	 ecx, DWORD PTR __Oldlen$[ebp]
$L156553:

; 1467 : 		_Tidy(true);

  000c7	83 7e 18 10	 cmp	 DWORD PTR [esi+24], 16	; 00000010H
  000cb	72 12		 jb	 SHORT $L156595
  000cd	8b 4e 04	 mov	 ecx, DWORD PTR [esi+4]
  000d0	51		 push	 ecx
  000d1	e8 00 00 00 00	 call	 ??3@YAXPAX@Z		; operator delete
  000d6	8b 55 08	 mov	 edx, DWORD PTR __Ptr$[ebp]
  000d9	8b 4d 0c	 mov	 ecx, DWORD PTR __Oldlen$[ebp]
  000dc	83 c4 04	 add	 esp, 4
$L156595:

; 1468 : 		_Bx._Ptr = _Ptr;
; 1469 : 		_Myres = _Newres;
; 1470 : 		_Eos(_Oldlen);

  000df	83 fb 10	 cmp	 ebx, 16			; 00000010H
  000e2	8d 46 04	 lea	 eax, DWORD PTR [esi+4]
  000e5	c6 00 00	 mov	 BYTE PTR [eax], 0
  000e8	89 10		 mov	 DWORD PTR [eax], edx
  000ea	89 5e 18	 mov	 DWORD PTR [esi+24], ebx
  000ed	89 4e 14	 mov	 DWORD PTR [esi+20], ecx
  000f0	72 02		 jb	 SHORT $L156624
  000f2	8b c2		 mov	 eax, edx
$L156624:

; 1471 : 		}

  000f4	5f		 pop	 edi
  000f5	c6 04 08 00	 mov	 BYTE PTR [eax+ecx], 0
  000f9	8b 4d f4	 mov	 ecx, DWORD PTR __$EHRec$[ebp+4]
  000fc	5e		 pop	 esi
  000fd	64 89 0d 00 00
	00 00		 mov	 DWORD PTR fs:__except_list, ecx
  00104	5b		 pop	 ebx
  00105	8b e5		 mov	 esp, ebp
  00107	5d		 pop	 ebp
  00108	c2 08 00	 ret	 8
$L156436:

; 1459 : 			_CATCH_ALL
; 1460 : 			_Tidy(true);	// failed again, discard storage and reraise

  0010b	8b 75 ec	 mov	 esi, DWORD PTR _this$[ebp]
  0010e	83 7e 18 10	 cmp	 DWORD PTR [esi+24], 16	; 00000010H
  00112	72 0c		 jb	 SHORT $L156534
  00114	8b 56 04	 mov	 edx, DWORD PTR [esi+4]
  00117	52		 push	 edx
  00118	e8 00 00 00 00	 call	 ??3@YAXPAX@Z		; operator delete
  0011d	83 c4 04	 add	 esp, 4
$L156534:

; 1461 : 			_RERAISE;

  00120	6a 00		 push	 0
  00122	c7 46 18 0f 00
	00 00		 mov	 DWORD PTR [esi+24], 15	; 0000000fH
  00129	c7 46 14 00 00
	00 00		 mov	 DWORD PTR [esi+20], 0
  00130	6a 00		 push	 0
  00132	c6 46 04 00	 mov	 BYTE PTR [esi+4], 0
  00136	e8 00 00 00 00	 call	 __CxxThrowException@8
$L156637:
$L156632:
  0013b	cc		 int	 3
_TEXT	ENDS
;	COMDAT text$x
text$x	SEGMENT
__ehhandler$?_Copy@?$basic_string@DU?$char_traits@D@std@@V?$allocator@D@2@@std@@IAEXII@Z:
  00000	b8 00 00 00 00	 mov	 eax, OFFSET FLAT:$T156628
  00005	e9 00 00 00 00	 jmp	 ___CxxFrameHandler
text$x	ENDS
?_Copy@?$basic_string@DU?$char_traits@D@std@@V?$allocator@D@2@@std@@IAEXII@Z ENDP ; std::basic_string<char,std::char_traits<char>,std::allocator<char> >::_Copy
PUBLIC	?_Tidy@?$deque@PAV?$CMyBucket@PAVCClientSockE@@@@V?$allocator@PAV?$CMyBucket@PAVCClientSockE@@@@@std@@@std@@IAEXXZ ; std::deque<CMyBucket<CClientSockE *> *,std::allocator<CMyBucket<CClientSockE *> *> >::_Tidy
; Function compile flags: /Ogty
; File c:\program files\microsoft visual studio .net 2003\vc7\include\deque
;	COMDAT ?_Tidy@?$deque@PAV?$CMyBucket@PAVCClientSockE@@@@V?$allocator@PAV?$CMyBucket@PAVCClientSockE@@@@@std@@@std@@IAEXXZ
_TEXT	SEGMENT
?_Tidy@?$deque@PAV?$CMyBucket@PAVCClientSockE@@@@V?$allocator@PAV?$CMyBucket@PAVCClientSockE@@@@@std@@@std@@IAEXXZ PROC NEAR ; std::deque<CMyBucket<CClientSockE *> *,std::allocator<CMyBucket<CClientSockE *> *> >::_Tidy, COMDAT
; _this$ = ecx

; 950  : 		{	// free all storage

  00000	53		 push	 ebx
  00001	56		 push	 esi
  00002	8b f1		 mov	 esi, ecx

; 951  : 		while (!empty())

  00004	8b 46 10	 mov	 eax, DWORD PTR [esi+16]
  00007	33 db		 xor	 ebx, ebx
  00009	3b c3		 cmp	 eax, ebx
  0000b	74 1a		 je	 SHORT $L153977
  0000d	8d 49 00	 npad	 3
$L153976:

; 952  : 			pop_back();

  00010	8b 46 10	 mov	 eax, DWORD PTR [esi+16]
  00013	3b c3		 cmp	 eax, ebx
  00015	74 0b		 je	 SHORT $L156654
  00017	48		 dec	 eax
  00018	3b c3		 cmp	 eax, ebx
  0001a	89 46 10	 mov	 DWORD PTR [esi+16], eax
  0001d	75 03		 jne	 SHORT $L156654
  0001f	89 5e 0c	 mov	 DWORD PTR [esi+12], ebx
$L156654:
  00022	39 5e 10	 cmp	 DWORD PTR [esi+16], ebx
  00025	75 e9		 jne	 SHORT $L153976
$L153977:
  00027	57		 push	 edi

; 953  : 		for (size_type _Count = _Mapsize; 0 < _Count; )

  00028	8b 7e 08	 mov	 edi, DWORD PTR [esi+8]
  0002b	3b fb		 cmp	 edi, ebx
  0002d	76 1a		 jbe	 SHORT $L153981
  0002f	90		 npad	 1
$L153980:

; 954  : 			{	// free storage for a block and destroy pointer
; 955  : 			if (*(_Map + --_Count) != 0)

  00030	8b 46 04	 mov	 eax, DWORD PTR [esi+4]
  00033	8b 44 b8 fc	 mov	 eax, DWORD PTR [eax+edi*4-4]
  00037	4f		 dec	 edi
  00038	3b c3		 cmp	 eax, ebx
  0003a	74 09		 je	 SHORT $L156659

; 956  : 				this->_Alval.deallocate(*(_Map + _Count), _DEQUESIZ);

  0003c	50		 push	 eax
  0003d	e8 00 00 00 00	 call	 ??3@YAXPAX@Z		; operator delete
  00042	83 c4 04	 add	 esp, 4
$L156659:

; 953  : 		for (size_type _Count = _Mapsize; 0 < _Count; )

  00045	3b fb		 cmp	 edi, ebx
  00047	77 e7		 ja	 SHORT $L153980
$L153981:

; 957  : 			this->_Almap.destroy(_Map + _Count);
; 958  : 			}
; 959  : 
; 960  : 		if (_Map)

  00049	8b 46 04	 mov	 eax, DWORD PTR [esi+4]
  0004c	3b c3		 cmp	 eax, ebx
  0004e	5f		 pop	 edi
  0004f	74 09		 je	 SHORT $L156670

; 961  : 			this->_Almap.deallocate(_Map, _Mapsize);	// free storage for map

  00051	50		 push	 eax
  00052	e8 00 00 00 00	 call	 ??3@YAXPAX@Z		; operator delete
  00057	83 c4 04	 add	 esp, 4
$L156670:

; 962  : 		_Mapsize = 0;

  0005a	89 5e 08	 mov	 DWORD PTR [esi+8], ebx

; 963  : 		_Map = 0;

  0005d	89 5e 04	 mov	 DWORD PTR [esi+4], ebx
  00060	5e		 pop	 esi
  00061	5b		 pop	 ebx

; 964  : 		}

  00062	c3		 ret	 0
?_Tidy@?$deque@PAV?$CMyBucket@PAVCClientSockE@@@@V?$allocator@PAV?$CMyBucket@PAVCClientSockE@@@@@std@@@std@@IAEXXZ ENDP ; std::deque<CMyBucket<CClientSockE *> *,std::allocator<CMyBucket<CClientSockE *> *> >::_Tidy
_TEXT	ENDS
PUBLIC	?_Tidy@?$list@PAV?$CMyBucket@PAVCClientSockE@@@@V?$allocator@PAV?$CMyBucket@PAVCClientSockE@@@@@std@@@std@@IAEXXZ ; std::list<CMyBucket<CClientSockE *> *,std::allocator<CMyBucket<CClientSockE *> *> >::_Tidy
; Function compile flags: /Ogty
; File c:\program files\microsoft visual studio .net 2003\vc7\include\list
;	COMDAT ?_Tidy@?$list@PAV?$CMyBucket@PAVCClientSockE@@@@V?$allocator@PAV?$CMyBucket@PAVCClientSockE@@@@@std@@@std@@IAEXXZ
_TEXT	SEGMENT
?_Tidy@?$list@PAV?$CMyBucket@PAVCClientSockE@@@@V?$allocator@PAV?$CMyBucket@PAVCClientSockE@@@@@std@@@std@@IAEXXZ PROC NEAR ; std::list<CMyBucket<CClientSockE *> *,std::allocator<CMyBucket<CClientSockE *> *> >::_Tidy, COMDAT
; _this$ = ecx

; 929  : 		{	// free all storage

  00000	56		 push	 esi
  00001	8b f1		 mov	 esi, ecx

; 930  : 		clear();

  00003	e8 00 00 00 00	 call	 ?clear@?$list@PAV?$CMyBucket@PAVCClientSockE@@@@V?$allocator@PAV?$CMyBucket@PAVCClientSockE@@@@@std@@@std@@QAEXXZ ; std::list<CMyBucket<CClientSockE *> *,std::allocator<CMyBucket<CClientSockE *> *> >::clear

; 931  : 		this->_Alptr.destroy(&_Nextnode(_Myhead));
; 932  : 		this->_Alptr.destroy(&_Prevnode(_Myhead));
; 933  : 		this->_Alnod.deallocate(_Myhead, 1);

  00008	8b 46 04	 mov	 eax, DWORD PTR [esi+4]
  0000b	50		 push	 eax
  0000c	e8 00 00 00 00	 call	 ??3@YAXPAX@Z		; operator delete
  00011	83 c4 04	 add	 esp, 4

; 934  : 		_Myhead = 0;

  00014	c7 46 04 00 00
	00 00		 mov	 DWORD PTR [esi+4], 0
  0001b	5e		 pop	 esi

; 935  : 		}

  0001c	c3		 ret	 0
?_Tidy@?$list@PAV?$CMyBucket@PAVCClientSockE@@@@V?$allocator@PAV?$CMyBucket@PAVCClientSockE@@@@@std@@@std@@IAEXXZ ENDP ; std::list<CMyBucket<CClientSockE *> *,std::allocator<CMyBucket<CClientSockE *> *> >::_Tidy
_TEXT	ENDS
PUBLIC	?Clear@?$CMyPool@V?$CMyBucket@PAVCClientSockE@@@@@@QAEXXZ ; CMyPool<CMyBucket<CClientSockE *> >::Clear
; Function compile flags: /Ogty
; File c:\offi src_real\offi src!\_network\misc\include\mymap.h
;	COMDAT ?Clear@?$CMyPool@V?$CMyBucket@PAVCClientSockE@@@@@@QAEXXZ
_TEXT	SEGMENT
?Clear@?$CMyPool@V?$CMyBucket@PAVCClientSockE@@@@@@QAEXXZ PROC NEAR ; CMyPool<CMyBucket<CClientSockE *> >::Clear, COMDAT
; _this$ = ecx

; 171  : {

  00000	53		 push	 ebx
  00001	56		 push	 esi
  00002	8b f1		 mov	 esi, ecx

; 172  : 	INIT_LOOP(1000);
; 173  : 	for( list<T*>::iterator i = m_listBlock.begin(); i != m_listBlock.end(); ++i )

  00004	8b 46 1c	 mov	 eax, DWORD PTR [esi+28]
  00007	57		 push	 edi
  00008	8b 38		 mov	 edi, DWORD PTR [eax]
  0000a	33 db		 xor	 ebx, ebx
  0000c	3b f8		 cmp	 edi, eax
  0000e	74 29		 je	 SHORT $L154312
$L156732:

; 174  : 	{
; 175  : 		VERIFY_LOOP( __FILE__, __LINE__ );
; 176  : 		safe_delete_array( *i );

  00010	8b 4f 08	 mov	 ecx, DWORD PTR [edi+8]
  00013	3b cb		 cmp	 ecx, ebx
  00015	74 1b		 je	 SHORT $L154311
  00017	8b 51 fc	 mov	 edx, DWORD PTR [ecx-4]
  0001a	3b d3		 cmp	 edx, ebx
  0001c	8d 41 fc	 lea	 eax, DWORD PTR [ecx-4]
  0001f	74 08		 je	 SHORT $L156692
  00021	8b 01		 mov	 eax, DWORD PTR [ecx]
  00023	6a 03		 push	 3
  00025	ff 10		 call	 DWORD PTR [eax]
  00027	eb 09		 jmp	 SHORT $L154311
$L156692:
  00029	50		 push	 eax
  0002a	e8 00 00 00 00	 call	 ??_V@YAXPAX@Z		; operator delete[]
  0002f	83 c4 04	 add	 esp, 4
$L154311:
  00032	8b 3f		 mov	 edi, DWORD PTR [edi]
  00034	3b 7e 1c	 cmp	 edi, DWORD PTR [esi+28]
  00037	75 d7		 jne	 SHORT $L156732
$L154312:

; 177  : 	}
; 178  : 
; 179  : 	m_listBlock.clear();

  00039	8b 4e 1c	 mov	 ecx, DWORD PTR [esi+28]
  0003c	8b 01		 mov	 eax, DWORD PTR [ecx]
  0003e	89 09		 mov	 DWORD PTR [ecx], ecx
  00040	8b 4e 1c	 mov	 ecx, DWORD PTR [esi+28]
  00043	89 49 04	 mov	 DWORD PTR [ecx+4], ecx
  00046	3b 46 1c	 cmp	 eax, DWORD PTR [esi+28]
  00049	89 5e 20	 mov	 DWORD PTR [esi+32], ebx
  0004c	74 16		 je	 SHORT $L156806
  0004e	8b ff		 npad	 2
$L156804:
  00050	8b 38		 mov	 edi, DWORD PTR [eax]
  00052	50		 push	 eax
  00053	e8 00 00 00 00	 call	 ??3@YAXPAX@Z		; operator delete
  00058	8b 4e 1c	 mov	 ecx, DWORD PTR [esi+28]
  0005b	83 c4 04	 add	 esp, 4
  0005e	3b f9		 cmp	 edi, ecx
  00060	8b c7		 mov	 eax, edi
  00062	75 ec		 jne	 SHORT $L156804
$L156806:

; 180  : 
; 181  : 	{
; 182  : 		INIT_LOOP(1000);
; 183  : 		while( !m_stackData.empty() )

  00064	39 5e 14	 cmp	 DWORD PTR [esi+20], ebx
  00067	74 1e		 je	 SHORT $L156846
  00069	8d a4 24 00 00
	00 00		 npad	 7
$L154320:

; 184  : 		{
; 185  : 			VERIFY_LOOP( __FILE__, __LINE__ );
; 186  : 			m_stackData.pop();

  00070	8b 46 14	 mov	 eax, DWORD PTR [esi+20]
  00073	3b c3		 cmp	 eax, ebx
  00075	74 0b		 je	 SHORT $L156839
  00077	48		 dec	 eax
  00078	3b c3		 cmp	 eax, ebx
  0007a	89 46 14	 mov	 DWORD PTR [esi+20], eax
  0007d	75 03		 jne	 SHORT $L156839
  0007f	89 5e 10	 mov	 DWORD PTR [esi+16], ebx
$L156839:
  00082	39 5e 14	 cmp	 DWORD PTR [esi+20], ebx
  00085	75 e9		 jne	 SHORT $L154320
$L156846:
  00087	5f		 pop	 edi

; 187  : 		}
; 188  : 	}
; 189  : 
; 190  : 	m_nInitialSize	= m_nGrowSize	= 0;

  00088	89 5e 24	 mov	 DWORD PTR [esi+36], ebx
  0008b	89 5e 28	 mov	 DWORD PTR [esi+40], ebx
  0008e	5e		 pop	 esi
  0008f	5b		 pop	 ebx

; 191  : }

  00090	c3		 ret	 0
?Clear@?$CMyPool@V?$CMyBucket@PAVCClientSockE@@@@@@QAEXXZ ENDP ; CMyPool<CMyBucket<CClientSockE *> >::Clear
_TEXT	ENDS
PUBLIC	??0?$deque@PAV?$CMyBucket@PAVCClientSockE@@@@V?$allocator@PAV?$CMyBucket@PAVCClientSockE@@@@@std@@@std@@QAE@XZ ; std::deque<CMyBucket<CClientSockE *> *,std::allocator<CMyBucket<CClientSockE *> *> >::deque<CMyBucket<CClientSockE *> *,std::allocator<CMyBucket<CClientSockE *> *> >
; Function compile flags: /Ogty
; File c:\program files\microsoft visual studio .net 2003\vc7\include\deque
;	COMDAT ??0?$deque@PAV?$CMyBucket@PAVCClientSockE@@@@V?$allocator@PAV?$CMyBucket@PAVCClientSockE@@@@@std@@@std@@QAE@XZ
_TEXT	SEGMENT
??0?$deque@PAV?$CMyBucket@PAVCClientSockE@@@@V?$allocator@PAV?$CMyBucket@PAVCClientSockE@@@@@std@@@std@@QAE@XZ PROC NEAR ; std::deque<CMyBucket<CClientSockE *> *,std::allocator<CMyBucket<CClientSockE *> *> >::deque<CMyBucket<CClientSockE *> *,std::allocator<CMyBucket<CClientSockE *> *> >, COMDAT
; _this$ = ecx

; 327  : 		{	// construct empty deque

  00000	8b c1		 mov	 eax, ecx
  00002	33 c9		 xor	 ecx, ecx
  00004	89 48 04	 mov	 DWORD PTR [eax+4], ecx
  00007	89 48 08	 mov	 DWORD PTR [eax+8], ecx
  0000a	89 48 0c	 mov	 DWORD PTR [eax+12], ecx
  0000d	89 48 10	 mov	 DWORD PTR [eax+16], ecx

; 328  : 		}

  00010	c3		 ret	 0
??0?$deque@PAV?$CMyBucket@PAVCClientSockE@@@@V?$allocator@PAV?$CMyBucket@PAVCClientSockE@@@@@std@@@std@@QAE@XZ ENDP ; std::deque<CMyBucket<CClientSockE *> *,std::allocator<CMyBucket<CClientSockE *> *> >::deque<CMyBucket<CClientSockE *> *,std::allocator<CMyBucket<CClientSockE *> *> >
_TEXT	ENDS
PUBLIC	?back@?$deque@PAV?$CMyBucket@PAVCClientSockE@@@@V?$allocator@PAV?$CMyBucket@PAVCClientSockE@@@@@std@@@std@@QAEAAPAV?$CMyBucket@PAVCClientSockE@@@@XZ ; std::deque<CMyBucket<CClientSockE *> *,std::allocator<CMyBucket<CClientSockE *> *> >::back
; Function compile flags: /Ogty
;	COMDAT ?back@?$deque@PAV?$CMyBucket@PAVCClientSockE@@@@V?$allocator@PAV?$CMyBucket@PAVCClientSockE@@@@@std@@@std@@QAEAAPAV?$CMyBucket@PAVCClientSockE@@@@XZ
_TEXT	SEGMENT
?back@?$deque@PAV?$CMyBucket@PAVCClientSockE@@@@V?$allocator@PAV?$CMyBucket@PAVCClientSockE@@@@@std@@@std@@QAEAAPAV?$CMyBucket@PAVCClientSockE@@@@XZ PROC NEAR ; std::deque<CMyBucket<CClientSockE *> *,std::allocator<CMyBucket<CClientSockE *> *> >::back, COMDAT
; _this$ = ecx

; 546  : 		return (*(end() - 1));

  00000	8b 41 10	 mov	 eax, DWORD PTR [ecx+16]
  00003	56		 push	 esi
  00004	03 41 0c	 add	 eax, DWORD PTR [ecx+12]
  00007	48		 dec	 eax
  00008	8b d1		 mov	 edx, ecx
  0000a	8b c8		 mov	 ecx, eax
  0000c	c1 e8 02	 shr	 eax, 2
  0000f	8d 34 85 00 00
	00 00		 lea	 esi, DWORD PTR [eax*4]
  00016	2b ce		 sub	 ecx, esi
  00018	8b 72 08	 mov	 esi, DWORD PTR [edx+8]
  0001b	3b f0		 cmp	 esi, eax
  0001d	77 02		 ja	 SHORT $L156932
  0001f	2b c6		 sub	 eax, esi
$L156932:
  00021	8b 52 04	 mov	 edx, DWORD PTR [edx+4]
  00024	8b 04 82	 mov	 eax, DWORD PTR [edx+eax*4]
  00027	8d 04 88	 lea	 eax, DWORD PTR [eax+ecx*4]
  0002a	5e		 pop	 esi

; 547  : 		}

  0002b	c3		 ret	 0
?back@?$deque@PAV?$CMyBucket@PAVCClientSockE@@@@V?$allocator@PAV?$CMyBucket@PAVCClientSockE@@@@@std@@@std@@QAEAAPAV?$CMyBucket@PAVCClientSockE@@@@XZ ENDP ; std::deque<CMyBucket<CClientSockE *> *,std::allocator<CMyBucket<CClientSockE *> *> >::back
_TEXT	ENDS
PUBLIC	??0?$_List_val@PAV?$CMyBucket@PAVCClientSockE@@@@V?$allocator@PAV?$CMyBucket@PAVCClientSockE@@@@@std@@@std@@IAE@V?$allocator@PAV?$CMyBucket@PAVCClientSockE@@@@@1@@Z ; std::_List_val<CMyBucket<CClientSockE *> *,std::allocator<CMyBucket<CClientSockE *> *> >::_List_val<CMyBucket<CClientSockE *> *,std::allocator<CMyBucket<CClientSockE *> *> >
; Function compile flags: /Ogty
; File c:\program files\microsoft visual studio .net 2003\vc7\include\list
;	COMDAT ??0?$_List_val@PAV?$CMyBucket@PAVCClientSockE@@@@V?$allocator@PAV?$CMyBucket@PAVCClientSockE@@@@@std@@@std@@IAE@V?$allocator@PAV?$CMyBucket@PAVCClientSockE@@@@@1@@Z
_TEXT	SEGMENT
__Al$ = 8						; size = 1
??0?$_List_val@PAV?$CMyBucket@PAVCClientSockE@@@@V?$allocator@PAV?$CMyBucket@PAVCClientSockE@@@@@std@@@std@@IAE@V?$allocator@PAV?$CMyBucket@PAVCClientSockE@@@@@1@@Z PROC NEAR ; std::_List_val<CMyBucket<CClientSockE *> *,std::allocator<CMyBucket<CClientSockE *> *> >::_List_val<CMyBucket<CClientSockE *> *,std::allocator<CMyBucket<CClientSockE *> *> >, COMDAT
; _this$ = ecx

; 82   : 		{	// construct base, and allocator from _Al

  00000	8b c1		 mov	 eax, ecx

; 83   : 		}

  00002	c2 04 00	 ret	 4
??0?$_List_val@PAV?$CMyBucket@PAVCClientSockE@@@@V?$allocator@PAV?$CMyBucket@PAVCClientSockE@@@@@std@@@std@@IAE@V?$allocator@PAV?$CMyBucket@PAVCClientSockE@@@@@1@@Z ENDP ; std::_List_val<CMyBucket<CClientSockE *> *,std::allocator<CMyBucket<CClientSockE *> *> >::_List_val<CMyBucket<CClientSockE *> *,std::allocator<CMyBucket<CClientSockE *> *> >
_TEXT	ENDS
PUBLIC	??1?$basic_string@DU?$char_traits@D@std@@V?$allocator@D@2@@std@@QAE@XZ ; std::basic_string<char,std::char_traits<char>,std::allocator<char> >::~basic_string<char,std::char_traits<char>,std::allocator<char> >
; Function compile flags: /Ogty
; File c:\program files\microsoft visual studio .net 2003\vc7\include\xstring
;	COMDAT ??1?$basic_string@DU?$char_traits@D@std@@V?$allocator@D@2@@std@@QAE@XZ
_TEXT	SEGMENT
??1?$basic_string@DU?$char_traits@D@std@@V?$allocator@D@2@@std@@QAE@XZ PROC NEAR ; std::basic_string<char,std::char_traits<char>,std::allocator<char> >::~basic_string<char,std::char_traits<char>,std::allocator<char> >, COMDAT
; _this$ = ecx

; 456  : 		{	// destroy the string

  00000	56		 push	 esi
  00001	8b f1		 mov	 esi, ecx

; 457  : 		_Tidy(true);

  00003	83 7e 18 10	 cmp	 DWORD PTR [esi+24], 16	; 00000010H
  00007	72 0c		 jb	 SHORT $L157015
  00009	8b 46 04	 mov	 eax, DWORD PTR [esi+4]
  0000c	50		 push	 eax
  0000d	e8 00 00 00 00	 call	 ??3@YAXPAX@Z		; operator delete
  00012	83 c4 04	 add	 esp, 4
$L157015:
  00015	33 c0		 xor	 eax, eax
  00017	c7 46 18 0f 00
	00 00		 mov	 DWORD PTR [esi+24], 15	; 0000000fH
  0001e	89 46 14	 mov	 DWORD PTR [esi+20], eax
  00021	88 46 04	 mov	 BYTE PTR [esi+4], al
  00024	5e		 pop	 esi

; 458  : 		}

  00025	c3		 ret	 0
??1?$basic_string@DU?$char_traits@D@std@@V?$allocator@D@2@@std@@QAE@XZ ENDP ; std::basic_string<char,std::char_traits<char>,std::allocator<char> >::~basic_string<char,std::char_traits<char>,std::allocator<char> >
_TEXT	ENDS
PUBLIC	?_Grow@?$basic_string@DU?$char_traits@D@std@@V?$allocator@D@2@@std@@IAE_NI_N@Z ; std::basic_string<char,std::char_traits<char>,std::allocator<char> >::_Grow
EXTRN	?_Xlen@_String_base@std@@QBEXXZ:NEAR		; std::_String_base::_Xlen
; Function compile flags: /Ogty
;	COMDAT ?_Grow@?$basic_string@DU?$char_traits@D@std@@V?$allocator@D@2@@std@@IAE_NI_N@Z
_TEXT	SEGMENT
__Newsize$ = 8						; size = 4
__Trim$ = 12						; size = 1
?_Grow@?$basic_string@DU?$char_traits@D@std@@V?$allocator@D@2@@std@@IAE_NI_N@Z PROC NEAR ; std::basic_string<char,std::char_traits<char>,std::allocator<char> >::_Grow, COMDAT
; _this$ = ecx

; 1480 : 		{	// ensure buffer is big enough, trim to size if _Trim is true

  00000	55		 push	 ebp
  00001	56		 push	 esi

; 1481 : 		if (max_size() < _Newsize)

  00002	8b 74 24 0c	 mov	 esi, DWORD PTR __Newsize$[esp+4]
  00006	83 fe fe	 cmp	 esi, -2			; fffffffeH
  00009	8b e9		 mov	 ebp, ecx
  0000b	76 05		 jbe	 SHORT $L147734

; 1482 : 			_String_base::_Xlen();	// result too long

  0000d	e8 00 00 00 00	 call	 ?_Xlen@_String_base@std@@QBEXXZ ; std::_String_base::_Xlen
$L147734:

; 1483 : 		if (_Myres < _Newsize)

  00012	8b 45 18	 mov	 eax, DWORD PTR [ebp+24]
  00015	3b c6		 cmp	 eax, esi
  00017	73 19		 jae	 SHORT $L147735

; 1484 : 			_Copy(_Newsize, _Mysize);	// reallocate to grow

  00019	8b 45 14	 mov	 eax, DWORD PTR [ebp+20]
  0001c	50		 push	 eax
  0001d	56		 push	 esi
  0001e	8b cd		 mov	 ecx, ebp
  00020	e8 00 00 00 00	 call	 ?_Copy@?$basic_string@DU?$char_traits@D@std@@V?$allocator@D@2@@std@@IAEXII@Z ; std::basic_string<char,std::char_traits<char>,std::allocator<char> >::_Copy

; 1490 : 		return (0 < _Newsize);	// return true only if more work to do

  00025	33 c0		 xor	 eax, eax
  00027	3b c6		 cmp	 eax, esi
  00029	1b c0		 sbb	 eax, eax
  0002b	5e		 pop	 esi
  0002c	f7 d8		 neg	 eax
  0002e	5d		 pop	 ebp

; 1491 : 		}

  0002f	c2 08 00	 ret	 8
$L147735:

; 1485 : 		else if (_Trim && _Newsize < _BUF_SIZE)

  00032	8a 4c 24 10	 mov	 cl, BYTE PTR __Trim$[esp+4]
  00036	84 c9		 test	 cl, cl
  00038	74 5c		 je	 SHORT $L147737
  0003a	83 fe 10	 cmp	 esi, 16			; 00000010H
  0003d	73 57		 jae	 SHORT $L147737
  0003f	53		 push	 ebx

; 1486 : 			_Tidy(true,	// copy and deallocate if trimming to small string
; 1487 : 				_Newsize < _Mysize ? _Newsize : _Mysize);

  00040	8b 5d 14	 mov	 ebx, DWORD PTR [ebp+20]
  00043	3b f3		 cmp	 esi, ebx
  00045	73 02		 jae	 SHORT $L157030
  00047	8b de		 mov	 ebx, esi
$L157030:
  00049	83 f8 10	 cmp	 eax, 16			; 00000010H
  0004c	72 2b		 jb	 SHORT $L157090
  0004e	85 db		 test	 ebx, ebx
  00050	8b 45 04	 mov	 eax, DWORD PTR [ebp+4]
  00053	57		 push	 edi
  00054	8d 7d 04	 lea	 edi, DWORD PTR [ebp+4]
  00057	76 16		 jbe	 SHORT $L157089
  00059	8b cb		 mov	 ecx, ebx
  0005b	8b d1		 mov	 edx, ecx
  0005d	c1 e9 02	 shr	 ecx, 2
  00060	8b f0		 mov	 esi, eax
  00062	f3 a5		 rep movsd
  00064	8b ca		 mov	 ecx, edx
  00066	83 e1 03	 and	 ecx, 3
  00069	f3 a4		 rep movsb
  0006b	8b 74 24 14	 mov	 esi, DWORD PTR __Newsize$[esp+12]
$L157089:
  0006f	50		 push	 eax
  00070	e8 00 00 00 00	 call	 ??3@YAXPAX@Z		; operator delete
  00075	83 c4 04	 add	 esp, 4
  00078	5f		 pop	 edi
$L157090:
  00079	89 5d 14	 mov	 DWORD PTR [ebp+20], ebx

; 1490 : 		return (0 < _Newsize);	// return true only if more work to do

  0007c	33 c0		 xor	 eax, eax
  0007e	c7 45 18 0f 00
	00 00		 mov	 DWORD PTR [ebp+24], 15	; 0000000fH
  00085	c6 44 2b 04 00	 mov	 BYTE PTR [ebx+ebp+4], 0
  0008a	3b c6		 cmp	 eax, esi
  0008c	5b		 pop	 ebx
  0008d	1b c0		 sbb	 eax, eax
  0008f	5e		 pop	 esi
  00090	f7 d8		 neg	 eax
  00092	5d		 pop	 ebp

; 1491 : 		}

  00093	c2 08 00	 ret	 8
$L147737:

; 1488 : 		else if (_Newsize == 0)

  00096	85 f6		 test	 esi, esi
  00098	75 23		 jne	 SHORT $L157121

; 1489 : 			_Eos(0);	// new size is zero, just null terminate

  0009a	83 f8 10	 cmp	 eax, 16			; 00000010H
  0009d	89 75 14	 mov	 DWORD PTR [ebp+20], esi
  000a0	72 14		 jb	 SHORT $L157119
  000a2	8b 6d 04	 mov	 ebp, DWORD PTR [ebp+4]

; 1490 : 		return (0 < _Newsize);	// return true only if more work to do

  000a5	33 c0		 xor	 eax, eax
  000a7	3b c6		 cmp	 eax, esi
  000a9	1b c0		 sbb	 eax, eax
  000ab	5e		 pop	 esi
  000ac	c6 45 00 00	 mov	 BYTE PTR [ebp], 0
  000b0	f7 d8		 neg	 eax
  000b2	5d		 pop	 ebp

; 1491 : 		}

  000b3	c2 08 00	 ret	 8

; 1489 : 			_Eos(0);	// new size is zero, just null terminate

$L157119:
  000b6	83 c5 04	 add	 ebp, 4
  000b9	c6 45 00 00	 mov	 BYTE PTR [ebp], 0
$L157121:

; 1490 : 		return (0 < _Newsize);	// return true only if more work to do

  000bd	33 c0		 xor	 eax, eax
  000bf	3b c6		 cmp	 eax, esi
  000c1	1b c0		 sbb	 eax, eax
  000c3	5e		 pop	 esi
  000c4	f7 d8		 neg	 eax
  000c6	5d		 pop	 ebp

; 1491 : 		}

  000c7	c2 08 00	 ret	 8
?_Grow@?$basic_string@DU?$char_traits@D@std@@V?$allocator@D@2@@std@@IAE_NI_N@Z ENDP ; std::basic_string<char,std::char_traits<char>,std::allocator<char> >::_Grow
_TEXT	ENDS
PUBLIC	??1?$deque@PAV?$CMyBucket@PAVCClientSockE@@@@V?$allocator@PAV?$CMyBucket@PAVCClientSockE@@@@@std@@@std@@QAE@XZ ; std::deque<CMyBucket<CClientSockE *> *,std::allocator<CMyBucket<CClientSockE *> *> >::~deque<CMyBucket<CClientSockE *> *,std::allocator<CMyBucket<CClientSockE *> *> >
; Function compile flags: /Ogty
; File c:\program files\microsoft visual studio .net 2003\vc7\include\deque
;	COMDAT ??1?$deque@PAV?$CMyBucket@PAVCClientSockE@@@@V?$allocator@PAV?$CMyBucket@PAVCClientSockE@@@@@std@@@std@@QAE@XZ
_TEXT	SEGMENT
??1?$deque@PAV?$CMyBucket@PAVCClientSockE@@@@V?$allocator@PAV?$CMyBucket@PAVCClientSockE@@@@@std@@@std@@QAE@XZ PROC NEAR ; std::deque<CMyBucket<CClientSockE *> *,std::allocator<CMyBucket<CClientSockE *> *> >::~deque<CMyBucket<CClientSockE *> *,std::allocator<CMyBucket<CClientSockE *> *> >, COMDAT
; _this$ = ecx

; 414  : 		_Tidy();

  00000	e9 00 00 00 00	 jmp	 ?_Tidy@?$deque@PAV?$CMyBucket@PAVCClientSockE@@@@V?$allocator@PAV?$CMyBucket@PAVCClientSockE@@@@@std@@@std@@IAEXXZ ; std::deque<CMyBucket<CClientSockE *> *,std::allocator<CMyBucket<CClientSockE *> *> >::_Tidy
??1?$deque@PAV?$CMyBucket@PAVCClientSockE@@@@V?$allocator@PAV?$CMyBucket@PAVCClientSockE@@@@@std@@@std@@QAE@XZ ENDP ; std::deque<CMyBucket<CClientSockE *> *,std::allocator<CMyBucket<CClientSockE *> *> >::~deque<CMyBucket<CClientSockE *> *,std::allocator<CMyBucket<CClientSockE *> *> >
_TEXT	ENDS
PUBLIC	??1?$list@PAV?$CMyBucket@PAVCClientSockE@@@@V?$allocator@PAV?$CMyBucket@PAVCClientSockE@@@@@std@@@std@@QAE@XZ ; std::list<CMyBucket<CClientSockE *> *,std::allocator<CMyBucket<CClientSockE *> *> >::~list<CMyBucket<CClientSockE *> *,std::allocator<CMyBucket<CClientSockE *> *> >
; Function compile flags: /Ogty
; File c:\program files\microsoft visual studio .net 2003\vc7\include\list
;	COMDAT ??1?$list@PAV?$CMyBucket@PAVCClientSockE@@@@V?$allocator@PAV?$CMyBucket@PAVCClientSockE@@@@@std@@@std@@QAE@XZ
_TEXT	SEGMENT
??1?$list@PAV?$CMyBucket@PAVCClientSockE@@@@V?$allocator@PAV?$CMyBucket@PAVCClientSockE@@@@@std@@@std@@QAE@XZ PROC NEAR ; std::list<CMyBucket<CClientSockE *> *,std::allocator<CMyBucket<CClientSockE *> *> >::~list<CMyBucket<CClientSockE *> *,std::allocator<CMyBucket<CClientSockE *> *> >, COMDAT
; _this$ = ecx

; 364  : 		{	// destroy the object

  00000	56		 push	 esi
  00001	8b f1		 mov	 esi, ecx

; 365  : 		_Tidy();

  00003	e8 00 00 00 00	 call	 ?clear@?$list@PAV?$CMyBucket@PAVCClientSockE@@@@V?$allocator@PAV?$CMyBucket@PAVCClientSockE@@@@@std@@@std@@QAEXXZ ; std::list<CMyBucket<CClientSockE *> *,std::allocator<CMyBucket<CClientSockE *> *> >::clear
  00008	8b 46 04	 mov	 eax, DWORD PTR [esi+4]
  0000b	50		 push	 eax
  0000c	e8 00 00 00 00	 call	 ??3@YAXPAX@Z		; operator delete
  00011	83 c4 04	 add	 esp, 4
  00014	c7 46 04 00 00
	00 00		 mov	 DWORD PTR [esi+4], 0
  0001b	5e		 pop	 esi

; 366  : 		}

  0001c	c3		 ret	 0
??1?$list@PAV?$CMyBucket@PAVCClientSockE@@@@V?$allocator@PAV?$CMyBucket@PAVCClientSockE@@@@@std@@@std@@QAE@XZ ENDP ; std::list<CMyBucket<CClientSockE *> *,std::allocator<CMyBucket<CClientSockE *> *> >::~list<CMyBucket<CClientSockE *> *,std::allocator<CMyBucket<CClientSockE *> *> >
_TEXT	ENDS
PUBLIC	??0?$stack@PAV?$CMyBucket@PAVCClientSockE@@@@V?$deque@PAV?$CMyBucket@PAVCClientSockE@@@@V?$allocator@PAV?$CMyBucket@PAVCClientSockE@@@@@std@@@std@@@std@@QAE@XZ ; std::stack<CMyBucket<CClientSockE *> *,std::deque<CMyBucket<CClientSockE *> *,std::allocator<CMyBucket<CClientSockE *> *> > >::stack<CMyBucket<CClientSockE *> *,std::deque<CMyBucket<CClientSockE *> *,std::allocator<CMyBucket<CClientSockE *> *> > >
; Function compile flags: /Ogty
; File c:\program files\microsoft visual studio .net 2003\vc7\include\stack
;	COMDAT ??0?$stack@PAV?$CMyBucket@PAVCClientSockE@@@@V?$deque@PAV?$CMyBucket@PAVCClientSockE@@@@V?$allocator@PAV?$CMyBucket@PAVCClientSockE@@@@@std@@@std@@@std@@QAE@XZ
_TEXT	SEGMENT
??0?$stack@PAV?$CMyBucket@PAVCClientSockE@@@@V?$deque@PAV?$CMyBucket@PAVCClientSockE@@@@V?$allocator@PAV?$CMyBucket@PAVCClientSockE@@@@@std@@@std@@@std@@QAE@XZ PROC NEAR ; std::stack<CMyBucket<CClientSockE *> *,std::deque<CMyBucket<CClientSockE *> *,std::allocator<CMyBucket<CClientSockE *> *> > >::stack<CMyBucket<CClientSockE *> *,std::deque<CMyBucket<CClientSockE *> *,std::allocator<CMyBucket<CClientSockE *> *> > >, COMDAT
; _this$ = ecx

; 23   : 		{	// construct with empty container

  00000	8b c1		 mov	 eax, ecx
  00002	33 c9		 xor	 ecx, ecx
  00004	89 48 04	 mov	 DWORD PTR [eax+4], ecx
  00007	89 48 08	 mov	 DWORD PTR [eax+8], ecx
  0000a	89 48 0c	 mov	 DWORD PTR [eax+12], ecx
  0000d	89 48 10	 mov	 DWORD PTR [eax+16], ecx

; 24   : 		}

  00010	c3		 ret	 0
??0?$stack@PAV?$CMyBucket@PAVCClientSockE@@@@V?$deque@PAV?$CMyBucket@PAVCClientSockE@@@@V?$allocator@PAV?$CMyBucket@PAVCClientSockE@@@@@std@@@std@@@std@@QAE@XZ ENDP ; std::stack<CMyBucket<CClientSockE *> *,std::deque<CMyBucket<CClientSockE *> *,std::allocator<CMyBucket<CClientSockE *> *> > >::stack<CMyBucket<CClientSockE *> *,std::deque<CMyBucket<CClientSockE *> *,std::allocator<CMyBucket<CClientSockE *> *> > >
_TEXT	ENDS
PUBLIC	?top@?$stack@PAV?$CMyBucket@PAVCClientSockE@@@@V?$deque@PAV?$CMyBucket@PAVCClientSockE@@@@V?$allocator@PAV?$CMyBucket@PAVCClientSockE@@@@@std@@@std@@@std@@QAEAAPAV?$CMyBucket@PAVCClientSockE@@@@XZ ; std::stack<CMyBucket<CClientSockE *> *,std::deque<CMyBucket<CClientSockE *> *,std::allocator<CMyBucket<CClientSockE *> *> > >::top
; Function compile flags: /Ogty
;	COMDAT ?top@?$stack@PAV?$CMyBucket@PAVCClientSockE@@@@V?$deque@PAV?$CMyBucket@PAVCClientSockE@@@@V?$allocator@PAV?$CMyBucket@PAVCClientSockE@@@@@std@@@std@@@std@@QAEAAPAV?$CMyBucket@PAVCClientSockE@@@@XZ
_TEXT	SEGMENT
?top@?$stack@PAV?$CMyBucket@PAVCClientSockE@@@@V?$deque@PAV?$CMyBucket@PAVCClientSockE@@@@V?$allocator@PAV?$CMyBucket@PAVCClientSockE@@@@@std@@@std@@@std@@QAEAAPAV?$CMyBucket@PAVCClientSockE@@@@XZ PROC NEAR ; std::stack<CMyBucket<CClientSockE *> *,std::deque<CMyBucket<CClientSockE *> *,std::allocator<CMyBucket<CClientSockE *> *> > >::top, COMDAT
; _this$ = ecx

; 43   : 		return (c.back());

  00000	8b 41 10	 mov	 eax, DWORD PTR [ecx+16]
  00003	56		 push	 esi
  00004	03 41 0c	 add	 eax, DWORD PTR [ecx+12]
  00007	48		 dec	 eax
  00008	8b d1		 mov	 edx, ecx
  0000a	8b c8		 mov	 ecx, eax
  0000c	c1 e8 02	 shr	 eax, 2
  0000f	8d 34 85 00 00
	00 00		 lea	 esi, DWORD PTR [eax*4]
  00016	2b ce		 sub	 ecx, esi
  00018	8b 72 08	 mov	 esi, DWORD PTR [edx+8]
  0001b	3b f0		 cmp	 esi, eax
  0001d	77 02		 ja	 SHORT $L157277
  0001f	2b c6		 sub	 eax, esi
$L157277:
  00021	8b 52 04	 mov	 edx, DWORD PTR [edx+4]
  00024	8b 04 82	 mov	 eax, DWORD PTR [edx+eax*4]
  00027	8d 04 88	 lea	 eax, DWORD PTR [eax+ecx*4]
  0002a	5e		 pop	 esi

; 44   : 		}

  0002b	c3		 ret	 0
?top@?$stack@PAV?$CMyBucket@PAVCClientSockE@@@@V?$deque@PAV?$CMyBucket@PAVCClientSockE@@@@V?$allocator@PAV?$CMyBucket@PAVCClientSockE@@@@@std@@@std@@@std@@QAEAAPAV?$CMyBucket@PAVCClientSockE@@@@XZ ENDP ; std::stack<CMyBucket<CClientSockE *> *,std::deque<CMyBucket<CClientSockE *> *,std::allocator<CMyBucket<CClientSockE *> *> > >::top
_TEXT	ENDS
PUBLIC	??0?$list@PAV?$CMyBucket@PAVCClientSockE@@@@V?$allocator@PAV?$CMyBucket@PAVCClientSockE@@@@@std@@@std@@QAE@XZ ; std::list<CMyBucket<CClientSockE *> *,std::allocator<CMyBucket<CClientSockE *> *> >::list<CMyBucket<CClientSockE *> *,std::allocator<CMyBucket<CClientSockE *> *> >
; Function compile flags: /Ogty
; File c:\program files\microsoft visual studio .net 2003\vc7\include\list
;	COMDAT ??0?$list@PAV?$CMyBucket@PAVCClientSockE@@@@V?$allocator@PAV?$CMyBucket@PAVCClientSockE@@@@@std@@@std@@QAE@XZ
_TEXT	SEGMENT
??0?$list@PAV?$CMyBucket@PAVCClientSockE@@@@V?$allocator@PAV?$CMyBucket@PAVCClientSockE@@@@@std@@@std@@QAE@XZ PROC NEAR ; std::list<CMyBucket<CClientSockE *> *,std::allocator<CMyBucket<CClientSockE *> *> >::list<CMyBucket<CClientSockE *> *,std::allocator<CMyBucket<CClientSockE *> *> >, COMDAT
; _this$ = ecx

; 280  : 		{	// construct empty list

  00000	56		 push	 esi
  00001	8b f1		 mov	 esi, ecx
  00003	e8 00 00 00 00	 call	 ?_Buynode@?$list@PAV?$CMyBucket@PAVCClientSockE@@@@V?$allocator@PAV?$CMyBucket@PAVCClientSockE@@@@@std@@@std@@IAEPAU_Node@?$_List_nod@PAV?$CMyBucket@PAVCClientSockE@@@@V?$allocator@PAV?$CMyBucket@PAVCClientSockE@@@@@std@@@2@XZ ; std::list<CMyBucket<CClientSockE *> *,std::allocator<CMyBucket<CClientSockE *> *> >::_Buynode
  00008	89 46 04	 mov	 DWORD PTR [esi+4], eax
  0000b	c7 46 08 00 00
	00 00		 mov	 DWORD PTR [esi+8], 0

; 281  : 		}

  00012	8b c6		 mov	 eax, esi
  00014	5e		 pop	 esi
  00015	c3		 ret	 0
??0?$list@PAV?$CMyBucket@PAVCClientSockE@@@@V?$allocator@PAV?$CMyBucket@PAVCClientSockE@@@@@std@@@std@@QAE@XZ ENDP ; std::list<CMyBucket<CClientSockE *> *,std::allocator<CMyBucket<CClientSockE *> *> >::list<CMyBucket<CClientSockE *> *,std::allocator<CMyBucket<CClientSockE *> *> >
_TEXT	ENDS
PUBLIC	??1logic_error@std@@UAE@XZ			; std::logic_error::~logic_error
PUBLIC	?what@logic_error@std@@UBEPBDXZ			; std::logic_error::what
PUBLIC	??_7logic_error@std@@6B@			; std::logic_error::`vftable'
PUBLIC	??_Glogic_error@std@@UAEPAXI@Z			; std::logic_error::`scalar deleting destructor'
EXTRN	??_Elogic_error@std@@UAEPAXI@Z:NEAR		; std::logic_error::`vector deleting destructor'
EXTRN	??1exception@@UAE@XZ:NEAR			; exception::~exception
;	COMDAT ??_7logic_error@std@@6B@
; File c:\program files\microsoft visual studio .net 2003\vc7\include\iosfwd
CONST	SEGMENT
??_7logic_error@std@@6B@ DD FLAT:??_Elogic_error@std@@UAEPAXI@Z ; std::logic_error::`vftable'
	DD	FLAT:?what@logic_error@std@@UBEPBDXZ
; Function compile flags: /Ogty
; File c:\program files\microsoft visual studio .net 2003\vc7\include\stdexcept
CONST	ENDS
;	COMDAT ??1logic_error@std@@UAE@XZ
_TEXT	SEGMENT
??1logic_error@std@@UAE@XZ PROC NEAR			; std::logic_error::~logic_error, COMDAT
; _this$ = ecx

; 23   : 		{}	// destroy the object

  00000	56		 push	 esi
  00001	8b f1		 mov	 esi, ecx
  00003	c7 06 00 00 00
	00		 mov	 DWORD PTR [esi], OFFSET FLAT:??_7logic_error@std@@6B@
  00009	83 7e 24 10	 cmp	 DWORD PTR [esi+36], 16	; 00000010H
  0000d	72 0c		 jb	 SHORT $L157410
  0000f	8b 46 10	 mov	 eax, DWORD PTR [esi+16]
  00012	50		 push	 eax
  00013	e8 00 00 00 00	 call	 ??3@YAXPAX@Z		; operator delete
  00018	83 c4 04	 add	 esp, 4
$L157410:
  0001b	33 c0		 xor	 eax, eax
  0001d	c7 46 24 0f 00
	00 00		 mov	 DWORD PTR [esi+36], 15	; 0000000fH
  00024	89 46 20	 mov	 DWORD PTR [esi+32], eax
  00027	88 46 10	 mov	 BYTE PTR [esi+16], al
  0002a	8b ce		 mov	 ecx, esi
  0002c	5e		 pop	 esi
  0002d	e9 00 00 00 00	 jmp	 ??1exception@@UAE@XZ	; exception::~exception
??1logic_error@std@@UAE@XZ ENDP				; std::logic_error::~logic_error
; Function compile flags: /Ogty
_TEXT	ENDS
;	COMDAT ?what@logic_error@std@@UBEPBDXZ
_TEXT	SEGMENT
?what@logic_error@std@@UBEPBDXZ PROC NEAR		; std::logic_error::what, COMDAT
; _this$ = ecx

; 27   : 		return (_Str.c_str());

  00000	83 79 24 10	 cmp	 DWORD PTR [ecx+36], 16	; 00000010H
  00004	72 04		 jb	 SHORT $L157438
  00006	8b 41 10	 mov	 eax, DWORD PTR [ecx+16]

; 28   : 		}

  00009	c3		 ret	 0

; 27   : 		return (_Str.c_str());

$L157438:
  0000a	8d 41 10	 lea	 eax, DWORD PTR [ecx+16]

; 28   : 		}

  0000d	c3		 ret	 0
?what@logic_error@std@@UBEPBDXZ ENDP			; std::logic_error::what
; Function compile flags: /Ogty
_TEXT	ENDS
;	COMDAT ??_Glogic_error@std@@UAEPAXI@Z
_TEXT	SEGMENT
___flags$ = 8						; size = 4
??_Glogic_error@std@@UAEPAXI@Z PROC NEAR		; std::logic_error::`scalar deleting destructor', COMDAT
; _this$ = ecx
  00000	56		 push	 esi
  00001	8b f1		 mov	 esi, ecx
  00003	e8 00 00 00 00	 call	 ??1logic_error@std@@UAE@XZ ; std::logic_error::~logic_error
  00008	f6 44 24 08 01	 test	 BYTE PTR ___flags$[esp], 1
  0000d	74 09		 je	 SHORT $L157444
  0000f	56		 push	 esi
  00010	e8 00 00 00 00	 call	 ??3@YAXPAX@Z		; operator delete
  00015	83 c4 04	 add	 esp, 4
$L157444:
  00018	8b c6		 mov	 eax, esi
  0001a	5e		 pop	 esi
  0001b	c2 04 00	 ret	 4
??_Glogic_error@std@@UAEPAXI@Z ENDP			; std::logic_error::`scalar deleting destructor'
_TEXT	ENDS
PUBLIC	?assign@?$basic_string@DU?$char_traits@D@std@@V?$allocator@D@2@@std@@QAEAAV12@ABV12@II@Z ; std::basic_string<char,std::char_traits<char>,std::allocator<char> >::assign
; Function compile flags: /Ogty
; File c:\program files\microsoft visual studio .net 2003\vc7\include\xstring
;	COMDAT ?assign@?$basic_string@DU?$char_traits@D@std@@V?$allocator@D@2@@std@@QAEAAV12@ABV12@II@Z
_TEXT	SEGMENT
__Right$ = 8						; size = 4
__Roff$ = 12						; size = 4
__Count$ = 16						; size = 4
?assign@?$basic_string@DU?$char_traits@D@std@@V?$allocator@D@2@@std@@QAEAAV12@ABV12@II@Z PROC NEAR ; std::basic_string<char,std::char_traits<char>,std::allocator<char> >::assign, COMDAT
; _this$ = ecx

; 590  : 		{	// assign _Right [_Roff, _Roff + _Count)

  00000	53		 push	 ebx
  00001	55		 push	 ebp
  00002	56		 push	 esi

; 591  : 		if (_Right.size() < _Roff)

  00003	8b 74 24 14	 mov	 esi, DWORD PTR __Roff$[esp+8]
  00007	57		 push	 edi
  00008	8b 7c 24 14	 mov	 edi, DWORD PTR __Right$[esp+12]
  0000c	39 77 14	 cmp	 DWORD PTR [edi+20], esi
  0000f	8b d9		 mov	 ebx, ecx
  00011	73 05		 jae	 SHORT $L147398

; 592  : 			_String_base::_Xran();	// _Roff off end

  00013	e8 00 00 00 00	 call	 ?_Xran@_String_base@std@@QBEXXZ ; std::_String_base::_Xran
$L147398:

; 593  : 		size_type _Num = _Right.size() - _Roff;

  00018	8b 6f 14	 mov	 ebp, DWORD PTR [edi+20]

; 594  : 		if (_Count < _Num)

  0001b	8b 44 24 1c	 mov	 eax, DWORD PTR __Count$[esp+12]
  0001f	2b ee		 sub	 ebp, esi
  00021	3b c5		 cmp	 eax, ebp
  00023	73 02		 jae	 SHORT $L147400

; 595  : 			_Num = _Count;	// trim _Num to size

  00025	8b e8		 mov	 ebp, eax
$L147400:

; 596  : 
; 597  : 		if (this == &_Right)

  00027	3b df		 cmp	 ebx, edi
  00029	75 1f		 jne	 SHORT $L147401

; 598  : 			erase((size_type)(_Roff + _Num)), erase(0, _Roff);	// substring

  0002b	6a ff		 push	 -1
  0002d	03 ee		 add	 ebp, esi
  0002f	55		 push	 ebp
  00030	8b cb		 mov	 ecx, ebx
  00032	e8 00 00 00 00	 call	 ?erase@?$basic_string@DU?$char_traits@D@std@@V?$allocator@D@2@@std@@QAEAAV12@II@Z ; std::basic_string<char,std::char_traits<char>,std::allocator<char> >::erase
  00037	56		 push	 esi
  00038	6a 00		 push	 0
  0003a	8b cb		 mov	 ecx, ebx
  0003c	e8 00 00 00 00	 call	 ?erase@?$basic_string@DU?$char_traits@D@std@@V?$allocator@D@2@@std@@QAEAAV12@II@Z ; std::basic_string<char,std::char_traits<char>,std::allocator<char> >::erase
  00041	5f		 pop	 edi
  00042	5e		 pop	 esi
  00043	5d		 pop	 ebp

; 603  : 			}
; 604  : 		return (*this);

  00044	8b c3		 mov	 eax, ebx
  00046	5b		 pop	 ebx

; 605  : 		}

  00047	c2 0c 00	 ret	 12			; 0000000cH
$L147401:

; 599  : 		else if (_Grow(_Num))

  0004a	83 fd fe	 cmp	 ebp, -2			; fffffffeH
  0004d	76 07		 jbe	 SHORT $L157553
  0004f	8b cb		 mov	 ecx, ebx
  00051	e8 00 00 00 00	 call	 ?_Xlen@_String_base@std@@QBEXXZ ; std::_String_base::_Xlen
$L157553:
  00056	8b 43 18	 mov	 eax, DWORD PTR [ebx+24]
  00059	3b c5		 cmp	 eax, ebp
  0005b	73 21		 jae	 SHORT $L157554
  0005d	8b 43 14	 mov	 eax, DWORD PTR [ebx+20]
  00060	50		 push	 eax
  00061	55		 push	 ebp
  00062	8b cb		 mov	 ecx, ebx
  00064	e8 00 00 00 00	 call	 ?_Copy@?$basic_string@DU?$char_traits@D@std@@V?$allocator@D@2@@std@@IAEXII@Z ; std::basic_string<char,std::char_traits<char>,std::allocator<char> >::_Copy
  00069	85 ed		 test	 ebp, ebp
$L157641:
  0006b	76 6d		 jbe	 SHORT $L157640

; 600  : 			{	// make room and assign new stuff
; 601  : 			_Traits::copy(_Myptr(), _Right._Myptr() + _Roff, _Num);

  0006d	8b 4f 18	 mov	 ecx, DWORD PTR [edi+24]
  00070	b8 10 00 00 00	 mov	 eax, 16			; 00000010H
  00075	3b c8		 cmp	 ecx, eax
  00077	72 2f		 jb	 SHORT $L157606
  00079	8b 57 04	 mov	 edx, DWORD PTR [edi+4]
  0007c	eb 2d		 jmp	 SHORT $L157607

; 599  : 		else if (_Grow(_Num))

$L157554:
  0007e	85 ed		 test	 ebp, ebp
  00080	75 e9		 jne	 SHORT $L157641
  00082	83 f8 10	 cmp	 eax, 16			; 00000010H
  00085	89 6b 14	 mov	 DWORD PTR [ebx+20], ebp
  00088	72 0f		 jb	 SHORT $L157597
  0008a	8b 43 04	 mov	 eax, DWORD PTR [ebx+4]
  0008d	5f		 pop	 edi
  0008e	5e		 pop	 esi
  0008f	c6 00 00	 mov	 BYTE PTR [eax], 0
  00092	5d		 pop	 ebp

; 603  : 			}
; 604  : 		return (*this);

  00093	8b c3		 mov	 eax, ebx
  00095	5b		 pop	 ebx

; 605  : 		}

  00096	c2 0c 00	 ret	 12			; 0000000cH

; 599  : 		else if (_Grow(_Num))

$L157597:
  00099	5f		 pop	 edi
  0009a	8d 43 04	 lea	 eax, DWORD PTR [ebx+4]
  0009d	5e		 pop	 esi
  0009e	c6 00 00	 mov	 BYTE PTR [eax], 0
  000a1	5d		 pop	 ebp

; 603  : 			}
; 604  : 		return (*this);

  000a2	8b c3		 mov	 eax, ebx
  000a4	5b		 pop	 ebx

; 605  : 		}

  000a5	c2 0c 00	 ret	 12			; 0000000cH

; 600  : 			{	// make room and assign new stuff
; 601  : 			_Traits::copy(_Myptr(), _Right._Myptr() + _Roff, _Num);

$L157606:
  000a8	8d 57 04	 lea	 edx, DWORD PTR [edi+4]
$L157607:
  000ab	39 43 18	 cmp	 DWORD PTR [ebx+24], eax
  000ae	8d 43 04	 lea	 eax, DWORD PTR [ebx+4]
  000b1	72 04		 jb	 SHORT $L157613
  000b3	8b 38		 mov	 edi, DWORD PTR [eax]
  000b5	eb 02		 jmp	 SHORT $L157614
$L157613:
  000b7	8b f8		 mov	 edi, eax
$L157614:
  000b9	03 f2		 add	 esi, edx
  000bb	8b cd		 mov	 ecx, ebp
  000bd	8b d1		 mov	 edx, ecx
  000bf	c1 e9 02	 shr	 ecx, 2
  000c2	f3 a5		 rep movsd
  000c4	8b ca		 mov	 ecx, edx
  000c6	83 e1 03	 and	 ecx, 3
  000c9	f3 a4		 rep movsb

; 602  : 			_Eos(_Num);

  000cb	83 7b 18 10	 cmp	 DWORD PTR [ebx+24], 16	; 00000010H
  000cf	89 6b 14	 mov	 DWORD PTR [ebx+20], ebp
  000d2	72 02		 jb	 SHORT $L157637
  000d4	8b 00		 mov	 eax, DWORD PTR [eax]
$L157637:
  000d6	c6 04 28 00	 mov	 BYTE PTR [eax+ebp], 0
$L157640:
  000da	5f		 pop	 edi
  000db	5e		 pop	 esi
  000dc	5d		 pop	 ebp

; 603  : 			}
; 604  : 		return (*this);

  000dd	8b c3		 mov	 eax, ebx
  000df	5b		 pop	 ebx

; 605  : 		}

  000e0	c2 0c 00	 ret	 12			; 0000000cH
?assign@?$basic_string@DU?$char_traits@D@std@@V?$allocator@D@2@@std@@QAEAAV12@ABV12@II@Z ENDP ; std::basic_string<char,std::char_traits<char>,std::allocator<char> >::assign
_TEXT	ENDS
PUBLIC	?assign@?$basic_string@DU?$char_traits@D@std@@V?$allocator@D@2@@std@@QAEAAV12@PBDI@Z ; std::basic_string<char,std::char_traits<char>,std::allocator<char> >::assign
; Function compile flags: /Ogty
;	COMDAT ?assign@?$basic_string@DU?$char_traits@D@std@@V?$allocator@D@2@@std@@QAEAAV12@PBDI@Z
_TEXT	SEGMENT
__Ptr$ = 8						; size = 4
__Num$ = 12						; size = 4
?assign@?$basic_string@DU?$char_traits@D@std@@V?$allocator@D@2@@std@@QAEAAV12@PBDI@Z PROC NEAR ; std::basic_string<char,std::char_traits<char>,std::allocator<char> >::assign, COMDAT
; _this$ = ecx

; 608  : 		{	// assign [_Ptr, _Ptr + _Num)

  00000	53		 push	 ebx
  00001	8b d9		 mov	 ebx, ecx

; 609  : 		if (_Inside(_Ptr))

  00003	8b 53 18	 mov	 edx, DWORD PTR [ebx+24]
  00006	83 fa 10	 cmp	 edx, 16			; 00000010H
  00009	56		 push	 esi
  0000a	57		 push	 edi
  0000b	72 05		 jb	 SHORT $L157667
  0000d	8b 43 04	 mov	 eax, DWORD PTR [ebx+4]
  00010	eb 03		 jmp	 SHORT $L157668
$L157667:
  00012	8d 43 04	 lea	 eax, DWORD PTR [ebx+4]
$L157668:
  00015	8b 74 24 10	 mov	 esi, DWORD PTR __Ptr$[esp+8]
  00019	3b f0		 cmp	 esi, eax
  0001b	72 34		 jb	 SHORT $L147721
  0001d	83 fa 10	 cmp	 edx, 16			; 00000010H
  00020	8d 43 04	 lea	 eax, DWORD PTR [ebx+4]
  00023	72 04		 jb	 SHORT $L157671
  00025	8b 08		 mov	 ecx, DWORD PTR [eax]
  00027	eb 02		 jmp	 SHORT $L157672
$L157671:
  00029	8b c8		 mov	 ecx, eax
$L157672:
  0002b	8b 7b 14	 mov	 edi, DWORD PTR [ebx+20]
  0002e	03 f9		 add	 edi, ecx
  00030	3b fe		 cmp	 edi, esi
  00032	76 1d		 jbe	 SHORT $L147721

; 610  : 			return (assign(*this, _Ptr - _Myptr(), _Num));	// substring

  00034	83 fa 10	 cmp	 edx, 16			; 00000010H
  00037	72 02		 jb	 SHORT $L157680
  00039	8b 00		 mov	 eax, DWORD PTR [eax]
$L157680:
  0003b	8b 4c 24 14	 mov	 ecx, DWORD PTR __Num$[esp+8]
  0003f	51		 push	 ecx
  00040	2b f0		 sub	 esi, eax
  00042	56		 push	 esi
  00043	53		 push	 ebx
  00044	8b cb		 mov	 ecx, ebx
  00046	e8 00 00 00 00	 call	 ?assign@?$basic_string@DU?$char_traits@D@std@@V?$allocator@D@2@@std@@QAEAAV12@ABV12@II@Z ; std::basic_string<char,std::char_traits<char>,std::allocator<char> >::assign
  0004b	5f		 pop	 edi
  0004c	5e		 pop	 esi
  0004d	5b		 pop	 ebx

; 618  : 		}

  0004e	c2 08 00	 ret	 8
$L147721:
  00051	55		 push	 ebp

; 611  : 
; 612  : 		if (_Grow(_Num))

  00052	8b 6c 24 18	 mov	 ebp, DWORD PTR __Num$[esp+12]
  00056	83 fd fe	 cmp	 ebp, -2			; fffffffeH
  00059	76 07		 jbe	 SHORT $L157816
  0005b	8b cb		 mov	 ecx, ebx
  0005d	e8 00 00 00 00	 call	 ?_Xlen@_String_base@std@@QBEXXZ ; std::_String_base::_Xlen
$L157816:
  00062	8b 43 18	 mov	 eax, DWORD PTR [ebx+24]
  00065	3b c5		 cmp	 eax, ebp
  00067	73 1b		 jae	 SHORT $L157817
  00069	8b 53 14	 mov	 edx, DWORD PTR [ebx+20]
  0006c	52		 push	 edx
  0006d	55		 push	 ebp
  0006e	8b cb		 mov	 ecx, ebx
  00070	e8 00 00 00 00	 call	 ?_Copy@?$basic_string@DU?$char_traits@D@std@@V?$allocator@D@2@@std@@IAEXII@Z ; std::basic_string<char,std::char_traits<char>,std::allocator<char> >::_Copy
  00075	85 ed		 test	 ebp, ebp
$L157859:
  00077	76 68		 jbe	 SHORT $L157856

; 613  : 			{	// make room and assign new stuff
; 614  : 			_Traits::copy(_Myptr(), _Ptr, _Num);

  00079	83 7b 18 10	 cmp	 DWORD PTR [ebx+24], 16	; 00000010H
  0007d	72 2f		 jb	 SHORT $L157830
  0007f	8b 7b 04	 mov	 edi, DWORD PTR [ebx+4]
  00082	eb 2d		 jmp	 SHORT $L157831

; 611  : 
; 612  : 		if (_Grow(_Num))

$L157817:
  00084	85 ed		 test	 ebp, ebp
  00086	75 ef		 jne	 SHORT $L157859
  00088	83 f8 10	 cmp	 eax, 16			; 00000010H
  0008b	89 6b 14	 mov	 DWORD PTR [ebx+20], ebp
  0008e	72 0f		 jb	 SHORT $L157809
  00090	8b 43 04	 mov	 eax, DWORD PTR [ebx+4]
  00093	5d		 pop	 ebp
  00094	5f		 pop	 edi
  00095	c6 00 00	 mov	 BYTE PTR [eax], 0
  00098	5e		 pop	 esi

; 616  : 			}
; 617  : 		return (*this);

  00099	8b c3		 mov	 eax, ebx
  0009b	5b		 pop	 ebx

; 618  : 		}

  0009c	c2 08 00	 ret	 8

; 611  : 
; 612  : 		if (_Grow(_Num))

$L157809:
  0009f	5d		 pop	 ebp
  000a0	8d 43 04	 lea	 eax, DWORD PTR [ebx+4]
  000a3	5f		 pop	 edi
  000a4	c6 00 00	 mov	 BYTE PTR [eax], 0
  000a7	5e		 pop	 esi

; 616  : 			}
; 617  : 		return (*this);

  000a8	8b c3		 mov	 eax, ebx
  000aa	5b		 pop	 ebx

; 618  : 		}

  000ab	c2 08 00	 ret	 8

; 613  : 			{	// make room and assign new stuff
; 614  : 			_Traits::copy(_Myptr(), _Ptr, _Num);

$L157830:
  000ae	8d 7b 04	 lea	 edi, DWORD PTR [ebx+4]
$L157831:
  000b1	8b cd		 mov	 ecx, ebp
  000b3	8b c1		 mov	 eax, ecx
  000b5	c1 e9 02	 shr	 ecx, 2
  000b8	f3 a5		 rep movsd
  000ba	8b c8		 mov	 ecx, eax
  000bc	83 e1 03	 and	 ecx, 3
  000bf	f3 a4		 rep movsb

; 615  : 			_Eos(_Num);

  000c1	83 7b 18 10	 cmp	 DWORD PTR [ebx+24], 16	; 00000010H
  000c5	89 6b 14	 mov	 DWORD PTR [ebx+20], ebp
  000c8	72 10		 jb	 SHORT $L157852
  000ca	8b 43 04	 mov	 eax, DWORD PTR [ebx+4]
  000cd	c6 04 28 00	 mov	 BYTE PTR [eax+ebp], 0
  000d1	5d		 pop	 ebp
  000d2	5f		 pop	 edi
  000d3	5e		 pop	 esi

; 616  : 			}
; 617  : 		return (*this);

  000d4	8b c3		 mov	 eax, ebx
  000d6	5b		 pop	 ebx

; 618  : 		}

  000d7	c2 08 00	 ret	 8

; 615  : 			_Eos(_Num);

$L157852:
  000da	8d 43 04	 lea	 eax, DWORD PTR [ebx+4]
  000dd	c6 04 28 00	 mov	 BYTE PTR [eax+ebp], 0
$L157856:
  000e1	5d		 pop	 ebp
  000e2	5f		 pop	 edi
  000e3	5e		 pop	 esi

; 616  : 			}
; 617  : 		return (*this);

  000e4	8b c3		 mov	 eax, ebx
  000e6	5b		 pop	 ebx

; 618  : 		}

  000e7	c2 08 00	 ret	 8
?assign@?$basic_string@DU?$char_traits@D@std@@V?$allocator@D@2@@std@@QAEAAV12@PBDI@Z ENDP ; std::basic_string<char,std::char_traits<char>,std::allocator<char> >::assign
_TEXT	ENDS
PUBLIC	??1?$stack@PAV?$CMyBucket@PAVCClientSockE@@@@V?$deque@PAV?$CMyBucket@PAVCClientSockE@@@@V?$allocator@PAV?$CMyBucket@PAVCClientSockE@@@@@std@@@std@@@std@@QAE@XZ ; std::stack<CMyBucket<CClientSockE *> *,std::deque<CMyBucket<CClientSockE *> *,std::allocator<CMyBucket<CClientSockE *> *> > >::~stack<CMyBucket<CClientSockE *> *,std::deque<CMyBucket<CClientSockE *> *,std::allocator<CMyBucket<CClientSockE *> *> > >
; Function compile flags: /Ogty
;	COMDAT ??1?$stack@PAV?$CMyBucket@PAVCClientSockE@@@@V?$deque@PAV?$CMyBucket@PAVCClientSockE@@@@V?$allocator@PAV?$CMyBucket@PAVCClientSockE@@@@@std@@@std@@@std@@QAE@XZ
_TEXT	SEGMENT
??1?$stack@PAV?$CMyBucket@PAVCClientSockE@@@@V?$deque@PAV?$CMyBucket@PAVCClientSockE@@@@V?$allocator@PAV?$CMyBucket@PAVCClientSockE@@@@@std@@@std@@@std@@QAE@XZ PROC NEAR ; std::stack<CMyBucket<CClientSockE *> *,std::deque<CMyBucket<CClientSockE *> *,std::allocator<CMyBucket<CClientSockE *> *> > >::~stack<CMyBucket<CClientSockE *> *,std::deque<CMyBucket<CClientSockE *> *,std::allocator<CMyBucket<CClientSockE *> *> > >, COMDAT
; _this$ = ecx
  00000	e9 00 00 00 00	 jmp	 ?_Tidy@?$deque@PAV?$CMyBucket@PAVCClientSockE@@@@V?$allocator@PAV?$CMyBucket@PAVCClientSockE@@@@@std@@@std@@IAEXXZ ; std::deque<CMyBucket<CClientSockE *> *,std::allocator<CMyBucket<CClientSockE *> *> >::_Tidy
??1?$stack@PAV?$CMyBucket@PAVCClientSockE@@@@V?$deque@PAV?$CMyBucket@PAVCClientSockE@@@@V?$allocator@PAV?$CMyBucket@PAVCClientSockE@@@@@std@@@std@@@std@@QAE@XZ ENDP ; std::stack<CMyBucket<CClientSockE *> *,std::deque<CMyBucket<CClientSockE *> *,std::allocator<CMyBucket<CClientSockE *> *> > >::~stack<CMyBucket<CClientSockE *> *,std::deque<CMyBucket<CClientSockE *> *,std::allocator<CMyBucket<CClientSockE *> *> > >
_TEXT	ENDS
PUBLIC	??0?$CMyPool@V?$CMyBucket@PAVCClientSockE@@@@@@QAE@XZ ; CMyPool<CMyBucket<CClientSockE *> >::CMyPool<CMyBucket<CClientSockE *> >
PUBLIC	??_7?$CMyPool@V?$CMyBucket@PAVCClientSockE@@@@@@6B@ ; CMyPool<CMyBucket<CClientSockE *> >::`vftable'
PUBLIC	??_G?$CMyPool@V?$CMyBucket@PAVCClientSockE@@@@@@UAEPAXI@Z ; CMyPool<CMyBucket<CClientSockE *> >::`scalar deleting destructor'
EXTRN	??_E?$CMyPool@V?$CMyBucket@PAVCClientSockE@@@@@@UAEPAXI@Z:NEAR ; CMyPool<CMyBucket<CClientSockE *> >::`vector deleting destructor'
;	COMDAT xdata$x
; File c:\program files\microsoft visual studio .net 2003\vc7\include\xmemory
xdata$x	SEGMENT
$T158030 DD	0ffffffffH
	DD	FLAT:$L157870
$T158028 DD	019930520H
	DD	01H
	DD	FLAT:$T158030
	DD	2 DUP(00H)
	DD	2 DUP(00H)
xdata$x	ENDS
;	COMDAT ??_7?$CMyPool@V?$CMyBucket@PAVCClientSockE@@@@@@6B@
CONST	SEGMENT
??_7?$CMyPool@V?$CMyBucket@PAVCClientSockE@@@@@@6B@ DD FLAT:??_E?$CMyPool@V?$CMyBucket@PAVCClientSockE@@@@@@UAEPAXI@Z ; CMyPool<CMyBucket<CClientSockE *> >::`vftable'
; Function compile flags: /Ogty
; File c:\offi src_real\offi src!\_network\misc\include\mymap.h
CONST	ENDS
;	COMDAT ??0?$CMyPool@V?$CMyBucket@PAVCClientSockE@@@@@@QAE@XZ
_TEXT	SEGMENT
_this$ = -16						; size = 4
__$EHRec$ = -12						; size = 12
??0?$CMyPool@V?$CMyBucket@PAVCClientSockE@@@@@@QAE@XZ PROC NEAR ; CMyPool<CMyBucket<CClientSockE *> >::CMyPool<CMyBucket<CClientSockE *> >, COMDAT
; _this$ = ecx

; 156  : {

  00000	6a ff		 push	 -1
  00002	68 00 00 00 00	 push	 __ehhandler$??0?$CMyPool@V?$CMyBucket@PAVCClientSockE@@@@@@QAE@XZ
  00007	64 a1 00 00 00
	00		 mov	 eax, DWORD PTR fs:__except_list
  0000d	50		 push	 eax
  0000e	64 89 25 00 00
	00 00		 mov	 DWORD PTR fs:__except_list, esp
  00015	51		 push	 ecx
  00016	53		 push	 ebx
  00017	56		 push	 esi
  00018	8b f1		 mov	 esi, ecx
  0001a	33 db		 xor	 ebx, ebx
  0001c	c7 06 00 00 00
	00		 mov	 DWORD PTR [esi], OFFSET FLAT:??_7?$CMyPool@V?$CMyBucket@PAVCClientSockE@@@@@@6B@
  00022	57		 push	 edi
  00023	89 74 24 0c	 mov	 DWORD PTR _this$[esp+28], esi
  00027	89 5e 08	 mov	 DWORD PTR [esi+8], ebx
  0002a	89 5e 0c	 mov	 DWORD PTR [esi+12], ebx
  0002d	89 5e 10	 mov	 DWORD PTR [esi+16], ebx
  00030	89 5e 14	 mov	 DWORD PTR [esi+20], ebx
  00033	8d 7e 18	 lea	 edi, DWORD PTR [esi+24]
  00036	8b cf		 mov	 ecx, edi
  00038	89 5c 24 18	 mov	 DWORD PTR __$EHRec$[esp+36], ebx
  0003c	e8 00 00 00 00	 call	 ?_Buynode@?$list@PAV?$CMyBucket@PAVCClientSockE@@@@V?$allocator@PAV?$CMyBucket@PAVCClientSockE@@@@@std@@@std@@IAEPAU_Node@?$_List_nod@PAV?$CMyBucket@PAVCClientSockE@@@@V?$allocator@PAV?$CMyBucket@PAVCClientSockE@@@@@std@@@2@XZ ; std::list<CMyBucket<CClientSockE *> *,std::allocator<CMyBucket<CClientSockE *> *> >::_Buynode

; 157  : 	m_nInitialSize	= m_nGrowSize	= 0;
; 158  : }

  00041	8b 4c 24 10	 mov	 ecx, DWORD PTR __$EHRec$[esp+28]
  00045	89 47 04	 mov	 DWORD PTR [edi+4], eax
  00048	89 5f 08	 mov	 DWORD PTR [edi+8], ebx
  0004b	89 5e 24	 mov	 DWORD PTR [esi+36], ebx
  0004e	89 5e 28	 mov	 DWORD PTR [esi+40], ebx
  00051	5f		 pop	 edi
  00052	8b c6		 mov	 eax, esi
  00054	5e		 pop	 esi
  00055	5b		 pop	 ebx
  00056	64 89 0d 00 00
	00 00		 mov	 DWORD PTR fs:__except_list, ecx
  0005d	83 c4 10	 add	 esp, 16			; 00000010H
  00060	c3		 ret	 0
_TEXT	ENDS
;	COMDAT text$x
text$x	SEGMENT
$L157870:
  00000	8b 4d f0	 mov	 ecx, DWORD PTR _this$[ebp]
  00003	83 c1 04	 add	 ecx, 4
  00006	e9 00 00 00 00	 jmp	 ??1?$stack@PAV?$CMyBucket@PAVCClientSockE@@@@V?$deque@PAV?$CMyBucket@PAVCClientSockE@@@@V?$allocator@PAV?$CMyBucket@PAVCClientSockE@@@@@std@@@std@@@std@@QAE@XZ
__ehhandler$??0?$CMyPool@V?$CMyBucket@PAVCClientSockE@@@@@@QAE@XZ:
  0000b	b8 00 00 00 00	 mov	 eax, OFFSET FLAT:$T158028
  00010	e9 00 00 00 00	 jmp	 ___CxxFrameHandler
text$x	ENDS
??0?$CMyPool@V?$CMyBucket@PAVCClientSockE@@@@@@QAE@XZ ENDP ; CMyPool<CMyBucket<CClientSockE *> >::CMyPool<CMyBucket<CClientSockE *> >
PUBLIC	??0?$basic_string@DU?$char_traits@D@std@@V?$allocator@D@2@@std@@QAE@ABV01@@Z ; std::basic_string<char,std::char_traits<char>,std::allocator<char> >::basic_string<char,std::char_traits<char>,std::allocator<char> >
; Function compile flags: /Ogty
; File c:\program files\microsoft visual studio .net 2003\vc7\include\xstring
;	COMDAT ??0?$basic_string@DU?$char_traits@D@std@@V?$allocator@D@2@@std@@QAE@ABV01@@Z
_TEXT	SEGMENT
__Right$ = 8						; size = 4
??0?$basic_string@DU?$char_traits@D@std@@V?$allocator@D@2@@std@@QAE@ABV01@@Z PROC NEAR ; std::basic_string<char,std::char_traits<char>,std::allocator<char> >::basic_string<char,std::char_traits<char>,std::allocator<char> >, COMDAT
; _this$ = ecx

; 323  : 		{	// construct by copying _Right

  00000	56		 push	 esi

; 324  : 		_Tidy();

  00001	33 c0		 xor	 eax, eax
  00003	8b f1		 mov	 esi, ecx

; 325  : 		assign(_Right, 0, npos);

  00005	6a ff		 push	 -1
  00007	89 46 14	 mov	 DWORD PTR [esi+20], eax
  0000a	c7 46 18 0f 00
	00 00		 mov	 DWORD PTR [esi+24], 15	; 0000000fH
  00011	50		 push	 eax
  00012	88 46 04	 mov	 BYTE PTR [esi+4], al
  00015	8b 44 24 10	 mov	 eax, DWORD PTR __Right$[esp+8]
  00019	50		 push	 eax
  0001a	e8 00 00 00 00	 call	 ?assign@?$basic_string@DU?$char_traits@D@std@@V?$allocator@D@2@@std@@QAEAAV12@ABV12@II@Z ; std::basic_string<char,std::char_traits<char>,std::allocator<char> >::assign

; 326  : 		}

  0001f	8b c6		 mov	 eax, esi
  00021	5e		 pop	 esi
  00022	c2 04 00	 ret	 4
??0?$basic_string@DU?$char_traits@D@std@@V?$allocator@D@2@@std@@QAE@ABV01@@Z ENDP ; std::basic_string<char,std::char_traits<char>,std::allocator<char> >::basic_string<char,std::char_traits<char>,std::allocator<char> >
_TEXT	ENDS
PUBLIC	?assign@?$basic_string@DU?$char_traits@D@std@@V?$allocator@D@2@@std@@QAEAAV12@PBD@Z ; std::basic_string<char,std::char_traits<char>,std::allocator<char> >::assign
; Function compile flags: /Ogty
;	COMDAT ?assign@?$basic_string@DU?$char_traits@D@std@@V?$allocator@D@2@@std@@QAEAAV12@PBD@Z
_TEXT	SEGMENT
__Ptr$ = 8						; size = 4
?assign@?$basic_string@DU?$char_traits@D@std@@V?$allocator@D@2@@std@@QAEAAV12@PBD@Z PROC NEAR ; std::basic_string<char,std::char_traits<char>,std::allocator<char> >::assign, COMDAT
; _this$ = ecx

; 621  : 		{	// assign [_Ptr, <null>)

  00000	56		 push	 esi

; 622  : 		return (assign(_Ptr, _Traits::length(_Ptr)));

  00001	8b 74 24 08	 mov	 esi, DWORD PTR __Ptr$[esp]
  00005	8b c6		 mov	 eax, esi
  00007	57		 push	 edi
  00008	8d 78 01	 lea	 edi, DWORD PTR [eax+1]
  0000b	eb 03 8d 49 00	 npad	 5
$L158105:
  00010	8a 10		 mov	 dl, BYTE PTR [eax]
  00012	40		 inc	 eax
  00013	84 d2		 test	 dl, dl
  00015	75 f9		 jne	 SHORT $L158105
  00017	2b c7		 sub	 eax, edi
  00019	50		 push	 eax
  0001a	56		 push	 esi
  0001b	e8 00 00 00 00	 call	 ?assign@?$basic_string@DU?$char_traits@D@std@@V?$allocator@D@2@@std@@QAEAAV12@PBDI@Z ; std::basic_string<char,std::char_traits<char>,std::allocator<char> >::assign
  00020	5f		 pop	 edi
  00021	5e		 pop	 esi

; 623  : 		}

  00022	c2 04 00	 ret	 4
?assign@?$basic_string@DU?$char_traits@D@std@@V?$allocator@D@2@@std@@QAEAAV12@PBD@Z ENDP ; std::basic_string<char,std::char_traits<char>,std::allocator<char> >::assign
_TEXT	ENDS
PUBLIC	??0?$basic_string@DU?$char_traits@D@std@@V?$allocator@D@2@@std@@QAE@PBD@Z ; std::basic_string<char,std::char_traits<char>,std::allocator<char> >::basic_string<char,std::char_traits<char>,std::allocator<char> >
; Function compile flags: /Ogty
;	COMDAT ??0?$basic_string@DU?$char_traits@D@std@@V?$allocator@D@2@@std@@QAE@PBD@Z
_TEXT	SEGMENT
__Ptr$ = 8						; size = 4
??0?$basic_string@DU?$char_traits@D@std@@V?$allocator@D@2@@std@@QAE@PBD@Z PROC NEAR ; std::basic_string<char,std::char_traits<char>,std::allocator<char> >::basic_string<char,std::char_traits<char>,std::allocator<char> >, COMDAT
; _this$ = ecx

; 361  : 		_Tidy();
; 362  : 		assign(_Ptr);

  00000	8b 54 24 04	 mov	 edx, DWORD PTR __Ptr$[esp-4]
  00004	56		 push	 esi
  00005	8b f1		 mov	 esi, ecx
  00007	8b c2		 mov	 eax, edx
  00009	57		 push	 edi
  0000a	c7 46 18 0f 00
	00 00		 mov	 DWORD PTR [esi+24], 15	; 0000000fH
  00011	c7 46 14 00 00
	00 00		 mov	 DWORD PTR [esi+20], 0
  00018	c6 46 04 00	 mov	 BYTE PTR [esi+4], 0
  0001c	8d 78 01	 lea	 edi, DWORD PTR [eax+1]
  0001f	90		 npad	 1
$L158180:
  00020	8a 08		 mov	 cl, BYTE PTR [eax]
  00022	40		 inc	 eax
  00023	84 c9		 test	 cl, cl
  00025	75 f9		 jne	 SHORT $L158180
  00027	2b c7		 sub	 eax, edi
  00029	50		 push	 eax
  0002a	52		 push	 edx
  0002b	8b ce		 mov	 ecx, esi
  0002d	e8 00 00 00 00	 call	 ?assign@?$basic_string@DU?$char_traits@D@std@@V?$allocator@D@2@@std@@QAEAAV12@PBDI@Z ; std::basic_string<char,std::char_traits<char>,std::allocator<char> >::assign
  00032	5f		 pop	 edi

; 363  : 		}

  00033	8b c6		 mov	 eax, esi
  00035	5e		 pop	 esi
  00036	c2 04 00	 ret	 4
??0?$basic_string@DU?$char_traits@D@std@@V?$allocator@D@2@@std@@QAE@PBD@Z ENDP ; std::basic_string<char,std::char_traits<char>,std::allocator<char> >::basic_string<char,std::char_traits<char>,std::allocator<char> >
_TEXT	ENDS
PUBLIC	??1?$CMyPool@V?$CMyBucket@PAVCClientSockE@@@@@@UAE@XZ ; CMyPool<CMyBucket<CClientSockE *> >::~CMyPool<CMyBucket<CClientSockE *> >
;	COMDAT xdata$x
; File c:\program files\microsoft visual studio .net 2003\vc7\include\deque
xdata$x	SEGMENT
$T158229 DD	0ffffffffH
	DD	FLAT:$L158184
	DD	00H
	DD	FLAT:$L158185
$T158227 DD	019930520H
	DD	02H
	DD	FLAT:$T158229
	DD	2 DUP(00H)
	DD	2 DUP(00H)
; Function compile flags: /Ogty
; File c:\offi src_real\offi src!\_network\misc\include\mymap.h
xdata$x	ENDS
;	COMDAT ??1?$CMyPool@V?$CMyBucket@PAVCClientSockE@@@@@@UAE@XZ
_TEXT	SEGMENT
_this$ = -16						; size = 4
__$EHRec$ = -12						; size = 12
??1?$CMyPool@V?$CMyBucket@PAVCClientSockE@@@@@@UAE@XZ PROC NEAR ; CMyPool<CMyBucket<CClientSockE *> >::~CMyPool<CMyBucket<CClientSockE *> >, COMDAT
; _this$ = ecx

; 166  : {

  00000	6a ff		 push	 -1
  00002	68 00 00 00 00	 push	 __ehhandler$??1?$CMyPool@V?$CMyBucket@PAVCClientSockE@@@@@@UAE@XZ
  00007	64 a1 00 00 00
	00		 mov	 eax, DWORD PTR fs:__except_list
  0000d	50		 push	 eax
  0000e	64 89 25 00 00
	00 00		 mov	 DWORD PTR fs:__except_list, esp
  00015	51		 push	 ecx
  00016	56		 push	 esi
  00017	8b f1		 mov	 esi, ecx
  00019	57		 push	 edi
  0001a	89 74 24 08	 mov	 DWORD PTR _this$[esp+24], esi
  0001e	c7 06 00 00 00
	00		 mov	 DWORD PTR [esi], OFFSET FLAT:??_7?$CMyPool@V?$CMyBucket@PAVCClientSockE@@@@@@6B@
  00024	c7 44 24 14 01
	00 00 00	 mov	 DWORD PTR __$EHRec$[esp+32], 1

; 167  : 	Clear();

  0002c	e8 00 00 00 00	 call	 ?Clear@?$CMyPool@V?$CMyBucket@PAVCClientSockE@@@@@@QAEXXZ ; CMyPool<CMyBucket<CClientSockE *> >::Clear

; 168  : }

  00031	8d 7e 18	 lea	 edi, DWORD PTR [esi+24]
  00034	8b cf		 mov	 ecx, edi
  00036	e8 00 00 00 00	 call	 ?clear@?$list@PAV?$CMyBucket@PAVCClientSockE@@@@V?$allocator@PAV?$CMyBucket@PAVCClientSockE@@@@@std@@@std@@QAEXXZ ; std::list<CMyBucket<CClientSockE *> *,std::allocator<CMyBucket<CClientSockE *> *> >::clear
  0003b	8b 47 04	 mov	 eax, DWORD PTR [edi+4]
  0003e	50		 push	 eax
  0003f	e8 00 00 00 00	 call	 ??3@YAXPAX@Z		; operator delete
  00044	83 c4 04	 add	 esp, 4
  00047	8d 4e 04	 lea	 ecx, DWORD PTR [esi+4]
  0004a	c7 47 04 00 00
	00 00		 mov	 DWORD PTR [edi+4], 0
  00051	e8 00 00 00 00	 call	 ?_Tidy@?$deque@PAV?$CMyBucket@PAVCClientSockE@@@@V?$allocator@PAV?$CMyBucket@PAVCClientSockE@@@@@std@@@std@@IAEXXZ ; std::deque<CMyBucket<CClientSockE *> *,std::allocator<CMyBucket<CClientSockE *> *> >::_Tidy
  00056	8b 4c 24 0c	 mov	 ecx, DWORD PTR __$EHRec$[esp+24]
  0005a	5f		 pop	 edi
  0005b	5e		 pop	 esi
  0005c	64 89 0d 00 00
	00 00		 mov	 DWORD PTR fs:__except_list, ecx
  00063	83 c4 10	 add	 esp, 16			; 00000010H
  00066	c3		 ret	 0
_TEXT	ENDS
;	COMDAT text$x
text$x	SEGMENT
$L158184:
  00000	8b 4d f0	 mov	 ecx, DWORD PTR _this$[ebp]
  00003	83 c1 04	 add	 ecx, 4
  00006	e9 00 00 00 00	 jmp	 ??1?$stack@PAV?$CMyBucket@PAVCClientSockE@@@@V?$deque@PAV?$CMyBucket@PAVCClientSockE@@@@V?$allocator@PAV?$CMyBucket@PAVCClientSockE@@@@@std@@@std@@@std@@QAE@XZ
$L158185:
  0000b	8b 4d f0	 mov	 ecx, DWORD PTR _this$[ebp]
  0000e	83 c1 18	 add	 ecx, 24			; 00000018H
  00011	e9 00 00 00 00	 jmp	 ??1?$list@PAV?$CMyBucket@PAVCClientSockE@@@@V?$allocator@PAV?$CMyBucket@PAVCClientSockE@@@@@std@@@std@@QAE@XZ ; std::list<CMyBucket<CClientSockE *> *,std::allocator<CMyBucket<CClientSockE *> *> >::~list<CMyBucket<CClientSockE *> *,std::allocator<CMyBucket<CClientSockE *> *> >
__ehhandler$??1?$CMyPool@V?$CMyBucket@PAVCClientSockE@@@@@@UAE@XZ:
  00016	b8 00 00 00 00	 mov	 eax, OFFSET FLAT:$T158227
  0001b	e9 00 00 00 00	 jmp	 ___CxxFrameHandler
text$x	ENDS
??1?$CMyPool@V?$CMyBucket@PAVCClientSockE@@@@@@UAE@XZ ENDP ; CMyPool<CMyBucket<CClientSockE *> >::~CMyPool<CMyBucket<CClientSockE *> >
PUBLIC	??0?$CMyMap@PAVCClientSockE@@@@QAE@XZ		; CMyMap<CClientSockE *>::CMyMap<CClientSockE *>
PUBLIC	??_7?$CMyMap@PAVCClientSockE@@@@6B@		; CMyMap<CClientSockE *>::`vftable'
PUBLIC	??_G?$CMyMap@PAVCClientSockE@@@@UAEPAXI@Z	; CMyMap<CClientSockE *>::`scalar deleting destructor'
EXTRN	??_E?$CMyMap@PAVCClientSockE@@@@UAEPAXI@Z:NEAR	; CMyMap<CClientSockE *>::`vector deleting destructor'
;	COMDAT ??_7?$CMyMap@PAVCClientSockE@@@@6B@
; File c:\offi src_real\offi src!\_network\mcl\include\cmclcritsec.h
CONST	SEGMENT
??_7?$CMyMap@PAVCClientSockE@@@@6B@ DD FLAT:??_E?$CMyMap@PAVCClientSockE@@@@UAEPAXI@Z ; CMyMap<CClientSockE *>::`vftable'
; Function compile flags: /Ogty
; File c:\offi src_real\offi src!\_network\misc\include\mymap.h
CONST	ENDS
;	COMDAT ??0?$CMyMap@PAVCClientSockE@@@@QAE@XZ
_TEXT	SEGMENT
??0?$CMyMap@PAVCClientSockE@@@@QAE@XZ PROC NEAR		; CMyMap<CClientSockE *>::CMyMap<CClientSockE *>, COMDAT
; _this$ = ecx

; 283  : {

  00000	56		 push	 esi
  00001	8b f1		 mov	 esi, ecx
  00003	8d 4e 08	 lea	 ecx, DWORD PTR [esi+8]
  00006	c7 06 00 00 00
	00		 mov	 DWORD PTR [esi], OFFSET FLAT:??_7?$CMyMap@PAVCClientSockE@@@@6B@
  0000c	e8 00 00 00 00	 call	 ??0?$CMyPool@V?$CMyBucket@PAVCClientSockE@@@@@@QAE@XZ ; CMyPool<CMyBucket<CClientSockE *> >::CMyPool<CMyBucket<CClientSockE *> >
  00011	8d 46 44	 lea	 eax, DWORD PTR [esi+68]
  00014	50		 push	 eax
  00015	c7 46 40 00 00
	00 00		 mov	 DWORD PTR [esi+64], OFFSET FLAT:??_7CMclCritSec@@6B@
  0001c	ff 15 00 00 00
	00		 call	 DWORD PTR __imp__InitializeCriticalSection@4

; 284  : 	m_pBuckets	= NULL;

  00022	33 c0		 xor	 eax, eax
  00024	89 46 04	 mov	 DWORD PTR [esi+4], eax

; 285  : 	m_nHashSize		= 0;

  00027	89 46 38	 mov	 DWORD PTR [esi+56], eax

; 286  : 	m_nTotal	= 0;

  0002a	89 46 3c	 mov	 DWORD PTR [esi+60], eax

; 287  : 	m_pFirstActive	= NULL;

  0002d	89 46 34	 mov	 DWORD PTR [esi+52], eax

; 288  : }

  00030	8b c6		 mov	 eax, esi
  00032	5e		 pop	 esi
  00033	c3		 ret	 0
??0?$CMyMap@PAVCClientSockE@@@@QAE@XZ ENDP		; CMyMap<CClientSockE *>::CMyMap<CClientSockE *>
_TEXT	ENDS
PUBLIC	??1?$CMyMap@PAVCClientSockE@@@@UAE@XZ		; CMyMap<CClientSockE *>::~CMyMap<CClientSockE *>
;	COMDAT xdata$x
; File c:\offi src_real\offi src!\_network\mcl\include\cmclcritsec.h
xdata$x	SEGMENT
$T158260 DD	0ffffffffH
	DD	FLAT:$L158251
	DD	00H
	DD	FLAT:$L158252
$T158258 DD	019930520H
	DD	02H
	DD	FLAT:$T158260
	DD	2 DUP(00H)
	DD	2 DUP(00H)
; Function compile flags: /Ogty
; File c:\offi src_real\offi src!\_network\misc\include\mymap.h
xdata$x	ENDS
;	COMDAT ??1?$CMyMap@PAVCClientSockE@@@@UAE@XZ
_TEXT	SEGMENT
_this$ = -16						; size = 4
__$EHRec$ = -12						; size = 12
??1?$CMyMap@PAVCClientSockE@@@@UAE@XZ PROC NEAR		; CMyMap<CClientSockE *>::~CMyMap<CClientSockE *>, COMDAT
; _this$ = ecx

; 296  : {

  00000	6a ff		 push	 -1
  00002	68 00 00 00 00	 push	 __ehhandler$??1?$CMyMap@PAVCClientSockE@@@@UAE@XZ
  00007	64 a1 00 00 00
	00		 mov	 eax, DWORD PTR fs:__except_list
  0000d	50		 push	 eax
  0000e	64 89 25 00 00
	00 00		 mov	 DWORD PTR fs:__except_list, esp
  00015	51		 push	 ecx
  00016	56		 push	 esi
  00017	8b f1		 mov	 esi, ecx
  00019	89 74 24 04	 mov	 DWORD PTR _this$[esp+20], esi
  0001d	c7 06 00 00 00
	00		 mov	 DWORD PTR [esi], OFFSET FLAT:??_7?$CMyMap@PAVCClientSockE@@@@6B@

; 297  : 	SAFE_DELETE_ARRAY( m_pBuckets );

  00023	8b 4e 04	 mov	 ecx, DWORD PTR [esi+4]
  00026	85 c9		 test	 ecx, ecx
  00028	c7 44 24 10 01
	00 00 00	 mov	 DWORD PTR __$EHRec$[esp+28], 1
  00030	74 22		 je	 SHORT $L153795
  00032	8b 51 fc	 mov	 edx, DWORD PTR [ecx-4]
  00035	85 d2		 test	 edx, edx
  00037	8d 41 fc	 lea	 eax, DWORD PTR [ecx-4]
  0003a	74 08		 je	 SHORT $L158247
  0003c	8b 01		 mov	 eax, DWORD PTR [ecx]
  0003e	6a 03		 push	 3
  00040	ff 10		 call	 DWORD PTR [eax]
  00042	eb 09		 jmp	 SHORT $L158248
$L158247:
  00044	50		 push	 eax
  00045	e8 00 00 00 00	 call	 ??_V@YAXPAX@Z		; operator delete[]
  0004a	83 c4 04	 add	 esp, 4
$L158248:
  0004d	c7 46 04 00 00
	00 00		 mov	 DWORD PTR [esi+4], 0
$L153795:

; 298  : }

  00054	8d 4e 44	 lea	 ecx, DWORD PTR [esi+68]
  00057	51		 push	 ecx
  00058	c7 46 40 00 00
	00 00		 mov	 DWORD PTR [esi+64], OFFSET FLAT:??_7CMclCritSec@@6B@
  0005f	ff 15 00 00 00
	00		 call	 DWORD PTR __imp__DeleteCriticalSection@4
  00065	8d 4e 08	 lea	 ecx, DWORD PTR [esi+8]
  00068	c7 44 24 10 ff
	ff ff ff	 mov	 DWORD PTR __$EHRec$[esp+28], -1
  00070	e8 00 00 00 00	 call	 ??1?$CMyPool@V?$CMyBucket@PAVCClientSockE@@@@@@UAE@XZ ; CMyPool<CMyBucket<CClientSockE *> >::~CMyPool<CMyBucket<CClientSockE *> >
  00075	8b 4c 24 08	 mov	 ecx, DWORD PTR __$EHRec$[esp+20]
  00079	5e		 pop	 esi
  0007a	64 89 0d 00 00
	00 00		 mov	 DWORD PTR fs:__except_list, ecx
  00081	83 c4 10	 add	 esp, 16			; 00000010H
  00084	c3		 ret	 0
_TEXT	ENDS
;	COMDAT text$x
text$x	SEGMENT
$L158251:
  00000	8b 4d f0	 mov	 ecx, DWORD PTR _this$[ebp]
  00003	83 c1 08	 add	 ecx, 8
  00006	e9 00 00 00 00	 jmp	 ??1?$CMyPool@V?$CMyBucket@PAVCClientSockE@@@@@@UAE@XZ ; CMyPool<CMyBucket<CClientSockE *> >::~CMyPool<CMyBucket<CClientSockE *> >
$L158252:
  0000b	8b 4d f0	 mov	 ecx, DWORD PTR _this$[ebp]
  0000e	83 c1 40	 add	 ecx, 64			; 00000040H
  00011	e9 00 00 00 00	 jmp	 ??1CMclCritSec@@UAE@XZ	; CMclCritSec::~CMclCritSec
__ehhandler$??1?$CMyMap@PAVCClientSockE@@@@UAE@XZ:
  00016	b8 00 00 00 00	 mov	 eax, OFFSET FLAT:$T158258
  0001b	e9 00 00 00 00	 jmp	 ___CxxFrameHandler
text$x	ENDS
??1?$CMyMap@PAVCClientSockE@@@@UAE@XZ ENDP		; CMyMap<CClientSockE *>::~CMyMap<CClientSockE *>
; Function compile flags: /Ogty
;	COMDAT ??_G?$CMyPool@V?$CMyBucket@PAVCClientSockE@@@@@@UAEPAXI@Z
_TEXT	SEGMENT
___flags$ = 8						; size = 4
??_G?$CMyPool@V?$CMyBucket@PAVCClientSockE@@@@@@UAEPAXI@Z PROC NEAR ; CMyPool<CMyBucket<CClientSockE *> >::`scalar deleting destructor', COMDAT
; _this$ = ecx
  00000	56		 push	 esi
  00001	8b f1		 mov	 esi, ecx
  00003	e8 00 00 00 00	 call	 ??1?$CMyPool@V?$CMyBucket@PAVCClientSockE@@@@@@UAE@XZ ; CMyPool<CMyBucket<CClientSockE *> >::~CMyPool<CMyBucket<CClientSockE *> >
  00008	f6 44 24 08 01	 test	 BYTE PTR ___flags$[esp], 1
  0000d	74 09		 je	 SHORT $L158266
  0000f	56		 push	 esi
  00010	e8 00 00 00 00	 call	 ??3@YAXPAX@Z		; operator delete
  00015	83 c4 04	 add	 esp, 4
$L158266:
  00018	8b c6		 mov	 eax, esi
  0001a	5e		 pop	 esi
  0001b	c2 04 00	 ret	 4
??_G?$CMyPool@V?$CMyBucket@PAVCClientSockE@@@@@@UAEPAXI@Z ENDP ; CMyPool<CMyBucket<CClientSockE *> >::`scalar deleting destructor'
; Function compile flags: /Ogty
_TEXT	ENDS
;	COMDAT ??_G?$CMyMap@PAVCClientSockE@@@@UAEPAXI@Z
_TEXT	SEGMENT
___flags$ = 8						; size = 4
??_G?$CMyMap@PAVCClientSockE@@@@UAEPAXI@Z PROC NEAR	; CMyMap<CClientSockE *>::`scalar deleting destructor', COMDAT
; _this$ = ecx
  00000	56		 push	 esi
  00001	8b f1		 mov	 esi, ecx
  00003	e8 00 00 00 00	 call	 ??1?$CMyMap@PAVCClientSockE@@@@UAE@XZ ; CMyMap<CClientSockE *>::~CMyMap<CClientSockE *>
  00008	f6 44 24 08 01	 test	 BYTE PTR ___flags$[esp], 1
  0000d	74 09		 je	 SHORT $L158270
  0000f	56		 push	 esi
  00010	e8 00 00 00 00	 call	 ??3@YAXPAX@Z		; operator delete
  00015	83 c4 04	 add	 esp, 4
$L158270:
  00018	8b c6		 mov	 eax, esi
  0001a	5e		 pop	 esi
  0001b	c2 04 00	 ret	 4
??_G?$CMyMap@PAVCClientSockE@@@@UAEPAXI@Z ENDP		; CMyMap<CClientSockE *>::`scalar deleting destructor'
_TEXT	ENDS
PUBLIC	??0logic_error@std@@QAE@ABV?$basic_string@DU?$char_traits@D@std@@V?$allocator@D@2@@1@@Z ; std::logic_error::logic_error
EXTRN	??0exception@@QAE@XZ:NEAR			; exception::exception
;	COMDAT xdata$x
; File c:\program files\microsoft visual studio .net 2003\vc7\include\iosfwd
xdata$x	SEGMENT
$T158373 DD	0ffffffffH
	DD	FLAT:$L158274
$T158371 DD	019930520H
	DD	01H
	DD	FLAT:$T158373
	DD	2 DUP(00H)
	DD	2 DUP(00H)
; Function compile flags: /Ogty
; File c:\program files\microsoft visual studio .net 2003\vc7\include\stdexcept
xdata$x	ENDS
;	COMDAT ??0logic_error@std@@QAE@ABV?$basic_string@DU?$char_traits@D@std@@V?$allocator@D@2@@1@@Z
_TEXT	SEGMENT
_this$ = -16						; size = 4
__$EHRec$ = -12						; size = 12
__Message$ = 8						; size = 4
??0logic_error@std@@QAE@ABV?$basic_string@DU?$char_traits@D@std@@V?$allocator@D@2@@1@@Z PROC NEAR ; std::logic_error::logic_error, COMDAT
; _this$ = ecx

; 19   : 		{	// construct from message string

  00000	6a ff		 push	 -1
  00002	68 00 00 00 00	 push	 __ehhandler$??0logic_error@std@@QAE@ABV?$basic_string@DU?$char_traits@D@std@@V?$allocator@D@2@@1@@Z
  00007	64 a1 00 00 00
	00		 mov	 eax, DWORD PTR fs:__except_list
  0000d	50		 push	 eax
  0000e	64 89 25 00 00
	00 00		 mov	 DWORD PTR fs:__except_list, esp
  00015	51		 push	 ecx
  00016	56		 push	 esi
  00017	8b f1		 mov	 esi, ecx
  00019	89 74 24 04	 mov	 DWORD PTR _this$[esp+20], esi
  0001d	e8 00 00 00 00	 call	 ??0exception@@QAE@XZ	; exception::exception
  00022	33 c0		 xor	 eax, eax
  00024	8d 4e 0c	 lea	 ecx, DWORD PTR [esi+12]
  00027	c7 06 00 00 00
	00		 mov	 DWORD PTR [esi], OFFSET FLAT:??_7logic_error@std@@6B@
  0002d	6a ff		 push	 -1
  0002f	89 41 14	 mov	 DWORD PTR [ecx+20], eax
  00032	c7 41 18 0f 00
	00 00		 mov	 DWORD PTR [ecx+24], 15	; 0000000fH
  00039	50		 push	 eax
  0003a	89 44 24 18	 mov	 DWORD PTR __$EHRec$[esp+36], eax
  0003e	88 41 04	 mov	 BYTE PTR [ecx+4], al
  00041	8b 44 24 20	 mov	 eax, DWORD PTR __Message$[esp+24]
  00045	50		 push	 eax
  00046	e8 00 00 00 00	 call	 ?assign@?$basic_string@DU?$char_traits@D@std@@V?$allocator@D@2@@std@@QAEAAV12@ABV12@II@Z ; std::basic_string<char,std::char_traits<char>,std::allocator<char> >::assign

; 20   : 		}

  0004b	8b 4c 24 08	 mov	 ecx, DWORD PTR __$EHRec$[esp+20]
  0004f	8b c6		 mov	 eax, esi
  00051	5e		 pop	 esi
  00052	64 89 0d 00 00
	00 00		 mov	 DWORD PTR fs:__except_list, ecx
  00059	83 c4 10	 add	 esp, 16			; 00000010H
  0005c	c2 04 00	 ret	 4
_TEXT	ENDS
;	COMDAT text$x
text$x	SEGMENT
$L158274:
  00000	8b 4d f0	 mov	 ecx, DWORD PTR _this$[ebp]
  00003	e9 00 00 00 00	 jmp	 ??1exception@@UAE@XZ	; exception::~exception
__ehhandler$??0logic_error@std@@QAE@ABV?$basic_string@DU?$char_traits@D@std@@V?$allocator@D@2@@1@@Z:
  00008	b8 00 00 00 00	 mov	 eax, OFFSET FLAT:$T158371
  0000d	e9 00 00 00 00	 jmp	 ___CxxFrameHandler
text$x	ENDS
??0logic_error@std@@QAE@ABV?$basic_string@DU?$char_traits@D@std@@V?$allocator@D@2@@1@@Z ENDP ; std::logic_error::logic_error
PUBLIC	??0length_error@std@@QAE@ABV?$basic_string@DU?$char_traits@D@std@@V?$allocator@D@2@@1@@Z ; std::length_error::length_error
PUBLIC	??_7length_error@std@@6B@			; std::length_error::`vftable'
PUBLIC	??_Glength_error@std@@UAEPAXI@Z			; std::length_error::`scalar deleting destructor'
EXTRN	??_Elength_error@std@@UAEPAXI@Z:NEAR		; std::length_error::`vector deleting destructor'
;	COMDAT ??_7length_error@std@@6B@
CONST	SEGMENT
??_7length_error@std@@6B@ DD FLAT:??_Elength_error@std@@UAEPAXI@Z ; std::length_error::`vftable'
	DD	FLAT:?what@logic_error@std@@UBEPBDXZ
; Function compile flags: /Ogty
CONST	ENDS
;	COMDAT ??0length_error@std@@QAE@ABV?$basic_string@DU?$char_traits@D@std@@V?$allocator@D@2@@1@@Z
_TEXT	SEGMENT
__Message$ = 8						; size = 4
??0length_error@std@@QAE@ABV?$basic_string@DU?$char_traits@D@std@@V?$allocator@D@2@@1@@Z PROC NEAR ; std::length_error::length_error, COMDAT
; _this$ = ecx

; 95   : 		{	// construct from message string

  00000	8b 44 24 04	 mov	 eax, DWORD PTR __Message$[esp-4]
  00004	56		 push	 esi
  00005	50		 push	 eax
  00006	8b f1		 mov	 esi, ecx
  00008	e8 00 00 00 00	 call	 ??0logic_error@std@@QAE@ABV?$basic_string@DU?$char_traits@D@std@@V?$allocator@D@2@@1@@Z ; std::logic_error::logic_error
  0000d	c7 06 00 00 00
	00		 mov	 DWORD PTR [esi], OFFSET FLAT:??_7length_error@std@@6B@

; 96   : 		}

  00013	8b c6		 mov	 eax, esi
  00015	5e		 pop	 esi
  00016	c2 04 00	 ret	 4
??0length_error@std@@QAE@ABV?$basic_string@DU?$char_traits@D@std@@V?$allocator@D@2@@1@@Z ENDP ; std::length_error::length_error
_TEXT	ENDS
PUBLIC	??1length_error@std@@UAE@XZ			; std::length_error::~length_error
; Function compile flags: /Ogty
;	COMDAT ??_Glength_error@std@@UAEPAXI@Z
_TEXT	SEGMENT
___flags$ = 8						; size = 4
??_Glength_error@std@@UAEPAXI@Z PROC NEAR		; std::length_error::`scalar deleting destructor', COMDAT
; _this$ = ecx
  00000	56		 push	 esi
  00001	8b f1		 mov	 esi, ecx
  00003	e8 00 00 00 00	 call	 ??1length_error@std@@UAE@XZ ; std::length_error::~length_error
  00008	f6 44 24 08 01	 test	 BYTE PTR ___flags$[esp], 1
  0000d	74 09		 je	 SHORT $L158383
  0000f	56		 push	 esi
  00010	e8 00 00 00 00	 call	 ??3@YAXPAX@Z		; operator delete
  00015	83 c4 04	 add	 esp, 4
$L158383:
  00018	8b c6		 mov	 eax, esi
  0001a	5e		 pop	 esi
  0001b	c2 04 00	 ret	 4
??_Glength_error@std@@UAEPAXI@Z ENDP			; std::length_error::`scalar deleting destructor'
; Function compile flags: /Ogty
_TEXT	ENDS
;	COMDAT ??1length_error@std@@UAE@XZ
_TEXT	SEGMENT
??1length_error@std@@UAE@XZ PROC NEAR			; std::length_error::~length_error, COMDAT
; _this$ = ecx

; 99   : 		{}	// destroy the object

  00000	56		 push	 esi
  00001	8b f1		 mov	 esi, ecx
  00003	c7 06 00 00 00
	00		 mov	 DWORD PTR [esi], OFFSET FLAT:??_7logic_error@std@@6B@
  00009	83 7e 24 10	 cmp	 DWORD PTR [esi+36], 16	; 00000010H
  0000d	72 0c		 jb	 SHORT $L158478
  0000f	8b 46 10	 mov	 eax, DWORD PTR [esi+16]
  00012	50		 push	 eax
  00013	e8 00 00 00 00	 call	 ??3@YAXPAX@Z		; operator delete
  00018	83 c4 04	 add	 esp, 4
$L158478:
  0001b	33 c0		 xor	 eax, eax
  0001d	c7 46 24 0f 00
	00 00		 mov	 DWORD PTR [esi+36], 15	; 0000000fH
  00024	89 46 20	 mov	 DWORD PTR [esi+32], eax
  00027	88 46 10	 mov	 BYTE PTR [esi+16], al
  0002a	8b ce		 mov	 ecx, esi
  0002c	5e		 pop	 esi
  0002d	e9 00 00 00 00	 jmp	 ??1exception@@UAE@XZ	; exception::~exception
??1length_error@std@@UAE@XZ ENDP			; std::length_error::~length_error
_TEXT	ENDS
PUBLIC	?GetPeerAddr@CSock@@UAEKK@Z			; CSock::GetPeerAddr
PUBLIC	??1CServerSockE@@UAE@XZ				; CServerSockE::~CServerSockE
PUBLIC	?Close@CServerSockE@@UAEXXZ			; CServerSockE::Close
PUBLIC	?CloseConnection@CServerSockE@@UAEHI@Z		; CServerSockE::CloseConnection
PUBLIC	?Get@CServerSockE@@UAEPAVCSock@@I@Z		; CServerSockE::Get
PUBLIC	??_7CServerSockE@@6B@				; CServerSockE::`vftable'
PUBLIC	??_GCServerSockE@@UAEPAXI@Z			; CServerSockE::`scalar deleting destructor'
EXTRN	??1CSock@@UAE@XZ:NEAR				; CSock::~CSock
EXTRN	?Create@CSock@@UAEHGH@Z:NEAR			; CSock::Create
EXTRN	?Attach@CSock@@UAEXI@Z:NEAR			; CSock::Attach
EXTRN	?Detach@CSock@@UAEXXZ:NEAR			; CSock::Detach
EXTRN	?GetHostAddr@CSock@@UAEJPAXPAK@Z:NEAR		; CSock::GetHostAddr
EXTRN	??_ECServerSockE@@UAEPAXI@Z:NEAR		; CServerSockE::`vector deleting destructor'
;	COMDAT xdata$x
; File c:\offi src_real\offi src!\_network\net\src\serversocke.cpp
xdata$x	SEGMENT
$T158498 DD	0ffffffffH
	DD	FLAT:$L158493
$T158496 DD	019930520H
	DD	01H
	DD	FLAT:$T158498
	DD	2 DUP(00H)
	DD	2 DUP(00H)
xdata$x	ENDS
;	COMDAT ??_7CServerSockE@@6B@
CONST	SEGMENT
??_7CServerSockE@@6B@ DD FLAT:??_ECServerSockE@@UAEPAXI@Z ; CServerSockE::`vftable'
	DD	FLAT:?Create@CSock@@UAEHGH@Z
	DD	FLAT:?Attach@CSock@@UAEXI@Z
	DD	FLAT:?Detach@CSock@@UAEXXZ
	DD	FLAT:?GetHostAddr@CSock@@UAEJPAXPAK@Z
	DD	FLAT:?GetPeerAddr@CSock@@UAEKK@Z
	DD	FLAT:?GetPeerAddr@CServerSockE@@UAEJKPAXPAK@Z
	DD	FLAT:?Close@CServerSockE@@UAEXXZ
	DD	FLAT:?CloseConnection@CServerSockE@@UAEHI@Z
	DD	FLAT:?Shutdown@CServerSockE@@UAEHI@Z
	DD	FLAT:?Send@CServerSockE@@UAEXPADKK@Z
	DD	FLAT:?Get@CServerSockE@@UAEPAVCSock@@I@Z
; Function compile flags: /Ogty
CONST	ENDS
;	COMDAT ??1CServerSockE@@UAE@XZ
_TEXT	SEGMENT
_this$ = -16						; size = 4
__$EHRec$ = -12						; size = 12
??1CServerSockE@@UAE@XZ PROC NEAR			; CServerSockE::~CServerSockE, COMDAT
; _this$ = ecx

; 30   : {

  00000	6a ff		 push	 -1
  00002	68 00 00 00 00	 push	 __ehhandler$??1CServerSockE@@UAE@XZ
  00007	64 a1 00 00 00
	00		 mov	 eax, DWORD PTR fs:__except_list
  0000d	50		 push	 eax
  0000e	64 89 25 00 00
	00 00		 mov	 DWORD PTR fs:__except_list, esp
  00015	51		 push	 ecx
  00016	56		 push	 esi
  00017	8b f1		 mov	 esi, ecx
  00019	89 74 24 04	 mov	 DWORD PTR _this$[esp+20], esi
  0001d	c7 06 00 00 00
	00		 mov	 DWORD PTR [esi], OFFSET FLAT:??_7CServerSockE@@6B@

; 31   : //	Close();
; 32   : }

  00023	8d 4e 1c	 lea	 ecx, DWORD PTR [esi+28]
  00026	c7 44 24 10 00
	00 00 00	 mov	 DWORD PTR __$EHRec$[esp+28], 0
  0002e	e8 00 00 00 00	 call	 ??1?$CMyMap@PAVCClientSockE@@@@UAE@XZ ; CMyMap<CClientSockE *>::~CMyMap<CClientSockE *>
  00033	8b ce		 mov	 ecx, esi
  00035	c7 44 24 10 ff
	ff ff ff	 mov	 DWORD PTR __$EHRec$[esp+28], -1
  0003d	e8 00 00 00 00	 call	 ??1CSock@@UAE@XZ	; CSock::~CSock
  00042	8b 4c 24 08	 mov	 ecx, DWORD PTR __$EHRec$[esp+20]
  00046	5e		 pop	 esi
  00047	64 89 0d 00 00
	00 00		 mov	 DWORD PTR fs:__except_list, ecx
  0004e	83 c4 10	 add	 esp, 16			; 00000010H
  00051	c3		 ret	 0
_TEXT	ENDS
;	COMDAT text$x
text$x	SEGMENT
$L158493:
  00000	8b 4d f0	 mov	 ecx, DWORD PTR _this$[ebp]
  00003	e9 00 00 00 00	 jmp	 ??1CSock@@UAE@XZ	; CSock::~CSock
__ehhandler$??1CServerSockE@@UAE@XZ:
  00008	b8 00 00 00 00	 mov	 eax, OFFSET FLAT:$T158496
  0000d	e9 00 00 00 00	 jmp	 ___CxxFrameHandler
text$x	ENDS
??1CServerSockE@@UAE@XZ ENDP				; CServerSockE::~CServerSockE
; Function compile flags: /Ogty
; File c:\offi src_real\offi src!\_network\net\include\sock.h
;	COMDAT ?GetPeerAddr@CSock@@UAEKK@Z
_TEXT	SEGMENT
_dpid$ = 8						; size = 4
?GetPeerAddr@CSock@@UAEKK@Z PROC NEAR			; CSock::GetPeerAddr, COMDAT
; _this$ = ecx

; 37   : 	virtual	DWORD	GetPeerAddr( DPID dpid ) { return 0; }

  00000	33 c0		 xor	 eax, eax
  00002	c2 04 00	 ret	 4
?GetPeerAddr@CSock@@UAEKK@Z ENDP			; CSock::GetPeerAddr
; Function compile flags: /Ogty
; File c:\offi src_real\offi src!\_network\net\include\serversocke.h
_TEXT	ENDS
;	COMDAT ?Get@CServerSockE@@UAEPAVCSock@@I@Z
_TEXT	SEGMENT
_pChild$ = 8						; size = 4
_hSocket$ = 8						; size = 4
?Get@CServerSockE@@UAEPAVCSock@@I@Z PROC NEAR		; CServerSockE::Get, COMDAT
; _this$ = ecx

; 70   : #ifdef __STL_0402
; 71   : 	CMapChildE::iterator i	= m_mapChild.find( hSocket );
; 72   : 	if( i != m_mapChild.end() )
; 73   : 		return i->second;
; 74   : 	return NULL;
; 75   : #else	// __STL_0402
; 76   : 	CClientSockE* pChild;
; 77   : 	if( m_mapChild.Lookup( hSocket, pChild ) )

  00000	8b 54 24 04	 mov	 edx, DWORD PTR _hSocket$[esp-4]
  00004	8d 44 24 04	 lea	 eax, DWORD PTR _pChild$[esp-4]
  00008	50		 push	 eax
  00009	52		 push	 edx
  0000a	83 c1 1c	 add	 ecx, 28			; 0000001cH
  0000d	e8 00 00 00 00	 call	 ?Lookup@?$CMyMap@PAVCClientSockE@@@@QAEHKAAPAVCClientSockE@@@Z ; CMyMap<CClientSockE *>::Lookup
  00012	8b 4c 24 04	 mov	 ecx, DWORD PTR _pChild$[esp-4]
  00016	f7 d8		 neg	 eax
  00018	1b c0		 sbb	 eax, eax
  0001a	23 c1		 and	 eax, ecx

; 78   : 		return pChild;
; 79   : 	return NULL;
; 80   : #endif	// __STL_0402
; 81   : }

  0001c	c2 04 00	 ret	 4
?Get@CServerSockE@@UAEPAVCSock@@I@Z ENDP		; CServerSockE::Get
_TEXT	ENDS
PUBLIC	__TI3?AVlength_error@std@@
PUBLIC	__CTA3?AVlength_error@std@@
PUBLIC	??_R0?AVlength_error@std@@@8			; std::length_error `RTTI Type Descriptor'
PUBLIC	__CT??_R0?AVlength_error@std@@@8??0length_error@std@@QAE@ABV01@@Z40
PUBLIC	??_R0?AVlogic_error@std@@@8			; std::logic_error `RTTI Type Descriptor'
PUBLIC	__CT??_R0?AVlogic_error@std@@@8??0logic_error@std@@QAE@ABV01@@Z40
PUBLIC	??_C@_0BB@MOGOBHAF@list?$DMT?$DO?5too?5long?$AA@ ; `string'
PUBLIC	??_R0?AVexception@@@8				; exception `RTTI Type Descriptor'
PUBLIC	__CT??_R0?AVexception@@@8??0exception@@QAE@ABV0@@Z12
PUBLIC	?_Incsize@?$list@PAXV?$allocator@PAX@std@@@std@@IAEXI@Z ; std::list<void *,std::allocator<void *> >::_Incsize
PUBLIC	??0logic_error@std@@QAE@ABV01@@Z		; std::logic_error::logic_error
PUBLIC	??0length_error@std@@QAE@ABV01@@Z		; std::length_error::length_error
EXTRN	??_7type_info@@6B@:DWORD			; type_info::`vftable'
EXTRN	??0exception@@QAE@ABV0@@Z:NEAR			; exception::exception
;	COMDAT xdata$x
; File c:\program files\microsoft visual studio .net 2003\vc7\include\stdexcept
xdata$x	SEGMENT
$T158642 DD	0ffffffffH
	DD	FLAT:$L158512
$T158639 DD	019930520H
	DD	01H
	DD	FLAT:$T158642
	DD	2 DUP(00H)
	DD	2 DUP(00H)
xdata$x	ENDS
;	COMDAT ??_C@_0BB@MOGOBHAF@list?$DMT?$DO?5too?5long?$AA@
CONST	SEGMENT
??_C@_0BB@MOGOBHAF@list?$DMT?$DO?5too?5long?$AA@ DB 'list<T> too long', 00H ; `string'
CONST	ENDS
;	COMDAT __TI3?AVlength_error@std@@
xdata$x	SEGMENT
__TI3?AVlength_error@std@@ DD 00H
	DD	FLAT:??1length_error@std@@UAE@XZ
	DD	00H
	DD	FLAT:__CTA3?AVlength_error@std@@
xdata$x	ENDS
;	COMDAT __CTA3?AVlength_error@std@@
xdata$x	SEGMENT
__CTA3?AVlength_error@std@@ DD 03H
	DD	FLAT:__CT??_R0?AVlength_error@std@@@8??0length_error@std@@QAE@ABV01@@Z40
	DD	FLAT:__CT??_R0?AVlogic_error@std@@@8??0logic_error@std@@QAE@ABV01@@Z40
	DD	FLAT:__CT??_R0?AVexception@@@8??0exception@@QAE@ABV0@@Z12
xdata$x	ENDS
;	COMDAT __CT??_R0?AVlength_error@std@@@8??0length_error@std@@QAE@ABV01@@Z40
xdata$x	SEGMENT
__CT??_R0?AVlength_error@std@@@8??0length_error@std@@QAE@ABV01@@Z40 DD 00H
	DD	FLAT:??_R0?AVlength_error@std@@@8
	DD	00H
	DD	0ffffffffH
	ORG $+4
	DD	028H
	DD	FLAT:??0length_error@std@@QAE@ABV01@@Z
xdata$x	ENDS
;	COMDAT ??_R0?AVlength_error@std@@@8
_DATA	SEGMENT
??_R0?AVlength_error@std@@@8 DD FLAT:??_7type_info@@6B@	; std::length_error `RTTI Type Descriptor'
	DD	00H
	DB	'.?AVlength_error@std@@', 00H
_DATA	ENDS
;	COMDAT __CT??_R0?AVlogic_error@std@@@8??0logic_error@std@@QAE@ABV01@@Z40
xdata$x	SEGMENT
__CT??_R0?AVlogic_error@std@@@8??0logic_error@std@@QAE@ABV01@@Z40 DD 00H
	DD	FLAT:??_R0?AVlogic_error@std@@@8
	DD	00H
	DD	0ffffffffH
	ORG $+4
	DD	028H
	DD	FLAT:??0logic_error@std@@QAE@ABV01@@Z
xdata$x	ENDS
;	COMDAT ??_R0?AVlogic_error@std@@@8
_DATA	SEGMENT
??_R0?AVlogic_error@std@@@8 DD FLAT:??_7type_info@@6B@	; std::logic_error `RTTI Type Descriptor'
	DD	00H
	DB	'.?AVlogic_error@std@@', 00H
_DATA	ENDS
;	COMDAT __CT??_R0?AVexception@@@8??0exception@@QAE@ABV0@@Z12
xdata$x	SEGMENT
__CT??_R0?AVexception@@@8??0exception@@QAE@ABV0@@Z12 DD 00H
	DD	FLAT:??_R0?AVexception@@@8
	DD	00H
	DD	0ffffffffH
	ORG $+4
	DD	0cH
	DD	FLAT:??0exception@@QAE@ABV0@@Z
xdata$x	ENDS
;	COMDAT ??_R0?AVexception@@@8
_DATA	SEGMENT
??_R0?AVexception@@@8 DD FLAT:??_7type_info@@6B@	; exception `RTTI Type Descriptor'
	DD	00H
	DB	'.?AVexception@@', 00H
; Function compile flags: /Ogty
; File c:\program files\microsoft visual studio .net 2003\vc7\include\list
_DATA	ENDS
;	COMDAT ?_Incsize@?$list@PAXV?$allocator@PAX@std@@@std@@IAEXI@Z
_TEXT	SEGMENT
$T158511 = -80						; size = 28
$T158510 = -52						; size = 40
__$EHRec$ = -12						; size = 12
__Count$ = 8						; size = 4
?_Incsize@?$list@PAXV?$allocator@PAX@std@@@std@@IAEXI@Z PROC NEAR ; std::list<void *,std::allocator<void *> >::_Incsize, COMDAT
; _this$ = ecx

; 956  : 		{	// alter element count, with checking

  00000	64 a1 00 00 00
	00		 mov	 eax, DWORD PTR fs:__except_list

; 957  : 		if (max_size() - _Mysize < _Count)

  00006	8b 54 24 04	 mov	 edx, DWORD PTR __Count$[esp-4]
  0000a	6a ff		 push	 -1
  0000c	68 00 00 00 00	 push	 __ehhandler$?_Incsize@?$list@PAXV?$allocator@PAX@std@@@std@@IAEXI@Z
  00011	50		 push	 eax
  00012	64 89 25 00 00
	00 00		 mov	 DWORD PTR fs:__except_list, esp
  00019	8b 41 08	 mov	 eax, DWORD PTR [ecx+8]
  0001c	83 ec 44	 sub	 esp, 68			; 00000044H
  0001f	56		 push	 esi
  00020	be ff ff ff 3f	 mov	 esi, 1073741823		; 3fffffffH
  00025	2b f0		 sub	 esi, eax
  00027	3b f2		 cmp	 esi, edx
  00029	5e		 pop	 esi
  0002a	73 51		 jae	 SHORT $L153677

; 958  : 			_THROW(length_error, "list<T> too long");

  0002c	6a 10		 push	 16			; 00000010H
  0002e	68 00 00 00 00	 push	 OFFSET FLAT:??_C@_0BB@MOGOBHAF@list?$DMT?$DO?5too?5long?$AA@
  00033	8d 4c 24 08	 lea	 ecx, DWORD PTR $T158511[esp+88]
  00037	c7 44 24 20 0f
	00 00 00	 mov	 DWORD PTR $T158511[esp+112], 15 ; 0000000fH
  0003f	c7 44 24 1c 00
	00 00 00	 mov	 DWORD PTR $T158511[esp+108], 0
  00047	c6 44 24 0c 00	 mov	 BYTE PTR $T158511[esp+92], 0
  0004c	e8 00 00 00 00	 call	 ?assign@?$basic_string@DU?$char_traits@D@std@@V?$allocator@D@2@@std@@QAEAAV12@PBDI@Z ; std::basic_string<char,std::char_traits<char>,std::allocator<char> >::assign
  00051	8d 04 24	 lea	 eax, DWORD PTR $T158511[esp+80]
  00054	50		 push	 eax
  00055	8d 4c 24 20	 lea	 ecx, DWORD PTR $T158510[esp+84]
  00059	c7 44 24 50 00
	00 00 00	 mov	 DWORD PTR __$EHRec$[esp+92], 0
  00061	e8 00 00 00 00	 call	 ??0logic_error@std@@QAE@ABV?$basic_string@DU?$char_traits@D@std@@V?$allocator@D@2@@1@@Z ; std::logic_error::logic_error
  00066	68 00 00 00 00	 push	 OFFSET FLAT:__TI3?AVlength_error@std@@
  0006b	8d 4c 24 20	 lea	 ecx, DWORD PTR $T158510[esp+84]
  0006f	51		 push	 ecx
  00070	c7 44 24 24 00
	00 00 00	 mov	 DWORD PTR $T158510[esp+88], OFFSET FLAT:??_7length_error@std@@6B@
  00078	e8 00 00 00 00	 call	 __CxxThrowException@8
$L158643:
$L153677:

; 959  : 		_Mysize += _Count;

  0007d	03 c2		 add	 eax, edx
  0007f	89 41 08	 mov	 DWORD PTR [ecx+8], eax

; 960  : 		}

  00082	8b 4c 24 44	 mov	 ecx, DWORD PTR __$EHRec$[esp+80]
  00086	64 89 0d 00 00
	00 00		 mov	 DWORD PTR fs:__except_list, ecx
  0008d	83 c4 50	 add	 esp, 80			; 00000050H
  00090	c2 04 00	 ret	 4
$L158641:
_TEXT	ENDS
;	COMDAT text$x
text$x	SEGMENT
$L158512:
  00000	8d 4d b0	 lea	 ecx, DWORD PTR $T158511[ebp]
  00003	e9 00 00 00 00	 jmp	 ??1?$basic_string@DU?$char_traits@D@std@@V?$allocator@D@2@@std@@QAE@XZ ; std::basic_string<char,std::char_traits<char>,std::allocator<char> >::~basic_string<char,std::char_traits<char>,std::allocator<char> >
__ehhandler$?_Incsize@?$list@PAXV?$allocator@PAX@std@@@std@@IAEXI@Z:
  00008	b8 00 00 00 00	 mov	 eax, OFFSET FLAT:$T158639
  0000d	e9 00 00 00 00	 jmp	 ___CxxFrameHandler
text$x	ENDS
?_Incsize@?$list@PAXV?$allocator@PAX@std@@@std@@IAEXI@Z ENDP ; std::list<void *,std::allocator<void *> >::_Incsize
;	COMDAT xdata$x
xdata$x	SEGMENT
$T158748 DD	0ffffffffH
	DD	FLAT:$L158649
$T158746 DD	019930520H
	DD	01H
	DD	FLAT:$T158748
	DD	2 DUP(00H)
	DD	2 DUP(00H)
; Function compile flags: /Ogty
xdata$x	ENDS
;	COMDAT ??0logic_error@std@@QAE@ABV01@@Z
_TEXT	SEGMENT
_this$ = -16						; size = 4
__$EHRec$ = -12						; size = 12
___that$ = 8						; size = 4
??0logic_error@std@@QAE@ABV01@@Z PROC NEAR		; std::logic_error::logic_error, COMDAT
; _this$ = ecx
  00000	6a ff		 push	 -1
  00002	68 00 00 00 00	 push	 __ehhandler$??0logic_error@std@@QAE@ABV01@@Z
  00007	64 a1 00 00 00
	00		 mov	 eax, DWORD PTR fs:__except_list
  0000d	50		 push	 eax
  0000e	64 89 25 00 00
	00 00		 mov	 DWORD PTR fs:__except_list, esp
  00015	51		 push	 ecx
  00016	56		 push	 esi
  00017	57		 push	 edi
  00018	8b 7c 24 1c	 mov	 edi, DWORD PTR ___that$[esp+20]
  0001c	8b f1		 mov	 esi, ecx
  0001e	57		 push	 edi
  0001f	89 74 24 0c	 mov	 DWORD PTR _this$[esp+28], esi
  00023	e8 00 00 00 00	 call	 ??0exception@@QAE@ABV0@@Z ; exception::exception
  00028	33 c0		 xor	 eax, eax
  0002a	6a ff		 push	 -1
  0002c	8d 4e 0c	 lea	 ecx, DWORD PTR [esi+12]
  0002f	c7 06 00 00 00
	00		 mov	 DWORD PTR [esi], OFFSET FLAT:??_7logic_error@std@@6B@
  00035	50		 push	 eax
  00036	83 c7 0c	 add	 edi, 12			; 0000000cH
  00039	c7 41 18 0f 00
	00 00		 mov	 DWORD PTR [ecx+24], 15	; 0000000fH
  00040	89 41 14	 mov	 DWORD PTR [ecx+20], eax
  00043	57		 push	 edi
  00044	89 44 24 20	 mov	 DWORD PTR __$EHRec$[esp+44], eax
  00048	88 41 04	 mov	 BYTE PTR [ecx+4], al
  0004b	e8 00 00 00 00	 call	 ?assign@?$basic_string@DU?$char_traits@D@std@@V?$allocator@D@2@@std@@QAEAAV12@ABV12@II@Z ; std::basic_string<char,std::char_traits<char>,std::allocator<char> >::assign
  00050	8b 4c 24 0c	 mov	 ecx, DWORD PTR __$EHRec$[esp+24]
  00054	5f		 pop	 edi
  00055	8b c6		 mov	 eax, esi
  00057	5e		 pop	 esi
  00058	64 89 0d 00 00
	00 00		 mov	 DWORD PTR fs:__except_list, ecx
  0005f	83 c4 10	 add	 esp, 16			; 00000010H
  00062	c2 04 00	 ret	 4
_TEXT	ENDS
;	COMDAT text$x
text$x	SEGMENT
$L158649:
  00000	8b 4d f0	 mov	 ecx, DWORD PTR _this$[ebp]
  00003	e9 00 00 00 00	 jmp	 ??1exception@@UAE@XZ	; exception::~exception
__ehhandler$??0logic_error@std@@QAE@ABV01@@Z:
  00008	b8 00 00 00 00	 mov	 eax, OFFSET FLAT:$T158746
  0000d	e9 00 00 00 00	 jmp	 ___CxxFrameHandler
text$x	ENDS
??0logic_error@std@@QAE@ABV01@@Z ENDP			; std::logic_error::logic_error
; Function compile flags: /Ogty
;	COMDAT ??0length_error@std@@QAE@ABV01@@Z
_TEXT	SEGMENT
___that$ = 8						; size = 4
??0length_error@std@@QAE@ABV01@@Z PROC NEAR		; std::length_error::length_error, COMDAT
; _this$ = ecx
  00000	8b 44 24 04	 mov	 eax, DWORD PTR ___that$[esp-4]
  00004	56		 push	 esi
  00005	50		 push	 eax
  00006	8b f1		 mov	 esi, ecx
  00008	e8 00 00 00 00	 call	 ??0logic_error@std@@QAE@ABV01@@Z
  0000d	c7 06 00 00 00
	00		 mov	 DWORD PTR [esi], OFFSET FLAT:??_7length_error@std@@6B@
  00013	8b c6		 mov	 eax, esi
  00015	5e		 pop	 esi
  00016	c2 04 00	 ret	 4
??0length_error@std@@QAE@ABV01@@Z ENDP			; std::length_error::length_error
_TEXT	ENDS
PUBLIC	??_C@_0BC@KBDMBKEH@deque?$DMT?$DO?5too?5long?$AA@ ; `string'
PUBLIC	?_Xlen@?$deque@PAV?$CMyBucket@PAVCClientSockE@@@@V?$allocator@PAV?$CMyBucket@PAVCClientSockE@@@@@std@@@std@@IBEXXZ ; std::deque<CMyBucket<CClientSockE *> *,std::allocator<CMyBucket<CClientSockE *> *> >::_Xlen
;	COMDAT xdata$x
; File c:\program files\microsoft visual studio .net 2003\vc7\include\stdexcept
xdata$x	SEGMENT
$T158874 DD	0ffffffffH
	DD	FLAT:$L158760
$T158871 DD	019930520H
	DD	01H
	DD	FLAT:$T158874
	DD	2 DUP(00H)
	DD	2 DUP(00H)
xdata$x	ENDS
;	COMDAT ??_C@_0BC@KBDMBKEH@deque?$DMT?$DO?5too?5long?$AA@
CONST	SEGMENT
??_C@_0BC@KBDMBKEH@deque?$DMT?$DO?5too?5long?$AA@ DB 'deque<T> too long', 00H ; `string'
; Function compile flags: /Ogty
; File c:\program files\microsoft visual studio .net 2003\vc7\include\deque
CONST	ENDS
;	COMDAT ?_Xlen@?$deque@PAV?$CMyBucket@PAVCClientSockE@@@@V?$allocator@PAV?$CMyBucket@PAVCClientSockE@@@@@std@@@std@@IBEXXZ
_TEXT	SEGMENT
$T158759 = -80						; size = 28
$T158758 = -52						; size = 40
__$EHRec$ = -12						; size = 12
?_Xlen@?$deque@PAV?$CMyBucket@PAVCClientSockE@@@@V?$allocator@PAV?$CMyBucket@PAVCClientSockE@@@@@std@@@std@@IBEXXZ PROC NEAR ; std::deque<CMyBucket<CClientSockE *> *,std::allocator<CMyBucket<CClientSockE *> *> >::_Xlen, COMDAT
; _this$ = ecx

; 897  : 		{	// report length error

  00000	6a ff		 push	 -1
  00002	68 00 00 00 00	 push	 __ehhandler$?_Xlen@?$deque@PAV?$CMyBucket@PAVCClientSockE@@@@V?$allocator@PAV?$CMyBucket@PAVCClientSockE@@@@@std@@@std@@IBEXXZ
  00007	64 a1 00 00 00
	00		 mov	 eax, DWORD PTR fs:__except_list
  0000d	50		 push	 eax
  0000e	64 89 25 00 00
	00 00		 mov	 DWORD PTR fs:__except_list, esp
  00015	83 ec 44	 sub	 esp, 68			; 00000044H

; 898  : 		_THROW(length_error, "deque<T> too long");

  00018	6a 11		 push	 17			; 00000011H
  0001a	68 00 00 00 00	 push	 OFFSET FLAT:??_C@_0BC@KBDMBKEH@deque?$DMT?$DO?5too?5long?$AA@
  0001f	8d 4c 24 08	 lea	 ecx, DWORD PTR $T158759[esp+88]
  00023	c7 44 24 20 0f
	00 00 00	 mov	 DWORD PTR $T158759[esp+112], 15 ; 0000000fH
  0002b	c7 44 24 1c 00
	00 00 00	 mov	 DWORD PTR $T158759[esp+108], 0
  00033	c6 44 24 0c 00	 mov	 BYTE PTR $T158759[esp+92], 0
  00038	e8 00 00 00 00	 call	 ?assign@?$basic_string@DU?$char_traits@D@std@@V?$allocator@D@2@@std@@QAEAAV12@PBDI@Z ; std::basic_string<char,std::char_traits<char>,std::allocator<char> >::assign
  0003d	8d 04 24	 lea	 eax, DWORD PTR $T158759[esp+80]
  00040	50		 push	 eax
  00041	8d 4c 24 20	 lea	 ecx, DWORD PTR $T158758[esp+84]
  00045	c7 44 24 50 00
	00 00 00	 mov	 DWORD PTR __$EHRec$[esp+92], 0
  0004d	e8 00 00 00 00	 call	 ??0logic_error@std@@QAE@ABV?$basic_string@DU?$char_traits@D@std@@V?$allocator@D@2@@1@@Z ; std::logic_error::logic_error
  00052	68 00 00 00 00	 push	 OFFSET FLAT:__TI3?AVlength_error@std@@
  00057	8d 4c 24 20	 lea	 ecx, DWORD PTR $T158758[esp+84]
  0005b	51		 push	 ecx
  0005c	c7 44 24 24 00
	00 00 00	 mov	 DWORD PTR $T158758[esp+88], OFFSET FLAT:??_7length_error@std@@6B@
  00064	e8 00 00 00 00	 call	 __CxxThrowException@8
$L158875:
$L158873:
  00069	cc		 int	 3
_TEXT	ENDS
;	COMDAT text$x
text$x	SEGMENT
$L158760:
  00000	8d 4d b0	 lea	 ecx, DWORD PTR $T158759[ebp]
  00003	e9 00 00 00 00	 jmp	 ??1?$basic_string@DU?$char_traits@D@std@@V?$allocator@D@2@@std@@QAE@XZ ; std::basic_string<char,std::char_traits<char>,std::allocator<char> >::~basic_string<char,std::char_traits<char>,std::allocator<char> >
__ehhandler$?_Xlen@?$deque@PAV?$CMyBucket@PAVCClientSockE@@@@V?$allocator@PAV?$CMyBucket@PAVCClientSockE@@@@@std@@@std@@IBEXXZ:
  00008	b8 00 00 00 00	 mov	 eax, OFFSET FLAT:$T158871
  0000d	e9 00 00 00 00	 jmp	 ___CxxFrameHandler
text$x	ENDS
?_Xlen@?$deque@PAV?$CMyBucket@PAVCClientSockE@@@@V?$allocator@PAV?$CMyBucket@PAVCClientSockE@@@@@std@@@std@@IBEXXZ ENDP ; std::deque<CMyBucket<CClientSockE *> *,std::allocator<CMyBucket<CClientSockE *> *> >::_Xlen
PUBLIC	?_Incsize@?$list@PAV?$CMyBucket@PAVCClientSockE@@@@V?$allocator@PAV?$CMyBucket@PAVCClientSockE@@@@@std@@@std@@IAEXI@Z ; std::list<CMyBucket<CClientSockE *> *,std::allocator<CMyBucket<CClientSockE *> *> >::_Incsize
;	COMDAT xdata$x
; File c:\program files\microsoft visual studio .net 2003\vc7\include\stdexcept
xdata$x	SEGMENT
$T159013 DD	0ffffffffH
	DD	FLAT:$L158883
$T159010 DD	019930520H
	DD	01H
	DD	FLAT:$T159013
	DD	2 DUP(00H)
	DD	2 DUP(00H)
; Function compile flags: /Ogty
; File c:\program files\microsoft visual studio .net 2003\vc7\include\list
xdata$x	ENDS
;	COMDAT ?_Incsize@?$list@PAV?$CMyBucket@PAVCClientSockE@@@@V?$allocator@PAV?$CMyBucket@PAVCClientSockE@@@@@std@@@std@@IAEXI@Z
_TEXT	SEGMENT
$T158882 = -80						; size = 28
$T158881 = -52						; size = 40
__$EHRec$ = -12						; size = 12
__Count$ = 8						; size = 4
?_Incsize@?$list@PAV?$CMyBucket@PAVCClientSockE@@@@V?$allocator@PAV?$CMyBucket@PAVCClientSockE@@@@@std@@@std@@IAEXI@Z PROC NEAR ; std::list<CMyBucket<CClientSockE *> *,std::allocator<CMyBucket<CClientSockE *> *> >::_Incsize, COMDAT
; _this$ = ecx

; 956  : 		{	// alter element count, with checking

  00000	64 a1 00 00 00
	00		 mov	 eax, DWORD PTR fs:__except_list

; 957  : 		if (max_size() - _Mysize < _Count)

  00006	8b 54 24 04	 mov	 edx, DWORD PTR __Count$[esp-4]
  0000a	6a ff		 push	 -1
  0000c	68 00 00 00 00	 push	 __ehhandler$?_Incsize@?$list@PAV?$CMyBucket@PAVCClientSockE@@@@V?$allocator@PAV?$CMyBucket@PAVCClientSockE@@@@@std@@@std@@IAEXI@Z
  00011	50		 push	 eax
  00012	64 89 25 00 00
	00 00		 mov	 DWORD PTR fs:__except_list, esp
  00019	8b 41 08	 mov	 eax, DWORD PTR [ecx+8]
  0001c	83 ec 44	 sub	 esp, 68			; 00000044H
  0001f	56		 push	 esi
  00020	be ff ff ff 3f	 mov	 esi, 1073741823		; 3fffffffH
  00025	2b f0		 sub	 esi, eax
  00027	3b f2		 cmp	 esi, edx
  00029	5e		 pop	 esi
  0002a	73 51		 jae	 SHORT $L155006

; 958  : 			_THROW(length_error, "list<T> too long");

  0002c	6a 10		 push	 16			; 00000010H
  0002e	68 00 00 00 00	 push	 OFFSET FLAT:??_C@_0BB@MOGOBHAF@list?$DMT?$DO?5too?5long?$AA@
  00033	8d 4c 24 08	 lea	 ecx, DWORD PTR $T158882[esp+88]
  00037	c7 44 24 20 0f
	00 00 00	 mov	 DWORD PTR $T158882[esp+112], 15 ; 0000000fH
  0003f	c7 44 24 1c 00
	00 00 00	 mov	 DWORD PTR $T158882[esp+108], 0
  00047	c6 44 24 0c 00	 mov	 BYTE PTR $T158882[esp+92], 0
  0004c	e8 00 00 00 00	 call	 ?assign@?$basic_string@DU?$char_traits@D@std@@V?$allocator@D@2@@std@@QAEAAV12@PBDI@Z ; std::basic_string<char,std::char_traits<char>,std::allocator<char> >::assign
  00051	8d 04 24	 lea	 eax, DWORD PTR $T158882[esp+80]
  00054	50		 push	 eax
  00055	8d 4c 24 20	 lea	 ecx, DWORD PTR $T158881[esp+84]
  00059	c7 44 24 50 00
	00 00 00	 mov	 DWORD PTR __$EHRec$[esp+92], 0
  00061	e8 00 00 00 00	 call	 ??0logic_error@std@@QAE@ABV?$basic_string@DU?$char_traits@D@std@@V?$allocator@D@2@@1@@Z ; std::logic_error::logic_error
  00066	68 00 00 00 00	 push	 OFFSET FLAT:__TI3?AVlength_error@std@@
  0006b	8d 4c 24 20	 lea	 ecx, DWORD PTR $T158881[esp+84]
  0006f	51		 push	 ecx
  00070	c7 44 24 24 00
	00 00 00	 mov	 DWORD PTR $T158881[esp+88], OFFSET FLAT:??_7length_error@std@@6B@
  00078	e8 00 00 00 00	 call	 __CxxThrowException@8
$L159014:
$L155006:

; 959  : 		_Mysize += _Count;

  0007d	03 c2		 add	 eax, edx
  0007f	89 41 08	 mov	 DWORD PTR [ecx+8], eax

; 960  : 		}

  00082	8b 4c 24 44	 mov	 ecx, DWORD PTR __$EHRec$[esp+80]
  00086	64 89 0d 00 00
	00 00		 mov	 DWORD PTR fs:__except_list, ecx
  0008d	83 c4 50	 add	 esp, 80			; 00000050H
  00090	c2 04 00	 ret	 4
$L159012:
_TEXT	ENDS
;	COMDAT text$x
text$x	SEGMENT
$L158883:
  00000	8d 4d b0	 lea	 ecx, DWORD PTR $T158882[ebp]
  00003	e9 00 00 00 00	 jmp	 ??1?$basic_string@DU?$char_traits@D@std@@V?$allocator@D@2@@std@@QAE@XZ ; std::basic_string<char,std::char_traits<char>,std::allocator<char> >::~basic_string<char,std::char_traits<char>,std::allocator<char> >
__ehhandler$?_Incsize@?$list@PAV?$CMyBucket@PAVCClientSockE@@@@V?$allocator@PAV?$CMyBucket@PAVCClientSockE@@@@@std@@@std@@IAEXI@Z:
  00008	b8 00 00 00 00	 mov	 eax, OFFSET FLAT:$T159010
  0000d	e9 00 00 00 00	 jmp	 ___CxxFrameHandler
text$x	ENDS
?_Incsize@?$list@PAV?$CMyBucket@PAVCClientSockE@@@@V?$allocator@PAV?$CMyBucket@PAVCClientSockE@@@@@std@@@std@@IAEXI@Z ENDP ; std::list<CMyBucket<CClientSockE *> *,std::allocator<CMyBucket<CClientSockE *> *> >::_Incsize
; Function compile flags: /Ogty
;	COMDAT ??_GCServerSockE@@UAEPAXI@Z
_TEXT	SEGMENT
___flags$ = 8						; size = 4
??_GCServerSockE@@UAEPAXI@Z PROC NEAR			; CServerSockE::`scalar deleting destructor', COMDAT
; _this$ = ecx
  00000	56		 push	 esi
  00001	8b f1		 mov	 esi, ecx
  00003	e8 00 00 00 00	 call	 ??1CServerSockE@@UAE@XZ	; CServerSockE::~CServerSockE
  00008	f6 44 24 08 01	 test	 BYTE PTR ___flags$[esp], 1
  0000d	74 09		 je	 SHORT $L159020
  0000f	56		 push	 esi
  00010	e8 00 00 00 00	 call	 ??3@YAXPAX@Z		; operator delete
  00015	83 c4 04	 add	 esp, 4
$L159020:
  00018	8b c6		 mov	 eax, esi
  0001a	5e		 pop	 esi
  0001b	c2 04 00	 ret	 4
??_GCServerSockE@@UAEPAXI@Z ENDP			; CServerSockE::`scalar deleting destructor'
_TEXT	ENDS
PUBLIC	?_Insert@?$list@PAXV?$allocator@PAX@std@@@std@@QAEXViterator@12@ABQAX@Z ; std::list<void *,std::allocator<void *> >::_Insert
; Function compile flags: /Ogty
;	COMDAT ?_Insert@?$list@PAXV?$allocator@PAX@std@@@std@@QAEXViterator@12@ABQAX@Z
_TEXT	SEGMENT
__Where$ = 8						; size = 4
__Val$ = 12						; size = 4
?_Insert@?$list@PAXV?$allocator@PAX@std@@@std@@QAEXViterator@12@ABQAX@Z PROC NEAR ; std::list<void *,std::allocator<void *> >::_Insert, COMDAT
; _this$ = ecx

; 522  : 		_Nodeptr _Pnode = _Where._Mynode();
; 523  : 		_Nodeptr _Newnode = _Buynode(_Pnode, _Prevnode(_Pnode), _Val);

  00000	8b 44 24 08	 mov	 eax, DWORD PTR __Val$[esp-4]
  00004	53		 push	 ebx
  00005	8b 5c 24 08	 mov	 ebx, DWORD PTR __Where$[esp]
  00009	56		 push	 esi
  0000a	57		 push	 edi
  0000b	8b f9		 mov	 edi, ecx
  0000d	8b 4b 04	 mov	 ecx, DWORD PTR [ebx+4]
  00010	50		 push	 eax
  00011	51		 push	 ecx
  00012	53		 push	 ebx
  00013	8b cf		 mov	 ecx, edi
  00015	e8 00 00 00 00	 call	 ?_Buynode@?$list@PAXV?$allocator@PAX@std@@@std@@IAEPAU_Node@?$_List_nod@PAXV?$allocator@PAX@std@@@2@PAU342@0ABQAX@Z ; std::list<void *,std::allocator<void *> >::_Buynode

; 524  : 		_Incsize(1);

  0001a	6a 01		 push	 1
  0001c	8b cf		 mov	 ecx, edi
  0001e	8b f0		 mov	 esi, eax
  00020	e8 00 00 00 00	 call	 ?_Incsize@?$list@PAXV?$allocator@PAX@std@@@std@@IAEXI@Z ; std::list<void *,std::allocator<void *> >::_Incsize

; 525  : 		_Prevnode(_Pnode) = _Newnode;

  00025	89 73 04	 mov	 DWORD PTR [ebx+4], esi

; 526  : 		_Nextnode(_Prevnode(_Newnode)) = _Newnode;

  00028	8b 56 04	 mov	 edx, DWORD PTR [esi+4]
  0002b	5f		 pop	 edi
  0002c	89 32		 mov	 DWORD PTR [edx], esi
  0002e	5e		 pop	 esi
  0002f	5b		 pop	 ebx

; 527  : 		}

  00030	c2 08 00	 ret	 8
?_Insert@?$list@PAXV?$allocator@PAX@std@@@std@@QAEXViterator@12@ABQAX@Z ENDP ; std::list<void *,std::allocator<void *> >::_Insert
_TEXT	ENDS
PUBLIC	?_Growmap@?$deque@PAV?$CMyBucket@PAVCClientSockE@@@@V?$allocator@PAV?$CMyBucket@PAVCClientSockE@@@@@std@@@std@@IAEXI@Z ; std::deque<CMyBucket<CClientSockE *> *,std::allocator<CMyBucket<CClientSockE *> *> >::_Growmap
; Function compile flags: /Ogty
; File c:\program files\microsoft visual studio .net 2003\vc7\include\deque
;	COMDAT ?_Growmap@?$deque@PAV?$CMyBucket@PAVCClientSockE@@@@V?$allocator@PAV?$CMyBucket@PAVCClientSockE@@@@@std@@@std@@IAEXI@Z
_TEXT	SEGMENT
__Newmap$ = -12						; size = 4
$T159107 = -8						; size = 4
tv356 = -4						; size = 4
tv349 = -4						; size = 4
__Count$ = 8						; size = 4
?_Growmap@?$deque@PAV?$CMyBucket@PAVCClientSockE@@@@V?$allocator@PAV?$CMyBucket@PAVCClientSockE@@@@@std@@@std@@IAEXI@Z PROC NEAR ; std::deque<CMyBucket<CClientSockE *> *,std::allocator<CMyBucket<CClientSockE *> *> >::_Growmap, COMDAT
; _this$ = ecx

; 907  : 		{	// grow map by _Count pointers

  00000	83 ec 0c	 sub	 esp, 12			; 0000000cH
  00003	53		 push	 ebx
  00004	8b d9		 mov	 ebx, ecx

; 908  : 		if (max_size() / _DEQUESIZ - _Mapsize < _Count)

  00006	8b 43 08	 mov	 eax, DWORD PTR [ebx+8]
  00009	b9 ff ff ff 0f	 mov	 ecx, 268435455		; 0fffffffH
  0000e	57		 push	 edi
  0000f	8b 7c 24 18	 mov	 edi, DWORD PTR __Count$[esp+16]
  00013	2b c8		 sub	 ecx, eax
  00015	3b cf		 cmp	 ecx, edi
  00017	73 07		 jae	 SHORT $L154619

; 909  : 			_Xlen();	// result too long

  00019	8b cb		 mov	 ecx, ebx
  0001b	e8 00 00 00 00	 call	 ?_Xlen@?$deque@PAV?$CMyBucket@PAVCClientSockE@@@@V?$allocator@PAV?$CMyBucket@PAVCClientSockE@@@@@std@@@std@@IBEXXZ ; std::deque<CMyBucket<CClientSockE *> *,std::allocator<CMyBucket<CClientSockE *> *> >::_Xlen
$L159291:
$L154619:

; 910  : 
; 911  : 		size_type _Inc = _Mapsize / 2;	// try to grow by 50%

  00020	8b c8		 mov	 ecx, eax
  00022	d1 e9		 shr	 ecx, 1

; 912  : 		if (_Inc < _DEQUEMAPSIZ)

  00024	83 f9 08	 cmp	 ecx, 8
  00027	73 05		 jae	 SHORT $L154621

; 913  : 			_Inc = _DEQUEMAPSIZ;

  00029	b9 08 00 00 00	 mov	 ecx, 8
$L154621:

; 914  : 		if (_Count < _Inc && _Mapsize <= max_size() / _DEQUESIZ - _Inc)

  0002e	3b f9		 cmp	 edi, ecx
  00030	73 11		 jae	 SHORT $L154622
  00032	ba ff ff ff 0f	 mov	 edx, 268435455		; 0fffffffH
  00037	2b d1		 sub	 edx, ecx
  00039	3b c2		 cmp	 eax, edx
  0003b	77 06		 ja	 SHORT $L154622

; 915  : 			_Count = _Inc;

  0003d	89 4c 24 18	 mov	 DWORD PTR __Count$[esp+16], ecx
  00041	8b f9		 mov	 edi, ecx
$L154622:
  00043	55		 push	 ebp

; 916  : 		size_type _Myboff = _Myoff / _DEQUESIZ;

  00044	8b 6b 0c	 mov	 ebp, DWORD PTR [ebx+12]

; 917  : 		_Mapptr _Newmap = this->_Almap.allocate(_Mapsize + _Count);

  00047	03 c7		 add	 eax, edi
  00049	c1 e0 02	 shl	 eax, 2
  0004c	56		 push	 esi
  0004d	50		 push	 eax
  0004e	c1 ed 02	 shr	 ebp, 2
  00051	e8 00 00 00 00	 call	 ??2@YAPAXI@Z		; operator new

; 918  : 		_Mapptr _Myptr = _Newmap + _Myboff;
; 919  : 
; 920  : 		_Myptr = _Uninitialized_copy(_Map + _Myboff,
; 921  : 			_Map + _Mapsize, _Myptr, this->_Almap);	// copy initial to end

  00056	8b 4b 04	 mov	 ecx, DWORD PTR [ebx+4]
  00059	8b d0		 mov	 edx, eax
  0005b	8d 34 ad 00 00
	00 00		 lea	 esi, DWORD PTR [ebp*4]
  00062	8d 04 0e	 lea	 eax, DWORD PTR [esi+ecx]
  00065	89 44 24 18	 mov	 DWORD PTR $T159107[esp+32], eax
  00069	8b 43 08	 mov	 eax, DWORD PTR [ebx+8]
  0006c	c1 e0 02	 shl	 eax, 2
  0006f	2b 44 24 18	 sub	 eax, DWORD PTR $T159107[esp+32]
  00073	89 54 24 14	 mov	 DWORD PTR __Newmap$[esp+32], edx
  00077	03 c1		 add	 eax, ecx
  00079	8b 4c 24 18	 mov	 ecx, DWORD PTR $T159107[esp+32]
  0007d	c1 f8 02	 sar	 eax, 2
  00080	c1 e0 02	 shl	 eax, 2
  00083	50		 push	 eax
  00084	51		 push	 ecx
  00085	03 d6		 add	 edx, esi
  00087	52		 push	 edx
  00088	89 44 24 28	 mov	 DWORD PTR tv349[esp+44], eax
  0008c	e8 00 00 00 00	 call	 _memmove
  00091	8b 54 24 28	 mov	 edx, DWORD PTR tv349[esp+44]

; 922  : 		if (_Myboff <= _Count)
; 923  : 			{	// increment greater than offset of initial block
; 924  : 			_Myptr = _Uninitialized_copy(_Map,
; 925  : 				_Map + _Myboff, _Myptr, this->_Almap);	// copy rest of old

  00095	8b 4b 04	 mov	 ecx, DWORD PTR [ebx+4]
  00098	83 c4 10	 add	 esp, 16			; 00000010H
  0009b	03 c2		 add	 eax, edx
  0009d	3b ef		 cmp	 ebp, edi
  0009f	77 3f		 ja	 SHORT $L154635
  000a1	c1 fe 02	 sar	 esi, 2
  000a4	8b d6		 mov	 edx, esi
  000a6	c1 e2 02	 shl	 edx, 2
  000a9	52		 push	 edx
  000aa	51		 push	 ecx

; 926  : 			_Uninitialized_fill_n(_Myptr, _Count - _Myboff,
; 927  : 				(_Tptr)0, this->_Almap);	// clear suffix of new

  000ab	8b f7		 mov	 esi, edi
  000ad	50		 push	 eax
  000ae	2b f5		 sub	 esi, ebp
  000b0	89 54 24 24	 mov	 DWORD PTR tv356[esp+40], edx
  000b4	e8 00 00 00 00	 call	 _memmove
  000b9	8b 4c 24 24	 mov	 ecx, DWORD PTR tv356[esp+40]
  000bd	8b d0		 mov	 edx, eax
  000bf	83 c4 0c	 add	 esp, 12			; 0000000cH
  000c2	03 d1		 add	 edx, ecx
  000c4	85 f6		 test	 esi, esi
  000c6	76 0c		 jbe	 SHORT $L159160
  000c8	8b ce		 mov	 ecx, esi
  000ca	33 c0		 xor	 eax, eax
  000cc	8b fa		 mov	 edi, edx
  000ce	f3 ab		 rep stosd
  000d0	8b 7c 24 20	 mov	 edi, DWORD PTR __Count$[esp+24]
$L159160:

; 928  : 			_Uninitialized_fill_n(_Newmap, _Myboff,
; 929  : 				(_Tptr)0, this->_Almap);	// clear prefix of new

  000d4	85 ed		 test	 ebp, ebp
  000d6	76 52		 jbe	 SHORT $L159288
  000d8	8b 7c 24 10	 mov	 edi, DWORD PTR __Newmap$[esp+28]
  000dc	8b cd		 mov	 ecx, ebp

; 930  : 			}
; 931  : 		else

  000de	eb 42		 jmp	 SHORT $L159290
$L154635:

; 932  : 			{	// increment not greater than offset of initial block
; 933  : 			_Uninitialized_copy(_Map,
; 934  : 				_Map + _Count, _Myptr, this->_Almap);	// copy more old

  000e0	8d 2c bd 00 00
	00 00		 lea	 ebp, DWORD PTR [edi*4]
  000e7	8b d5		 mov	 edx, ebp
  000e9	c1 fa 02	 sar	 edx, 2
  000ec	c1 e2 02	 shl	 edx, 2
  000ef	52		 push	 edx
  000f0	51		 push	 ecx
  000f1	50		 push	 eax
  000f2	e8 00 00 00 00	 call	 _memmove

; 935  : 			_Myptr = _Uninitialized_copy(_Map + _Count,
; 936  : 				_Map + _Myboff, _Newmap, this->_Almap);	// copy rest of old

  000f7	8b 43 04	 mov	 eax, DWORD PTR [ebx+4]
  000fa	8d 0c 28	 lea	 ecx, DWORD PTR [eax+ebp]
  000fd	2b f1		 sub	 esi, ecx
  000ff	03 f0		 add	 esi, eax
  00101	8b 44 24 1c	 mov	 eax, DWORD PTR __Newmap$[esp+40]
  00105	c1 fe 02	 sar	 esi, 2
  00108	c1 e6 02	 shl	 esi, 2
  0010b	56		 push	 esi
  0010c	51		 push	 ecx
  0010d	50		 push	 eax
  0010e	e8 00 00 00 00	 call	 _memmove
  00113	8b d0		 mov	 edx, eax
  00115	83 c4 18	 add	 esp, 24			; 00000018H
  00118	03 d6		 add	 edx, esi

; 937  : 			_Uninitialized_fill_n(_Myptr, _Count,
; 938  : 				(_Tptr)0, this->_Almap);	// clear rest to initial block

  0011a	85 ff		 test	 edi, edi
  0011c	76 0c		 jbe	 SHORT $L159288
  0011e	8b cf		 mov	 ecx, edi
  00120	8b fa		 mov	 edi, edx
$L159290:
  00122	33 c0		 xor	 eax, eax
  00124	f3 ab		 rep stosd
  00126	8b 7c 24 20	 mov	 edi, DWORD PTR __Count$[esp+24]
$L159288:

; 939  : 			}
; 940  : 
; 941  : 		_Destroy_range(_Map + _Myboff, _Map + _Mapsize, this->_Almap);
; 942  : 		if (_Map)

  0012a	8b 43 04	 mov	 eax, DWORD PTR [ebx+4]
  0012d	85 c0		 test	 eax, eax
  0012f	5e		 pop	 esi
  00130	5d		 pop	 ebp
  00131	74 09		 je	 SHORT $L159277

; 943  : 			this->_Almap.deallocate(_Map, _Mapsize);	// free storage for old

  00133	50		 push	 eax
  00134	e8 00 00 00 00	 call	 ??3@YAXPAX@Z		; operator delete
  00139	83 c4 04	 add	 esp, 4
$L159277:

; 944  : 
; 945  : 		_Map = _Newmap;	// point at new
; 946  : 		_Mapsize += _Count;

  0013c	8b 43 08	 mov	 eax, DWORD PTR [ebx+8]
  0013f	8b 4c 24 08	 mov	 ecx, DWORD PTR __Newmap$[esp+20]
  00143	03 c7		 add	 eax, edi
  00145	5f		 pop	 edi
  00146	89 4b 04	 mov	 DWORD PTR [ebx+4], ecx
  00149	89 43 08	 mov	 DWORD PTR [ebx+8], eax
  0014c	5b		 pop	 ebx

; 947  : 		}

  0014d	83 c4 0c	 add	 esp, 12			; 0000000cH
  00150	c2 04 00	 ret	 4
$L159289:
?_Growmap@?$deque@PAV?$CMyBucket@PAVCClientSockE@@@@V?$allocator@PAV?$CMyBucket@PAVCClientSockE@@@@@std@@@std@@IAEXI@Z ENDP ; std::deque<CMyBucket<CClientSockE *> *,std::allocator<CMyBucket<CClientSockE *> *> >::_Growmap
_TEXT	ENDS
PUBLIC	?_Insert@?$list@PAV?$CMyBucket@PAVCClientSockE@@@@V?$allocator@PAV?$CMyBucket@PAVCClientSockE@@@@@std@@@std@@QAEXViterator@12@ABQAV?$CMyBucket@PAVCClientSockE@@@@@Z ; std::list<CMyBucket<CClientSockE *> *,std::allocator<CMyBucket<CClientSockE *> *> >::_Insert
; Function compile flags: /Ogty
; File c:\program files\microsoft visual studio .net 2003\vc7\include\list
;	COMDAT ?_Insert@?$list@PAV?$CMyBucket@PAVCClientSockE@@@@V?$allocator@PAV?$CMyBucket@PAVCClientSockE@@@@@std@@@std@@QAEXViterator@12@ABQAV?$CMyBucket@PAVCClientSockE@@@@@Z
_TEXT	SEGMENT
__Where$ = 8						; size = 4
__Val$ = 12						; size = 4
?_Insert@?$list@PAV?$CMyBucket@PAVCClientSockE@@@@V?$allocator@PAV?$CMyBucket@PAVCClientSockE@@@@@std@@@std@@QAEXViterator@12@ABQAV?$CMyBucket@PAVCClientSockE@@@@@Z PROC NEAR ; std::list<CMyBucket<CClientSockE *> *,std::allocator<CMyBucket<CClientSockE *> *> >::_Insert, COMDAT
; _this$ = ecx

; 522  : 		_Nodeptr _Pnode = _Where._Mynode();
; 523  : 		_Nodeptr _Newnode = _Buynode(_Pnode, _Prevnode(_Pnode), _Val);

  00000	8b 44 24 08	 mov	 eax, DWORD PTR __Val$[esp-4]
  00004	53		 push	 ebx
  00005	8b 5c 24 08	 mov	 ebx, DWORD PTR __Where$[esp]
  00009	56		 push	 esi
  0000a	57		 push	 edi
  0000b	8b f9		 mov	 edi, ecx
  0000d	8b 4b 04	 mov	 ecx, DWORD PTR [ebx+4]
  00010	50		 push	 eax
  00011	51		 push	 ecx
  00012	53		 push	 ebx
  00013	8b cf		 mov	 ecx, edi
  00015	e8 00 00 00 00	 call	 ?_Buynode@?$list@PAV?$CMyBucket@PAVCClientSockE@@@@V?$allocator@PAV?$CMyBucket@PAVCClientSockE@@@@@std@@@std@@IAEPAU_Node@?$_List_nod@PAV?$CMyBucket@PAVCClientSockE@@@@V?$allocator@PAV?$CMyBucket@PAVCClientSockE@@@@@std@@@2@PAU342@0ABQAV?$CMyBucket@PAVCClientSockE@@@@@Z ; std::list<CMyBucket<CClientSockE *> *,std::allocator<CMyBucket<CClientSockE *> *> >::_Buynode

; 524  : 		_Incsize(1);

  0001a	6a 01		 push	 1
  0001c	8b cf		 mov	 ecx, edi
  0001e	8b f0		 mov	 esi, eax
  00020	e8 00 00 00 00	 call	 ?_Incsize@?$list@PAV?$CMyBucket@PAVCClientSockE@@@@V?$allocator@PAV?$CMyBucket@PAVCClientSockE@@@@@std@@@std@@IAEXI@Z ; std::list<CMyBucket<CClientSockE *> *,std::allocator<CMyBucket<CClientSockE *> *> >::_Incsize

; 525  : 		_Prevnode(_Pnode) = _Newnode;

  00025	89 73 04	 mov	 DWORD PTR [ebx+4], esi

; 526  : 		_Nextnode(_Prevnode(_Newnode)) = _Newnode;

  00028	8b 56 04	 mov	 edx, DWORD PTR [esi+4]
  0002b	5f		 pop	 edi
  0002c	89 32		 mov	 DWORD PTR [edx], esi
  0002e	5e		 pop	 esi
  0002f	5b		 pop	 ebx

; 527  : 		}

  00030	c2 08 00	 ret	 8
?_Insert@?$list@PAV?$CMyBucket@PAVCClientSockE@@@@V?$allocator@PAV?$CMyBucket@PAVCClientSockE@@@@@std@@@std@@QAEXViterator@12@ABQAV?$CMyBucket@PAVCClientSockE@@@@@Z ENDP ; std::list<CMyBucket<CClientSockE *> *,std::allocator<CMyBucket<CClientSockE *> *> >::_Insert
_TEXT	ENDS
PUBLIC	?push_back@?$list@PAXV?$allocator@PAX@std@@@std@@QAEXABQAX@Z ; std::list<void *,std::allocator<void *> >::push_back
; Function compile flags: /Ogty
;	COMDAT ?push_back@?$list@PAXV?$allocator@PAX@std@@@std@@QAEXABQAX@Z
_TEXT	SEGMENT
__Val$ = 8						; size = 4
?push_back@?$list@PAXV?$allocator@PAX@std@@@std@@QAEXABQAX@Z PROC NEAR ; std::list<void *,std::allocator<void *> >::push_back, COMDAT
; _this$ = ecx

; 481  : 		_Insert(end(), _Val);

  00000	8b 44 24 04	 mov	 eax, DWORD PTR __Val$[esp-4]
  00004	53		 push	 ebx
  00005	56		 push	 esi
  00006	57		 push	 edi
  00007	8b f1		 mov	 esi, ecx
  00009	8b 7e 04	 mov	 edi, DWORD PTR [esi+4]
  0000c	8b 4f 04	 mov	 ecx, DWORD PTR [edi+4]
  0000f	50		 push	 eax
  00010	51		 push	 ecx
  00011	57		 push	 edi
  00012	8b ce		 mov	 ecx, esi
  00014	e8 00 00 00 00	 call	 ?_Buynode@?$list@PAXV?$allocator@PAX@std@@@std@@IAEPAU_Node@?$_List_nod@PAXV?$allocator@PAX@std@@@2@PAU342@0ABQAX@Z ; std::list<void *,std::allocator<void *> >::_Buynode
  00019	6a 01		 push	 1
  0001b	8b ce		 mov	 ecx, esi
  0001d	8b d8		 mov	 ebx, eax
  0001f	e8 00 00 00 00	 call	 ?_Incsize@?$list@PAXV?$allocator@PAX@std@@@std@@IAEXI@Z ; std::list<void *,std::allocator<void *> >::_Incsize
  00024	89 5f 04	 mov	 DWORD PTR [edi+4], ebx
  00027	8b 53 04	 mov	 edx, DWORD PTR [ebx+4]
  0002a	5f		 pop	 edi
  0002b	5e		 pop	 esi
  0002c	89 1a		 mov	 DWORD PTR [edx], ebx
  0002e	5b		 pop	 ebx

; 482  : 		}

  0002f	c2 04 00	 ret	 4
?push_back@?$list@PAXV?$allocator@PAX@std@@@std@@QAEXABQAX@Z ENDP ; std::list<void *,std::allocator<void *> >::push_back
_TEXT	ENDS
PUBLIC	?push_back@?$deque@PAV?$CMyBucket@PAVCClientSockE@@@@V?$allocator@PAV?$CMyBucket@PAVCClientSockE@@@@@std@@@std@@QAEXABQAV?$CMyBucket@PAVCClientSockE@@@@@Z ; std::deque<CMyBucket<CClientSockE *> *,std::allocator<CMyBucket<CClientSockE *> *> >::push_back
; Function compile flags: /Ogty
; File c:\program files\microsoft visual studio .net 2003\vc7\include\deque
;	COMDAT ?push_back@?$deque@PAV?$CMyBucket@PAVCClientSockE@@@@V?$allocator@PAV?$CMyBucket@PAVCClientSockE@@@@@std@@@std@@QAEXABQAV?$CMyBucket@PAVCClientSockE@@@@@Z
_TEXT	SEGMENT
__Val$ = 8						; size = 4
?push_back@?$deque@PAV?$CMyBucket@PAVCClientSockE@@@@V?$allocator@PAV?$CMyBucket@PAVCClientSockE@@@@@std@@@std@@QAEXABQAV?$CMyBucket@PAVCClientSockE@@@@@Z PROC NEAR ; std::deque<CMyBucket<CClientSockE *> *,std::allocator<CMyBucket<CClientSockE *> *> >::push_back, COMDAT
; _this$ = ecx

; 583  : 		{	// insert element at end

  00000	56		 push	 esi
  00001	8b f1		 mov	 esi, ecx

; 584  : 		if ((_Myoff + _Mysize) % _DEQUESIZ == 0
; 585  : 			&& _Mapsize <= (_Mysize + _DEQUESIZ) / _DEQUESIZ)

  00003	8b 46 10	 mov	 eax, DWORD PTR [esi+16]
  00006	8b 4e 0c	 mov	 ecx, DWORD PTR [esi+12]
  00009	03 c8		 add	 ecx, eax
  0000b	f6 c1 03	 test	 cl, 3
  0000e	75 16		 jne	 SHORT $L154579
  00010	8b 4e 08	 mov	 ecx, DWORD PTR [esi+8]
  00013	83 c0 04	 add	 eax, 4
  00016	c1 e8 02	 shr	 eax, 2
  00019	3b c8		 cmp	 ecx, eax
  0001b	77 09		 ja	 SHORT $L154579

; 586  : 			_Growmap(1);

  0001d	6a 01		 push	 1
  0001f	8b ce		 mov	 ecx, esi
  00021	e8 00 00 00 00	 call	 ?_Growmap@?$deque@PAV?$CMyBucket@PAVCClientSockE@@@@V?$allocator@PAV?$CMyBucket@PAVCClientSockE@@@@@std@@@std@@IAEXI@Z ; std::deque<CMyBucket<CClientSockE *> *,std::allocator<CMyBucket<CClientSockE *> *> >::_Growmap
$L154579:

; 587  : 		size_type _Newoff = _Myoff + _Mysize;
; 588  : 		size_type _Block = _Newoff / _DEQUESIZ;
; 589  : 		if (_Mapsize <= _Block)

  00026	8b 46 08	 mov	 eax, DWORD PTR [esi+8]
  00029	53		 push	 ebx
  0002a	8b 5e 10	 mov	 ebx, DWORD PTR [esi+16]
  0002d	57		 push	 edi
  0002e	8b 7e 0c	 mov	 edi, DWORD PTR [esi+12]
  00031	03 fb		 add	 edi, ebx
  00033	8b df		 mov	 ebx, edi
  00035	c1 eb 02	 shr	 ebx, 2
  00038	3b c3		 cmp	 eax, ebx
  0003a	77 02		 ja	 SHORT $L154582

; 590  : 			_Block -= _Mapsize;

  0003c	2b d8		 sub	 ebx, eax
$L154582:

; 591  : 		if (_Map[_Block] == 0)

  0003e	8b 56 04	 mov	 edx, DWORD PTR [esi+4]
  00041	83 3c 9a 00	 cmp	 DWORD PTR [edx+ebx*4], 0
  00045	75 10		 jne	 SHORT $L154583

; 592  : 			_Map[_Block] = this->_Alval.allocate(_DEQUESIZ);

  00047	6a 10		 push	 16			; 00000010H
  00049	e8 00 00 00 00	 call	 ??2@YAPAXI@Z		; operator new
  0004e	8b 4e 04	 mov	 ecx, DWORD PTR [esi+4]
  00051	83 c4 04	 add	 esp, 4
  00054	89 04 99	 mov	 DWORD PTR [ecx+ebx*4], eax
$L154583:

; 593  : 		this->_Alval.construct(_Map[_Block] + _Newoff % _DEQUESIZ, _Val);

  00057	8b 56 04	 mov	 edx, DWORD PTR [esi+4]
  0005a	8b 04 9a	 mov	 eax, DWORD PTR [edx+ebx*4]
  0005d	83 e7 03	 and	 edi, 3
  00060	8d 04 b8	 lea	 eax, DWORD PTR [eax+edi*4]
  00063	85 c0		 test	 eax, eax
  00065	5f		 pop	 edi
  00066	5b		 pop	 ebx
  00067	74 08		 je	 SHORT $L159399
  00069	8b 4c 24 08	 mov	 ecx, DWORD PTR __Val$[esp]
  0006d	8b 11		 mov	 edx, DWORD PTR [ecx]
  0006f	89 10		 mov	 DWORD PTR [eax], edx
$L159399:

; 594  : 		++_Mysize;

  00071	ff 46 10	 inc	 DWORD PTR [esi+16]
  00074	5e		 pop	 esi

; 595  : 		}

  00075	c2 04 00	 ret	 4
?push_back@?$deque@PAV?$CMyBucket@PAVCClientSockE@@@@V?$allocator@PAV?$CMyBucket@PAVCClientSockE@@@@@std@@@std@@QAEXABQAV?$CMyBucket@PAVCClientSockE@@@@@Z ENDP ; std::deque<CMyBucket<CClientSockE *> *,std::allocator<CMyBucket<CClientSockE *> *> >::push_back
_TEXT	ENDS
PUBLIC	?push_back@?$list@PAV?$CMyBucket@PAVCClientSockE@@@@V?$allocator@PAV?$CMyBucket@PAVCClientSockE@@@@@std@@@std@@QAEXABQAV?$CMyBucket@PAVCClientSockE@@@@@Z ; std::list<CMyBucket<CClientSockE *> *,std::allocator<CMyBucket<CClientSockE *> *> >::push_back
; Function compile flags: /Ogty
; File c:\program files\microsoft visual studio .net 2003\vc7\include\list
;	COMDAT ?push_back@?$list@PAV?$CMyBucket@PAVCClientSockE@@@@V?$allocator@PAV?$CMyBucket@PAVCClientSockE@@@@@std@@@std@@QAEXABQAV?$CMyBucket@PAVCClientSockE@@@@@Z
_TEXT	SEGMENT
__Val$ = 8						; size = 4
?push_back@?$list@PAV?$CMyBucket@PAVCClientSockE@@@@V?$allocator@PAV?$CMyBucket@PAVCClientSockE@@@@@std@@@std@@QAEXABQAV?$CMyBucket@PAVCClientSockE@@@@@Z PROC NEAR ; std::list<CMyBucket<CClientSockE *> *,std::allocator<CMyBucket<CClientSockE *> *> >::push_back, COMDAT
; _this$ = ecx

; 481  : 		_Insert(end(), _Val);

  00000	8b 44 24 04	 mov	 eax, DWORD PTR __Val$[esp-4]
  00004	53		 push	 ebx
  00005	56		 push	 esi
  00006	57		 push	 edi
  00007	8b f1		 mov	 esi, ecx
  00009	8b 7e 04	 mov	 edi, DWORD PTR [esi+4]
  0000c	8b 4f 04	 mov	 ecx, DWORD PTR [edi+4]
  0000f	50		 push	 eax
  00010	51		 push	 ecx
  00011	57		 push	 edi
  00012	8b ce		 mov	 ecx, esi
  00014	e8 00 00 00 00	 call	 ?_Buynode@?$list@PAV?$CMyBucket@PAVCClientSockE@@@@V?$allocator@PAV?$CMyBucket@PAVCClientSockE@@@@@std@@@std@@IAEPAU_Node@?$_List_nod@PAV?$CMyBucket@PAVCClientSockE@@@@V?$allocator@PAV?$CMyBucket@PAVCClientSockE@@@@@std@@@2@PAU342@0ABQAV?$CMyBucket@PAVCClientSockE@@@@@Z ; std::list<CMyBucket<CClientSockE *> *,std::allocator<CMyBucket<CClientSockE *> *> >::_Buynode
  00019	6a 01		 push	 1
  0001b	8b ce		 mov	 ecx, esi
  0001d	8b d8		 mov	 ebx, eax
  0001f	e8 00 00 00 00	 call	 ?_Incsize@?$list@PAV?$CMyBucket@PAVCClientSockE@@@@V?$allocator@PAV?$CMyBucket@PAVCClientSockE@@@@@std@@@std@@IAEXI@Z ; std::list<CMyBucket<CClientSockE *> *,std::allocator<CMyBucket<CClientSockE *> *> >::_Incsize
  00024	89 5f 04	 mov	 DWORD PTR [edi+4], ebx
  00027	8b 53 04	 mov	 edx, DWORD PTR [ebx+4]
  0002a	5f		 pop	 edi
  0002b	5e		 pop	 esi
  0002c	89 1a		 mov	 DWORD PTR [edx], ebx
  0002e	5b		 pop	 ebx

; 482  : 		}

  0002f	c2 04 00	 ret	 4
?push_back@?$list@PAV?$CMyBucket@PAVCClientSockE@@@@V?$allocator@PAV?$CMyBucket@PAVCClientSockE@@@@@std@@@std@@QAEXABQAV?$CMyBucket@PAVCClientSockE@@@@@Z ENDP ; std::list<CMyBucket<CClientSockE *> *,std::allocator<CMyBucket<CClientSockE *> *> >::push_back
_TEXT	ENDS
PUBLIC	?Create@?$MemPooler@VCClientSockE@@@@IAEXXZ	; MemPooler<CClientSockE>::Create
PUBLIC	??_C@_09PKKCPLIP@bad?5alloc?$AA@		; `string'
EXTRN	?Error@@YAPBDPBDZZ:NEAR				; Error
EXTRN	__imp__VirtualAlloc@16:NEAR
;	COMDAT ??_C@_09PKKCPLIP@bad?5alloc?$AA@
CONST	SEGMENT
??_C@_09PKKCPLIP@bad?5alloc?$AA@ DB 'bad alloc', 00H	; `string'
; Function compile flags: /Ogty
; File c:\offi src_real\offi src!\_network\misc\include\mempooler.h
CONST	ENDS
;	COMDAT ?Create@?$MemPooler@VCClientSockE@@@@IAEXXZ
_TEXT	SEGMENT
_pMemBlock$ = -4					; size = 4
?Create@?$MemPooler@VCClientSockE@@@@IAEXXZ PROC NEAR	; MemPooler<CClientSockE>::Create, COMDAT
; _this$ = ecx

; 120  : 		{

  00000	51		 push	 ecx
  00001	56		 push	 esi
  00002	8b f1		 mov	 esi, ecx

; 121  : #ifdef __VERIFY_MEMPOOL
; 122  : 			return;
; 123  : #endif
; 124  : #ifdef __VM_0819
; 125  : 			Log( "Create" );
; 126  : #endif	// __VM_0819
; 127  : 			const int AllocationSize	= m_nListBlockSize * m_nNumOfBlock;

  00004	8b 46 10	 mov	 eax, DWORD PTR [esi+16]
  00007	0f af 46 14	 imul	 eax, DWORD PTR [esi+20]
  0000b	57		 push	 edi

; 128  : 			void* pMemBlock		= VirtualAlloc( NULL, AllocationSize, MEM_RESERVE | MEM_COMMIT, PAGE_READWRITE );

  0000c	6a 04		 push	 4
  0000e	68 00 30 00 00	 push	 12288			; 00003000H
  00013	50		 push	 eax
  00014	6a 00		 push	 0
  00016	ff 15 00 00 00
	00		 call	 DWORD PTR __imp__VirtualAlloc@16

; 129  : 			ASSERT( pMemBlock );
; 130  : 			if( !pMemBlock )

  0001c	85 c0		 test	 eax, eax
  0001e	89 44 24 08	 mov	 DWORD PTR _pMemBlock$[esp+12], eax
  00022	75 0d		 jne	 SHORT $L153550

; 131  : 				Error( "bad alloc" );

  00024	68 00 00 00 00	 push	 OFFSET FLAT:??_C@_09PKKCPLIP@bad?5alloc?$AA@
  00029	e8 00 00 00 00	 call	 ?Error@@YAPBDPBDZZ	; Error
  0002e	83 c4 04	 add	 esp, 4
$L153550:
  00031	53		 push	 ebx

; 132  : 			m_ListOfMemBlockPtr.push_back( pMemBlock );

  00032	8b 5e 08	 mov	 ebx, DWORD PTR [esi+8]
  00035	8b 4b 04	 mov	 ecx, DWORD PTR [ebx+4]
  00038	55		 push	 ebp
  00039	8d 7e 04	 lea	 edi, DWORD PTR [esi+4]
  0003c	8d 44 24 10	 lea	 eax, DWORD PTR _pMemBlock$[esp+20]
  00040	50		 push	 eax
  00041	51		 push	 ecx
  00042	53		 push	 ebx
  00043	8b cf		 mov	 ecx, edi
  00045	e8 00 00 00 00	 call	 ?_Buynode@?$list@PAXV?$allocator@PAX@std@@@std@@IAEPAU_Node@?$_List_nod@PAXV?$allocator@PAX@std@@@2@PAU342@0ABQAX@Z ; std::list<void *,std::allocator<void *> >::_Buynode
  0004a	6a 01		 push	 1
  0004c	8b cf		 mov	 ecx, edi
  0004e	8b e8		 mov	 ebp, eax
  00050	e8 00 00 00 00	 call	 ?_Incsize@?$list@PAXV?$allocator@PAX@std@@@std@@IAEXI@Z ; std::list<void *,std::allocator<void *> >::_Incsize

; 133  : 			BlockNode* pNode	= reinterpret_cast<BlockNode*>(pMemBlock);
; 134  : 			pNode	= reinterpret_cast<BlockNode*>( ( reinterpret_cast<DWORD>( pNode ) ) + ( m_nNumOfBlock - 1 ) * ( m_nListBlockSize ) );	// set pNode to last

  00055	8b 7c 24 10	 mov	 edi, DWORD PTR _pMemBlock$[esp+20]
  00059	89 6b 04	 mov	 DWORD PTR [ebx+4], ebp
  0005c	8b 55 04	 mov	 edx, DWORD PTR [ebp+4]
  0005f	89 2a		 mov	 DWORD PTR [edx], ebp
  00061	8b 46 10	 mov	 eax, DWORD PTR [esi+16]
  00064	8d 48 ff	 lea	 ecx, DWORD PTR [eax-1]
  00067	8b 46 14	 mov	 eax, DWORD PTR [esi+20]
  0006a	0f af c1	 imul	 eax, ecx
  0006d	03 c7		 add	 eax, edi

; 135  : 			for( int i = m_nNumOfBlock - 1; i >= 0; i-- )

  0006f	85 c9		 test	 ecx, ecx
  00071	5d		 pop	 ebp
  00072	5b		 pop	 ebx
  00073	7c 0f		 jl	 SHORT $L153558

; 132  : 			m_ListOfMemBlockPtr.push_back( pMemBlock );

  00075	41		 inc	 ecx
$L153556:

; 136  : 			{
; 137  : 				pNode->pNext	= m_pFreeList;

  00076	8b 16		 mov	 edx, DWORD PTR [esi]
  00078	89 10		 mov	 DWORD PTR [eax], edx

; 138  : 				m_pFreeList	= pNode;
; 139  : 				pNode	= reinterpret_cast<BlockNode*>( ( reinterpret_cast<DWORD>( pNode ) ) - m_nListBlockSize );	// set pNode to previous

  0007a	8b 7e 14	 mov	 edi, DWORD PTR [esi+20]
  0007d	89 06		 mov	 DWORD PTR [esi], eax
  0007f	2b c7		 sub	 eax, edi
  00081	49		 dec	 ecx
  00082	75 f2		 jne	 SHORT $L153556
$L153558:
  00084	5f		 pop	 edi
  00085	5e		 pop	 esi

; 140  : 			}
; 141  : 		}

  00086	59		 pop	 ecx
  00087	c3		 ret	 0
?Create@?$MemPooler@VCClientSockE@@@@IAEXXZ ENDP	; MemPooler<CClientSockE>::Create
_TEXT	ENDS
PUBLIC	?push@?$stack@PAV?$CMyBucket@PAVCClientSockE@@@@V?$deque@PAV?$CMyBucket@PAVCClientSockE@@@@V?$allocator@PAV?$CMyBucket@PAVCClientSockE@@@@@std@@@std@@@std@@QAEXABQAV?$CMyBucket@PAVCClientSockE@@@@@Z ; std::stack<CMyBucket<CClientSockE *> *,std::deque<CMyBucket<CClientSockE *> *,std::allocator<CMyBucket<CClientSockE *> *> > >::push
; Function compile flags: /Ogty
; File c:\program files\microsoft visual studio .net 2003\vc7\include\stack
;	COMDAT ?push@?$stack@PAV?$CMyBucket@PAVCClientSockE@@@@V?$deque@PAV?$CMyBucket@PAVCClientSockE@@@@V?$allocator@PAV?$CMyBucket@PAVCClientSockE@@@@@std@@@std@@@std@@QAEXABQAV?$CMyBucket@PAVCClientSockE@@@@@Z
_TEXT	SEGMENT
__Val$ = 8						; size = 4
?push@?$stack@PAV?$CMyBucket@PAVCClientSockE@@@@V?$deque@PAV?$CMyBucket@PAVCClientSockE@@@@V?$allocator@PAV?$CMyBucket@PAVCClientSockE@@@@@std@@@std@@@std@@QAEXABQAV?$CMyBucket@PAVCClientSockE@@@@@Z PROC NEAR ; std::stack<CMyBucket<CClientSockE *> *,std::deque<CMyBucket<CClientSockE *> *,std::allocator<CMyBucket<CClientSockE *> *> > >::push, COMDAT
; _this$ = ecx

; 53   : 		c.push_back(_Val);

  00000	e9 00 00 00 00	 jmp	 ?push_back@?$deque@PAV?$CMyBucket@PAVCClientSockE@@@@V?$allocator@PAV?$CMyBucket@PAVCClientSockE@@@@@std@@@std@@QAEXABQAV?$CMyBucket@PAVCClientSockE@@@@@Z ; std::deque<CMyBucket<CClientSockE *> *,std::allocator<CMyBucket<CClientSockE *> *> >::push_back
?push@?$stack@PAV?$CMyBucket@PAVCClientSockE@@@@V?$deque@PAV?$CMyBucket@PAVCClientSockE@@@@V?$allocator@PAV?$CMyBucket@PAVCClientSockE@@@@@std@@@std@@@std@@QAEXABQAV?$CMyBucket@PAVCClientSockE@@@@@Z ENDP ; std::stack<CMyBucket<CClientSockE *> *,std::deque<CMyBucket<CClientSockE *> *,std::allocator<CMyBucket<CClientSockE *> *> > >::push
_TEXT	ENDS
PUBLIC	?Grow@?$CMyPool@V?$CMyBucket@PAVCClientSockE@@@@@@AAEXI@Z ; CMyPool<CMyBucket<CClientSockE *> >::Grow
EXTRN	??_L@YGXPAXIHP6EX0@Z1@Z:NEAR			; `eh vector constructor iterator'
EXTRN	??_U@YAPAXI@Z:NEAR				; operator new[]
;	COMDAT xdata$x
xdata$x	SEGMENT
$T159626 DD	0ffffffffH
	DD	FLAT:$L159543
$T159622 DD	019930520H
	DD	01H
	DD	FLAT:$T159626
	DD	2 DUP(00H)
	DD	2 DUP(00H)
; Function compile flags: /Ogty
; File c:\offi src_real\offi src!\_network\misc\include\mymap.h
xdata$x	ENDS
;	COMDAT ?Grow@?$CMyPool@V?$CMyBucket@PAVCClientSockE@@@@@@AAEXI@Z
_TEXT	SEGMENT
_pBlock$ = -20						; size = 4
_this$ = -16						; size = 4
__$EHRec$ = -12						; size = 12
$T159542 = 8						; size = 4
$T159539 = 8						; size = 4
$T159538 = 8						; size = 4
_nGrowSize$ = 8						; size = 4
?Grow@?$CMyPool@V?$CMyBucket@PAVCClientSockE@@@@@@AAEXI@Z PROC NEAR ; CMyPool<CMyBucket<CClientSockE *> >::Grow, COMDAT
; _this$ = ecx

; 234  : {

  00000	6a ff		 push	 -1
  00002	68 00 00 00 00	 push	 __ehhandler$?Grow@?$CMyPool@V?$CMyBucket@PAVCClientSockE@@@@@@AAEXI@Z
  00007	64 a1 00 00 00
	00		 mov	 eax, DWORD PTR fs:__except_list
  0000d	50		 push	 eax
  0000e	64 89 25 00 00
	00 00		 mov	 DWORD PTR fs:__except_list, esp
  00015	83 ec 08	 sub	 esp, 8
  00018	53		 push	 ebx
  00019	56		 push	 esi

; 235  : 	ASSERT( nGrowSize > 0 );
; 236  : 	T* pBlock	= new T[nGrowSize];

  0001a	8b 74 24 20	 mov	 esi, DWORD PTR _nGrowSize$[esp+24]
  0001e	57		 push	 edi
  0001f	8b f9		 mov	 edi, ecx
  00021	8d 04 76	 lea	 eax, DWORD PTR [esi+esi*2]
  00024	8d 0c c5 04 00
	00 00		 lea	 ecx, DWORD PTR [eax*8+4]
  0002b	51		 push	 ecx
  0002c	89 7c 24 14	 mov	 DWORD PTR _this$[esp+36], edi
  00030	e8 00 00 00 00	 call	 ??_U@YAPAXI@Z		; operator new[]
  00035	83 c4 04	 add	 esp, 4
  00038	89 44 24 24	 mov	 DWORD PTR $T159539[esp+28], eax
  0003c	33 c9		 xor	 ecx, ecx
  0003e	3b c1		 cmp	 eax, ecx
  00040	89 4c 24 1c	 mov	 DWORD PTR __$EHRec$[esp+40], ecx
  00044	74 1e		 je	 SHORT $L159540
  00046	68 00 00 00 00	 push	 OFFSET FLAT:??1?$CMyBucket@PAVCClientSockE@@@@UAE@XZ ; CMyBucket<CClientSockE *>::~CMyBucket<CClientSockE *>
  0004b	68 00 00 00 00	 push	 OFFSET FLAT:??0?$CMyBucket@PAVCClientSockE@@@@QAE@XZ ; CMyBucket<CClientSockE *>::CMyBucket<CClientSockE *>
  00050	56		 push	 esi
  00051	8d 58 04	 lea	 ebx, DWORD PTR [eax+4]
  00054	6a 18		 push	 24			; 00000018H
  00056	53		 push	 ebx
  00057	89 30		 mov	 DWORD PTR [eax], esi
  00059	e8 00 00 00 00	 call	 ??_L@YGXPAXIHP6EX0@Z1@Z
  0005e	89 5c 24 24	 mov	 DWORD PTR $T159538[esp+28], ebx
  00062	eb 04		 jmp	 SHORT $L159541
$L159540:
  00064	89 4c 24 24	 mov	 DWORD PTR $T159538[esp+28], ecx
$L159541:

; 237  : 	m_listBlock.push_back( pBlock );

  00068	8b 5f 1c	 mov	 ebx, DWORD PTR [edi+28]
  0006b	8b 4b 04	 mov	 ecx, DWORD PTR [ebx+4]
  0006e	8b 54 24 24	 mov	 edx, DWORD PTR $T159538[esp+28]
  00072	55		 push	 ebp
  00073	83 c7 18	 add	 edi, 24			; 00000018H
  00076	8d 44 24 10	 lea	 eax, DWORD PTR _pBlock$[esp+36]
  0007a	50		 push	 eax
  0007b	51		 push	 ecx
  0007c	53		 push	 ebx
  0007d	8b cf		 mov	 ecx, edi
  0007f	c7 44 24 2c ff
	ff ff ff	 mov	 DWORD PTR __$EHRec$[esp+56], -1
  00087	89 54 24 1c	 mov	 DWORD PTR _pBlock$[esp+48], edx
  0008b	e8 00 00 00 00	 call	 ?_Buynode@?$list@PAV?$CMyBucket@PAVCClientSockE@@@@V?$allocator@PAV?$CMyBucket@PAVCClientSockE@@@@@std@@@std@@IAEPAU_Node@?$_List_nod@PAV?$CMyBucket@PAVCClientSockE@@@@V?$allocator@PAV?$CMyBucket@PAVCClientSockE@@@@@std@@@2@PAU342@0ABQAV?$CMyBucket@PAVCClientSockE@@@@@Z ; std::list<CMyBucket<CClientSockE *> *,std::allocator<CMyBucket<CClientSockE *> *> >::_Buynode
  00090	6a 01		 push	 1
  00092	8b cf		 mov	 ecx, edi
  00094	8b e8		 mov	 ebp, eax
  00096	e8 00 00 00 00	 call	 ?_Incsize@?$list@PAV?$CMyBucket@PAVCClientSockE@@@@V?$allocator@PAV?$CMyBucket@PAVCClientSockE@@@@@std@@@std@@IAEXI@Z ; std::list<CMyBucket<CClientSockE *> *,std::allocator<CMyBucket<CClientSockE *> *> >::_Incsize

; 238  : 
; 239  : 	INIT_LOOP(5000);
; 240  : 	for( size_t i = 0; i < nGrowSize; i++ )

  0009b	85 f6		 test	 esi, esi
  0009d	89 6b 04	 mov	 DWORD PTR [ebx+4], ebp
  000a0	8b 55 04	 mov	 edx, DWORD PTR [ebp+4]
  000a3	89 2a		 mov	 DWORD PTR [edx], ebp
  000a5	5d		 pop	 ebp
  000a6	76 21		 jbe	 SHORT $L154780
  000a8	8b 5c 24 10	 mov	 ebx, DWORD PTR _this$[esp+32]
  000ac	8b 7c 24 24	 mov	 edi, DWORD PTR $T159538[esp+28]
  000b0	83 c3 04	 add	 ebx, 4
$L154778:

; 241  : 	{
; 242  : 		VERIFY_LOOP( __FILE__, __LINE__ );
; 243  : 		m_stackData.push( &pBlock[i] );

  000b3	8d 44 24 24	 lea	 eax, DWORD PTR $T159542[esp+28]
  000b7	50		 push	 eax
  000b8	8b cb		 mov	 ecx, ebx
  000ba	89 7c 24 28	 mov	 DWORD PTR $T159542[esp+32], edi
  000be	e8 00 00 00 00	 call	 ?push_back@?$deque@PAV?$CMyBucket@PAVCClientSockE@@@@V?$allocator@PAV?$CMyBucket@PAVCClientSockE@@@@@std@@@std@@QAEXABQAV?$CMyBucket@PAVCClientSockE@@@@@Z ; std::deque<CMyBucket<CClientSockE *> *,std::allocator<CMyBucket<CClientSockE *> *> >::push_back
  000c3	83 c7 18	 add	 edi, 24			; 00000018H
  000c6	4e		 dec	 esi
  000c7	75 ea		 jne	 SHORT $L154778
$L154780:

; 244  : 	}
; 245  : }

  000c9	8b 4c 24 14	 mov	 ecx, DWORD PTR __$EHRec$[esp+32]
  000cd	5f		 pop	 edi
  000ce	5e		 pop	 esi
  000cf	5b		 pop	 ebx
  000d0	64 89 0d 00 00
	00 00		 mov	 DWORD PTR fs:__except_list, ecx
  000d7	83 c4 14	 add	 esp, 20			; 00000014H
  000da	c2 04 00	 ret	 4
_TEXT	ENDS
;	COMDAT text$x
text$x	SEGMENT
$L159543:
  00000	8b 45 04	 mov	 eax, DWORD PTR $T159539[ebp-4]
  00003	50		 push	 eax
  00004	e8 00 00 00 00	 call	 ??_V@YAXPAX@Z		; operator delete[]
  00009	59		 pop	 ecx
  0000a	c3		 ret	 0
__ehhandler$?Grow@?$CMyPool@V?$CMyBucket@PAVCClientSockE@@@@@@AAEXI@Z:
  0000b	b8 00 00 00 00	 mov	 eax, OFFSET FLAT:$T159622
  00010	e9 00 00 00 00	 jmp	 ___CxxFrameHandler
text$x	ENDS
?Grow@?$CMyPool@V?$CMyBucket@PAVCClientSockE@@@@@@AAEXI@Z ENDP ; CMyPool<CMyBucket<CClientSockE *> >::Grow
PUBLIC	?Alloc@?$MemPooler@VCClientSockE@@@@QAEPAVCClientSockE@@XZ ; MemPooler<CClientSockE>::Alloc
; Function compile flags: /Ogty
; File c:\offi src_real\offi src!\_network\misc\include\mempooler.h
;	COMDAT ?Alloc@?$MemPooler@VCClientSockE@@@@QAEPAVCClientSockE@@XZ
_TEXT	SEGMENT
?Alloc@?$MemPooler@VCClientSockE@@@@QAEPAVCClientSockE@@XZ PROC NEAR ; MemPooler<CClientSockE>::Alloc, COMDAT
; _this$ = ecx

; 56   : 		{

  00000	53		 push	 ebx
  00001	56		 push	 esi
  00002	8b f1		 mov	 esi, ecx
  00004	57		 push	 edi

; 57   : #ifdef __VERIFY_MEMPOOL
; 58   : 			return (T*) ::operator new( sizeof(T) );
; 59   : #endif
; 60   : 
; 61   : 			BlockNode* pNode	= NULL;
; 62   : 			T* lpMem	= NULL;
; 63   : 
; 64   : 			EnterCriticalSection( &m_cs );

  00005	8d 5e 1c	 lea	 ebx, DWORD PTR [esi+28]
  00008	53		 push	 ebx
  00009	ff 15 00 00 00
	00		 call	 DWORD PTR __imp__EnterCriticalSection@4

; 65   : 
; 66   : 			if( !m_pFreeList )

  0000f	83 3e 00	 cmp	 DWORD PTR [esi], 0
  00012	75 07		 jne	 SHORT $L153481

; 67   : 				Create();

  00014	8b ce		 mov	 ecx, esi
  00016	e8 00 00 00 00	 call	 ?Create@?$MemPooler@VCClientSockE@@@@IAEXXZ ; MemPooler<CClientSockE>::Create
$L153481:

; 68   : 
; 69   : 			pNode	= m_pFreeList;

  0001b	8b 3e		 mov	 edi, DWORD PTR [esi]

; 70   : 			m_pFreeList		= m_pFreeList->pNext;
; 71   : 			m_nAllocCount++;

  0001d	8b 4e 18	 mov	 ecx, DWORD PTR [esi+24]
  00020	8b 07		 mov	 eax, DWORD PTR [edi]
  00022	41		 inc	 ecx

; 72   : 			lpMem	= reinterpret_cast<T*>( pNode + 1 );
; 73   : 
; 74   : 			LeaveCriticalSection( &m_cs );

  00023	53		 push	 ebx
  00024	89 06		 mov	 DWORD PTR [esi], eax
  00026	89 4e 18	 mov	 DWORD PTR [esi+24], ecx
  00029	ff 15 00 00 00
	00		 call	 DWORD PTR __imp__LeaveCriticalSection@4
  0002f	8d 47 04	 lea	 eax, DWORD PTR [edi+4]
  00032	5f		 pop	 edi
  00033	5e		 pop	 esi
  00034	5b		 pop	 ebx

; 75   : 
; 76   : 			return lpMem;
; 77   : 		}

  00035	c3		 ret	 0
?Alloc@?$MemPooler@VCClientSockE@@@@QAEPAVCClientSockE@@XZ ENDP ; MemPooler<CClientSockE>::Alloc
_TEXT	ENDS
PUBLIC	?SetSize@?$CMyPool@V?$CMyBucket@PAVCClientSockE@@@@@@QAEXII@Z ; CMyPool<CMyBucket<CClientSockE *> >::SetSize
; Function compile flags: /Ogty
; File c:\offi src_real\offi src!\_network\misc\include\mymap.h
;	COMDAT ?SetSize@?$CMyPool@V?$CMyBucket@PAVCClientSockE@@@@@@QAEXII@Z
_TEXT	SEGMENT
_nInitialSize$ = 8					; size = 4
_nGrowSize$ = 12					; size = 4
?SetSize@?$CMyPool@V?$CMyBucket@PAVCClientSockE@@@@@@QAEXII@Z PROC NEAR ; CMyPool<CMyBucket<CClientSockE *> >::SetSize, COMDAT
; _this$ = ecx

; 194  : {

  00000	56		 push	 esi
  00001	8b f1		 mov	 esi, ecx

; 195  : 	ASSERT( nInitialSize );
; 196  : 	ASSERT( nGrowSize );
; 197  : 
; 198  : 	Clear();

  00003	e8 00 00 00 00	 call	 ?Clear@?$CMyPool@V?$CMyBucket@PAVCClientSockE@@@@@@QAEXXZ ; CMyPool<CMyBucket<CClientSockE *> >::Clear

; 199  : 
; 200  : 	Grow( m_nInitialSize = nInitialSize );

  00008	8b 44 24 08	 mov	 eax, DWORD PTR _nInitialSize$[esp]
  0000c	50		 push	 eax
  0000d	8b ce		 mov	 ecx, esi
  0000f	89 46 28	 mov	 DWORD PTR [esi+40], eax
  00012	e8 00 00 00 00	 call	 ?Grow@?$CMyPool@V?$CMyBucket@PAVCClientSockE@@@@@@AAEXI@Z ; CMyPool<CMyBucket<CClientSockE *> >::Grow

; 201  : 	m_nGrowSize		= nGrowSize;

  00017	8b 44 24 0c	 mov	 eax, DWORD PTR _nGrowSize$[esp]
  0001b	89 46 24	 mov	 DWORD PTR [esi+36], eax
  0001e	5e		 pop	 esi

; 202  : }

  0001f	c2 08 00	 ret	 8
?SetSize@?$CMyPool@V?$CMyBucket@PAVCClientSockE@@@@@@QAEXII@Z ENDP ; CMyPool<CMyBucket<CClientSockE *> >::SetSize
_TEXT	ENDS
PUBLIC	?Pop@?$CMyPool@V?$CMyBucket@PAVCClientSockE@@@@@@QAEPAV?$CMyBucket@PAVCClientSockE@@@@XZ ; CMyPool<CMyBucket<CClientSockE *> >::Pop
; Function compile flags: /Ogty
;	COMDAT ?Pop@?$CMyPool@V?$CMyBucket@PAVCClientSockE@@@@@@QAEPAV?$CMyBucket@PAVCClientSockE@@@@XZ
_TEXT	SEGMENT
?Pop@?$CMyPool@V?$CMyBucket@PAVCClientSockE@@@@@@QAEPAV?$CMyBucket@PAVCClientSockE@@@@XZ PROC NEAR ; CMyPool<CMyBucket<CClientSockE *> >::Pop, COMDAT
; _this$ = ecx

; 205  : {

  00000	56		 push	 esi
  00001	8b f1		 mov	 esi, ecx

; 206  : 	ASSERT( m_nGrowSize > 0 );
; 207  : 
; 208  : 	if( m_stackData.empty() )

  00003	8b 46 14	 mov	 eax, DWORD PTR [esi+20]
  00006	85 c0		 test	 eax, eax
  00008	57		 push	 edi
  00009	75 09		 jne	 SHORT $L154337

; 209  : 		Grow( m_nGrowSize );

  0000b	8b 46 24	 mov	 eax, DWORD PTR [esi+36]
  0000e	50		 push	 eax
  0000f	e8 00 00 00 00	 call	 ?Grow@?$CMyPool@V?$CMyBucket@PAVCClientSockE@@@@@@AAEXI@Z ; CMyPool<CMyBucket<CClientSockE *> >::Grow
$L154337:

; 210  : 
; 211  : 	T* lpMem	= m_stackData.top();

  00014	8b 46 14	 mov	 eax, DWORD PTR [esi+20]
  00017	8d 4e 04	 lea	 ecx, DWORD PTR [esi+4]
  0001a	03 41 0c	 add	 eax, DWORD PTR [ecx+12]
  0001d	48		 dec	 eax
  0001e	8b d0		 mov	 edx, eax
  00020	c1 e8 02	 shr	 eax, 2
  00023	8d 3c 85 00 00
	00 00		 lea	 edi, DWORD PTR [eax*4]
  0002a	8b f1		 mov	 esi, ecx
  0002c	2b d7		 sub	 edx, edi
  0002e	8b 7e 08	 mov	 edi, DWORD PTR [esi+8]
  00031	3b f8		 cmp	 edi, eax
  00033	77 02		 ja	 SHORT $L159744
  00035	2b c7		 sub	 eax, edi
$L159744:
  00037	8b 76 04	 mov	 esi, DWORD PTR [esi+4]
  0003a	8b 04 86	 mov	 eax, DWORD PTR [esi+eax*4]
  0003d	8b 04 90	 mov	 eax, DWORD PTR [eax+edx*4]

; 212  : 	m_stackData.pop();

  00040	8b 51 10	 mov	 edx, DWORD PTR [ecx+16]
  00043	85 d2		 test	 edx, edx
  00045	5f		 pop	 edi
  00046	5e		 pop	 esi
  00047	74 0d		 je	 SHORT $L159770
  00049	4a		 dec	 edx
  0004a	89 51 10	 mov	 DWORD PTR [ecx+16], edx
  0004d	75 07		 jne	 SHORT $L159770
  0004f	c7 41 0c 00 00
	00 00		 mov	 DWORD PTR [ecx+12], 0
$L159770:

; 213  : 
; 214  : 	return lpMem;
; 215  : }

  00056	c3		 ret	 0
?Pop@?$CMyPool@V?$CMyBucket@PAVCClientSockE@@@@@@QAEPAV?$CMyBucket@PAVCClientSockE@@@@XZ ENDP ; CMyPool<CMyBucket<CClientSockE *> >::Pop
_TEXT	ENDS
PUBLIC	?Push@?$CMyPool@V?$CMyBucket@PAVCClientSockE@@@@@@QAEXPAV?$CMyBucket@PAVCClientSockE@@@@@Z ; CMyPool<CMyBucket<CClientSockE *> >::Push
; Function compile flags: /Ogty
;	COMDAT ?Push@?$CMyPool@V?$CMyBucket@PAVCClientSockE@@@@@@QAEXPAV?$CMyBucket@PAVCClientSockE@@@@@Z
_TEXT	SEGMENT
_lpMem$ = 8						; size = 4
?Push@?$CMyPool@V?$CMyBucket@PAVCClientSockE@@@@@@QAEXPAV?$CMyBucket@PAVCClientSockE@@@@@Z PROC NEAR ; CMyPool<CMyBucket<CClientSockE *> >::Push, COMDAT
; _this$ = ecx

; 219  : 	ASSERT( m_nGrowSize > 0 );
; 220  : 	m_stackData.push( lpMem );

  00000	8d 44 24 04	 lea	 eax, DWORD PTR _lpMem$[esp-4]
  00004	50		 push	 eax
  00005	83 c1 04	 add	 ecx, 4
  00008	e8 00 00 00 00	 call	 ?push_back@?$deque@PAV?$CMyBucket@PAVCClientSockE@@@@V?$allocator@PAV?$CMyBucket@PAVCClientSockE@@@@@std@@@std@@QAEXABQAV?$CMyBucket@PAVCClientSockE@@@@@Z ; std::deque<CMyBucket<CClientSockE *> *,std::allocator<CMyBucket<CClientSockE *> *> >::push_back

; 221  : }

  0000d	c2 04 00	 ret	 4
?Push@?$CMyPool@V?$CMyBucket@PAVCClientSockE@@@@@@QAEXPAV?$CMyBucket@PAVCClientSockE@@@@@Z ENDP ; CMyPool<CMyBucket<CClientSockE *> >::Push
_TEXT	ENDS
PUBLIC	??2CClientSockE@@SAPAXI@Z			; CClientSockE::operator new
; Function compile flags: /Ogty
; File c:\offi src_real\offi src!\_network\net\include\clientsocke.h
;	COMDAT ??2CClientSockE@@SAPAXI@Z
_TEXT	SEGMENT
_nSize$ = 8						; size = 4
??2CClientSockE@@SAPAXI@Z PROC NEAR			; CClientSockE::operator new, COMDAT

; 82   : 	void*	operator new( size_t nSize )	{	return CClientSockE::m_pPool->Alloc();	}

  00000	53		 push	 ebx
  00001	56		 push	 esi
  00002	8b 35 00 00 00
	00		 mov	 esi, DWORD PTR ?m_pPool@CClientSockE@@2PAV?$MemPooler@VCClientSockE@@@@A ; CClientSockE::m_pPool
  00008	57		 push	 edi
  00009	8d 5e 1c	 lea	 ebx, DWORD PTR [esi+28]
  0000c	53		 push	 ebx
  0000d	ff 15 00 00 00
	00		 call	 DWORD PTR __imp__EnterCriticalSection@4
  00013	83 3e 00	 cmp	 DWORD PTR [esi], 0
  00016	75 07		 jne	 SHORT $L159789
  00018	8b ce		 mov	 ecx, esi
  0001a	e8 00 00 00 00	 call	 ?Create@?$MemPooler@VCClientSockE@@@@IAEXXZ ; MemPooler<CClientSockE>::Create
$L159789:
  0001f	8b 3e		 mov	 edi, DWORD PTR [esi]
  00021	8b 4e 18	 mov	 ecx, DWORD PTR [esi+24]
  00024	8b 07		 mov	 eax, DWORD PTR [edi]
  00026	41		 inc	 ecx
  00027	53		 push	 ebx
  00028	89 06		 mov	 DWORD PTR [esi], eax
  0002a	89 4e 18	 mov	 DWORD PTR [esi+24], ecx
  0002d	ff 15 00 00 00
	00		 call	 DWORD PTR __imp__LeaveCriticalSection@4
  00033	8d 47 04	 lea	 eax, DWORD PTR [edi+4]
  00036	5f		 pop	 edi
  00037	5e		 pop	 esi
  00038	5b		 pop	 ebx
  00039	c3		 ret	 0
??2CClientSockE@@SAPAXI@Z ENDP				; CClientSockE::operator new
_TEXT	ENDS
PUBLIC	?SetSize@?$CMyMap@PAVCClientSockE@@@@QAEXIII@Z	; CMyMap<CClientSockE *>::SetSize
;	COMDAT xdata$x
; File c:\offi src_real\offi src!\_network\misc\include\mymap.h
xdata$x	SEGMENT
$T159831 DD	0ffffffffH
	DD	FLAT:$L159806
$T159821 DD	019930520H
	DD	01H
	DD	FLAT:$T159831
	DD	2 DUP(00H)
	DD	2 DUP(00H)
; Function compile flags: /Ogty
xdata$x	ENDS
;	COMDAT ?SetSize@?$CMyMap@PAVCClientSockE@@@@QAEXIII@Z
_TEXT	SEGMENT
__$EHRec$ = -12						; size = 12
$T159803 = 8						; size = 4
_nHashSize$ = 8						; size = 4
_nInitialSize$ = 12					; size = 4
_nGrowSize$ = 16					; size = 4
?SetSize@?$CMyMap@PAVCClientSockE@@@@QAEXIII@Z PROC NEAR ; CMyMap<CClientSockE *>::SetSize, COMDAT
; _this$ = ecx

; 306  : {

  00000	64 a1 00 00 00
	00		 mov	 eax, DWORD PTR fs:__except_list
  00006	6a ff		 push	 -1
  00008	68 00 00 00 00	 push	 __ehhandler$?SetSize@?$CMyMap@PAVCClientSockE@@@@QAEXIII@Z
  0000d	50		 push	 eax
  0000e	64 89 25 00 00
	00 00		 mov	 DWORD PTR fs:__except_list, esp
  00015	53		 push	 ebx
  00016	55		 push	 ebp
  00017	8b d9		 mov	 ebx, ecx

; 307  : 	SAFE_DELETE_ARRAY( m_pBuckets );

  00019	8b 4b 04	 mov	 ecx, DWORD PTR [ebx+4]
  0001c	33 ed		 xor	 ebp, ebp
  0001e	3b cd		 cmp	 ecx, ebp
  00020	56		 push	 esi
  00021	57		 push	 edi
  00022	74 1e		 je	 SHORT $L153807
  00024	8b 51 fc	 mov	 edx, DWORD PTR [ecx-4]
  00027	3b d5		 cmp	 edx, ebp
  00029	8d 41 fc	 lea	 eax, DWORD PTR [ecx-4]
  0002c	74 08		 je	 SHORT $L159797
  0002e	8b 01		 mov	 eax, DWORD PTR [ecx]
  00030	6a 03		 push	 3
  00032	ff 10		 call	 DWORD PTR [eax]
  00034	eb 09		 jmp	 SHORT $L159798
$L159797:
  00036	50		 push	 eax
  00037	e8 00 00 00 00	 call	 ??_V@YAXPAX@Z		; operator delete[]
  0003c	83 c4 04	 add	 esp, 4
$L159798:
  0003f	89 6b 04	 mov	 DWORD PTR [ebx+4], ebp
$L153807:

; 308  : 	m_pFirstActive	= NULL;
; 309  : 
; 310  : 	INIT_LOOP(10000);
; 311  : 	for( int i = (int)nHashSize; ; i++ )

  00042	8b 74 24 20	 mov	 esi, DWORD PTR _nHashSize$[esp+24]
  00046	89 6b 34	 mov	 DWORD PTR [ebx+52], ebp
  00049	8d a4 24 00 00
	00 00		 npad	 7
$L153815:

; 312  : 	{
; 313  : 		VERIFY_LOOP( __FILE__, __LINE__ );
; 314  : 		if( IsPrime( i ) )

  00050	b9 02 00 00 00	 mov	 ecx, 2
  00055	3b f1		 cmp	 esi, ecx
  00057	76 16		 jbe	 SHORT $L159829
  00059	8d a4 24 00 00
	00 00		 npad	 7
$L159812:
  00060	33 d2		 xor	 edx, edx
  00062	8b c6		 mov	 eax, esi
  00064	f7 f1		 div	 ecx
  00066	3b d5		 cmp	 edx, ebp
  00068	74 41		 je	 SHORT $L159825
  0006a	41		 inc	 ecx
  0006b	3b c8		 cmp	 ecx, eax
  0006d	72 f1		 jb	 SHORT $L159812
$L159829:

; 315  : 			break;
; 316  : 	}
; 317  : 
; 318  : 	m_pBuckets	= new CMyBucket<T>[m_nHashSize=i];

  0006f	8d 0c 76	 lea	 ecx, DWORD PTR [esi+esi*2]
  00072	8d 14 cd 04 00
	00 00		 lea	 edx, DWORD PTR [ecx*8+4]
  00079	52		 push	 edx
  0007a	89 73 38	 mov	 DWORD PTR [ebx+56], esi
  0007d	e8 00 00 00 00	 call	 ??_U@YAPAXI@Z		; operator new[]
  00082	83 c4 04	 add	 esp, 4
  00085	89 44 24 20	 mov	 DWORD PTR $T159803[esp+24], eax
  00089	3b c5		 cmp	 eax, ebp
  0008b	89 6c 24 18	 mov	 DWORD PTR __$EHRec$[esp+36], ebp
  0008f	74 1d		 je	 SHORT $L159804
  00091	68 00 00 00 00	 push	 OFFSET FLAT:??1?$CMyBucket@PAVCClientSockE@@@@UAE@XZ ; CMyBucket<CClientSockE *>::~CMyBucket<CClientSockE *>
  00096	68 00 00 00 00	 push	 OFFSET FLAT:??0?$CMyBucket@PAVCClientSockE@@@@QAE@XZ ; CMyBucket<CClientSockE *>::CMyBucket<CClientSockE *>
  0009b	56		 push	 esi
  0009c	8d 78 04	 lea	 edi, DWORD PTR [eax+4]
  0009f	6a 18		 push	 24			; 00000018H
  000a1	57		 push	 edi
  000a2	89 30		 mov	 DWORD PTR [eax], esi
  000a4	e8 00 00 00 00	 call	 ??_L@YGXPAXIHP6EX0@Z1@Z
  000a9	eb 05		 jmp	 SHORT $L159805
$L159825:

; 308  : 	m_pFirstActive	= NULL;
; 309  : 
; 310  : 	INIT_LOOP(10000);
; 311  : 	for( int i = (int)nHashSize; ; i++ )

  000ab	46		 inc	 esi
  000ac	eb a2		 jmp	 SHORT $L153815
$L159804:

; 315  : 			break;
; 316  : 	}
; 317  : 
; 318  : 	m_pBuckets	= new CMyBucket<T>[m_nHashSize=i];

  000ae	33 ff		 xor	 edi, edi
$L159805:

; 319  : 	m_nTotal	= 0;
; 320  : 	m_pool.SetSize( nInitialSize, nGrowSize );

  000b0	8d 73 08	 lea	 esi, DWORD PTR [ebx+8]
  000b3	8b ce		 mov	 ecx, esi
  000b5	c7 44 24 18 ff
	ff ff ff	 mov	 DWORD PTR __$EHRec$[esp+36], -1
  000bd	89 7b 04	 mov	 DWORD PTR [ebx+4], edi
  000c0	89 6b 3c	 mov	 DWORD PTR [ebx+60], ebp
  000c3	e8 00 00 00 00	 call	 ?Clear@?$CMyPool@V?$CMyBucket@PAVCClientSockE@@@@@@QAEXXZ ; CMyPool<CMyBucket<CClientSockE *> >::Clear
  000c8	8b 44 24 24	 mov	 eax, DWORD PTR _nInitialSize$[esp+24]
  000cc	50		 push	 eax
  000cd	8b ce		 mov	 ecx, esi
  000cf	89 46 28	 mov	 DWORD PTR [esi+40], eax
  000d2	e8 00 00 00 00	 call	 ?Grow@?$CMyPool@V?$CMyBucket@PAVCClientSockE@@@@@@AAEXI@Z ; CMyPool<CMyBucket<CClientSockE *> >::Grow
  000d7	8b 44 24 28	 mov	 eax, DWORD PTR _nGrowSize$[esp+24]

; 321  : }

  000db	8b 4c 24 10	 mov	 ecx, DWORD PTR __$EHRec$[esp+28]
  000df	5f		 pop	 edi
  000e0	89 46 24	 mov	 DWORD PTR [esi+36], eax
  000e3	5e		 pop	 esi
  000e4	5d		 pop	 ebp
  000e5	64 89 0d 00 00
	00 00		 mov	 DWORD PTR fs:__except_list, ecx
  000ec	5b		 pop	 ebx
  000ed	83 c4 0c	 add	 esp, 12			; 0000000cH
  000f0	c2 0c 00	 ret	 12			; 0000000cH
_TEXT	ENDS
;	COMDAT text$x
text$x	SEGMENT
$L159806:
  00000	8b 45 04	 mov	 eax, DWORD PTR $T159803[ebp-4]
  00003	50		 push	 eax
  00004	e8 00 00 00 00	 call	 ??_V@YAXPAX@Z		; operator delete[]
  00009	59		 pop	 ecx
  0000a	c3		 ret	 0
__ehhandler$?SetSize@?$CMyMap@PAVCClientSockE@@@@QAEXIII@Z:
  0000b	b8 00 00 00 00	 mov	 eax, OFFSET FLAT:$T159821
  00010	e9 00 00 00 00	 jmp	 ___CxxFrameHandler
text$x	ENDS
?SetSize@?$CMyMap@PAVCClientSockE@@@@QAEXIII@Z ENDP	; CMyMap<CClientSockE *>::SetSize
PUBLIC	?SetAt@?$CMyMap@PAVCClientSockE@@@@QAEXKABQAVCClientSockE@@@Z ; CMyMap<CClientSockE *>::SetAt
; Function compile flags: /Ogty
;	COMDAT ?SetAt@?$CMyMap@PAVCClientSockE@@@@QAEXKABQAVCClientSockE@@@Z
_TEXT	SEGMENT
_pBucketPrev$ = 8					; size = 4
_dwKey$ = 8						; size = 4
_value$ = 12						; size = 4
?SetAt@?$CMyMap@PAVCClientSockE@@@@QAEXKABQAVCClientSockE@@@Z PROC NEAR ; CMyMap<CClientSockE *>::SetAt, COMDAT
; _this$ = ecx

; 353  : {

  00000	55		 push	 ebp
  00001	56		 push	 esi
  00002	8b f1		 mov	 esi, ecx

; 354  : 	ASSERT( m_nHashSize > 0 );
; 355  : 
; 356  : 	CMyBucket<T> *pBucket, *pBucketPrev;
; 357  : 	m_nTotal++;

  00004	ff 46 3c	 inc	 DWORD PTR [esi+60]

; 358  : 
; 359  : 	INIT_LOOP(1000);
; 360  : 	for( pBucket = &m_pBuckets[(int)IDHash( dwKey, m_nHashSize )]; pBucket != NULL; pBucket = pBucket->m_pNext )

  00007	8b 6c 24 0c	 mov	 ebp, DWORD PTR _dwKey$[esp+4]
  0000b	8b d5		 mov	 edx, ebp
  0000d	c1 ea 10	 shr	 edx, 16			; 00000010H
  00010	03 d5		 add	 edx, ebp
  00012	8b cd		 mov	 ecx, ebp
  00014	c1 e9 18	 shr	 ecx, 24			; 00000018H
  00017	03 d1		 add	 edx, ecx
  00019	8b 4e 38	 mov	 ecx, DWORD PTR [esi+56]
  0001c	8b c5		 mov	 eax, ebp
  0001e	c1 e8 08	 shr	 eax, 8
  00021	03 c2		 add	 eax, edx
  00023	49		 dec	 ecx
  00024	23 c1		 and	 eax, ecx
  00026	8d 14 40	 lea	 edx, DWORD PTR [eax+eax*2]
  00029	8b 46 04	 mov	 eax, DWORD PTR [esi+4]
  0002c	8d 04 d0	 lea	 eax, DWORD PTR [eax+edx*8]
  0002f	85 c0		 test	 eax, eax
  00031	74 17		 je	 SHORT $L160036
  00033	83 c9 ff	 or	 ecx, -1
$L153854:

; 361  : 	{
; 362  : 		VERIFY_LOOP( __FILE__, __LINE__ );
; 363  : 		if( pBucket->IsEmpty() )

  00036	39 48 04	 cmp	 DWORD PTR [eax+4], ecx
  00039	0f 84 92 00 00
	00		 je	 $L160034

; 368  : 			return;
; 369  : 		}
; 370  : 		pBucketPrev		= pBucket;

  0003f	89 44 24 0c	 mov	 DWORD PTR _pBucketPrev$[esp+4], eax
  00043	8b 40 0c	 mov	 eax, DWORD PTR [eax+12]
  00046	85 c0		 test	 eax, eax
  00048	75 ec		 jne	 SHORT $L153854
$L160036:

; 371  : 	}
; 372  : 
; 373  : //	Collision
; 374  : 	pBucket		= pBucketPrev-> m_pNext		= m_pool.Pop();

  0004a	8b 46 1c	 mov	 eax, DWORD PTR [esi+28]
  0004d	85 c0		 test	 eax, eax
  0004f	57		 push	 edi
  00050	8d 7e 08	 lea	 edi, DWORD PTR [esi+8]
  00053	75 0b		 jne	 SHORT $L160026
  00055	8b 57 24	 mov	 edx, DWORD PTR [edi+36]
  00058	52		 push	 edx
  00059	8b cf		 mov	 ecx, edi
  0005b	e8 00 00 00 00	 call	 ?Grow@?$CMyPool@V?$CMyBucket@PAVCClientSockE@@@@@@AAEXI@Z ; CMyPool<CMyBucket<CClientSockE *> >::Grow
$L160026:
  00060	8b 47 14	 mov	 eax, DWORD PTR [edi+20]
  00063	8d 4f 04	 lea	 ecx, DWORD PTR [edi+4]
  00066	03 41 0c	 add	 eax, DWORD PTR [ecx+12]
  00069	48		 dec	 eax
  0006a	8b d0		 mov	 edx, eax
  0006c	c1 e8 02	 shr	 eax, 2
  0006f	53		 push	 ebx
  00070	8d 1c 85 00 00
	00 00		 lea	 ebx, DWORD PTR [eax*4]
  00077	8b f9		 mov	 edi, ecx
  00079	2b d3		 sub	 edx, ebx
  0007b	8b 5f 08	 mov	 ebx, DWORD PTR [edi+8]
  0007e	3b d8		 cmp	 ebx, eax
  00080	77 02		 ja	 SHORT $L160010
  00082	2b c3		 sub	 eax, ebx
$L160010:
  00084	8b 7f 04	 mov	 edi, DWORD PTR [edi+4]
  00087	8b 04 87	 mov	 eax, DWORD PTR [edi+eax*4]
  0008a	8b 04 90	 mov	 eax, DWORD PTR [eax+edx*4]
  0008d	8b 51 10	 mov	 edx, DWORD PTR [ecx+16]
  00090	33 ff		 xor	 edi, edi
  00092	3b d7		 cmp	 edx, edi
  00094	5b		 pop	 ebx
  00095	74 0b		 je	 SHORT $L160023
  00097	4a		 dec	 edx
  00098	3b d7		 cmp	 edx, edi
  0009a	89 51 10	 mov	 DWORD PTR [ecx+16], edx
  0009d	75 03		 jne	 SHORT $L160023
  0009f	89 79 0c	 mov	 DWORD PTR [ecx+12], edi
$L160023:
  000a2	8b 4c 24 10	 mov	 ecx, DWORD PTR _pBucketPrev$[esp+8]

; 375  : 	pBucket->m_dwKey	= dwKey;
; 376  : 	pBucket->m_value	= value;

  000a6	8b 54 24 14	 mov	 edx, DWORD PTR _value$[esp+8]
  000aa	89 41 0c	 mov	 DWORD PTR [ecx+12], eax
  000ad	89 68 04	 mov	 DWORD PTR [eax+4], ebp
  000b0	8b 0a		 mov	 ecx, DWORD PTR [edx]
  000b2	89 48 08	 mov	 DWORD PTR [eax+8], ecx

; 377  : 	AddItToActiveList( pBucket );

  000b5	8b 4e 34	 mov	 ecx, DWORD PTR [esi+52]
  000b8	3b cf		 cmp	 ecx, edi
  000ba	74 03		 je	 SHORT $L160032
  000bc	89 41 10	 mov	 DWORD PTR [ecx+16], eax
$L160032:
  000bf	8b 56 34	 mov	 edx, DWORD PTR [esi+52]
  000c2	89 78 10	 mov	 DWORD PTR [eax+16], edi
  000c5	5f		 pop	 edi
  000c6	89 50 14	 mov	 DWORD PTR [eax+20], edx
  000c9	89 46 34	 mov	 DWORD PTR [esi+52], eax
  000cc	5e		 pop	 esi
  000cd	5d		 pop	 ebp

; 378  : }

  000ce	c2 08 00	 ret	 8
$L160034:

; 364  : 		{
; 365  : 			pBucket->m_dwKey	= dwKey;
; 366  : 			pBucket->m_value	= value;

  000d1	8b 4c 24 10	 mov	 ecx, DWORD PTR _value$[esp+4]
  000d5	89 68 04	 mov	 DWORD PTR [eax+4], ebp
  000d8	8b 11		 mov	 edx, DWORD PTR [ecx]
  000da	89 50 08	 mov	 DWORD PTR [eax+8], edx

; 367  : 			AddItToActiveList( pBucket );

  000dd	8b 4e 34	 mov	 ecx, DWORD PTR [esi+52]
  000e0	85 c9		 test	 ecx, ecx
  000e2	74 03		 je	 SHORT $L159846
  000e4	89 41 10	 mov	 DWORD PTR [ecx+16], eax
$L159846:
  000e7	8b 4e 34	 mov	 ecx, DWORD PTR [esi+52]
  000ea	89 48 14	 mov	 DWORD PTR [eax+20], ecx
  000ed	c7 40 10 00 00
	00 00		 mov	 DWORD PTR [eax+16], 0

; 377  : 	AddItToActiveList( pBucket );

  000f4	89 46 34	 mov	 DWORD PTR [esi+52], eax
  000f7	5e		 pop	 esi
  000f8	5d		 pop	 ebp

; 378  : }

  000f9	c2 08 00	 ret	 8
?SetAt@?$CMyMap@PAVCClientSockE@@@@QAEXKABQAVCClientSockE@@@Z ENDP ; CMyMap<CClientSockE *>::SetAt
_TEXT	ENDS
PUBLIC	??_C@_0CB@EHMHDGIK@?4?4?2_network?2misc?2include?2mymap?4h@ ; `string'
PUBLIC	??_C@_06OJLEAOEG@?$CFs?0?5?$CFd?$AA@		; `string'
PUBLIC	??_C@_09ICHMLBIJ@mymap?4txt?$AA@		; `string'
PUBLIC	?RemoveAll@?$CMyMap@PAVCClientSockE@@@@QAEXXZ	; CMyMap<CClientSockE *>::RemoveAll
EXTRN	?FILEOUT@@YAXPBD0ZZ:NEAR			; FILEOUT
;	COMDAT ??_C@_0CB@EHMHDGIK@?4?4?2_network?2misc?2include?2mymap?4h@
; File c:\program files\microsoft visual studio .net 2003\vc7\include\stack
CONST	SEGMENT
??_C@_0CB@EHMHDGIK@?4?4?2_network?2misc?2include?2mymap?4h@ DB '..\_netwo'
	DB	'rk\misc\include\mymap.h', 00H		; `string'
CONST	ENDS
;	COMDAT ??_C@_06OJLEAOEG@?$CFs?0?5?$CFd?$AA@
CONST	SEGMENT
??_C@_06OJLEAOEG@?$CFs?0?5?$CFd?$AA@ DB '%s, %d', 00H	; `string'
CONST	ENDS
;	COMDAT ??_C@_09ICHMLBIJ@mymap?4txt?$AA@
CONST	SEGMENT
??_C@_09ICHMLBIJ@mymap?4txt?$AA@ DB 'mymap.txt', 00H	; `string'
; Function compile flags: /Ogty
; File c:\offi src_real\offi src!\_network\misc\include\mymap.h
CONST	ENDS
;	COMDAT ?RemoveAll@?$CMyMap@PAVCClientSockE@@@@QAEXXZ
_TEXT	SEGMENT
tv230 = -16						; size = 4
___loop2$153874 = -12					; size = 4
_i$153867 = -8						; size = 4
$T160055 = -4						; size = 4
?RemoveAll@?$CMyMap@PAVCClientSockE@@@@QAEXXZ PROC NEAR	; CMyMap<CClientSockE *>::RemoveAll, COMDAT
; _this$ = ecx

; 381  : {

  00000	83 ec 10	 sub	 esp, 16			; 00000010H
  00003	55		 push	 ebp
  00004	8b e9		 mov	 ebp, ecx

; 382  : 	m_pFirstActive	= NULL;
; 383  : 
; 384  : 	CMyBucket<T>* pBucket, *pNext;
; 385  : 	INIT_LOOP(1000);
; 386  : 	for( int i = 0; i < (int)( m_nHashSize ); i++ )

  00006	8b 45 38	 mov	 eax, DWORD PTR [ebp+56]
  00009	33 c9		 xor	 ecx, ecx
  0000b	3b c1		 cmp	 eax, ecx
  0000d	89 4d 34	 mov	 DWORD PTR [ebp+52], ecx
  00010	89 4c 24 0c	 mov	 DWORD PTR _i$153867[esp+20], ecx
  00014	0f 8e 97 00 00
	00		 jle	 $L160059
  0001a	53		 push	 ebx
  0001b	56		 push	 esi
  0001c	89 4c 24 0c	 mov	 DWORD PTR tv230[esp+28], ecx
  00020	57		 push	 edi
$L153869:

; 387  : 	{
; 388  : 		VERIFY_LOOP( __FILE__, __LINE__ );
; 389  : 		pBucket		= &m_pBuckets[i];

  00021	8b 75 04	 mov	 esi, DWORD PTR [ebp+4]
  00024	8b 7c 24 10	 mov	 edi, DWORD PTR tv230[esp+32]

; 390  : 		if( !pBucket->IsEmpty() )

  00028	8b 54 3e 04	 mov	 edx, DWORD PTR [esi+edi+4]
  0002c	03 f7		 add	 esi, edi
  0002e	83 c8 ff	 or	 eax, -1
  00031	3b d0		 cmp	 edx, eax
  00033	74 03		 je	 SHORT $L160046

; 391  : 			pBucket->Empty();

  00035	89 46 04	 mov	 DWORD PTR [esi+4], eax
$L160046:

; 392  : 
; 393  : 		int __loop2 = 1000;
; 394  : 		while( pBucket->m_pNext )

  00038	39 4e 0c	 cmp	 DWORD PTR [esi+12], ecx
  0003b	c7 44 24 14 e8
	03 00 00	 mov	 DWORD PTR ___loop2$153874[esp+32], 1000 ; 000003e8H
  00043	74 4a		 je	 SHORT $L153870
  00045	8d 5d 0c	 lea	 ebx, DWORD PTR [ebp+12]
$L153876:

; 395  : 		{
; 396  : 			if( --__loop2 == 0 ) { FILEOUT( "mymap.txt", "%s, %d", __FILE__, __LINE__ ); }

  00048	ff 4c 24 14	 dec	 DWORD PTR ___loop2$153874[esp+32]
  0004c	75 1c		 jne	 SHORT $L153878
  0004e	68 8c 01 00 00	 push	 396			; 0000018cH
  00053	68 00 00 00 00	 push	 OFFSET FLAT:??_C@_0CB@EHMHDGIK@?4?4?2_network?2misc?2include?2mymap?4h@
  00058	68 00 00 00 00	 push	 OFFSET FLAT:??_C@_06OJLEAOEG@?$CFs?0?5?$CFd?$AA@
  0005d	68 00 00 00 00	 push	 OFFSET FLAT:??_C@_09ICHMLBIJ@mymap?4txt?$AA@
  00062	e8 00 00 00 00	 call	 ?FILEOUT@@YAXPBD0ZZ	; FILEOUT
  00067	83 c4 10	 add	 esp, 16			; 00000010H
$L153878:

; 397  : 			pNext	= pBucket->m_pNext;

  0006a	8b 7e 0c	 mov	 edi, DWORD PTR [esi+12]

; 398  : 			pBucket->m_pNext	= NULL;
; 399  : 			pBucket		= pNext;
; 400  : 			m_pool.Push( pBucket );

  0006d	8d 44 24 1c	 lea	 eax, DWORD PTR $T160055[esp+32]
  00071	c7 46 0c 00 00
	00 00		 mov	 DWORD PTR [esi+12], 0
  00078	50		 push	 eax
  00079	8b cb		 mov	 ecx, ebx
  0007b	8b f7		 mov	 esi, edi
  0007d	89 7c 24 20	 mov	 DWORD PTR $T160055[esp+36], edi
  00081	e8 00 00 00 00	 call	 ?push_back@?$deque@PAV?$CMyBucket@PAVCClientSockE@@@@V?$allocator@PAV?$CMyBucket@PAVCClientSockE@@@@@std@@@std@@QAEXABQAV?$CMyBucket@PAVCClientSockE@@@@@Z ; std::deque<CMyBucket<CClientSockE *> *,std::allocator<CMyBucket<CClientSockE *> *> >::push_back
  00086	8b 47 0c	 mov	 eax, DWORD PTR [edi+12]
  00089	85 c0		 test	 eax, eax
  0008b	75 bb		 jne	 SHORT $L153876

; 392  : 
; 393  : 		int __loop2 = 1000;
; 394  : 		while( pBucket->m_pNext )

  0008d	33 c9		 xor	 ecx, ecx
$L153870:

; 382  : 	m_pFirstActive	= NULL;
; 383  : 
; 384  : 	CMyBucket<T>* pBucket, *pNext;
; 385  : 	INIT_LOOP(1000);
; 386  : 	for( int i = 0; i < (int)( m_nHashSize ); i++ )

  0008f	8b 44 24 18	 mov	 eax, DWORD PTR _i$153867[esp+32]
  00093	8b 74 24 10	 mov	 esi, DWORD PTR tv230[esp+32]
  00097	8b 55 38	 mov	 edx, DWORD PTR [ebp+56]
  0009a	40		 inc	 eax
  0009b	83 c6 18	 add	 esi, 24			; 00000018H
  0009e	3b c2		 cmp	 eax, edx
  000a0	89 44 24 18	 mov	 DWORD PTR _i$153867[esp+32], eax
  000a4	89 74 24 10	 mov	 DWORD PTR tv230[esp+32], esi
  000a8	0f 8c 73 ff ff
	ff		 jl	 $L153869
  000ae	5f		 pop	 edi
  000af	5e		 pop	 esi
  000b0	5b		 pop	 ebx
$L160059:

; 401  : 		}
; 402  : 	}
; 403  : 	m_nTotal	= 0;

  000b1	89 4d 3c	 mov	 DWORD PTR [ebp+60], ecx
  000b4	5d		 pop	 ebp

; 404  : }

  000b5	83 c4 10	 add	 esp, 16			; 00000010H
  000b8	c3		 ret	 0
?RemoveAll@?$CMyMap@PAVCClientSockE@@@@QAEXXZ ENDP	; CMyMap<CClientSockE *>::RemoveAll
_TEXT	ENDS
PUBLIC	?RemoveKey@?$CMyMap@PAVCClientSockE@@@@QAEHK@Z	; CMyMap<CClientSockE *>::RemoveKey
; Function compile flags: /Ogty
;	COMDAT ?RemoveKey@?$CMyMap@PAVCClientSockE@@@@QAEHK@Z
_TEXT	SEGMENT
$T160096 = 8						; size = 4
_dwKey$ = 8						; size = 4
?RemoveKey@?$CMyMap@PAVCClientSockE@@@@QAEHK@Z PROC NEAR ; CMyMap<CClientSockE *>::RemoveKey, COMDAT
; _this$ = ecx

; 407  : {

  00000	56		 push	 esi
  00001	8b f1		 mov	 esi, ecx

; 408  : 	ASSERT( m_nHashSize > 0 );
; 409  : 
; 410  : 	CMyBucket<T> *pBucket = &m_pBuckets[(int)IDHash( dwKey, m_nHashSize )], *pBucketPrev;

  00003	8b 4c 24 08	 mov	 ecx, DWORD PTR _dwKey$[esp]
  00007	57		 push	 edi
  00008	8b f9		 mov	 edi, ecx
  0000a	c1 ef 10	 shr	 edi, 16			; 00000010H
  0000d	8b d1		 mov	 edx, ecx
  0000f	c1 ea 18	 shr	 edx, 24			; 00000018H
  00012	03 f9		 add	 edi, ecx
  00014	03 fa		 add	 edi, edx
  00016	8b 56 38	 mov	 edx, DWORD PTR [esi+56]
  00019	8b c1		 mov	 eax, ecx
  0001b	c1 e8 08	 shr	 eax, 8
  0001e	03 c7		 add	 eax, edi
  00020	4a		 dec	 edx
  00021	23 c2		 and	 eax, edx
  00023	8b 56 04	 mov	 edx, DWORD PTR [esi+4]
  00026	8d 04 40	 lea	 eax, DWORD PTR [eax+eax*2]
  00029	8d 04 c2	 lea	 eax, DWORD PTR [edx+eax*8]

; 411  : 	if( pBucket->IsEqual( dwKey ) )

  0002c	3b 48 04	 cmp	 ecx, DWORD PTR [eax+4]
  0002f	75 39		 jne	 SHORT $L160098

; 412  : 	{
; 413  : 		pBucket->Empty();
; 414  : 		RemoveItFromActiveList( pBucket );

  00031	8b 48 10	 mov	 ecx, DWORD PTR [eax+16]
  00034	85 c9		 test	 ecx, ecx
  00036	c7 40 04 ff ff
	ff ff		 mov	 DWORD PTR [eax+4], -1
  0003d	74 06		 je	 SHORT $L160076
  0003f	8b 50 14	 mov	 edx, DWORD PTR [eax+20]
  00042	89 51 14	 mov	 DWORD PTR [ecx+20], edx
$L160076:
  00045	8b 48 14	 mov	 ecx, DWORD PTR [eax+20]
  00048	85 c9		 test	 ecx, ecx
  0004a	74 06		 je	 SHORT $L160077
  0004c	8b 50 10	 mov	 edx, DWORD PTR [eax+16]
  0004f	89 51 10	 mov	 DWORD PTR [ecx+16], edx
$L160077:
  00052	39 46 34	 cmp	 DWORD PTR [esi+52], eax
  00055	75 74		 jne	 SHORT $L160078
  00057	8b 40 14	 mov	 eax, DWORD PTR [eax+20]
  0005a	89 46 34	 mov	 DWORD PTR [esi+52], eax

; 434  : 			m_nTotal--;

  0005d	ff 4e 3c	 dec	 DWORD PTR [esi+60]
  00060	5f		 pop	 edi

; 435  : 			return TRUE;

  00061	b8 01 00 00 00	 mov	 eax, 1
  00066	5e		 pop	 esi

; 436  : 		}
; 437  : 	}
; 438  : 	return FALSE;
; 439  : }

  00067	c2 04 00	 ret	 4
$L160098:

; 415  : 		m_nTotal--;
; 416  : 		return TRUE;
; 417  : 	}
; 418  : 
; 419  : 	INIT_LOOP(1000);
; 420  : 	while( TRUE )
; 421  : 	{
; 422  : 		VERIFY_LOOP( __FILE__, __LINE__ );
; 423  : 		pBucketPrev		= pBucket;

  0006a	8b d0		 mov	 edx, eax

; 424  : 		pBucket		= pBucket->m_pNext;

  0006c	8b 40 0c	 mov	 eax, DWORD PTR [eax+12]

; 425  : 		if( !pBucket )

  0006f	85 c0		 test	 eax, eax
  00071	74 0e		 je	 SHORT $L160099
$L153894:

; 427  : 
; 428  : 		if( pBucket->IsEqual( dwKey ) )

  00073	3b 48 04	 cmp	 ecx, DWORD PTR [eax+4]
  00076	74 10		 je	 SHORT $L160100
  00078	8b d0		 mov	 edx, eax
  0007a	8b 40 0c	 mov	 eax, DWORD PTR [eax+12]
  0007d	85 c0		 test	 eax, eax
  0007f	75 f2		 jne	 SHORT $L153894
$L160099:
  00081	5f		 pop	 edi

; 426  : 			return FALSE;

  00082	33 c0		 xor	 eax, eax
  00084	5e		 pop	 esi

; 436  : 		}
; 437  : 	}
; 438  : 	return FALSE;
; 439  : }

  00085	c2 04 00	 ret	 4
$L160100:

; 429  : 		{
; 430  : 			pBucketPrev->m_pNext	= pBucket->m_pNext;

  00088	8b 48 0c	 mov	 ecx, DWORD PTR [eax+12]
  0008b	89 4a 0c	 mov	 DWORD PTR [edx+12], ecx

; 431  : 			pBucket->m_pNext	= NULL;
; 432  : 			RemoveItFromActiveList( pBucket );

  0008e	8b 48 10	 mov	 ecx, DWORD PTR [eax+16]
  00091	85 c9		 test	 ecx, ecx
  00093	c7 40 0c 00 00
	00 00		 mov	 DWORD PTR [eax+12], 0
  0009a	74 06		 je	 SHORT $L160085
  0009c	8b 50 14	 mov	 edx, DWORD PTR [eax+20]
  0009f	89 51 14	 mov	 DWORD PTR [ecx+20], edx
$L160085:
  000a2	8b 48 14	 mov	 ecx, DWORD PTR [eax+20]
  000a5	85 c9		 test	 ecx, ecx
  000a7	74 06		 je	 SHORT $L160086
  000a9	8b 50 10	 mov	 edx, DWORD PTR [eax+16]
  000ac	89 51 10	 mov	 DWORD PTR [ecx+16], edx
$L160086:
  000af	39 46 34	 cmp	 DWORD PTR [esi+52], eax
  000b2	75 06		 jne	 SHORT $L160087
  000b4	8b 48 14	 mov	 ecx, DWORD PTR [eax+20]
  000b7	89 4e 34	 mov	 DWORD PTR [esi+52], ecx
$L160087:

; 433  : 			m_pool.Push( pBucket );

  000ba	8d 54 24 0c	 lea	 edx, DWORD PTR $T160096[esp+4]
  000be	52		 push	 edx
  000bf	8d 4e 0c	 lea	 ecx, DWORD PTR [esi+12]
  000c2	89 44 24 10	 mov	 DWORD PTR $T160096[esp+8], eax
  000c6	e8 00 00 00 00	 call	 ?push_back@?$deque@PAV?$CMyBucket@PAVCClientSockE@@@@V?$allocator@PAV?$CMyBucket@PAVCClientSockE@@@@@std@@@std@@QAEXABQAV?$CMyBucket@PAVCClientSockE@@@@@Z ; std::deque<CMyBucket<CClientSockE *> *,std::allocator<CMyBucket<CClientSockE *> *> >::push_back
$L160078:

; 434  : 			m_nTotal--;

  000cb	ff 4e 3c	 dec	 DWORD PTR [esi+60]
  000ce	5f		 pop	 edi

; 435  : 			return TRUE;

  000cf	b8 01 00 00 00	 mov	 eax, 1
  000d4	5e		 pop	 esi

; 436  : 		}
; 437  : 	}
; 438  : 	return FALSE;
; 439  : }

  000d5	c2 04 00	 ret	 4
?RemoveKey@?$CMyMap@PAVCClientSockE@@@@QAEHK@Z ENDP	; CMyMap<CClientSockE *>::RemoveKey
_TEXT	ENDS
PUBLIC	??0CServerSockE@@QAE@W4BUFFER_TYPE@@@Z		; CServerSockE::CServerSockE
EXTRN	??0CSock@@QAE@XZ:NEAR				; CSock::CSock
;	COMDAT xdata$x
; File c:\offi src_real\offi src!\_network\mcl\include\cmclcritsec.h
xdata$x	SEGMENT
$T160121 DD	0ffffffffH
	DD	FLAT:$L160104
	DD	00H
	DD	FLAT:$L160105
$T160119 DD	019930520H
	DD	02H
	DD	FLAT:$T160121
	DD	2 DUP(00H)
	DD	2 DUP(00H)
; Function compile flags: /Ogty
; File c:\offi src_real\offi src!\_network\net\src\serversocke.cpp
xdata$x	ENDS
;	COMDAT ??0CServerSockE@@QAE@W4BUFFER_TYPE@@@Z
_TEXT	SEGMENT
_this$ = -16						; size = 4
__$EHRec$ = -12						; size = 12
_nBufferType$ = 8					; size = 4
??0CServerSockE@@QAE@W4BUFFER_TYPE@@@Z PROC NEAR	; CServerSockE::CServerSockE, COMDAT
; _this$ = ecx

; 12   : {

  00000	6a ff		 push	 -1
  00002	68 00 00 00 00	 push	 __ehhandler$??0CServerSockE@@QAE@W4BUFFER_TYPE@@@Z
  00007	64 a1 00 00 00
	00		 mov	 eax, DWORD PTR fs:__except_list
  0000d	50		 push	 eax
  0000e	64 89 25 00 00
	00 00		 mov	 DWORD PTR fs:__except_list, esp
  00015	51		 push	 ecx
  00016	53		 push	 ebx
  00017	56		 push	 esi
  00018	8b f1		 mov	 esi, ecx
  0001a	57		 push	 edi
  0001b	89 74 24 0c	 mov	 DWORD PTR _this$[esp+28], esi
  0001f	e8 00 00 00 00	 call	 ??0CSock@@QAE@XZ	; CSock::CSock
  00024	8d 7e 1c	 lea	 edi, DWORD PTR [esi+28]
  00027	33 db		 xor	 ebx, ebx
  00029	c7 06 00 00 00
	00		 mov	 DWORD PTR [esi], OFFSET FLAT:??_7CServerSockE@@6B@
  0002f	8d 4f 08	 lea	 ecx, DWORD PTR [edi+8]
  00032	89 5c 24 18	 mov	 DWORD PTR __$EHRec$[esp+36], ebx
  00036	c7 07 00 00 00
	00		 mov	 DWORD PTR [edi], OFFSET FLAT:??_7?$CMyMap@PAVCClientSockE@@@@6B@
  0003c	e8 00 00 00 00	 call	 ??0?$CMyPool@V?$CMyBucket@PAVCClientSockE@@@@@@QAE@XZ ; CMyPool<CMyBucket<CClientSockE *> >::CMyPool<CMyBucket<CClientSockE *> >
  00041	8d 47 44	 lea	 eax, DWORD PTR [edi+68]
  00044	50		 push	 eax
  00045	c7 47 40 00 00
	00 00		 mov	 DWORD PTR [edi+64], OFFSET FLAT:??_7CMclCritSec@@6B@
  0004c	ff 15 00 00 00
	00		 call	 DWORD PTR __imp__InitializeCriticalSection@4
  00052	89 5f 04	 mov	 DWORD PTR [edi+4], ebx
  00055	89 5f 38	 mov	 DWORD PTR [edi+56], ebx
  00058	89 5f 3c	 mov	 DWORD PTR [edi+60], ebx
  0005b	89 5f 34	 mov	 DWORD PTR [edi+52], ebx

; 13   : 	m_hListenThread		= (HANDLE)NULL;
; 14   : 	m_hClose	= (HANDLE)NULL;
; 15   : 	m_hListen	= WSA_INVALID_EVENT;
; 16   : 	m_pDPSock	= NULL;
; 17   : #ifndef __STL_0402
; 18   : 	m_mapChild.SetSize( 512, 4096, 128 );

  0005e	68 80 00 00 00	 push	 128			; 00000080H
  00063	68 00 10 00 00	 push	 4096			; 00001000H
  00068	68 00 02 00 00	 push	 512			; 00000200H
  0006d	8b cf		 mov	 ecx, edi
  0006f	c6 44 24 24 01	 mov	 BYTE PTR __$EHRec$[esp+48], 1
  00074	89 5e 10	 mov	 DWORD PTR [esi+16], ebx
  00077	89 5e 14	 mov	 DWORD PTR [esi+20], ebx
  0007a	89 5e 18	 mov	 DWORD PTR [esi+24], ebx
  0007d	89 5e 78	 mov	 DWORD PTR [esi+120], ebx
  00080	e8 00 00 00 00	 call	 ?SetSize@?$CMyMap@PAVCClientSockE@@@@QAEXIII@Z ; CMyMap<CClientSockE *>::SetSize

; 19   : #endif	// __STL_0402
; 20   : 
; 21   : #ifdef __CRC
; 22   : 	m_dwcrc		= dwcrc;
; 23   : 	m_nBufferType = BUFFER_TYPE_5BYTE;
; 24   : #else
; 25   : 	m_nBufferType = nBufferType;

  00085	8b 4c 24 20	 mov	 ecx, DWORD PTR _nBufferType$[esp+24]
  00089	89 4e 7c	 mov	 DWORD PTR [esi+124], ecx

; 26   : #endif	// __CRC
; 27   : }

  0008c	8b 4c 24 10	 mov	 ecx, DWORD PTR __$EHRec$[esp+28]
  00090	5f		 pop	 edi
  00091	8b c6		 mov	 eax, esi
  00093	5e		 pop	 esi
  00094	5b		 pop	 ebx
  00095	64 89 0d 00 00
	00 00		 mov	 DWORD PTR fs:__except_list, ecx
  0009c	83 c4 10	 add	 esp, 16			; 00000010H
  0009f	c2 04 00	 ret	 4
_TEXT	ENDS
;	COMDAT text$x
text$x	SEGMENT
$L160104:
  00000	8b 4d f0	 mov	 ecx, DWORD PTR _this$[ebp]
  00003	e9 00 00 00 00	 jmp	 ??1CSock@@UAE@XZ	; CSock::~CSock
$L160105:
  00008	8b 4d f0	 mov	 ecx, DWORD PTR _this$[ebp]
  0000b	83 c1 1c	 add	 ecx, 28			; 0000001cH
  0000e	e9 00 00 00 00	 jmp	 ??1?$CMyMap@PAVCClientSockE@@@@UAE@XZ ; CMyMap<CClientSockE *>::~CMyMap<CClientSockE *>
__ehhandler$??0CServerSockE@@QAE@W4BUFFER_TYPE@@@Z:
  00013	b8 00 00 00 00	 mov	 eax, OFFSET FLAT:$T160119
  00018	e9 00 00 00 00	 jmp	 ___CxxFrameHandler
text$x	ENDS
??0CServerSockE@@QAE@W4BUFFER_TYPE@@@Z ENDP		; CServerSockE::CServerSockE
PUBLIC	?AddChild@CServerSockE@@QAEPAVCClientSockE@@I@Z	; CServerSockE::AddChild
EXTRN	??0CClientSockE@@QAE@W4BUFFER_TYPE@@@Z:NEAR	; CClientSockE::CClientSockE
;	COMDAT xdata$x
; File c:\offi src_real\offi src!\_network\mcl\include\cmclcritsec.h
xdata$x	SEGMENT
$T160166 DD	0ffffffffH
	DD	FLAT:$L160131
$T160164 DD	019930520H
	DD	01H
	DD	FLAT:$T160166
	DD	2 DUP(00H)
	DD	2 DUP(00H)
; Function compile flags: /Ogty
; File c:\offi src_real\offi src!\_network\net\src\serversocke.cpp
xdata$x	ENDS
;	COMDAT ?AddChild@CServerSockE@@QAEPAVCClientSockE@@I@Z
_TEXT	SEGMENT
$T160128 = -16						; size = 4
_pChild$ = -16						; size = 4
__$EHRec$ = -12						; size = 12
_hSocket$ = 8						; size = 4
?AddChild@CServerSockE@@QAEPAVCClientSockE@@I@Z PROC NEAR ; CServerSockE::AddChild, COMDAT
; _this$ = ecx

; 75   : {

  00000	6a ff		 push	 -1
  00002	68 00 00 00 00	 push	 __ehhandler$?AddChild@CServerSockE@@QAEPAVCClientSockE@@I@Z
  00007	64 a1 00 00 00
	00		 mov	 eax, DWORD PTR fs:__except_list
  0000d	50		 push	 eax
  0000e	64 89 25 00 00
	00 00		 mov	 DWORD PTR fs:__except_list, esp
  00015	51		 push	 ecx
  00016	53		 push	 ebx
  00017	55		 push	 ebp
  00018	56		 push	 esi

; 76   : #ifdef __CRC
; 77   : 	CClientSockE* pChild		= new CClientSockE( m_dwcrc );
; 78   : #else	// __CRC
; 79   : 	CClientSockE* pChild		= new CClientSockE( m_nBufferType );

  00019	8b 35 00 00 00
	00		 mov	 esi, DWORD PTR ?m_pPool@CClientSockE@@2PAV?$MemPooler@VCClientSockE@@@@A ; CClientSockE::m_pPool
  0001f	57		 push	 edi
  00020	8d 7e 1c	 lea	 edi, DWORD PTR [esi+28]
  00023	57		 push	 edi
  00024	8b d9		 mov	 ebx, ecx
  00026	ff 15 00 00 00
	00		 call	 DWORD PTR __imp__EnterCriticalSection@4
  0002c	83 3e 00	 cmp	 DWORD PTR [esi], 0
  0002f	75 07		 jne	 SHORT $L160145
  00031	8b ce		 mov	 ecx, esi
  00033	e8 00 00 00 00	 call	 ?Create@?$MemPooler@VCClientSockE@@@@IAEXXZ ; MemPooler<CClientSockE>::Create
$L160145:
  00038	8b 06		 mov	 eax, DWORD PTR [esi]
  0003a	8b 56 18	 mov	 edx, DWORD PTR [esi+24]
  0003d	8b 08		 mov	 ecx, DWORD PTR [eax]
  0003f	42		 inc	 edx
  00040	89 0e		 mov	 DWORD PTR [esi], ecx
  00042	89 56 18	 mov	 DWORD PTR [esi+24], edx
  00045	57		 push	 edi
  00046	8d 70 04	 lea	 esi, DWORD PTR [eax+4]
  00049	ff 15 00 00 00
	00		 call	 DWORD PTR __imp__LeaveCriticalSection@4
  0004f	89 74 24 10	 mov	 DWORD PTR $T160128[esp+32], esi
  00053	85 f6		 test	 esi, esi
  00055	c7 44 24 1c 00
	00 00 00	 mov	 DWORD PTR __$EHRec$[esp+40], 0
  0005d	74 0f		 je	 SHORT $L160129
  0005f	8b 53 7c	 mov	 edx, DWORD PTR [ebx+124]
  00062	52		 push	 edx
  00063	8b ce		 mov	 ecx, esi
  00065	e8 00 00 00 00	 call	 ??0CClientSockE@@QAE@W4BUFFER_TYPE@@@Z ; CClientSockE::CClientSockE
  0006a	8b f0		 mov	 esi, eax
  0006c	eb 02		 jmp	 SHORT $L160130
$L160129:
  0006e	33 f6		 xor	 esi, esi
$L160130:

; 80   : #endif	// __CRC
; 81   : 	pChild->Attach( hSocket );

  00070	8b 6c 24 24	 mov	 ebp, DWORD PTR _hSocket$[esp+28]
  00074	8b 06		 mov	 eax, DWORD PTR [esi]
  00076	55		 push	 ebp
  00077	8b ce		 mov	 ecx, esi
  00079	c7 44 24 20 ff
	ff ff ff	 mov	 DWORD PTR __$EHRec$[esp+44], -1
  00081	89 74 24 14	 mov	 DWORD PTR _pChild$[esp+36], esi
  00085	ff 50 08	 call	 DWORD PTR [eax+8]

; 82   : 	m_mapChild.Lock();

  00088	8d 7b 60	 lea	 edi, DWORD PTR [ebx+96]
  0008b	57		 push	 edi
  0008c	ff 15 00 00 00
	00		 call	 DWORD PTR __imp__EnterCriticalSection@4

; 83   : #ifdef __STL_0402
; 84   : 	bool bResult	= m_mapChild.insert( CMapChildE::value_type( hSocket, pChild ) ).second;
; 85   : 	ASSERT( bResult );
; 86   : #else	// __STL_0402
; 87   : 	m_mapChild.SetAt( hSocket, pChild );

  00092	8d 4c 24 10	 lea	 ecx, DWORD PTR _pChild$[esp+32]
  00096	51		 push	 ecx
  00097	55		 push	 ebp
  00098	8d 4b 1c	 lea	 ecx, DWORD PTR [ebx+28]
  0009b	e8 00 00 00 00	 call	 ?SetAt@?$CMyMap@PAVCClientSockE@@@@QAEXKABQAVCClientSockE@@@Z ; CMyMap<CClientSockE *>::SetAt

; 88   : #endif	// __STL_0402
; 89   : 	m_mapChild.Unlock();

  000a0	57		 push	 edi
  000a1	ff 15 00 00 00
	00		 call	 DWORD PTR __imp__LeaveCriticalSection@4

; 90   : 	return pChild;
; 91   : }

  000a7	8b 4c 24 14	 mov	 ecx, DWORD PTR __$EHRec$[esp+32]
  000ab	5f		 pop	 edi
  000ac	8b c6		 mov	 eax, esi
  000ae	5e		 pop	 esi
  000af	5d		 pop	 ebp
  000b0	5b		 pop	 ebx
  000b1	64 89 0d 00 00
	00 00		 mov	 DWORD PTR fs:__except_list, ecx
  000b8	83 c4 10	 add	 esp, 16			; 00000010H
  000bb	c2 04 00	 ret	 4
_TEXT	ENDS
;	COMDAT text$x
text$x	SEGMENT
$L160131:
  00000	8b 45 f0	 mov	 eax, DWORD PTR $T160128[ebp]
  00003	50		 push	 eax
  00004	e8 00 00 00 00	 call	 ??3CClientSockE@@SAXPAX@Z ; CClientSockE::operator delete
  00009	59		 pop	 ecx
  0000a	c3		 ret	 0
__ehhandler$?AddChild@CServerSockE@@QAEPAVCClientSockE@@I@Z:
  0000b	b8 00 00 00 00	 mov	 eax, OFFSET FLAT:$T160164
  00010	e9 00 00 00 00	 jmp	 ___CxxFrameHandler
text$x	ENDS
?AddChild@CServerSockE@@QAEPAVCClientSockE@@I@Z ENDP	; CServerSockE::AddChild
PUBLIC	?CloseChild@CServerSockE@@QAEHI@Z		; CServerSockE::CloseChild
;	COMDAT xdata$x
; File c:\offi src_real\offi src!\_network\mcl\include\cmclcritsec.h
xdata$x	SEGMENT
$T160209 DD	0ffffffffH
	DD	FLAT:$L160178
$T160207 DD	019930520H
	DD	01H
	DD	FLAT:$T160209
	DD	2 DUP(00H)
	DD	2 DUP(00H)
; Function compile flags: /Ogty
; File c:\offi src_real\offi src!\_network\net\src\serversocke.cpp
xdata$x	ENDS
;	COMDAT ?CloseChild@CServerSockE@@QAEHI@Z
_TEXT	SEGMENT
_Lock$ = -16						; size = 4
__$EHRec$ = -12						; size = 12
_pChild$ = 8						; size = 4
_hSocket$ = 8						; size = 4
?CloseChild@CServerSockE@@QAEHI@Z PROC NEAR		; CServerSockE::CloseChild, COMDAT
; _this$ = ecx

; 94   : {

  00000	6a ff		 push	 -1
  00002	68 00 00 00 00	 push	 __ehhandler$?CloseChild@CServerSockE@@QAEHI@Z
  00007	64 a1 00 00 00
	00		 mov	 eax, DWORD PTR fs:__except_list
  0000d	50		 push	 eax
  0000e	64 89 25 00 00
	00 00		 mov	 DWORD PTR fs:__except_list, esp
  00015	51		 push	 ecx
  00016	53		 push	 ebx
  00017	56		 push	 esi
  00018	8b f1		 mov	 esi, ecx

; 95   : 	CMclAutoLock	Lock( m_mapChild.m_AddRemoveLock );

  0001a	8d 46 5c	 lea	 eax, DWORD PTR [esi+92]
  0001d	57		 push	 edi
  0001e	8d 78 04	 lea	 edi, DWORD PTR [eax+4]
  00021	57		 push	 edi
  00022	89 44 24 10	 mov	 DWORD PTR _Lock$[esp+32], eax
  00026	ff 15 00 00 00
	00		 call	 DWORD PTR __imp__EnterCriticalSection@4

; 96   : #ifdef __STL_0402
; 97   : 	CMapChildE::iterator i	= m_mapChild.find( hSocket );
; 98   : 	if( i != m_mapChild.end() )
; 99   : 	{
; 100  : 		CClientSockE* pChild	= i->second;
; 101  : 		m_mapChild.erase( i );
; 102  : 		pChild->Close();
; 103  : 		SAFE_DELETE( pChild );
; 104  : 		return TRUE;
; 105  : 	}
; 106  : 	return FALSE;
; 107  : #else	// __STL_0402
; 108  : 	CClientSockE* pChild;
; 109  : 	if( m_mapChild.Lookup( hSocket, pChild ) )

  0002c	8b 5c 24 20	 mov	 ebx, DWORD PTR _hSocket$[esp+24]
  00030	8d 44 24 20	 lea	 eax, DWORD PTR _pChild$[esp+24]
  00034	50		 push	 eax
  00035	83 c6 1c	 add	 esi, 28			; 0000001cH
  00038	53		 push	 ebx
  00039	8b ce		 mov	 ecx, esi
  0003b	c7 44 24 20 00
	00 00 00	 mov	 DWORD PTR __$EHRec$[esp+44], 0
  00043	e8 00 00 00 00	 call	 ?Lookup@?$CMyMap@PAVCClientSockE@@@@QAEHKAAPAVCClientSockE@@@Z ; CMyMap<CClientSockE *>::Lookup
  00048	85 c0		 test	 eax, eax
  0004a	74 3f		 je	 SHORT $L153294

; 110  : 	{
; 111  : 		m_mapChild.RemoveKey( hSocket );

  0004c	53		 push	 ebx
  0004d	8b ce		 mov	 ecx, esi
  0004f	e8 00 00 00 00	 call	 ?RemoveKey@?$CMyMap@PAVCClientSockE@@@@QAEHK@Z ; CMyMap<CClientSockE *>::RemoveKey

; 112  : 		if( pChild ) {

  00054	8b 74 24 20	 mov	 esi, DWORD PTR _pChild$[esp+24]
  00058	85 f6		 test	 esi, esi
  0005a	74 2f		 je	 SHORT $L153294

; 113  : 			pChild->Close();

  0005c	8b 16		 mov	 edx, DWORD PTR [esi]
  0005e	8b ce		 mov	 ecx, esi
  00060	ff 52 1c	 call	 DWORD PTR [edx+28]

; 114  : 			SAFE_DELETE( pChild );

  00063	8b 06		 mov	 eax, DWORD PTR [esi]
  00065	6a 01		 push	 1
  00067	8b ce		 mov	 ecx, esi
  00069	ff 10		 call	 DWORD PTR [eax]

; 115  : 			return( TRUE );

  0006b	57		 push	 edi
  0006c	ff 15 00 00 00
	00		 call	 DWORD PTR __imp__LeaveCriticalSection@4
  00072	5f		 pop	 edi
  00073	5e		 pop	 esi
  00074	b8 01 00 00 00	 mov	 eax, 1
  00079	5b		 pop	 ebx

; 119  : #endif	// __STL_0402
; 120  : }

  0007a	8b 4c 24 04	 mov	 ecx, DWORD PTR __$EHRec$[esp+16]
  0007e	64 89 0d 00 00
	00 00		 mov	 DWORD PTR fs:__except_list, ecx
  00085	83 c4 10	 add	 esp, 16			; 00000010H
  00088	c2 04 00	 ret	 4
$L153294:

; 116  : 		}
; 117  : 	}
; 118  : 	return( FALSE );

  0008b	57		 push	 edi
  0008c	ff 15 00 00 00
	00		 call	 DWORD PTR __imp__LeaveCriticalSection@4

; 119  : #endif	// __STL_0402
; 120  : }

  00092	8b 4c 24 10	 mov	 ecx, DWORD PTR __$EHRec$[esp+28]
  00096	5f		 pop	 edi
  00097	5e		 pop	 esi
  00098	33 c0		 xor	 eax, eax
  0009a	5b		 pop	 ebx
  0009b	64 89 0d 00 00
	00 00		 mov	 DWORD PTR fs:__except_list, ecx
  000a2	83 c4 10	 add	 esp, 16			; 00000010H
  000a5	c2 04 00	 ret	 4
_TEXT	ENDS
;	COMDAT text$x
text$x	SEGMENT
$L160178:
  00000	8d 4d f0	 lea	 ecx, DWORD PTR _Lock$[ebp]
  00003	e9 00 00 00 00	 jmp	 ??1CMclAutoLock@@QAE@XZ	; CMclAutoLock::~CMclAutoLock
__ehhandler$?CloseChild@CServerSockE@@QAEHI@Z:
  00008	b8 00 00 00 00	 mov	 eax, OFFSET FLAT:$T160207
  0000d	e9 00 00 00 00	 jmp	 ___CxxFrameHandler
text$x	ENDS
?CloseChild@CServerSockE@@QAEHI@Z ENDP			; CServerSockE::CloseChild
PUBLIC	?CloseAllChild@CServerSockE@@QAEXXZ		; CServerSockE::CloseAllChild
;	COMDAT xdata$x
; File c:\offi src_real\offi src!\_network\mcl\include\cmclcritsec.h
xdata$x	SEGMENT
$T160246 DD	0ffffffffH
	DD	FLAT:$L160219
$T160242 DD	019930520H
	DD	01H
	DD	FLAT:$T160246
	DD	2 DUP(00H)
	DD	2 DUP(00H)
; Function compile flags: /Ogty
; File c:\offi src_real\offi src!\_network\net\src\serversocke.cpp
xdata$x	ENDS
;	COMDAT ?CloseAllChild@CServerSockE@@QAEXXZ
_TEXT	SEGMENT
_Lock$ = -16						; size = 4
__$EHRec$ = -12						; size = 12
?CloseAllChild@CServerSockE@@QAEXXZ PROC NEAR		; CServerSockE::CloseAllChild, COMDAT
; _this$ = ecx

; 123  : {

  00000	6a ff		 push	 -1
  00002	68 00 00 00 00	 push	 __ehhandler$?CloseAllChild@CServerSockE@@QAEXXZ
  00007	64 a1 00 00 00
	00		 mov	 eax, DWORD PTR fs:__except_list
  0000d	50		 push	 eax
  0000e	64 89 25 00 00
	00 00		 mov	 DWORD PTR fs:__except_list, esp
  00015	51		 push	 ecx
  00016	53		 push	 ebx
  00017	56		 push	 esi
  00018	57		 push	 edi
  00019	8b f9		 mov	 edi, ecx

; 124  : 	CMclAutoLock	Lock( m_mapChild.m_AddRemoveLock );

  0001b	8d 47 5c	 lea	 eax, DWORD PTR [edi+92]
  0001e	8d 58 04	 lea	 ebx, DWORD PTR [eax+4]
  00021	53		 push	 ebx
  00022	89 44 24 10	 mov	 DWORD PTR _Lock$[esp+32], eax
  00026	ff 15 00 00 00
	00		 call	 DWORD PTR __imp__EnterCriticalSection@4

; 125  : 
; 126  : #ifdef __STL_0402
; 127  : 	for( CMapChildE::iterator i = m_mapChild.begin(); i != m_mapChild.end(); ++i )
; 128  : 	{
; 129  : 		CClientSockE* pChild	= i->second;
; 130  : 		TRACE( "~%x, %d\n", pChild, pChild->GetHandle() );
; 131  : 		SAFE_DELETE( pChild );
; 132  : 	}
; 133  : 	m_mapChild.clear();
; 134  : #else	// __STL_0402
; 135  : 	CMyBucket<CClientSockE*>* pBucket;
; 136  : 	CClientSockE* pChild;
; 137  : 	pBucket		= m_mapChild.GetFirstActive();

  0002c	8b 77 50	 mov	 esi, DWORD PTR [edi+80]

; 138  : 	while( pBucket )

  0002f	85 f6		 test	 esi, esi
  00031	c7 44 24 18 00
	00 00 00	 mov	 DWORD PTR __$EHRec$[esp+36], 0
  00039	74 19		 je	 SHORT $L153310
  0003b	eb 03 8d 49 00	 npad	 5
$L153309:

; 139  : 	{
; 140  : 		pChild	= pBucket->m_value;

  00040	8b 4e 08	 mov	 ecx, DWORD PTR [esi+8]

; 141  : 		TRACE( "~%x, %d\n", pChild, pChild->GetHandle() );
; 142  : 		SAFE_DELETE( pChild );

  00043	85 c9		 test	 ecx, ecx
  00045	74 06		 je	 SHORT $L160217
  00047	8b 01		 mov	 eax, DWORD PTR [ecx]
  00049	6a 01		 push	 1
  0004b	ff 10		 call	 DWORD PTR [eax]
$L160217:

; 143  : 		pBucket	= pBucket->pNext;

  0004d	8b 76 14	 mov	 esi, DWORD PTR [esi+20]
  00050	85 f6		 test	 esi, esi
  00052	75 ec		 jne	 SHORT $L153309
$L153310:

; 144  : 	}
; 145  : 	m_mapChild.RemoveAll();

  00054	8d 4f 1c	 lea	 ecx, DWORD PTR [edi+28]
  00057	e8 00 00 00 00	 call	 ?RemoveAll@?$CMyMap@PAVCClientSockE@@@@QAEXXZ ; CMyMap<CClientSockE *>::RemoveAll

; 146  : #endif	// __STL_0402
; 147  : }

  0005c	53		 push	 ebx
  0005d	ff 15 00 00 00
	00		 call	 DWORD PTR __imp__LeaveCriticalSection@4
  00063	8b 4c 24 10	 mov	 ecx, DWORD PTR __$EHRec$[esp+28]
  00067	5f		 pop	 edi
  00068	5e		 pop	 esi
  00069	5b		 pop	 ebx
  0006a	64 89 0d 00 00
	00 00		 mov	 DWORD PTR fs:__except_list, ecx
  00071	83 c4 10	 add	 esp, 16			; 00000010H
  00074	c3		 ret	 0
_TEXT	ENDS
;	COMDAT text$x
text$x	SEGMENT
$L160219:
  00000	8d 4d f0	 lea	 ecx, DWORD PTR _Lock$[ebp]
  00003	e9 00 00 00 00	 jmp	 ??1CMclAutoLock@@QAE@XZ	; CMclAutoLock::~CMclAutoLock
__ehhandler$?CloseAllChild@CServerSockE@@QAEXXZ:
  00008	b8 00 00 00 00	 mov	 eax, OFFSET FLAT:$T160242
  0000d	e9 00 00 00 00	 jmp	 ___CxxFrameHandler
text$x	ENDS
?CloseAllChild@CServerSockE@@QAEXXZ ENDP		; CServerSockE::CloseAllChild
; Function compile flags: /Ogty
;	COMDAT ?CloseConnection@CServerSockE@@UAEHI@Z
_TEXT	SEGMENT
_hSocket$ = 8						; size = 4
?CloseConnection@CServerSockE@@UAEHI@Z PROC NEAR	; CServerSockE::CloseConnection, COMDAT
; _this$ = ecx

; 191  : 	return CloseChild( hSocket );

  00000	e9 00 00 00 00	 jmp	 ?CloseChild@CServerSockE@@QAEHI@Z ; CServerSockE::CloseChild
?CloseConnection@CServerSockE@@UAEHI@Z ENDP		; CServerSockE::CloseConnection
_TEXT	ENDS
PUBLIC	?ListenThreadE@@YGIPAX@Z			; ListenThreadE
EXTRN	__imp__WaitForMultipleObjects@16:NEAR
EXTRN	__imp__InterlockedIncrement@4:NEAR
EXTRN	?Recv@CClientSockE@@QAEHXZ:NEAR			; CClientSockE::Recv
EXTRN	?CreateEventWorker@CDPSock@@QAEHPAVCSock@@@Z:NEAR ; CDPSock::CreateEventWorker
EXTRN	__imp__setsockopt@20:NEAR
EXTRN	__imp__WSAAccept@20:NEAR
EXTRN	__imp__WSAEnumNetworkEvents@12:NEAR
; Function compile flags: /Ogty
;	COMDAT ?ListenThreadE@@YGIPAX@Z
_TEXT	SEGMENT
_nSize$153406 = -80					; size = 4
_handle$ = -76						; size = 12
_ne$ = -64						; size = 44
_addr$153407 = -20					; size = 16
__$ArrayPad$ = -4					; size = 4
__$ReturnAddr$ = 4					; size = 4
_zero$153415 = 8					; size = 4
_lpvThreadParameter$ = 8				; size = 4
?ListenThreadE@@YGIPAX@Z PROC NEAR			; ListenThreadE, COMDAT

; 229  : {

  00000	83 ec 50	 sub	 esp, 80			; 00000050H
  00003	a1 00 00 00 00	 mov	 eax, DWORD PTR ___security_cookie
  00008	53		 push	 ebx

; 230  : 	CServerSockE* pSock	= (CServerSockE*) lpvThreadParameter;
; 231  : 	HANDLE handle[3];
; 232  : 	DWORD dw;
; 233  : 	WSANETWORKEVENTS ne;
; 234  : 	
; 235  : 	handle[0]	= pSock->GetCloseHandle();

  00009	8b 5c 24 58	 mov	 ebx, DWORD PTR _lpvThreadParameter$[esp+80]

; 236  : 	handle[1]	= pSock->GetListenHandle();

  0000d	8b 4b 18	 mov	 ecx, DWORD PTR [ebx+24]
  00010	55		 push	 ebp

; 237  : 	handle[2]	= NULL;

  00011	8b 2d 00 00 00
	00		 mov	 ebp, DWORD PTR __imp__setsockopt@20
  00017	89 44 24 54	 mov	 DWORD PTR __$ArrayPad$[esp+88], eax
  0001b	8b 43 14	 mov	 eax, DWORD PTR [ebx+20]
  0001e	56		 push	 esi
  0001f	57		 push	 edi
  00020	89 44 24 14	 mov	 DWORD PTR _handle$[esp+96], eax
  00024	89 4c 24 18	 mov	 DWORD PTR _handle$[esp+100], ecx
  00028	c7 44 24 1c 00
	00 00 00	 mov	 DWORD PTR _handle$[esp+104], 0
$L153396:

; 238  : 	while( 1 )
; 239  : 	{
; 240  : 		dw	= WaitForMultipleObjects( 2, handle, FALSE, INFINITE );

  00030	6a ff		 push	 -1
  00032	6a 00		 push	 0
  00034	8d 54 24 1c	 lea	 edx, DWORD PTR _handle$[esp+104]
  00038	52		 push	 edx
  00039	6a 02		 push	 2
  0003b	ff 15 00 00 00
	00		 call	 DWORD PTR __imp__WaitForMultipleObjects@16

; 241  : 		switch( dw )

  00041	83 e8 00	 sub	 eax, 0
  00044	0f 84 b7 00 00
	00		 je	 $L160284
  0004a	48		 dec	 eax
  0004b	75 e3		 jne	 SHORT $L153396

; 242  : 		{
; 243  : 			case ( WAIT_OBJECT_0 ):
; 244  : 				return( 0 );
; 245  : 			case ( WAIT_OBJECT_0+1 ) :
; 246  : 				{
; 247  : 					int nSize;
; 248  : 					SOCKADDR addr;
; 249  : 					SOCKET hSocket;
; 250  : 					
; 251  : 					nSize	= sizeof(SOCKADDR);
; 252  : 					WSAEnumNetworkEvents( pSock->GetHandle(), pSock->GetListenHandle(), &ne );

  0004d	8b 4b 18	 mov	 ecx, DWORD PTR [ebx+24]
  00050	8b 53 04	 mov	 edx, DWORD PTR [ebx+4]
  00053	8d 44 24 20	 lea	 eax, DWORD PTR _ne$[esp+96]
  00057	50		 push	 eax
  00058	51		 push	 ecx
  00059	52		 push	 edx
  0005a	c7 44 24 1c 10
	00 00 00	 mov	 DWORD PTR _nSize$153406[esp+108], 16 ; 00000010H
  00062	ff 15 00 00 00
	00		 call	 DWORD PTR __imp__WSAEnumNetworkEvents@12

; 253  : 					if( ne.lNetworkEvents != FD_ACCEPT )

  00068	83 7c 24 20 08	 cmp	 DWORD PTR _ne$[esp+96], 8
  0006d	75 c1		 jne	 SHORT $L153396

; 254  : 						break;
; 255  : 
; 256  : 					if( ( hSocket	= WSAAccept( pSock->GetHandle(), &addr, &nSize, NULL, 0 ) ) == INVALID_SOCKET )

  0006f	8b 43 04	 mov	 eax, DWORD PTR [ebx+4]
  00072	6a 00		 push	 0
  00074	6a 00		 push	 0
  00076	8d 4c 24 18	 lea	 ecx, DWORD PTR _nSize$153406[esp+104]
  0007a	51		 push	 ecx
  0007b	8d 54 24 58	 lea	 edx, DWORD PTR _addr$153407[esp+108]
  0007f	52		 push	 edx
  00080	50		 push	 eax
  00081	ff 15 00 00 00
	00		 call	 DWORD PTR __imp__WSAAccept@20
  00087	8b f8		 mov	 edi, eax
  00089	83 ff ff	 cmp	 edi, -1
  0008c	74 a2		 je	 SHORT $L153396

; 257  : 					{
; 258  : 						TRACE( "Accept failed with error %d\n", WSAGetLastError() );
; 259  : 						break;
; 260  : 					}
; 261  : 					CClientSockE* pChild	= pSock->AddChild( hSocket );

  0008e	57		 push	 edi
  0008f	8b cb		 mov	 ecx, ebx
  00091	e8 00 00 00 00	 call	 ?AddChild@CServerSockE@@QAEPAVCClientSockE@@I@Z ; CServerSockE::AddChild
  00096	8b f0		 mov	 esi, eax

; 262  : 					pChild->SetID( DPID_SERVERPLAYER );

  00098	c7 46 08 01 00
	00 00		 mov	 DWORD PTR [esi+8], 1

; 263  : 					pChild->SetPeerID( hSocket );

  0009f	89 7e 0c	 mov	 DWORD PTR [esi+12], edi

; 264  : 
; 265  : 					ASSERT( pSock->m_pDPSock );
; 266  : 					pSock->m_pDPSock->CreateEventWorker( pChild );

  000a2	8b 4b 78	 mov	 ecx, DWORD PTR [ebx+120]
  000a5	56		 push	 esi
  000a6	e8 00 00 00 00	 call	 ?CreateEventWorker@CDPSock@@QAEHPAVCSock@@@Z ; CDPSock::CreateEventWorker

; 267  : 
; 268  : 					int zero	= 0;
; 269  : 					setsockopt( hSocket, SOL_SOCKET, SO_SNDBUF, (char*)&zero, sizeof(zero) );

  000ab	6a 04		 push	 4
  000ad	8d 44 24 68	 lea	 eax, DWORD PTR _zero$153415[esp+96]
  000b1	50		 push	 eax
  000b2	68 01 10 00 00	 push	 4097			; 00001001H
  000b7	68 ff ff 00 00	 push	 65535			; 0000ffffH
  000bc	57		 push	 edi
  000bd	c7 44 24 78 00
	00 00 00	 mov	 DWORD PTR _zero$153415[esp+112], 0
  000c5	ff d5		 call	 ebp

; 270  : 					setsockopt( hSocket, SOL_SOCKET, SO_RCVBUF, (char*)&zero, sizeof(zero) );

  000c7	6a 04		 push	 4
  000c9	8d 4c 24 68	 lea	 ecx, DWORD PTR _zero$153415[esp+96]
  000cd	51		 push	 ecx
  000ce	68 02 10 00 00	 push	 4098			; 00001002H
  000d3	68 ff ff 00 00	 push	 65535			; 0000ffffH
  000d8	57		 push	 edi
  000d9	ff d5		 call	 ebp

; 271  : 					InterlockedIncrement( &pChild->m_l );

  000db	8d 56 48	 lea	 edx, DWORD PTR [esi+72]
  000de	52		 push	 edx
  000df	ff 15 00 00 00
	00		 call	 DWORD PTR __imp__InterlockedIncrement@4

; 272  : 
; 273  : #ifdef __PROTOCOL0910
; 274  : 					if( pSock->m_dwcrc & CSock::crcRead )
; 275  : 						pChild->SendProtocolId();
; 276  : #endif	// __PROTOCOL0910
; 277  : 
; 278  : 					if( pChild->Recv() != 0 )

  000e5	8b ce		 mov	 ecx, esi
  000e7	e8 00 00 00 00	 call	 ?Recv@CClientSockE@@QAEHXZ ; CClientSockE::Recv
  000ec	85 c0		 test	 eax, eax
  000ee	0f 84 3c ff ff
	ff		 je	 $L153396

; 279  : 					{
; 280  : 						TRACE( "I/0 error %d\n", WSAGetLastError() );
; 281  : 						pSock->CloseChild( hSocket );

  000f4	57		 push	 edi
  000f5	8b cb		 mov	 ecx, ebx
  000f7	e8 00 00 00 00	 call	 ?CloseChild@CServerSockE@@QAEHI@Z ; CServerSockE::CloseChild

; 282  : 					}
; 283  : 					break;
; 284  : 				}
; 285  : 			case WAIT_TIMEOUT :
; 286  : 				break;
; 287  : 		}
; 288  : 	}

  000fc	e9 2f ff ff ff	 jmp	 $L153396
$L160284:

; 289  : 	return( 0 );
; 290  : }

  00101	8b 4c 24 5c	 mov	 ecx, DWORD PTR __$ArrayPad$[esp+96]
  00105	5f		 pop	 edi
  00106	5e		 pop	 esi
  00107	5d		 pop	 ebp
  00108	33 c0		 xor	 eax, eax
  0010a	5b		 pop	 ebx
  0010b	e8 00 00 00 00	 call	 @__security_check_cookie@4
  00110	83 c4 50	 add	 esp, 80			; 00000050H
  00113	c2 04 00	 ret	 4
?ListenThreadE@@YGIPAX@Z ENDP				; ListenThreadE
_TEXT	ENDS
PUBLIC	?StartServer@CServerSockE@@QAEHPAVCDPSock@@@Z	; CServerSockE::StartServer
EXTRN	__beginthreadex:NEAR
EXTRN	__imp__WSACreateEvent@0:NEAR
EXTRN	__imp__CreateEventA@16:NEAR
EXTRN	__imp__SetThreadPriority@8:NEAR
; Function compile flags: /Ogty
;	COMDAT ?StartServer@CServerSockE@@QAEHPAVCDPSock@@@Z
_TEXT	SEGMENT
_dwThreadId$ = -4					; size = 4
_pDPSock$ = 8						; size = 4
?StartServer@CServerSockE@@QAEHPAVCDPSock@@@Z PROC NEAR	; CServerSockE::StartServer, COMDAT
; _this$ = ecx

; 53   : {

  00000	51		 push	 ecx
  00001	56		 push	 esi
  00002	8b f1		 mov	 esi, ecx

; 54   : 	Close();

  00004	8b 06		 mov	 eax, DWORD PTR [esi]
  00006	ff 50 1c	 call	 DWORD PTR [eax+28]

; 55   : 	m_pDPSock	= pDPSock;

  00009	8b 4c 24 0c	 mov	 ecx, DWORD PTR _pDPSock$[esp+4]
  0000d	89 4e 78	 mov	 DWORD PTR [esi+120], ecx

; 56   : 	m_hListen	= WSACreateEvent();

  00010	ff 15 00 00 00
	00		 call	 DWORD PTR __imp__WSACreateEvent@0

; 57   : 	ASSERT( m_hListen != WSA_INVALID_EVENT );
; 58   : 	m_hClose	= CreateEvent( NULL, FALSE, FALSE, NULL );

  00016	6a 00		 push	 0
  00018	6a 00		 push	 0
  0001a	6a 00		 push	 0
  0001c	6a 00		 push	 0
  0001e	89 46 18	 mov	 DWORD PTR [esi+24], eax
  00021	ff 15 00 00 00
	00		 call	 DWORD PTR __imp__CreateEventA@16

; 59   : 	ASSERT( m_hClose );
; 60   : 	DWORD dwThreadId;
; 61   : 	m_hListenThread		= chBEGINTHREADEX( NULL, 0, ListenThreadE, this, NULL, &dwThreadId );

  00027	8d 54 24 04	 lea	 edx, DWORD PTR _dwThreadId$[esp+8]
  0002b	52		 push	 edx
  0002c	6a 00		 push	 0
  0002e	56		 push	 esi
  0002f	68 00 00 00 00	 push	 OFFSET FLAT:?ListenThreadE@@YGIPAX@Z ; ListenThreadE
  00034	6a 00		 push	 0
  00036	6a 00		 push	 0
  00038	89 46 14	 mov	 DWORD PTR [esi+20], eax
  0003b	e8 00 00 00 00	 call	 __beginthreadex
  00040	83 c4 18	 add	 esp, 24			; 00000018H

; 62   : 	ASSERT( m_hListenThread );
; 63   : 	SetThreadPriority( m_hListenThread, THREAD_PRIORITY_BELOW_NORMAL );

  00043	6a ff		 push	 -1
  00045	50		 push	 eax
  00046	89 46 10	 mov	 DWORD PTR [esi+16], eax
  00049	ff 15 00 00 00
	00		 call	 DWORD PTR __imp__SetThreadPriority@8

; 64   : 	return TRUE;

  0004f	b8 01 00 00 00	 mov	 eax, 1
  00054	5e		 pop	 esi

; 65   : }

  00055	59		 pop	 ecx
  00056	c2 04 00	 ret	 4
?StartServer@CServerSockE@@QAEHPAVCDPSock@@@Z ENDP	; CServerSockE::StartServer
_TEXT	ENDS
EXTRN	__imp__WaitForSingleObject@8:NEAR
EXTRN	__imp__CloseHandle@4:NEAR
EXTRN	__imp__WSACloseEvent@4:NEAR
EXTRN	__imp__SetEvent@4:NEAR
; Function compile flags: /Ogty
;	COMDAT ?Close@CServerSockE@@UAEXXZ
_TEXT	SEGMENT
?Close@CServerSockE@@UAEXXZ PROC NEAR			; CServerSockE::Close, COMDAT
; _this$ = ecx

; 68   : {

  00000	56		 push	 esi
  00001	8b f1		 mov	 esi, ecx

; 69   : 	CLOSE_WSAEVENT( m_hListen );

  00003	8b 46 18	 mov	 eax, DWORD PTR [esi+24]
  00006	85 c0		 test	 eax, eax
  00008	74 0e		 je	 SHORT $L153274
  0000a	50		 push	 eax
  0000b	ff 15 00 00 00
	00		 call	 DWORD PTR __imp__WSACloseEvent@4
  00011	c7 46 18 00 00
	00 00		 mov	 DWORD PTR [esi+24], 0
$L153274:

; 70   : 	CLOSE_THREAD( m_hListenThread, m_hClose );

  00018	8b 46 10	 mov	 eax, DWORD PTR [esi+16]
  0001b	85 c0		 test	 eax, eax
  0001d	74 38		 je	 SHORT $L153276
  0001f	8b 46 14	 mov	 eax, DWORD PTR [esi+20]
  00022	57		 push	 edi
  00023	50		 push	 eax
  00024	ff 15 00 00 00
	00		 call	 DWORD PTR __imp__SetEvent@4
  0002a	8b 4e 10	 mov	 ecx, DWORD PTR [esi+16]
  0002d	6a ff		 push	 -1
  0002f	51		 push	 ecx
  00030	ff 15 00 00 00
	00		 call	 DWORD PTR __imp__WaitForSingleObject@8
  00036	8b 56 10	 mov	 edx, DWORD PTR [esi+16]
  00039	8b 3d 00 00 00
	00		 mov	 edi, DWORD PTR __imp__CloseHandle@4
  0003f	52		 push	 edx
  00040	ff d7		 call	 edi
  00042	8b 46 14	 mov	 eax, DWORD PTR [esi+20]
  00045	50		 push	 eax
  00046	ff d7		 call	 edi
  00048	c7 46 14 00 00
	00 00		 mov	 DWORD PTR [esi+20], 0
  0004f	c7 46 10 00 00
	00 00		 mov	 DWORD PTR [esi+16], 0
  00056	5f		 pop	 edi
$L153276:

; 71   : 	CloseAllChild();

  00057	8b ce		 mov	 ecx, esi
  00059	5e		 pop	 esi
  0005a	e9 00 00 00 00	 jmp	 ?CloseAllChild@CServerSockE@@QAEXXZ ; CServerSockE::CloseAllChild
?Close@CServerSockE@@UAEXXZ ENDP			; CServerSockE::Close
_TEXT	ENDS
END
